GAS LISTING /tmp/ccyg5Kaz.s 			page 1


   1              		.file	"BoundedBuffer.cpp"
   2              		.option pic
   3              		.option norelax
   4              		.text
   5              	.Ltext0:
   6              		.align	2
   7              		.globl	_ZN13BoundedBufferC2Ev
   9              	_ZN13BoundedBufferC2Ev:
  10              	.LFB35:
  11              		.file 1 "src/BoundedBuffer.cpp"
   1:src/BoundedBuffer.cpp **** #include "../h/BoundedBuffer.hpp"
   2:src/BoundedBuffer.cpp **** 
   3:src/BoundedBuffer.cpp **** BoundedBuffer::BoundedBuffer() {
  12              		.loc 1 3 1
  13              		.cfi_startproc
  14              	.LVL0:
  15 0000 130101FE 		addi	sp,sp,-32
  16              		.cfi_def_cfa_offset 32
  17 0004 233C1100 		sd	ra,24(sp)
  18 0008 23388100 		sd	s0,16(sp)
  19 000c 23349100 		sd	s1,8(sp)
  20              		.cfi_offset 1, -8
  21              		.cfi_offset 8, -16
  22              		.cfi_offset 9, -24
  23 0010 13040102 		addi	s0,sp,32
  24              		.cfi_def_cfa 8, 0
  25 0014 93040500 		mv	s1,a0
  26              	.LBB2:
   4:src/BoundedBuffer.cpp ****     head = tail = 0;
  27              		.loc 1 4 5
  28              		.loc 1 4 17 is_stmt 0
  29 0018 23220500 		sw	zero,4(a0)
  30              		.loc 1 4 10
  31 001c 23200500 		sw	zero,0(a0)
   5:src/BoundedBuffer.cpp ****     Sem::open(&space_available, bufferSize);
  32              		.loc 1 5 5 is_stmt 1
  33              		.loc 1 5 14 is_stmt 0
  34 0020 93054006 		li	a1,100
  35 0024 13058500 		addi	a0,a0,8
  36              	.LVL1:
  37 0028 97000000 		call	_ZN3Sem4openEPPS_j@plt
  37      E7800000 
  38              	.LVL2:
   6:src/BoundedBuffer.cpp ****     Sem::open(&item_available, 0);
  39              		.loc 1 6 5 is_stmt 1
  40              		.loc 1 6 14 is_stmt 0
  41 0030 93050000 		li	a1,0
  42 0034 13850401 		addi	a0,s1,16
  43 0038 97000000 		call	_ZN3Sem4openEPPS_j@plt
  43      E7800000 
  44              	.LVL3:
  45              	.LBE2:
   7:src/BoundedBuffer.cpp **** }
  46              		.loc 1 7 1
  47 0040 83308101 		ld	ra,24(sp)
  48              		.cfi_restore 1
  49 0044 03340101 		ld	s0,16(sp)
GAS LISTING /tmp/ccyg5Kaz.s 			page 2


  50              		.cfi_restore 8
  51              		.cfi_def_cfa 2, 32
  52 0048 83348100 		ld	s1,8(sp)
  53              		.cfi_restore 9
  54              	.LVL4:
  55 004c 13010102 		addi	sp,sp,32
  56              		.cfi_def_cfa_offset 0
  57 0050 67800000 		jr	ra
  58              		.cfi_endproc
  59              	.LFE35:
  61              		.globl	_ZN13BoundedBufferC1Ev
  62              		.set	_ZN13BoundedBufferC1Ev,_ZN13BoundedBufferC2Ev
  63              		.align	2
  64              		.globl	_ZN13BoundedBufferD2Ev
  66              	_ZN13BoundedBufferD2Ev:
  67              	.LFB38:
   8:src/BoundedBuffer.cpp **** 
   9:src/BoundedBuffer.cpp **** BoundedBuffer::~BoundedBuffer() {
  68              		.loc 1 9 1 is_stmt 1
  69              		.cfi_startproc
  70              		.cfi_personality 0x9b,DW.ref.__gxx_personality_v0
  71              		.cfi_lsda 0x1b,.LLSDA38
  72              	.LVL5:
  73 0054 130101FE 		addi	sp,sp,-32
  74              		.cfi_def_cfa_offset 32
  75 0058 233C1100 		sd	ra,24(sp)
  76 005c 23388100 		sd	s0,16(sp)
  77 0060 23349100 		sd	s1,8(sp)
  78              		.cfi_offset 1, -8
  79              		.cfi_offset 8, -16
  80              		.cfi_offset 9, -24
  81 0064 13040102 		addi	s0,sp,32
  82              		.cfi_def_cfa 8, 0
  83 0068 93040500 		mv	s1,a0
  84              	.LBB3:
  10:src/BoundedBuffer.cpp ****     Sem::s_close(space_available);
  85              		.loc 1 10 5
  86              		.loc 1 10 17 is_stmt 0
  87 006c 03358500 		ld	a0,8(a0)
  88              	.LVL6:
  89 0070 97000000 		call	_ZN3Sem7s_closeEPS_@plt
  89      E7800000 
  90              	.LVL7:
  11:src/BoundedBuffer.cpp ****     Sem::s_close(item_available);
  91              		.loc 1 11 5 is_stmt 1
  92              		.loc 1 11 17 is_stmt 0
  93 0078 03B50401 		ld	a0,16(s1)
  94 007c 97000000 		call	_ZN3Sem7s_closeEPS_@plt
  94      E7800000 
  95              	.LVL8:
  96              	.LBE3:
  12:src/BoundedBuffer.cpp **** }
  97              		.loc 1 12 1
  98 0084 83308101 		ld	ra,24(sp)
  99              		.cfi_restore 1
 100 0088 03340101 		ld	s0,16(sp)
 101              		.cfi_restore 8
GAS LISTING /tmp/ccyg5Kaz.s 			page 3


 102              		.cfi_def_cfa 2, 32
 103 008c 83348100 		ld	s1,8(sp)
 104              		.cfi_restore 9
 105              	.LVL9:
 106 0090 13010102 		addi	sp,sp,32
 107              		.cfi_def_cfa_offset 0
 108 0094 67800000 		jr	ra
 109              		.cfi_endproc
 110              	.LFE38:
 111              		.globl	__gxx_personality_v0
 112              		.section	.gcc_except_table,"a",@progbits
 113              	.LLSDA38:
 114 0000 FF       		.byte	0xff
 115 0001 FF       		.byte	0xff
 116 0002 03       		.byte	0x3
 117 0003 00       		.byte	0
 118              		.text
 120              		.globl	_ZN13BoundedBufferD1Ev
 121              		.set	_ZN13BoundedBufferD1Ev,_ZN13BoundedBufferD2Ev
 122              		.align	2
 123              		.globl	_ZN13BoundedBuffer3putEc
 125              	_ZN13BoundedBuffer3putEc:
 126              	.LFB40:
  13:src/BoundedBuffer.cpp **** 
  14:src/BoundedBuffer.cpp **** void BoundedBuffer::put(char c) {
 127              		.loc 1 14 33 is_stmt 1
 128              		.cfi_startproc
 129              	.LVL10:
 130 0098 130101FE 		addi	sp,sp,-32
 131              		.cfi_def_cfa_offset 32
 132 009c 233C1100 		sd	ra,24(sp)
 133 00a0 23388100 		sd	s0,16(sp)
 134 00a4 23349100 		sd	s1,8(sp)
 135 00a8 23302101 		sd	s2,0(sp)
 136              		.cfi_offset 1, -8
 137              		.cfi_offset 8, -16
 138              		.cfi_offset 9, -24
 139              		.cfi_offset 18, -32
 140 00ac 13040102 		addi	s0,sp,32
 141              		.cfi_def_cfa 8, 0
 142 00b0 93040500 		mv	s1,a0
 143 00b4 13890500 		mv	s2,a1
  15:src/BoundedBuffer.cpp ****     Sem::wait(space_available);
 144              		.loc 1 15 5
 145              		.loc 1 15 14 is_stmt 0
 146 00b8 03358500 		ld	a0,8(a0)
 147              	.LVL11:
 148 00bc 97000000 		call	_ZN3Sem4waitEPS_@plt
 148      E7800000 
 149              	.LVL12:
  16:src/BoundedBuffer.cpp ****     buffer[tail++] = c;
 150              		.loc 1 16 5 is_stmt 1
 151              		.loc 1 16 12 is_stmt 0
 152 00c4 83A74400 		lw	a5,4(s1)
 153              		.loc 1 16 16
 154 00c8 1B871700 		addiw	a4,a5,1
 155              		.loc 1 16 20
GAS LISTING /tmp/ccyg5Kaz.s 			page 4


 156 00cc B387F400 		add	a5,s1,a5
 157 00d0 238C2701 		sb	s2,24(a5)
  17:src/BoundedBuffer.cpp ****     tail %= bufferSize;
 158              		.loc 1 17 5 is_stmt 1
 159              		.loc 1 17 10 is_stmt 0
 160 00d4 93074006 		li	a5,100
 161 00d8 BB67F702 		remw	a5,a4,a5
 162 00dc 23A2F400 		sw	a5,4(s1)
  18:src/BoundedBuffer.cpp ****     Sem::signal(item_available);
 163              		.loc 1 18 5 is_stmt 1
 164              		.loc 1 18 16 is_stmt 0
 165 00e0 03B50401 		ld	a0,16(s1)
 166 00e4 97000000 		call	_ZN3Sem6signalEPS_@plt
 166      E7800000 
 167              	.LVL13:
  19:src/BoundedBuffer.cpp **** }
 168              		.loc 1 19 1
 169 00ec 83308101 		ld	ra,24(sp)
 170              		.cfi_restore 1
 171 00f0 03340101 		ld	s0,16(sp)
 172              		.cfi_restore 8
 173              		.cfi_def_cfa 2, 32
 174 00f4 83348100 		ld	s1,8(sp)
 175              		.cfi_restore 9
 176              	.LVL14:
 177 00f8 03390100 		ld	s2,0(sp)
 178              		.cfi_restore 18
 179 00fc 13010102 		addi	sp,sp,32
 180              		.cfi_def_cfa_offset 0
 181 0100 67800000 		jr	ra
 182              		.cfi_endproc
 183              	.LFE40:
 185              		.align	2
 186              		.globl	_ZN13BoundedBuffer3getEv
 188              	_ZN13BoundedBuffer3getEv:
 189              	.LFB41:
  20:src/BoundedBuffer.cpp **** 
  21:src/BoundedBuffer.cpp **** char BoundedBuffer::get() {
 190              		.loc 1 21 27 is_stmt 1
 191              		.cfi_startproc
 192              	.LVL15:
 193 0104 130101FE 		addi	sp,sp,-32
 194              		.cfi_def_cfa_offset 32
 195 0108 233C1100 		sd	ra,24(sp)
 196 010c 23388100 		sd	s0,16(sp)
 197 0110 23349100 		sd	s1,8(sp)
 198 0114 23302101 		sd	s2,0(sp)
 199              		.cfi_offset 1, -8
 200              		.cfi_offset 8, -16
 201              		.cfi_offset 9, -24
 202              		.cfi_offset 18, -32
 203 0118 13040102 		addi	s0,sp,32
 204              		.cfi_def_cfa 8, 0
 205 011c 93040500 		mv	s1,a0
  22:src/BoundedBuffer.cpp ****     Sem::wait(item_available);
 206              		.loc 1 22 5
 207              		.loc 1 22 14 is_stmt 0
GAS LISTING /tmp/ccyg5Kaz.s 			page 5


 208 0120 03350501 		ld	a0,16(a0)
 209              	.LVL16:
 210 0124 97000000 		call	_ZN3Sem4waitEPS_@plt
 210      E7800000 
 211              	.LVL17:
  23:src/BoundedBuffer.cpp ****     char  c = buffer[head++];
 212              		.loc 1 23 5 is_stmt 1
 213              		.loc 1 23 22 is_stmt 0
 214 012c 83A70400 		lw	a5,0(s1)
 215              		.loc 1 23 26
 216 0130 1B871700 		addiw	a4,a5,1
 217              		.loc 1 23 28
 218 0134 B387F400 		add	a5,s1,a5
 219 0138 03C98701 		lbu	s2,24(a5)
 220              	.LVL18:
  24:src/BoundedBuffer.cpp ****     head %= bufferSize;
 221              		.loc 1 24 5 is_stmt 1
 222              		.loc 1 24 10 is_stmt 0
 223 013c 93074006 		li	a5,100
 224 0140 BB67F702 		remw	a5,a4,a5
 225 0144 23A0F400 		sw	a5,0(s1)
  25:src/BoundedBuffer.cpp ****     Sem::signal(space_available);
 226              		.loc 1 25 5 is_stmt 1
 227              		.loc 1 25 16 is_stmt 0
 228 0148 03B58400 		ld	a0,8(s1)
 229 014c 97000000 		call	_ZN3Sem6signalEPS_@plt
 229      E7800000 
 230              	.LVL19:
  26:src/BoundedBuffer.cpp ****     return c;
 231              		.loc 1 26 5 is_stmt 1
  27:src/BoundedBuffer.cpp **** }
 232              		.loc 1 27 1 is_stmt 0
 233 0154 13050900 		mv	a0,s2
 234 0158 83308101 		ld	ra,24(sp)
 235              		.cfi_restore 1
 236 015c 03340101 		ld	s0,16(sp)
 237              		.cfi_restore 8
 238              		.cfi_def_cfa 2, 32
 239 0160 83348100 		ld	s1,8(sp)
 240              		.cfi_restore 9
 241              	.LVL20:
 242 0164 03390100 		ld	s2,0(sp)
 243              		.cfi_restore 18
 244              	.LVL21:
 245 0168 13010102 		addi	sp,sp,32
 246              		.cfi_def_cfa_offset 0
 247 016c 67800000 		jr	ra
 248              		.cfi_endproc
 249              	.LFE41:
 251              		.align	2
 252              		.globl	_ZN13BoundedBuffernwEm
 254              	_ZN13BoundedBuffernwEm:
 255              	.LFB42:
  28:src/BoundedBuffer.cpp **** 
  29:src/BoundedBuffer.cpp **** void *BoundedBuffer::operator new(size_t size) {
 256              		.loc 1 29 48 is_stmt 1
 257              		.cfi_startproc
GAS LISTING /tmp/ccyg5Kaz.s 			page 6


 258              	.LVL22:
 259 0170 130101FF 		addi	sp,sp,-16
 260              		.cfi_def_cfa_offset 16
 261 0174 23341100 		sd	ra,8(sp)
 262 0178 23308100 		sd	s0,0(sp)
 263              		.cfi_offset 1, -8
 264              		.cfi_offset 8, -16
 265 017c 13040101 		addi	s0,sp,16
 266              		.cfi_def_cfa 8, 0
  30:src/BoundedBuffer.cpp ****     return MemoryAllocator::mem_alloc( (size + mem_h_size + MEM_BLOCK_SIZE - 1) / MEM_BLOCK_SIZE );
 267              		.loc 1 30 5
 268              		.loc 1 30 76 is_stmt 0
 269 0180 13057505 		addi	a0,a0,87
 270              	.LVL23:
 271              		.loc 1 30 38
 272 0184 13556500 		srli	a0,a0,6
 273              	.LVL24:
 274 0188 97000000 		call	_ZN15MemoryAllocator9mem_allocEm@plt
 274      E7800000 
 275              	.LVL25:
  31:src/BoundedBuffer.cpp **** }
 276              		.loc 1 31 1
 277 0190 83308100 		ld	ra,8(sp)
 278              		.cfi_restore 1
 279 0194 03340100 		ld	s0,0(sp)
 280              		.cfi_restore 8
 281              		.cfi_def_cfa 2, 16
 282 0198 13010101 		addi	sp,sp,16
 283              		.cfi_def_cfa_offset 0
 284 019c 67800000 		jr	ra
 285              		.cfi_endproc
 286              	.LFE42:
 288              		.align	2
 289              		.globl	_ZN13BoundedBufferdlEPv
 291              	_ZN13BoundedBufferdlEPv:
 292              	.LFB43:
  32:src/BoundedBuffer.cpp **** 
  33:src/BoundedBuffer.cpp **** void BoundedBuffer::operator delete(void *addr) {
 293              		.loc 1 33 49 is_stmt 1
 294              		.cfi_startproc
 295              	.LVL26:
 296 01a0 130101FF 		addi	sp,sp,-16
 297              		.cfi_def_cfa_offset 16
 298 01a4 23341100 		sd	ra,8(sp)
 299 01a8 23308100 		sd	s0,0(sp)
 300              		.cfi_offset 1, -8
 301              		.cfi_offset 8, -16
 302 01ac 13040101 		addi	s0,sp,16
 303              		.cfi_def_cfa 8, 0
  34:src/BoundedBuffer.cpp ****     MemoryAllocator::mem_free(addr);
 304              		.loc 1 34 5
 305              		.loc 1 34 30 is_stmt 0
 306 01b0 97000000 		call	_ZN15MemoryAllocator8mem_freeEPKv@plt
 306      E7800000 
 307              	.LVL27:
  35:src/BoundedBuffer.cpp **** }
 308              		.loc 1 35 1
GAS LISTING /tmp/ccyg5Kaz.s 			page 7


 309 01b8 83308100 		ld	ra,8(sp)
 310              		.cfi_restore 1
 311 01bc 03340100 		ld	s0,0(sp)
 312              		.cfi_restore 8
 313              		.cfi_def_cfa 2, 16
 314 01c0 13010101 		addi	sp,sp,16
 315              		.cfi_def_cfa_offset 0
 316 01c4 67800000 		jr	ra
 317              		.cfi_endproc
 318              	.LFE43:
 320              	.Letext0:
 321              		.file 2 "src/../h/../lib/hw.h"
 322              		.file 3 "src/../h/../h/Memoryallocator.hpp"
 323              		.file 4 "src/../h/thread.hpp"
 324              		.file 5 "src/../h/List.hpp"
 325              		.file 6 "src/../h/semaphore.hpp"
 326              		.file 7 "src/../h/BoundedBuffer.hpp"
 3161              		.align	3
 3164              	DW.ref.__gxx_personality_v0:
 3165 0000 00000000 		.dword	__gxx_personality_v0
 3165      00000000 
 3166              		.ident	"GCC: (Ubuntu 9.4.0-1ubuntu1~20.04) 9.4.0"
 3167              		.section	.note.GNU-stack,"",@progbits
GAS LISTING /tmp/ccyg5Kaz.s 			page 8


DEFINED SYMBOLS
                            *ABS*:0000000000000000 BoundedBuffer.cpp
     /tmp/ccyg5Kaz.s:9      .text:0000000000000000 _ZN13BoundedBufferC2Ev
     /tmp/ccyg5Kaz.s:13     .text:0000000000000000 .L0 
     /tmp/ccyg5Kaz.s:15     .text:0000000000000000 .L0 
     /tmp/ccyg5Kaz.s:16     .text:0000000000000004 .L0 
     /tmp/ccyg5Kaz.s:20     .text:0000000000000010 .L0 
     /tmp/ccyg5Kaz.s:21     .text:0000000000000010 .L0 
     /tmp/ccyg5Kaz.s:22     .text:0000000000000010 .L0 
     /tmp/ccyg5Kaz.s:24     .text:0000000000000014 .L0 
     /tmp/ccyg5Kaz.s:28     .text:0000000000000018 .L0 
     /tmp/ccyg5Kaz.s:29     .text:0000000000000018 .L0 
     /tmp/ccyg5Kaz.s:31     .text:000000000000001c .L0 
     /tmp/ccyg5Kaz.s:33     .text:0000000000000020 .L0 
     /tmp/ccyg5Kaz.s:34     .text:0000000000000020 .L0 
     /tmp/ccyg5Kaz.s:40     .text:0000000000000030 .L0 
     /tmp/ccyg5Kaz.s:41     .text:0000000000000030 .L0 
     /tmp/ccyg5Kaz.s:47     .text:0000000000000040 .L0 
     /tmp/ccyg5Kaz.s:48     .text:0000000000000044 .L0 
     /tmp/ccyg5Kaz.s:50     .text:0000000000000048 .L0 
     /tmp/ccyg5Kaz.s:51     .text:0000000000000048 .L0 
     /tmp/ccyg5Kaz.s:53     .text:000000000000004c .L0 
     /tmp/ccyg5Kaz.s:56     .text:0000000000000050 .L0 
     /tmp/ccyg5Kaz.s:58     .text:0000000000000054 .L0 
     /tmp/ccyg5Kaz.s:9      .text:0000000000000000 _ZN13BoundedBufferC1Ev
     /tmp/ccyg5Kaz.s:66     .text:0000000000000054 _ZN13BoundedBufferD2Ev
     /tmp/ccyg5Kaz.s:69     .text:0000000000000054 .L0 
     /tmp/ccyg5Kaz.s:3164   .data.rel.local.DW.ref.__gxx_personality_v0:0000000000000000 DW.ref.__gxx_personality_v0
     /tmp/ccyg5Kaz.s:73     .text:0000000000000054 .L0 
     /tmp/ccyg5Kaz.s:74     .text:0000000000000058 .L0 
     /tmp/ccyg5Kaz.s:78     .text:0000000000000064 .L0 
     /tmp/ccyg5Kaz.s:79     .text:0000000000000064 .L0 
     /tmp/ccyg5Kaz.s:80     .text:0000000000000064 .L0 
     /tmp/ccyg5Kaz.s:82     .text:0000000000000068 .L0 
     /tmp/ccyg5Kaz.s:86     .text:000000000000006c .L0 
     /tmp/ccyg5Kaz.s:87     .text:000000000000006c .L0 
     /tmp/ccyg5Kaz.s:92     .text:0000000000000078 .L0 
     /tmp/ccyg5Kaz.s:93     .text:0000000000000078 .L0 
     /tmp/ccyg5Kaz.s:98     .text:0000000000000084 .L0 
     /tmp/ccyg5Kaz.s:99     .text:0000000000000088 .L0 
     /tmp/ccyg5Kaz.s:101    .text:000000000000008c .L0 
     /tmp/ccyg5Kaz.s:102    .text:000000000000008c .L0 
     /tmp/ccyg5Kaz.s:104    .text:0000000000000090 .L0 
     /tmp/ccyg5Kaz.s:107    .text:0000000000000094 .L0 
     /tmp/ccyg5Kaz.s:109    .text:0000000000000098 .L0 
     /tmp/ccyg5Kaz.s:66     .text:0000000000000054 _ZN13BoundedBufferD1Ev
     /tmp/ccyg5Kaz.s:125    .text:0000000000000098 _ZN13BoundedBuffer3putEc
     /tmp/ccyg5Kaz.s:128    .text:0000000000000098 .L0 
     /tmp/ccyg5Kaz.s:130    .text:0000000000000098 .L0 
     /tmp/ccyg5Kaz.s:131    .text:000000000000009c .L0 
     /tmp/ccyg5Kaz.s:136    .text:00000000000000ac .L0 
     /tmp/ccyg5Kaz.s:137    .text:00000000000000ac .L0 
     /tmp/ccyg5Kaz.s:138    .text:00000000000000ac .L0 
     /tmp/ccyg5Kaz.s:139    .text:00000000000000ac .L0 
     /tmp/ccyg5Kaz.s:141    .text:00000000000000b0 .L0 
     /tmp/ccyg5Kaz.s:145    .text:00000000000000b8 .L0 
     /tmp/ccyg5Kaz.s:146    .text:00000000000000b8 .L0 
GAS LISTING /tmp/ccyg5Kaz.s 			page 9


     /tmp/ccyg5Kaz.s:151    .text:00000000000000c4 .L0 
     /tmp/ccyg5Kaz.s:152    .text:00000000000000c4 .L0 
     /tmp/ccyg5Kaz.s:154    .text:00000000000000c8 .L0 
     /tmp/ccyg5Kaz.s:156    .text:00000000000000cc .L0 
     /tmp/ccyg5Kaz.s:159    .text:00000000000000d4 .L0 
     /tmp/ccyg5Kaz.s:160    .text:00000000000000d4 .L0 
     /tmp/ccyg5Kaz.s:164    .text:00000000000000e0 .L0 
     /tmp/ccyg5Kaz.s:165    .text:00000000000000e0 .L0 
     /tmp/ccyg5Kaz.s:169    .text:00000000000000ec .L0 
     /tmp/ccyg5Kaz.s:170    .text:00000000000000f0 .L0 
     /tmp/ccyg5Kaz.s:172    .text:00000000000000f4 .L0 
     /tmp/ccyg5Kaz.s:173    .text:00000000000000f4 .L0 
     /tmp/ccyg5Kaz.s:175    .text:00000000000000f8 .L0 
     /tmp/ccyg5Kaz.s:178    .text:00000000000000fc .L0 
     /tmp/ccyg5Kaz.s:180    .text:0000000000000100 .L0 
     /tmp/ccyg5Kaz.s:182    .text:0000000000000104 .L0 
     /tmp/ccyg5Kaz.s:188    .text:0000000000000104 _ZN13BoundedBuffer3getEv
     /tmp/ccyg5Kaz.s:191    .text:0000000000000104 .L0 
     /tmp/ccyg5Kaz.s:193    .text:0000000000000104 .L0 
     /tmp/ccyg5Kaz.s:194    .text:0000000000000108 .L0 
     /tmp/ccyg5Kaz.s:199    .text:0000000000000118 .L0 
     /tmp/ccyg5Kaz.s:200    .text:0000000000000118 .L0 
     /tmp/ccyg5Kaz.s:201    .text:0000000000000118 .L0 
     /tmp/ccyg5Kaz.s:202    .text:0000000000000118 .L0 
     /tmp/ccyg5Kaz.s:204    .text:000000000000011c .L0 
     /tmp/ccyg5Kaz.s:207    .text:0000000000000120 .L0 
     /tmp/ccyg5Kaz.s:208    .text:0000000000000120 .L0 
     /tmp/ccyg5Kaz.s:213    .text:000000000000012c .L0 
     /tmp/ccyg5Kaz.s:214    .text:000000000000012c .L0 
     /tmp/ccyg5Kaz.s:216    .text:0000000000000130 .L0 
     /tmp/ccyg5Kaz.s:218    .text:0000000000000134 .L0 
     /tmp/ccyg5Kaz.s:222    .text:000000000000013c .L0 
     /tmp/ccyg5Kaz.s:223    .text:000000000000013c .L0 
     /tmp/ccyg5Kaz.s:227    .text:0000000000000148 .L0 
     /tmp/ccyg5Kaz.s:228    .text:0000000000000148 .L0 
     /tmp/ccyg5Kaz.s:232    .text:0000000000000154 .L0 
     /tmp/ccyg5Kaz.s:233    .text:0000000000000154 .L0 
     /tmp/ccyg5Kaz.s:235    .text:000000000000015c .L0 
     /tmp/ccyg5Kaz.s:237    .text:0000000000000160 .L0 
     /tmp/ccyg5Kaz.s:238    .text:0000000000000160 .L0 
     /tmp/ccyg5Kaz.s:240    .text:0000000000000164 .L0 
     /tmp/ccyg5Kaz.s:243    .text:0000000000000168 .L0 
     /tmp/ccyg5Kaz.s:246    .text:000000000000016c .L0 
     /tmp/ccyg5Kaz.s:248    .text:0000000000000170 .L0 
     /tmp/ccyg5Kaz.s:254    .text:0000000000000170 _ZN13BoundedBuffernwEm
     /tmp/ccyg5Kaz.s:257    .text:0000000000000170 .L0 
     /tmp/ccyg5Kaz.s:259    .text:0000000000000170 .L0 
     /tmp/ccyg5Kaz.s:260    .text:0000000000000174 .L0 
     /tmp/ccyg5Kaz.s:263    .text:000000000000017c .L0 
     /tmp/ccyg5Kaz.s:264    .text:000000000000017c .L0 
     /tmp/ccyg5Kaz.s:266    .text:0000000000000180 .L0 
     /tmp/ccyg5Kaz.s:268    .text:0000000000000180 .L0 
     /tmp/ccyg5Kaz.s:269    .text:0000000000000180 .L0 
     /tmp/ccyg5Kaz.s:272    .text:0000000000000184 .L0 
     /tmp/ccyg5Kaz.s:277    .text:0000000000000190 .L0 
     /tmp/ccyg5Kaz.s:278    .text:0000000000000194 .L0 
     /tmp/ccyg5Kaz.s:280    .text:0000000000000198 .L0 
GAS LISTING /tmp/ccyg5Kaz.s 			page 10


     /tmp/ccyg5Kaz.s:281    .text:0000000000000198 .L0 
     /tmp/ccyg5Kaz.s:283    .text:000000000000019c .L0 
     /tmp/ccyg5Kaz.s:285    .text:00000000000001a0 .L0 
     /tmp/ccyg5Kaz.s:291    .text:00000000000001a0 _ZN13BoundedBufferdlEPv
     /tmp/ccyg5Kaz.s:294    .text:00000000000001a0 .L0 
     /tmp/ccyg5Kaz.s:296    .text:00000000000001a0 .L0 
     /tmp/ccyg5Kaz.s:297    .text:00000000000001a4 .L0 
     /tmp/ccyg5Kaz.s:300    .text:00000000000001ac .L0 
     /tmp/ccyg5Kaz.s:301    .text:00000000000001ac .L0 
     /tmp/ccyg5Kaz.s:303    .text:00000000000001b0 .L0 
     /tmp/ccyg5Kaz.s:305    .text:00000000000001b0 .L0 
     /tmp/ccyg5Kaz.s:306    .text:00000000000001b0 .L0 
     /tmp/ccyg5Kaz.s:309    .text:00000000000001b8 .L0 
     /tmp/ccyg5Kaz.s:310    .text:00000000000001bc .L0 
     /tmp/ccyg5Kaz.s:312    .text:00000000000001c0 .L0 
     /tmp/ccyg5Kaz.s:313    .text:00000000000001c0 .L0 
     /tmp/ccyg5Kaz.s:315    .text:00000000000001c4 .L0 
     /tmp/ccyg5Kaz.s:317    .text:00000000000001c8 .L0 
     /tmp/ccyg5Kaz.s:327    .text:00000000000001c8 .L0 
     /tmp/ccyg5Kaz.s:1642   .debug_abbrev:0000000000000000 .Ldebug_abbrev0
     /tmp/ccyg5Kaz.s:3108   .debug_str:0000000000000709 .LASF138
     /tmp/ccyg5Kaz.s:3064   .debug_str:00000000000005d0 .LASF139
     /tmp/ccyg5Kaz.s:2950   .debug_str:000000000000029d .LASF140
     /tmp/ccyg5Kaz.s:5      .text:0000000000000000 .Ltext0
     /tmp/ccyg5Kaz.s:320    .text:00000000000001c8 .Letext0
     /tmp/ccyg5Kaz.s:2858   .debug_line:0000000000000000 .Ldebug_line0
     /tmp/ccyg5Kaz.s:2962   .debug_str:00000000000002f9 .LASF0
     /tmp/ccyg5Kaz.s:2986   .debug_str:0000000000000382 .LASF1
     /tmp/ccyg5Kaz.s:3052   .debug_str:0000000000000553 .LASF2
     /tmp/ccyg5Kaz.s:3062   .debug_str:00000000000005c9 .LASF4
     /tmp/ccyg5Kaz.s:2970   .debug_str:0000000000000331 .LASF3
     /tmp/ccyg5Kaz.s:2868   .debug_str:0000000000000044 .LASF5
     /tmp/ccyg5Kaz.s:3034   .debug_str:00000000000004de .LASF6
     /tmp/ccyg5Kaz.s:3030   .debug_str:00000000000004b2 .LASF7
     /tmp/ccyg5Kaz.s:2976   .debug_str:0000000000000357 .LASF8
     /tmp/ccyg5Kaz.s:2946   .debug_str:0000000000000281 .LASF9
     /tmp/ccyg5Kaz.s:2954   .debug_str:00000000000002c7 .LASF10
     /tmp/ccyg5Kaz.s:2904   .debug_str:000000000000015a .LASF11
     /tmp/ccyg5Kaz.s:2938   .debug_str:0000000000000247 .LASF12
     /tmp/ccyg5Kaz.s:2916   .debug_str:00000000000001a0 .LASF13
     /tmp/ccyg5Kaz.s:2902   .debug_str:000000000000014a .LASF14
     /tmp/ccyg5Kaz.s:3086   .debug_str:0000000000000686 .LASF15
     /tmp/ccyg5Kaz.s:2932   .debug_str:00000000000001f9 .LASF16
     /tmp/ccyg5Kaz.s:3076   .debug_str:0000000000000636 .LASF17
     /tmp/ccyg5Kaz.s:3026   .debug_str:000000000000047d .LASF21
     /tmp/ccyg5Kaz.s:2900   .debug_str:000000000000013e .LASF37
     /tmp/ccyg5Kaz.s:2906   .debug_str:0000000000000169 .LASF18
     /tmp/ccyg5Kaz.s:2882   .debug_str:00000000000000cb .LASF19
     /tmp/ccyg5Kaz.s:2984   .debug_str:000000000000037d .LASF20
     /tmp/ccyg5Kaz.s:2880   .debug_str:00000000000000b2 .LASF22
     /tmp/ccyg5Kaz.s:3074   .debug_str:000000000000061b .LASF23
     /tmp/ccyg5Kaz.s:3138   .debug_str:000000000000088d .LASF55
     /tmp/ccyg5Kaz.s:3146   .debug_str:00000000000008b2 .LASF57
     /tmp/ccyg5Kaz.s:3102   .debug_str:00000000000006e8 .LASF24
     /tmp/ccyg5Kaz.s:2878   .debug_str:00000000000000a4 .LASF25
     /tmp/ccyg5Kaz.s:2968   .debug_str:0000000000000327 .LASF47
     /tmp/ccyg5Kaz.s:3060   .debug_str:0000000000000597 .LASF49
GAS LISTING /tmp/ccyg5Kaz.s 			page 11


     /tmp/ccyg5Kaz.s:3128   .debug_str:000000000000084a .LASF41
     /tmp/ccyg5Kaz.s:3006   .debug_str:000000000000040d .LASF61
     /tmp/ccyg5Kaz.s:3028   .debug_str:000000000000048d .LASF63
     /tmp/ccyg5Kaz.s:3008   .debug_str:000000000000041a .LASF26
     /tmp/ccyg5Kaz.s:2870   .debug_str:000000000000004b .LASF27
     /tmp/ccyg5Kaz.s:3096   .debug_str:00000000000006cf .LASF28
     /tmp/ccyg5Kaz.s:3036   .debug_str:00000000000004e5 .LASF29
     /tmp/ccyg5Kaz.s:2860   .debug_str:0000000000000000 .LASF51
     /tmp/ccyg5Kaz.s:2888   .debug_str:00000000000000e5 .LASF53
     /tmp/ccyg5Kaz.s:3044   .debug_str:0000000000000527 .LASF30
     /tmp/ccyg5Kaz.s:2972   .debug_str:0000000000000343 .LASF31
     /tmp/ccyg5Kaz.s:2930   .debug_str:00000000000001f3 .LASF141
     /tmp/ccyg5Kaz.s:2978   .debug_str:000000000000036a .LASF32
     /tmp/ccyg5Kaz.s:2908   .debug_str:000000000000016e .LASF33
     /tmp/ccyg5Kaz.s:3040   .debug_str:000000000000051a .LASF34
     /tmp/ccyg5Kaz.s:2890   .debug_str:0000000000000102 .LASF35
     /tmp/ccyg5Kaz.s:2998   .debug_str:00000000000003dc .LASF36
     /tmp/ccyg5Kaz.s:2910   .debug_str:0000000000000177 .LASF38
     /tmp/ccyg5Kaz.s:3142   .debug_str:00000000000008a4 .LASF39
     /tmp/ccyg5Kaz.s:3110   .debug_str:00000000000007cd .LASF40
     /tmp/ccyg5Kaz.s:3106   .debug_str:0000000000000701 .LASF42
     /tmp/ccyg5Kaz.s:3148   .debug_str:00000000000008cd .LASF43
     /tmp/ccyg5Kaz.s:3136   .debug_str:000000000000087d .LASF44
     /tmp/ccyg5Kaz.s:2898   .debug_str:0000000000000130 .LASF45
     /tmp/ccyg5Kaz.s:2936   .debug_str:000000000000021f .LASF46
     /tmp/ccyg5Kaz.s:2988   .debug_str:0000000000000395 .LASF48
     /tmp/ccyg5Kaz.s:2992   .debug_str:00000000000003a8 .LASF50
     /tmp/ccyg5Kaz.s:2924   .debug_str:00000000000001d7 .LASF52
     /tmp/ccyg5Kaz.s:2912   .debug_str:000000000000017f .LASF54
     /tmp/ccyg5Kaz.s:3068   .debug_str:00000000000005f8 .LASF56
     /tmp/ccyg5Kaz.s:3072   .debug_str:0000000000000607 .LASF58
     /tmp/ccyg5Kaz.s:2990   .debug_str:000000000000039b .LASF59
     /tmp/ccyg5Kaz.s:3130   .debug_str:0000000000000854 .LASF60
     /tmp/ccyg5Kaz.s:3116   .debug_str:00000000000007f0 .LASF62
     /tmp/ccyg5Kaz.s:2994   .debug_str:00000000000003bd .LASF64
     /tmp/ccyg5Kaz.s:3098   .debug_str:00000000000006d8 .LASF65
     /tmp/ccyg5Kaz.s:3090   .debug_str:0000000000000699 .LASF66
     /tmp/ccyg5Kaz.s:3002   .debug_str:00000000000003f7 .LASF67
     /tmp/ccyg5Kaz.s:2918   .debug_str:00000000000001b0 .LASF68
     /tmp/ccyg5Kaz.s:3042   .debug_str:0000000000000522 .LASF69
     /tmp/ccyg5Kaz.s:2864   .debug_str:000000000000002e .LASF70
     /tmp/ccyg5Kaz.s:3154   .debug_str:00000000000008e0 .LASF71
     /tmp/ccyg5Kaz.s:2952   .debug_str:00000000000002bb .LASF72
     /tmp/ccyg5Kaz.s:2964   .debug_str:0000000000000306 .LASF73
     /tmp/ccyg5Kaz.s:3022   .debug_str:0000000000000468 .LASF74
     /tmp/ccyg5Kaz.s:2996   .debug_str:00000000000003d3 .LASF75
     /tmp/ccyg5Kaz.s:3050   .debug_str:0000000000000542 .LASF76
     /tmp/ccyg5Kaz.s:2884   .debug_str:00000000000000d0 .LASF77
     /tmp/ccyg5Kaz.s:3058   .debug_str:000000000000058b .LASF78
     /tmp/ccyg5Kaz.s:2928   .debug_str:00000000000001e5 .LASF79
     /tmp/ccyg5Kaz.s:3048   .debug_str:0000000000000537 .LASF80
     /tmp/ccyg5Kaz.s:2922   .debug_str:00000000000001cf .LASF81
     /tmp/ccyg5Kaz.s:3152   .debug_str:00000000000008db .LASF82
     /tmp/ccyg5Kaz.s:3070   .debug_str:0000000000000601 .LASF83
     /tmp/ccyg5Kaz.s:3118   .debug_str:00000000000007fb .LASF84
     /tmp/ccyg5Kaz.s:3010   .debug_str:0000000000000424 .LASF85
     /tmp/ccyg5Kaz.s:3094   .debug_str:00000000000006c6 .LASF86
GAS LISTING /tmp/ccyg5Kaz.s 			page 12


     /tmp/ccyg5Kaz.s:3156   .debug_str:00000000000008ed .LASF142
     /tmp/ccyg5Kaz.s:2920   .debug_str:00000000000001c1 .LASF143
     /tmp/ccyg5Kaz.s:2862   .debug_str:0000000000000006 .LASF144
     /tmp/ccyg5Kaz.s:3132   .debug_str:000000000000086d .LASF145
     /tmp/ccyg5Kaz.s:2872   .debug_str:000000000000006c .LASF146
     /tmp/ccyg5Kaz.s:3140   .debug_str:0000000000000898 .LASF87
     /tmp/ccyg5Kaz.s:3114   .debug_str:00000000000007d9 .LASF88
     /tmp/ccyg5Kaz.s:3046   .debug_str:0000000000000532 .LASF89
     /tmp/ccyg5Kaz.s:3012   .debug_str:0000000000000432 .LASF90
     /tmp/ccyg5Kaz.s:3126   .debug_str:0000000000000845 .LASF92
     /tmp/ccyg5Kaz.s:2980   .debug_str:0000000000000373 .LASF91
     /tmp/ccyg5Kaz.s:2876   .debug_str:000000000000008e .LASF93
     /tmp/ccyg5Kaz.s:3056   .debug_str:0000000000000578 .LASF113
     /tmp/ccyg5Kaz.s:3080   .debug_str:0000000000000665 .LASF127
     /tmp/ccyg5Kaz.s:2982   .debug_str:0000000000000378 .LASF94
     /tmp/ccyg5Kaz.s:3020   .debug_str:0000000000000458 .LASF95
     /tmp/ccyg5Kaz.s:3082   .debug_str:0000000000000674 .LASF96
     /tmp/ccyg5Kaz.s:3016   .debug_str:000000000000044e .LASF97
     /tmp/ccyg5Kaz.s:3144   .debug_str:00000000000008ac .LASF98
     /tmp/ccyg5Kaz.s:2926   .debug_str:00000000000001e0 .LASF99
     /tmp/ccyg5Kaz.s:2966   .debug_str:0000000000000316 .LASF100
     /tmp/ccyg5Kaz.s:3088   .debug_str:0000000000000692 .LASF101
     /tmp/ccyg5Kaz.s:3038   .debug_str:0000000000000507 .LASF102
     /tmp/ccyg5Kaz.s:2886   .debug_str:00000000000000db .LASF103
     /tmp/ccyg5Kaz.s:2942   .debug_str:0000000000000265 .LASF104
     /tmp/ccyg5Kaz.s:3134   .debug_str:0000000000000875 .LASF105
     /tmp/ccyg5Kaz.s:2896   .debug_str:000000000000011c .LASF106
     /tmp/ccyg5Kaz.s:3018   .debug_str:0000000000000453 .LASF107
     /tmp/ccyg5Kaz.s:3000   .debug_str:00000000000003e4 .LASF108
     /tmp/ccyg5Kaz.s:2974   .debug_str:000000000000034f .LASF109
     /tmp/ccyg5Kaz.s:3122   .debug_str:000000000000081a .LASF110
     /tmp/ccyg5Kaz.s:2948   .debug_str:0000000000000291 .LASF111
     /tmp/ccyg5Kaz.s:3084   .debug_str:0000000000000679 .LASF112
     /tmp/ccyg5Kaz.s:2892   .debug_str:000000000000010b .LASF114
     /tmp/ccyg5Kaz.s:2960   .debug_str:00000000000002f3 .LASF115
     /tmp/ccyg5Kaz.s:2934   .debug_str:000000000000020f .LASF116
     /tmp/ccyg5Kaz.s:3150   .debug_str:00000000000008d3 .LASF117
     /tmp/ccyg5Kaz.s:3066   .debug_str:00000000000005e6 .LASF118
     /tmp/ccyg5Kaz.s:2958   .debug_str:00000000000002ed .LASF119
     /tmp/ccyg5Kaz.s:3024   .debug_str:0000000000000475 .LASF120
     /tmp/ccyg5Kaz.s:3104   .debug_str:00000000000006f6 .LASF121
     /tmp/ccyg5Kaz.s:2914   .debug_str:0000000000000192 .LASF122
     /tmp/ccyg5Kaz.s:3014   .debug_str:0000000000000437 .LASF123
     /tmp/ccyg5Kaz.s:2940   .debug_str:0000000000000256 .LASF124
     /tmp/ccyg5Kaz.s:3120   .debug_str:0000000000000803 .LASF125
     /tmp/ccyg5Kaz.s:3032   .debug_str:00000000000004c5 .LASF126
     /tmp/ccyg5Kaz.s:3078   .debug_str:000000000000064c .LASF128
     /tmp/ccyg5Kaz.s:3124   .debug_str:000000000000082e .LASF129
     /tmp/ccyg5Kaz.s:2956   .debug_str:00000000000002d5 .LASF130
     /tmp/ccyg5Kaz.s:2874   .debug_str:000000000000007e .LASF131
     /tmp/ccyg5Kaz.s:3004   .debug_str:00000000000003fe .LASF132
     /tmp/ccyg5Kaz.s:3112   .debug_str:00000000000007d2 .LASF133
     /tmp/ccyg5Kaz.s:3100   .debug_str:00000000000006e3 .LASF134
     /tmp/ccyg5Kaz.s:292    .text:00000000000001a0 .LFB43
     /tmp/ccyg5Kaz.s:318    .text:00000000000001c8 .LFE43
     /tmp/ccyg5Kaz.s:2894   .debug_str:0000000000000117 .LASF135
     /tmp/ccyg5Kaz.s:2714   .debug_loc:0000000000000000 .LLST7
GAS LISTING /tmp/ccyg5Kaz.s 			page 13


     /tmp/ccyg5Kaz.s:307    .text:00000000000001b8 .LVL27
     /tmp/ccyg5Kaz.s:255    .text:0000000000000170 .LFB42
     /tmp/ccyg5Kaz.s:286    .text:00000000000001a0 .LFE42
     /tmp/ccyg5Kaz.s:2728   .debug_loc:0000000000000039 .LLST6
     /tmp/ccyg5Kaz.s:275    .text:0000000000000190 .LVL25
     /tmp/ccyg5Kaz.s:189    .text:0000000000000104 .LFB41
     /tmp/ccyg5Kaz.s:249    .text:0000000000000170 .LFE41
     /tmp/ccyg5Kaz.s:2944   .debug_str:000000000000027c .LASF136
     /tmp/ccyg5Kaz.s:2748   .debug_loc:0000000000000088 .LLST4
     /tmp/ccyg5Kaz.s:2766   .debug_loc:00000000000000d4 .LLST5
     /tmp/ccyg5Kaz.s:211    .text:000000000000012c .LVL17
     /tmp/ccyg5Kaz.s:230    .text:0000000000000154 .LVL19
     /tmp/ccyg5Kaz.s:126    .text:0000000000000098 .LFB40
     /tmp/ccyg5Kaz.s:183    .text:0000000000000104 .LFE40
     /tmp/ccyg5Kaz.s:2777   .debug_loc:000000000000010a .LLST2
     /tmp/ccyg5Kaz.s:2795   .debug_loc:0000000000000156 .LLST3
     /tmp/ccyg5Kaz.s:149    .text:00000000000000c4 .LVL12
     /tmp/ccyg5Kaz.s:167    .text:00000000000000ec .LVL13
     /tmp/ccyg5Kaz.s:2866   .debug_str:000000000000003a .LASF137
     /tmp/ccyg5Kaz.s:3092   .debug_str:00000000000006af .LASF147
     /tmp/ccyg5Kaz.s:67     .text:0000000000000054 .LFB38
     /tmp/ccyg5Kaz.s:110    .text:0000000000000098 .LFE38
     /tmp/ccyg5Kaz.s:2809   .debug_loc:000000000000018f .LLST1
     /tmp/ccyg5Kaz.s:90     .text:0000000000000078 .LVL7
     /tmp/ccyg5Kaz.s:95     .text:0000000000000084 .LVL8
     /tmp/ccyg5Kaz.s:3054   .debug_str:0000000000000561 .LASF148
     /tmp/ccyg5Kaz.s:10     .text:0000000000000000 .LFB35
     /tmp/ccyg5Kaz.s:59     .text:0000000000000054 .LFE35
     /tmp/ccyg5Kaz.s:2827   .debug_loc:00000000000001db .LLST0
     /tmp/ccyg5Kaz.s:38     .text:0000000000000030 .LVL2
     /tmp/ccyg5Kaz.s:44     .text:0000000000000040 .LVL3
     /tmp/ccyg5Kaz.s:295    .text:00000000000001a0 .LVL26
     /tmp/ccyg5Kaz.s:258    .text:0000000000000170 .LVL22
     /tmp/ccyg5Kaz.s:270    .text:0000000000000184 .LVL23
     /tmp/ccyg5Kaz.s:273    .text:0000000000000188 .LVL24
     /tmp/ccyg5Kaz.s:192    .text:0000000000000104 .LVL15
     /tmp/ccyg5Kaz.s:209    .text:0000000000000124 .LVL16
     /tmp/ccyg5Kaz.s:241    .text:0000000000000164 .LVL20
     /tmp/ccyg5Kaz.s:220    .text:000000000000013c .LVL18
     /tmp/ccyg5Kaz.s:244    .text:0000000000000168 .LVL21
     /tmp/ccyg5Kaz.s:129    .text:0000000000000098 .LVL10
     /tmp/ccyg5Kaz.s:147    .text:00000000000000bc .LVL11
     /tmp/ccyg5Kaz.s:176    .text:00000000000000f8 .LVL14
     /tmp/ccyg5Kaz.s:72     .text:0000000000000054 .LVL5
     /tmp/ccyg5Kaz.s:88     .text:0000000000000070 .LVL6
     /tmp/ccyg5Kaz.s:105    .text:0000000000000090 .LVL9
     /tmp/ccyg5Kaz.s:14     .text:0000000000000000 .LVL0
     /tmp/ccyg5Kaz.s:36     .text:0000000000000028 .LVL1
     /tmp/ccyg5Kaz.s:54     .text:000000000000004c .LVL4
     /tmp/ccyg5Kaz.s:328    .debug_info:0000000000000000 .Ldebug_info0
     /tmp/ccyg5Kaz.s:113    .gcc_except_table:0000000000000000 .LLSDA38

UNDEFINED SYMBOLS
_ZN3Sem4openEPPS_j
_ZN3Sem7s_closeEPS_
__gxx_personality_v0
_ZN3Sem4waitEPS_
GAS LISTING /tmp/ccyg5Kaz.s 			page 14


_ZN3Sem6signalEPS_
_ZN15MemoryAllocator9mem_allocEm
_ZN15MemoryAllocator8mem_freeEPKv
