GAS LISTING /tmp/ccyg5Kaz.s 			page 1


   1              		.file	"BoundedBuffer.cpp"
   2              		.option pic
   3              		.option norelax
   4              		.text
   5              	.Ltext0:
   6              		.align	2
   7              		.globl	_ZN13BoundedBufferC2Ev
   9              	_ZN13BoundedBufferC2Ev:
  10              	.LFB35:
  11              		.file 1 "src/BoundedBuffer.cpp"
   1:src/BoundedBuffer.cpp **** #include "../h/BoundedBuffer.hpp"
   2:src/BoundedBuffer.cpp **** 
   3:src/BoundedBuffer.cpp **** BoundedBuffer::BoundedBuffer() {
  12              		.loc 1 3 1
  13              		.cfi_startproc
  14              	.LVL0:
  15 0000 130101FE 		addi	sp,sp,-32
  16              		.cfi_def_cfa_offset 32
  17 0004 233C1100 		sd	ra,24(sp)
  18 0008 23388100 		sd	s0,16(sp)
  19 000c 23349100 		sd	s1,8(sp)
  20              		.cfi_offset 1, -8
  21              		.cfi_offset 8, -16
  22              		.cfi_offset 9, -24
  23 0010 13040102 		addi	s0,sp,32
  24              		.cfi_def_cfa 8, 0
  25 0014 93040500 		mv	s1,a0
  26              	.LBB2:
   4:src/BoundedBuffer.cpp ****     head = tail = 0;
  27              		.loc 1 4 5
  28              		.loc 1 4 17 is_stmt 0
  29 0018 23220500 		sw	zero,4(a0)
  30              		.loc 1 4 10
  31 001c 23200500 		sw	zero,0(a0)
   5:src/BoundedBuffer.cpp ****     Sem::open(&space_available, bufferSize);
  32              		.loc 1 5 5 is_stmt 1
  33              		.loc 1 5 14 is_stmt 0
  34 0020 93054006 		li	a1,100
  35 0024 13058500 		addi	a0,a0,8
  36              	.LVL1:
  37 0028 97000000 		call	_ZN3Sem4openEPPS_j@plt
  37      E7800000 
  38              	.LVL2:
   6:src/BoundedBuffer.cpp ****     Sem::open(&item_available, 0);
  39              		.loc 1 6 5 is_stmt 1
  40              		.loc 1 6 14 is_stmt 0
  41 0030 93050000 		li	a1,0
  42 0034 13850401 		addi	a0,s1,16
  43 0038 97000000 		call	_ZN3Sem4openEPPS_j@plt
  43      E7800000 
  44              	.LVL3:
  45              	.LBE2:
   7:src/BoundedBuffer.cpp **** }
  46              		.loc 1 7 1
  47 0040 83308101 		ld	ra,24(sp)
  48              		.cfi_restore 1
  49 0044 03340101 		ld	s0,16(sp)
GAS LISTING /tmp/ccyg5Kaz.s 			page 2


  50              		.cfi_restore 8
  51              		.cfi_def_cfa 2, 32
  52 0048 83348100 		ld	s1,8(sp)
  53              		.cfi_restore 9
  54              	.LVL4:
  55 004c 13010102 		addi	sp,sp,32
  56              		.cfi_def_cfa_offset 0
  57 0050 67800000 		jr	ra
  58              		.cfi_endproc
  59              	.LFE35:
  61              		.globl	_ZN13BoundedBufferC1Ev
  62              		.set	_ZN13BoundedBufferC1Ev,_ZN13BoundedBufferC2Ev
  63              		.align	2
  64              		.globl	_ZN13BoundedBufferD2Ev
  66              	_ZN13BoundedBufferD2Ev:
  67              	.LFB38:
   8:src/BoundedBuffer.cpp **** 
   9:src/BoundedBuffer.cpp **** BoundedBuffer::~BoundedBuffer() {
  68              		.loc 1 9 1 is_stmt 1
  69              		.cfi_startproc
  70              		.cfi_personality 0x9b,DW.ref.__gxx_personality_v0
  71              		.cfi_lsda 0x1b,.LLSDA38
  72              	.LVL5:
  73 0054 130101FE 		addi	sp,sp,-32
  74              		.cfi_def_cfa_offset 32
  75 0058 233C1100 		sd	ra,24(sp)
  76 005c 23388100 		sd	s0,16(sp)
  77 0060 23349100 		sd	s1,8(sp)
  78              		.cfi_offset 1, -8
  79              		.cfi_offset 8, -16
  80              		.cfi_offset 9, -24
  81 0064 13040102 		addi	s0,sp,32
  82              		.cfi_def_cfa 8, 0
  83 0068 93040500 		mv	s1,a0
  84              	.LBB3:
  10:src/BoundedBuffer.cpp ****     Sem::s_close(space_available);
  85              		.loc 1 10 5
  86              		.loc 1 10 17 is_stmt 0
  87 006c 03358500 		ld	a0,8(a0)
  88              	.LVL6:
  89 0070 97000000 		call	_ZN3Sem7s_closeEPS_@plt
  89      E7800000 
  90              	.LVL7:
  11:src/BoundedBuffer.cpp ****     Sem::s_close(item_available);
  91              		.loc 1 11 5 is_stmt 1
  92              		.loc 1 11 17 is_stmt 0
  93 0078 03B50401 		ld	a0,16(s1)
  94 007c 97000000 		call	_ZN3Sem7s_closeEPS_@plt
  94      E7800000 
  95              	.LVL8:
  96              	.LBE3:
  12:src/BoundedBuffer.cpp **** }
  97              		.loc 1 12 1
  98 0084 83308101 		ld	ra,24(sp)
  99              		.cfi_restore 1
 100 0088 03340101 		ld	s0,16(sp)
 101              		.cfi_restore 8
GAS LISTING /tmp/ccyg5Kaz.s 			page 3


 102              		.cfi_def_cfa 2, 32
 103 008c 83348100 		ld	s1,8(sp)
 104              		.cfi_restore 9
 105              	.LVL9:
 106 0090 13010102 		addi	sp,sp,32
 107              		.cfi_def_cfa_offset 0
 108 0094 67800000 		jr	ra
 109              		.cfi_endproc
 110              	.LFE38:
 111              		.globl	__gxx_personality_v0
 112              		.section	.gcc_except_table,"a",@progbits
 113              	.LLSDA38:
 114 0000 FF       		.byte	0xff
 115 0001 FF       		.byte	0xff
 116 0002 03       		.byte	0x3
 117 0003 00       		.byte	0
 118              		.text
 120              		.globl	_ZN13BoundedBufferD1Ev
 121              		.set	_ZN13BoundedBufferD1Ev,_ZN13BoundedBufferD2Ev
 122              		.align	2
 123              		.globl	_ZN13BoundedBuffer3putEc
 125              	_ZN13BoundedBuffer3putEc:
 126              	.LFB40:
  13:src/BoundedBuffer.cpp **** 
  14:src/BoundedBuffer.cpp **** void BoundedBuffer::put(char c) {
 127              		.loc 1 14 33 is_stmt 1
 128              		.cfi_startproc
 129              	.LVL10:
 130 0098 130101FE 		addi	sp,sp,-32
 131              		.cfi_def_cfa_offset 32
 132 009c 233C1100 		sd	ra,24(sp)
 133 00a0 23388100 		sd	s0,16(sp)
 134 00a4 23349100 		sd	s1,8(sp)
 135 00a8 23302101 		sd	s2,0(sp)
 136              		.cfi_offset 1, -8
 137              		.cfi_offset 8, -16
 138              		.cfi_offset 9, -24
 139              		.cfi_offset 18, -32
 140 00ac 13040102 		addi	s0,sp,32
 141              		.cfi_def_cfa 8, 0
 142 00b0 93040500 		mv	s1,a0
 143 00b4 13890500 		mv	s2,a1
  15:src/BoundedBuffer.cpp ****     Sem::wait(space_available);
 144              		.loc 1 15 5
 145              		.loc 1 15 14 is_stmt 0
 146 00b8 03358500 		ld	a0,8(a0)
 147              	.LVL11:
 148 00bc 97000000 		call	_ZN3Sem4waitEPS_@plt
 148      E7800000 
 149              	.LVL12:
  16:src/BoundedBuffer.cpp ****     buffer[tail++] = c;
 150              		.loc 1 16 5 is_stmt 1
 151              		.loc 1 16 12 is_stmt 0
 152 00c4 83A74400 		lw	a5,4(s1)
 153              		.loc 1 16 16
 154 00c8 1B871700 		addiw	a4,a5,1
 155              		.loc 1 16 20
GAS LISTING /tmp/ccyg5Kaz.s 			page 4


 156 00cc B387F400 		add	a5,s1,a5
 157 00d0 238C2701 		sb	s2,24(a5)
  17:src/BoundedBuffer.cpp ****     tail %= bufferSize;
 158              		.loc 1 17 5 is_stmt 1
 159              		.loc 1 17 10 is_stmt 0
 160 00d4 93074006 		li	a5,100
 161 00d8 BB67F702 		remw	a5,a4,a5
 162 00dc 23A2F400 		sw	a5,4(s1)
  18:src/BoundedBuffer.cpp ****     Sem::signal(item_available);
 163              		.loc 1 18 5 is_stmt 1
 164              		.loc 1 18 16 is_stmt 0
 165 00e0 03B50401 		ld	a0,16(s1)
 166 00e4 97000000 		call	_ZN3Sem6signalEPS_@plt
 166      E7800000 
 167              	.LVL13:
  19:src/BoundedBuffer.cpp **** }
 168              		.loc 1 19 1
 169 00ec 83308101 		ld	ra,24(sp)
 170              		.cfi_restore 1
 171 00f0 03340101 		ld	s0,16(sp)
 172              		.cfi_restore 8
 173              		.cfi_def_cfa 2, 32
 174 00f4 83348100 		ld	s1,8(sp)
 175              		.cfi_restore 9
 176              	.LVL14:
 177 00f8 03390100 		ld	s2,0(sp)
 178              		.cfi_restore 18
 179 00fc 13010102 		addi	sp,sp,32
 180              		.cfi_def_cfa_offset 0
 181 0100 67800000 		jr	ra
 182              		.cfi_endproc
 183              	.LFE40:
 185              		.align	2
 186              		.globl	_ZN13BoundedBuffer3getEv
 188              	_ZN13BoundedBuffer3getEv:
 189              	.LFB41:
  20:src/BoundedBuffer.cpp **** 
  21:src/BoundedBuffer.cpp **** char BoundedBuffer::get() {
 190              		.loc 1 21 27 is_stmt 1
 191              		.cfi_startproc
 192              	.LVL15:
 193 0104 130101FE 		addi	sp,sp,-32
 194              		.cfi_def_cfa_offset 32
 195 0108 233C1100 		sd	ra,24(sp)
 196 010c 23388100 		sd	s0,16(sp)
 197 0110 23349100 		sd	s1,8(sp)
 198 0114 23302101 		sd	s2,0(sp)
 199              		.cfi_offset 1, -8
 200              		.cfi_offset 8, -16
 201              		.cfi_offset 9, -24
 202              		.cfi_offset 18, -32
 203 0118 13040102 		addi	s0,sp,32
 204              		.cfi_def_cfa 8, 0
 205 011c 93040500 		mv	s1,a0
  22:src/BoundedBuffer.cpp ****     Sem::wait(item_available);
 206              		.loc 1 22 5
 207              		.loc 1 22 14 is_stmt 0
GAS LISTING /tmp/ccyg5Kaz.s 			page 5


 208 0120 03350501 		ld	a0,16(a0)
 209              	.LVL16:
 210 0124 97000000 		call	_ZN3Sem4waitEPS_@plt
 210      E7800000 
 211              	.LVL17:
  23:src/BoundedBuffer.cpp ****     char  c = buffer[head++];
 212              		.loc 1 23 5 is_stmt 1
 213              		.loc 1 23 22 is_stmt 0
 214 012c 83A70400 		lw	a5,0(s1)
 215              		.loc 1 23 26
 216 0130 1B871700 		addiw	a4,a5,1
 217              		.loc 1 23 28
 218 0134 B387F400 		add	a5,s1,a5
 219 0138 03C98701 		lbu	s2,24(a5)
 220              	.LVL18:
  24:src/BoundedBuffer.cpp ****     head %= bufferSize;
 221              		.loc 1 24 5 is_stmt 1
 222              		.loc 1 24 10 is_stmt 0
 223 013c 93074006 		li	a5,100
 224 0140 BB67F702 		remw	a5,a4,a5
 225 0144 23A0F400 		sw	a5,0(s1)
  25:src/BoundedBuffer.cpp ****     Sem::signal(space_available);
 226              		.loc 1 25 5 is_stmt 1
 227              		.loc 1 25 16 is_stmt 0
 228 0148 03B58400 		ld	a0,8(s1)
 229 014c 97000000 		call	_ZN3Sem6signalEPS_@plt
 229      E7800000 
 230              	.LVL19:
  26:src/BoundedBuffer.cpp ****     return c;
 231              		.loc 1 26 5 is_stmt 1
  27:src/BoundedBuffer.cpp **** }
 232              		.loc 1 27 1 is_stmt 0
 233 0154 13050900 		mv	a0,s2
 234 0158 83308101 		ld	ra,24(sp)
 235              		.cfi_restore 1
 236 015c 03340101 		ld	s0,16(sp)
 237              		.cfi_restore 8
 238              		.cfi_def_cfa 2, 32
 239 0160 83348100 		ld	s1,8(sp)
 240              		.cfi_restore 9
 241              	.LVL20:
 242 0164 03390100 		ld	s2,0(sp)
 243              		.cfi_restore 18
 244              	.LVL21:
 245 0168 13010102 		addi	sp,sp,32
 246              		.cfi_def_cfa_offset 0
 247 016c 67800000 		jr	ra
 248              		.cfi_endproc
 249              	.LFE41:
 251              		.align	2
 252              		.globl	_ZN13BoundedBuffernwEm
 254              	_ZN13BoundedBuffernwEm:
 255              	.LFB42:
  28:src/BoundedBuffer.cpp **** 
  29:src/BoundedBuffer.cpp **** void *BoundedBuffer::operator new(size_t size) {
 256              		.loc 1 29 48 is_stmt 1
 257              		.cfi_startproc
GAS LISTING /tmp/ccyg5Kaz.s 			page 6


 258              	.LVL22:
 259 0170 130101FF 		addi	sp,sp,-16
 260              		.cfi_def_cfa_offset 16
 261 0174 23341100 		sd	ra,8(sp)
 262 0178 23308100 		sd	s0,0(sp)
 263              		.cfi_offset 1, -8
 264              		.cfi_offset 8, -16
 265 017c 13040101 		addi	s0,sp,16
 266              		.cfi_def_cfa 8, 0
  30:src/BoundedBuffer.cpp ****     return MemoryAllocator::mem_alloc( (size + mem_h_size + MEM_BLOCK_SIZE - 1) / MEM_BLOCK_SIZE );
 267              		.loc 1 30 5
 268              		.loc 1 30 76 is_stmt 0
 269 0180 13057505 		addi	a0,a0,87
 270              	.LVL23:
 271              		.loc 1 30 38
 272 0184 13556500 		srli	a0,a0,6
 273              	.LVL24:
 274 0188 97000000 		call	_ZN15MemoryAllocator9mem_allocEm@plt
 274      E7800000 
 275              	.LVL25:
  31:src/BoundedBuffer.cpp **** }
 276              		.loc 1 31 1
 277 0190 83308100 		ld	ra,8(sp)
 278              		.cfi_restore 1
 279 0194 03340100 		ld	s0,0(sp)
 280              		.cfi_restore 8
 281              		.cfi_def_cfa 2, 16
 282 0198 13010101 		addi	sp,sp,16
 283              		.cfi_def_cfa_offset 0
 284 019c 67800000 		jr	ra
 285              		.cfi_endproc
 286              	.LFE42:
 288              		.align	2
 289              		.globl	_ZN13BoundedBufferdlEPv
 291              	_ZN13BoundedBufferdlEPv:
 292              	.LFB43:
  32:src/BoundedBuffer.cpp **** 
  33:src/BoundedBuffer.cpp **** void BoundedBuffer::operator delete(void *addr) {
 293              		.loc 1 33 49 is_stmt 1
 294              		.cfi_startproc
 295              	.LVL26:
 296 01a0 130101FF 		addi	sp,sp,-16
 297              		.cfi_def_cfa_offset 16
 298 01a4 23341100 		sd	ra,8(sp)
 299 01a8 23308100 		sd	s0,0(sp)
 300              		.cfi_offset 1, -8
 301              		.cfi_offset 8, -16
 302 01ac 13040101 		addi	s0,sp,16
 303              		.cfi_def_cfa 8, 0
  34:src/BoundedBuffer.cpp ****     MemoryAllocator::mem_free(addr);
 304              		.loc 1 34 5
 305              		.loc 1 34 30 is_stmt 0
 306 01b0 97000000 		call	_ZN15MemoryAllocator8mem_freeEPKv@plt
 306      E7800000 
 307              	.LVL27:
  35:src/BoundedBuffer.cpp **** }
 308              		.loc 1 35 1
GAS LISTING /tmp/ccyg5Kaz.s 			page 7


 309 01b8 83308100 		ld	ra,8(sp)
 310              		.cfi_restore 1
 311 01bc 03340100 		ld	s0,0(sp)
 312              		.cfi_restore 8
 313              		.cfi_def_cfa 2, 16
 314 01c0 13010101 		addi	sp,sp,16
 315              		.cfi_def_cfa_offset 0
 316 01c4 67800000 		jr	ra
 317              		.cfi_endproc
 318              	.LFE43:
 320              	.Letext0:
 321              		.file 2 "src/../h/../lib/hw.h"
 322              		.file 3 "src/../h/../h/Memoryallocator.hpp"
 323              		.file 4 "src/../h/thread.hpp"
 324              		.file 5 "src/../h/List.hpp"
 325              		.file 6 "src/../h/semaphore.hpp"
 326              		.file 7 "src/../h/BoundedBuffer.hpp"
 3161              		.align	3
 3164              	DW.ref.__gxx_personality_v0:
 3165 0000 00000000 		.dword	__gxx_personality_v0
 3165      00000000 
 3166              		.ident	"GCC: (Ubuntu 9.4.0-1ubuntu1~20.04) 9.4.0"
 3167              		.section	.note.GNU-stack,"",@progbits
GAS LISTING /tmp/ccyg5Kaz.s 			page 8

