GAS LISTING /tmp/ccouvwld.s 			page 1


   1              		.file	"Console.cpp"
   2              		.option pic
   3              		.option norelax
   4              		.text
   5              	.Ltext0:
   6              		.align	2
   7              		.globl	_ZN9myConsole14init_myconsoleEv
   9              	_ZN9myConsole14init_myconsoleEv:
  10              	.LFB34:
  11              		.file 1 "src/Console.cpp"
   1:src/Console.cpp **** #include "../h/Console.hpp"
   2:src/Console.cpp **** 
   3:src/Console.cpp **** BoundedBuffer* myConsole::inputBuffer = nullptr;
   4:src/Console.cpp **** BoundedBuffer* myConsole::outputBuffer = nullptr;
   5:src/Console.cpp **** 
   6:src/Console.cpp **** void myConsole::init_myconsole() {
  12              		.loc 1 6 34
  13              		.cfi_startproc
  14              		.cfi_personality 0x9b,DW.ref.__gxx_personality_v0
  15              		.cfi_lsda 0x1b,.LLSDA34
  16 0000 130101FE 		addi	sp,sp,-32
  17              		.cfi_def_cfa_offset 32
  18 0004 233C1100 		sd	ra,24(sp)
  19 0008 23388100 		sd	s0,16(sp)
  20 000c 23349100 		sd	s1,8(sp)
  21 0010 23302101 		sd	s2,0(sp)
  22              		.cfi_offset 1, -8
  23              		.cfi_offset 8, -16
  24              		.cfi_offset 9, -24
  25              		.cfi_offset 18, -32
  26 0014 13040102 		addi	s0,sp,32
  27              		.cfi_def_cfa 8, 0
   7:src/Console.cpp ****     inputBuffer = new BoundedBuffer();   // from controller to getc
  28              		.loc 1 7 5
  29              		.loc 1 7 37 is_stmt 0
  30 0018 13050015 		li	a0,336
  31              	.LEHB0:
  32 001c 97000000 		call	_ZN13BoundedBuffernwEm@plt
  32      E7800000 
  33              	.LVL0:
  34              	.LEHE0:
  35 0024 93040500 		mv	s1,a0
  36              	.LEHB1:
  37 0028 97000000 		call	_ZN13BoundedBufferC1Ev@plt
  37      E7800000 
  38              	.LVL1:
  39              	.LEHE1:
  40              		.loc 1 7 17 discriminator 2
  41 0030 97070000 		sd	s1,.LANCHOR0,a5
  41      23B09700 
   8:src/Console.cpp ****     outputBuffer = new BoundedBuffer();  // from putc to controller
  42              		.loc 1 8 5 is_stmt 1 discriminator 2
  43              		.loc 1 8 38 is_stmt 0 discriminator 2
  44 0038 13050015 		li	a0,336
  45              	.LEHB2:
  46 003c 97000000 		call	_ZN13BoundedBuffernwEm@plt
  46      E7800000 
GAS LISTING /tmp/ccouvwld.s 			page 2


  47              	.LVL2:
  48              	.LEHE2:
  49 0044 93040500 		mv	s1,a0
  50              	.LEHB3:
  51 0048 97000000 		call	_ZN13BoundedBufferC1Ev@plt
  51      E7800000 
  52              	.LVL3:
  53              	.LEHE3:
  54              		.loc 1 8 18
  55 0050 97070000 		sd	s1,.LANCHOR0+8,a5
  55      23B09700 
   9:src/Console.cpp **** }
  56              		.loc 1 9 1
  57 0058 83308101 		ld	ra,24(sp)
  58              		.cfi_remember_state
  59              		.cfi_restore 1
  60 005c 03340101 		ld	s0,16(sp)
  61              		.cfi_restore 8
  62              		.cfi_def_cfa 2, 32
  63 0060 83348100 		ld	s1,8(sp)
  64              		.cfi_restore 9
  65 0064 03390100 		ld	s2,0(sp)
  66              		.cfi_restore 18
  67 0068 13010102 		addi	sp,sp,32
  68              		.cfi_def_cfa_offset 0
  69 006c 67800000 		jr	ra
  70              	.L4:
  71              		.cfi_restore_state
  72 0070 13090500 		mv	s2,a0
   7:src/Console.cpp ****     inputBuffer = new BoundedBuffer();   // from controller to getc
  73              		.loc 1 7 37
  74 0074 13850400 		mv	a0,s1
  75 0078 97000000 		call	_ZN13BoundedBufferdlEPv@plt
  75      E7800000 
  76              	.LVL4:
  77 0080 13050900 		mv	a0,s2
  78              	.LEHB4:
  79 0084 97000000 		call	_Unwind_Resume@plt
  79      E7800000 
  80              	.LVL5:
  81              	.LEHE4:
  82              	.L5:
  83 008c 13090500 		mv	s2,a0
   8:src/Console.cpp ****     outputBuffer = new BoundedBuffer();  // from putc to controller
  84              		.loc 1 8 38
  85 0090 13850400 		mv	a0,s1
  86 0094 97000000 		call	_ZN13BoundedBufferdlEPv@plt
  86      E7800000 
  87              	.LVL6:
  88 009c 13050900 		mv	a0,s2
  89              	.LEHB5:
  90 00a0 97000000 		call	_Unwind_Resume@plt
  90      E7800000 
  91              	.LVL7:
  92              	.LEHE5:
  93              		.cfi_endproc
  94              	.LFE34:
GAS LISTING /tmp/ccouvwld.s 			page 3


  95              		.globl	__gxx_personality_v0
  96              		.section	.gcc_except_table,"a",@progbits
  97              	.LLSDA34:
  98 0000 FF       		.byte	0xff
  99 0001 FF       		.byte	0xff
 100 0002 03       		.byte	0x3
 101 0003 4E       		.byte	0x4e
 102 0004 00000000 		.4byte	.LEHB0-.LFB34
 103 0008 00000000 		.4byte	.LEHE0-.LEHB0
 104 000c 00000000 		.4byte	0
 105 0010 00       		.byte	0
 106 0011 00000000 		.4byte	.LEHB1-.LFB34
 107 0015 00000000 		.4byte	.LEHE1-.LEHB1
 108 0019 00000000 		.4byte	.L4-.LFB34
 109 001d 00       		.byte	0
 110 001e 00000000 		.4byte	.LEHB2-.LFB34
 111 0022 00000000 		.4byte	.LEHE2-.LEHB2
 112 0026 00000000 		.4byte	0
 113 002a 00       		.byte	0
 114 002b 00000000 		.4byte	.LEHB3-.LFB34
 115 002f 00000000 		.4byte	.LEHE3-.LEHB3
 116 0033 00000000 		.4byte	.L5-.LFB34
 117 0037 00       		.byte	0
 118 0038 00000000 		.4byte	.LEHB4-.LFB34
 119 003c 00000000 		.4byte	.LEHE4-.LEHB4
 120 0040 00000000 		.4byte	0
 121 0044 00       		.byte	0
 122 0045 00000000 		.4byte	.LEHB5-.LFB34
 123 0049 00000000 		.4byte	.LEHE5-.LEHB5
 124 004d 00000000 		.4byte	0
 125 0051 00       		.byte	0
 126              		.text
 128              		.align	2
 129              		.globl	_ZN9myConsole10input_getcEv
 131              	_ZN9myConsole10input_getcEv:
 132              	.LFB35:
  10:src/Console.cpp **** 
  11:src/Console.cpp **** char myConsole::input_getc() {
 133              		.loc 1 11 30 is_stmt 1
 134              		.cfi_startproc
 135 00a8 130101FF 		addi	sp,sp,-16
 136              		.cfi_def_cfa_offset 16
 137 00ac 23341100 		sd	ra,8(sp)
 138 00b0 23308100 		sd	s0,0(sp)
 139              		.cfi_offset 1, -8
 140              		.cfi_offset 8, -16
 141 00b4 13040101 		addi	s0,sp,16
 142              		.cfi_def_cfa 8, 0
  12:src/Console.cpp ****     return inputBuffer->get();
 143              		.loc 1 12 5
 144              		.loc 1 12 28 is_stmt 0
 145 00b8 17050000 		ld	a0,.LANCHOR0
 145      03350500 
 146 00c0 97000000 		call	_ZN13BoundedBuffer3getEv@plt
 146      E7800000 
 147              	.LVL8:
  13:src/Console.cpp **** }
GAS LISTING /tmp/ccouvwld.s 			page 4


 148              		.loc 1 13 1
 149 00c8 83308100 		ld	ra,8(sp)
 150              		.cfi_restore 1
 151 00cc 03340100 		ld	s0,0(sp)
 152              		.cfi_restore 8
 153              		.cfi_def_cfa 2, 16
 154 00d0 13010101 		addi	sp,sp,16
 155              		.cfi_def_cfa_offset 0
 156 00d4 67800000 		jr	ra
 157              		.cfi_endproc
 158              	.LFE35:
 160              		.align	2
 161              		.globl	_ZN9myConsole11output_putcEc
 163              	_ZN9myConsole11output_putcEc:
 164              	.LFB36:
  14:src/Console.cpp **** 
  15:src/Console.cpp **** void myConsole::output_putc(char c) {
 165              		.loc 1 15 37 is_stmt 1
 166              		.cfi_startproc
 167              	.LVL9:
 168 00d8 130101FF 		addi	sp,sp,-16
 169              		.cfi_def_cfa_offset 16
 170 00dc 23341100 		sd	ra,8(sp)
 171 00e0 23308100 		sd	s0,0(sp)
 172              		.cfi_offset 1, -8
 173              		.cfi_offset 8, -16
 174 00e4 13040101 		addi	s0,sp,16
 175              		.cfi_def_cfa 8, 0
 176 00e8 93050500 		mv	a1,a0
  16:src/Console.cpp ****     outputBuffer->put(c);
 177              		.loc 1 16 5
 178              		.loc 1 16 22 is_stmt 0
 179 00ec 17050000 		ld	a0,.LANCHOR0+8
 179      03350500 
 180              	.LVL10:
 181 00f4 97000000 		call	_ZN13BoundedBuffer3putEc@plt
 181      E7800000 
 182              	.LVL11:
  17:src/Console.cpp **** }
 183              		.loc 1 17 1
 184 00fc 83308100 		ld	ra,8(sp)
 185              		.cfi_restore 1
 186 0100 03340100 		ld	s0,0(sp)
 187              		.cfi_restore 8
 188              		.cfi_def_cfa 2, 16
 189 0104 13010101 		addi	sp,sp,16
 190              		.cfi_def_cfa_offset 0
 191 0108 67800000 		jr	ra
 192              		.cfi_endproc
 193              	.LFE36:
 195              		.align	2
 196              		.globl	_ZN9myConsole11output_getcEv
 198              	_ZN9myConsole11output_getcEv:
 199              	.LFB37:
  18:src/Console.cpp **** 
  19:src/Console.cpp **** char myConsole::output_getc() {
 200              		.loc 1 19 31 is_stmt 1
GAS LISTING /tmp/ccouvwld.s 			page 5


 201              		.cfi_startproc
 202 010c 130101FF 		addi	sp,sp,-16
 203              		.cfi_def_cfa_offset 16
 204 0110 23341100 		sd	ra,8(sp)
 205 0114 23308100 		sd	s0,0(sp)
 206              		.cfi_offset 1, -8
 207              		.cfi_offset 8, -16
 208 0118 13040101 		addi	s0,sp,16
 209              		.cfi_def_cfa 8, 0
  20:src/Console.cpp ****     return outputBuffer->get();
 210              		.loc 1 20 5
 211              		.loc 1 20 29 is_stmt 0
 212 011c 17050000 		ld	a0,.LANCHOR0+8
 212      03350500 
 213 0124 97000000 		call	_ZN13BoundedBuffer3getEv@plt
 213      E7800000 
 214              	.LVL12:
  21:src/Console.cpp **** }
 215              		.loc 1 21 1
 216 012c 83308100 		ld	ra,8(sp)
 217              		.cfi_restore 1
 218 0130 03340100 		ld	s0,0(sp)
 219              		.cfi_restore 8
 220              		.cfi_def_cfa 2, 16
 221 0134 13010101 		addi	sp,sp,16
 222              		.cfi_def_cfa_offset 0
 223 0138 67800000 		jr	ra
 224              		.cfi_endproc
 225              	.LFE37:
 227              		.align	2
 228              		.globl	_ZN9myConsole10input_putcEc
 230              	_ZN9myConsole10input_putcEc:
 231              	.LFB38:
  22:src/Console.cpp **** 
  23:src/Console.cpp **** void myConsole::input_putc(char c) {
 232              		.loc 1 23 36 is_stmt 1
 233              		.cfi_startproc
 234              	.LVL13:
 235 013c 130101FF 		addi	sp,sp,-16
 236              		.cfi_def_cfa_offset 16
 237 0140 23341100 		sd	ra,8(sp)
 238 0144 23308100 		sd	s0,0(sp)
 239              		.cfi_offset 1, -8
 240              		.cfi_offset 8, -16
 241 0148 13040101 		addi	s0,sp,16
 242              		.cfi_def_cfa 8, 0
 243 014c 93050500 		mv	a1,a0
  24:src/Console.cpp ****     inputBuffer->put(c);
 244              		.loc 1 24 5
 245              		.loc 1 24 21 is_stmt 0
 246 0150 17050000 		ld	a0,.LANCHOR0
 246      03350500 
 247              	.LVL14:
 248 0158 97000000 		call	_ZN13BoundedBuffer3putEc@plt
 248      E7800000 
 249              	.LVL15:
  25:src/Console.cpp **** }
GAS LISTING /tmp/ccouvwld.s 			page 6


 250              		.loc 1 25 1
 251 0160 83308100 		ld	ra,8(sp)
 252              		.cfi_restore 1
 253 0164 03340100 		ld	s0,0(sp)
 254              		.cfi_restore 8
 255              		.cfi_def_cfa 2, 16
 256 0168 13010101 		addi	sp,sp,16
 257              		.cfi_def_cfa_offset 0
 258 016c 67800000 		jr	ra
 259              		.cfi_endproc
 260              	.LFE38:
 262              		.globl	_ZN9myConsole12outputBufferE
 263              		.globl	_ZN9myConsole11inputBufferE
 264              		.bss
 265              		.align	3
 266              		.set	.LANCHOR0,. + 0
 269              	_ZN9myConsole11inputBufferE:
 270 0000 00000000 		.zero	8
 270      00000000 
 273              	_ZN9myConsole12outputBufferE:
 274 0008 00000000 		.zero	8
 274      00000000 
 275              		.text
 276              	.Letext0:
 277              		.file 2 "src/../h/../lib/hw.h"
 278              		.file 3 "src/../h/../h/Memoryallocator.hpp"
 279              		.file 4 "src/../h/thread.hpp"
 280              		.file 5 "src/../h/../h/syscall_c.hpp"
 281              		.file 6 "src/../h/semaphore.hpp"
 282              		.file 7 "src/../h/List.hpp"
 283              		.file 8 "src/../h/BoundedBuffer.hpp"
 284              		.file 9 "src/../h/Console.hpp"
 2942              		.align	3
 2945              	DW.ref.__gxx_personality_v0:
 2946 0000 00000000 		.dword	__gxx_personality_v0
 2946      00000000 
 2947              		.ident	"GCC: (Ubuntu 9.4.0-1ubuntu1~20.04) 9.4.0"
 2948              		.section	.note.GNU-stack,"",@progbits
GAS LISTING /tmp/ccouvwld.s 			page 7

