GAS LISTING /tmp/ccx9TjjK.s 			page 1


   1              		.file	"Console.cpp"
   2              		.option pic
   3              		.option norelax
   4              		.text
   5              	.Ltext0:
   6              		.align	2
   7              		.globl	_ZN9myConsole4initEv
   9              	_ZN9myConsole4initEv:
  10              	.LFB34:
  11              		.file 1 "src/Console.cpp"
   1:src/Console.cpp **** #include "../h/Console.hpp"
   2:src/Console.cpp **** 
   3:src/Console.cpp **** BoundedBuffer* myConsole::inputBuffer = nullptr;
   4:src/Console.cpp **** BoundedBuffer* myConsole::outputBuffer = nullptr;
   5:src/Console.cpp **** 
   6:src/Console.cpp **** void myConsole::init() {
  12              		.loc 1 6 24
  13              		.cfi_startproc
  14              		.cfi_personality 0x9b,DW.ref.__gxx_personality_v0
  15              		.cfi_lsda 0x1b,.LLSDA34
  16 0000 130101FE 		addi	sp,sp,-32
  17              		.cfi_def_cfa_offset 32
  18 0004 233C1100 		sd	ra,24(sp)
  19 0008 23388100 		sd	s0,16(sp)
  20 000c 23349100 		sd	s1,8(sp)
  21 0010 23302101 		sd	s2,0(sp)
  22              		.cfi_offset 1, -8
  23              		.cfi_offset 8, -16
  24              		.cfi_offset 9, -24
  25              		.cfi_offset 18, -32
  26 0014 13040102 		addi	s0,sp,32
  27              		.cfi_def_cfa 8, 0
   7:src/Console.cpp ****     inputBuffer = new BoundedBuffer();
  28              		.loc 1 7 5
  29              		.loc 1 7 37 is_stmt 0
  30 0018 13050008 		li	a0,128
  31              	.LEHB0:
  32 001c 97000000 		call	_ZN13BoundedBuffernwEm@plt
  32      E7800000 
  33              	.LVL0:
  34              	.LEHE0:
  35 0024 93040500 		mv	s1,a0
  36              	.LEHB1:
  37 0028 97000000 		call	_ZN13BoundedBufferC1Ev@plt
  37      E7800000 
  38              	.LVL1:
  39              	.LEHE1:
  40              		.loc 1 7 17 discriminator 2
  41 0030 97070000 		sd	s1,.LANCHOR0,a5
  41      23B09700 
   8:src/Console.cpp ****     outputBuffer = new BoundedBuffer();
  42              		.loc 1 8 5 is_stmt 1 discriminator 2
  43              		.loc 1 8 38 is_stmt 0 discriminator 2
  44 0038 13050008 		li	a0,128
  45              	.LEHB2:
  46 003c 97000000 		call	_ZN13BoundedBuffernwEm@plt
  46      E7800000 
GAS LISTING /tmp/ccx9TjjK.s 			page 2


  47              	.LVL2:
  48              	.LEHE2:
  49 0044 93040500 		mv	s1,a0
  50              	.LEHB3:
  51 0048 97000000 		call	_ZN13BoundedBufferC1Ev@plt
  51      E7800000 
  52              	.LVL3:
  53              	.LEHE3:
  54              		.loc 1 8 18
  55 0050 97070000 		sd	s1,.LANCHOR0+8,a5
  55      23B09700 
   9:src/Console.cpp **** }
  56              		.loc 1 9 1
  57 0058 83308101 		ld	ra,24(sp)
  58              		.cfi_remember_state
  59              		.cfi_restore 1
  60 005c 03340101 		ld	s0,16(sp)
  61              		.cfi_restore 8
  62              		.cfi_def_cfa 2, 32
  63 0060 83348100 		ld	s1,8(sp)
  64              		.cfi_restore 9
  65 0064 03390100 		ld	s2,0(sp)
  66              		.cfi_restore 18
  67 0068 13010102 		addi	sp,sp,32
  68              		.cfi_def_cfa_offset 0
  69 006c 67800000 		jr	ra
  70              	.L4:
  71              		.cfi_restore_state
  72 0070 13090500 		mv	s2,a0
   7:src/Console.cpp ****     inputBuffer = new BoundedBuffer();
  73              		.loc 1 7 37
  74 0074 13850400 		mv	a0,s1
  75 0078 97000000 		call	_ZN13BoundedBufferdlEPv@plt
  75      E7800000 
  76              	.LVL4:
  77 0080 13050900 		mv	a0,s2
  78              	.LEHB4:
  79 0084 97000000 		call	_Unwind_Resume@plt
  79      E7800000 
  80              	.LVL5:
  81              	.LEHE4:
  82              	.L5:
  83 008c 13090500 		mv	s2,a0
   8:src/Console.cpp ****     outputBuffer = new BoundedBuffer();
  84              		.loc 1 8 38
  85 0090 13850400 		mv	a0,s1
  86 0094 97000000 		call	_ZN13BoundedBufferdlEPv@plt
  86      E7800000 
  87              	.LVL6:
  88 009c 13050900 		mv	a0,s2
  89              	.LEHB5:
  90 00a0 97000000 		call	_Unwind_Resume@plt
  90      E7800000 
  91              	.LVL7:
  92              	.LEHE5:
  93              		.cfi_endproc
  94              	.LFE34:
GAS LISTING /tmp/ccx9TjjK.s 			page 3


  95              		.globl	__gxx_personality_v0
  96              		.section	.gcc_except_table,"a",@progbits
  97              	.LLSDA34:
  98 0000 FF       		.byte	0xff
  99 0001 FF       		.byte	0xff
 100 0002 03       		.byte	0x3
 101 0003 4E       		.byte	0x4e
 102 0004 00000000 		.4byte	.LEHB0-.LFB34
 103 0008 00000000 		.4byte	.LEHE0-.LEHB0
 104 000c 00000000 		.4byte	0
 105 0010 00       		.byte	0
 106 0011 00000000 		.4byte	.LEHB1-.LFB34
 107 0015 00000000 		.4byte	.LEHE1-.LEHB1
 108 0019 00000000 		.4byte	.L4-.LFB34
 109 001d 00       		.byte	0
 110 001e 00000000 		.4byte	.LEHB2-.LFB34
 111 0022 00000000 		.4byte	.LEHE2-.LEHB2
 112 0026 00000000 		.4byte	0
 113 002a 00       		.byte	0
 114 002b 00000000 		.4byte	.LEHB3-.LFB34
 115 002f 00000000 		.4byte	.LEHE3-.LEHB3
 116 0033 00000000 		.4byte	.L5-.LFB34
 117 0037 00       		.byte	0
 118 0038 00000000 		.4byte	.LEHB4-.LFB34
 119 003c 00000000 		.4byte	.LEHE4-.LEHB4
 120 0040 00000000 		.4byte	0
 121 0044 00       		.byte	0
 122 0045 00000000 		.4byte	.LEHB5-.LFB34
 123 0049 00000000 		.4byte	.LEHE5-.LEHB5
 124 004d 00000000 		.4byte	0
 125 0051 00       		.byte	0
 126              		.text
 128              		.align	2
 129              		.globl	_ZN9myConsole4getcEv
 131              	_ZN9myConsole4getcEv:
 132              	.LFB35:
  10:src/Console.cpp **** 
  11:src/Console.cpp **** char myConsole::getc() {
 133              		.loc 1 11 24 is_stmt 1
 134              		.cfi_startproc
 135 00a8 130101FF 		addi	sp,sp,-16
 136              		.cfi_def_cfa_offset 16
 137 00ac 23341100 		sd	ra,8(sp)
 138 00b0 23308100 		sd	s0,0(sp)
 139              		.cfi_offset 1, -8
 140              		.cfi_offset 8, -16
 141 00b4 13040101 		addi	s0,sp,16
 142              		.cfi_def_cfa 8, 0
  12:src/Console.cpp ****     return inputBuffer->get();
 143              		.loc 1 12 5
 144              		.loc 1 12 28 is_stmt 0
 145 00b8 17050000 		ld	a0,.LANCHOR0
 145      03350500 
 146 00c0 97000000 		call	_ZN13BoundedBuffer3getEv@plt
 146      E7800000 
 147              	.LVL8:
  13:src/Console.cpp **** }
GAS LISTING /tmp/ccx9TjjK.s 			page 4


 148              		.loc 1 13 1
 149 00c8 83308100 		ld	ra,8(sp)
 150              		.cfi_restore 1
 151 00cc 03340100 		ld	s0,0(sp)
 152              		.cfi_restore 8
 153              		.cfi_def_cfa 2, 16
 154 00d0 13010101 		addi	sp,sp,16
 155              		.cfi_def_cfa_offset 0
 156 00d4 67800000 		jr	ra
 157              		.cfi_endproc
 158              	.LFE35:
 160              		.align	2
 161              		.globl	_ZN9myConsole4putcEc
 163              	_ZN9myConsole4putcEc:
 164              	.LFB36:
  14:src/Console.cpp **** 
  15:src/Console.cpp **** void myConsole::putc(char c) {
 165              		.loc 1 15 30 is_stmt 1
 166              		.cfi_startproc
 167              	.LVL9:
 168 00d8 130101FF 		addi	sp,sp,-16
 169              		.cfi_def_cfa_offset 16
 170 00dc 23341100 		sd	ra,8(sp)
 171 00e0 23308100 		sd	s0,0(sp)
 172              		.cfi_offset 1, -8
 173              		.cfi_offset 8, -16
 174 00e4 13040101 		addi	s0,sp,16
 175              		.cfi_def_cfa 8, 0
 176 00e8 93050500 		mv	a1,a0
  16:src/Console.cpp ****     outputBuffer->put(c);
 177              		.loc 1 16 5
 178              		.loc 1 16 22 is_stmt 0
 179 00ec 17050000 		ld	a0,.LANCHOR0+8
 179      03350500 
 180              	.LVL10:
 181 00f4 97000000 		call	_ZN13BoundedBuffer3putEc@plt
 181      E7800000 
 182              	.LVL11:
  17:src/Console.cpp **** }
 183              		.loc 1 17 1
 184 00fc 83308100 		ld	ra,8(sp)
 185              		.cfi_restore 1
 186 0100 03340100 		ld	s0,0(sp)
 187              		.cfi_restore 8
 188              		.cfi_def_cfa 2, 16
 189 0104 13010101 		addi	sp,sp,16
 190              		.cfi_def_cfa_offset 0
 191 0108 67800000 		jr	ra
 192              		.cfi_endproc
 193              	.LFE36:
 195              		.align	2
 196              		.globl	_ZN9myConsole5kgetcEv
 198              	_ZN9myConsole5kgetcEv:
 199              	.LFB37:
  18:src/Console.cpp **** 
  19:src/Console.cpp **** char myConsole::kgetc() {
 200              		.loc 1 19 25 is_stmt 1
GAS LISTING /tmp/ccx9TjjK.s 			page 5


 201              		.cfi_startproc
 202 010c 130101FF 		addi	sp,sp,-16
 203              		.cfi_def_cfa_offset 16
 204 0110 23341100 		sd	ra,8(sp)
 205 0114 23308100 		sd	s0,0(sp)
 206              		.cfi_offset 1, -8
 207              		.cfi_offset 8, -16
 208 0118 13040101 		addi	s0,sp,16
 209              		.cfi_def_cfa 8, 0
  20:src/Console.cpp ****     return outputBuffer->get();
 210              		.loc 1 20 5
 211              		.loc 1 20 29 is_stmt 0
 212 011c 17050000 		ld	a0,.LANCHOR0+8
 212      03350500 
 213 0124 97000000 		call	_ZN13BoundedBuffer3getEv@plt
 213      E7800000 
 214              	.LVL12:
  21:src/Console.cpp **** }
 215              		.loc 1 21 1
 216 012c 83308100 		ld	ra,8(sp)
 217              		.cfi_restore 1
 218 0130 03340100 		ld	s0,0(sp)
 219              		.cfi_restore 8
 220              		.cfi_def_cfa 2, 16
 221 0134 13010101 		addi	sp,sp,16
 222              		.cfi_def_cfa_offset 0
 223 0138 67800000 		jr	ra
 224              		.cfi_endproc
 225              	.LFE37:
 227              		.align	2
 228              		.globl	_ZN9myConsole5kputcEc
 230              	_ZN9myConsole5kputcEc:
 231              	.LFB38:
  22:src/Console.cpp **** 
  23:src/Console.cpp **** void myConsole::kputc(char c) {
 232              		.loc 1 23 31 is_stmt 1
 233              		.cfi_startproc
 234              	.LVL13:
 235 013c 130101FF 		addi	sp,sp,-16
 236              		.cfi_def_cfa_offset 16
 237 0140 23341100 		sd	ra,8(sp)
 238 0144 23308100 		sd	s0,0(sp)
 239              		.cfi_offset 1, -8
 240              		.cfi_offset 8, -16
 241 0148 13040101 		addi	s0,sp,16
 242              		.cfi_def_cfa 8, 0
 243 014c 93050500 		mv	a1,a0
  24:src/Console.cpp ****     inputBuffer->put(c);
 244              		.loc 1 24 5
 245              		.loc 1 24 21 is_stmt 0
 246 0150 17050000 		ld	a0,.LANCHOR0
 246      03350500 
 247              	.LVL14:
 248 0158 97000000 		call	_ZN13BoundedBuffer3putEc@plt
 248      E7800000 
 249              	.LVL15:
  25:src/Console.cpp **** }...
GAS LISTING /tmp/ccx9TjjK.s 			page 6


 250              		.loc 1 25 1
 251 0160 83308100 		ld	ra,8(sp)
 252              		.cfi_restore 1
 253 0164 03340100 		ld	s0,0(sp)
 254              		.cfi_restore 8
 255              		.cfi_def_cfa 2, 16
 256 0168 13010101 		addi	sp,sp,16
 257              		.cfi_def_cfa_offset 0
 258 016c 67800000 		jr	ra
 259              		.cfi_endproc
 260              	.LFE38:
 262              		.globl	_ZN9myConsole12outputBufferE
 263              		.globl	_ZN9myConsole11inputBufferE
 264              		.bss
 265              		.align	3
 266              		.set	.LANCHOR0,. + 0
 269              	_ZN9myConsole11inputBufferE:
 270 0000 00000000 		.zero	8
 270      00000000 
 273              	_ZN9myConsole12outputBufferE:
 274 0008 00000000 		.zero	8
 274      00000000 
 275              		.text
 276              	.Letext0:
 277              		.file 2 "src/../h/../lib/hw.h"
 278              		.file 3 "src/../h/../h/Memoryallocator.hpp"
 279              		.file 4 "src/../h/thread.hpp"
 280              		.file 5 "src/../h/List.hpp"
 281              		.file 6 "src/../h/semaphore.hpp"
 282              		.file 7 "src/../h/BoundedBuffer.hpp"
 283              		.file 8 "src/../h/Console.hpp"
 2753              		.align	3
 2756              	DW.ref.__gxx_personality_v0:
 2757 0000 00000000 		.dword	__gxx_personality_v0
 2757      00000000 
 2758              		.ident	"GCC: (Ubuntu 9.4.0-1ubuntu1~20.04) 9.4.0"
 2759              		.section	.note.GNU-stack,"",@progbits
GAS LISTING /tmp/ccx9TjjK.s 			page 7


DEFINED SYMBOLS
                            *ABS*:0000000000000000 Console.cpp
     /tmp/ccx9TjjK.s:9      .text:0000000000000000 _ZN9myConsole4initEv
     /tmp/ccx9TjjK.s:13     .text:0000000000000000 .L0 
     /tmp/ccx9TjjK.s:2756   .data.rel.local.DW.ref.__gxx_personality_v0:0000000000000000 DW.ref.__gxx_personality_v0
     /tmp/ccx9TjjK.s:16     .text:0000000000000000 .L0 
     /tmp/ccx9TjjK.s:17     .text:0000000000000004 .L0 
     /tmp/ccx9TjjK.s:22     .text:0000000000000014 .L0 
     /tmp/ccx9TjjK.s:23     .text:0000000000000014 .L0 
     /tmp/ccx9TjjK.s:24     .text:0000000000000014 .L0 
     /tmp/ccx9TjjK.s:25     .text:0000000000000014 .L0 
     /tmp/ccx9TjjK.s:27     .text:0000000000000018 .L0 
     /tmp/ccx9TjjK.s:29     .text:0000000000000018 .L0 
     /tmp/ccx9TjjK.s:30     .text:0000000000000018 .L0 
     /tmp/ccx9TjjK.s:41     .text:0000000000000030 .L0 
     /tmp/ccx9TjjK.s:43     .text:0000000000000038 .L0 
     /tmp/ccx9TjjK.s:44     .text:0000000000000038 .L0 
     /tmp/ccx9TjjK.s:55     .text:0000000000000050 .L0 
     /tmp/ccx9TjjK.s:57     .text:0000000000000058 .L0 
     /tmp/ccx9TjjK.s:58     .text:000000000000005c .L0 
     /tmp/ccx9TjjK.s:59     .text:000000000000005c .L0 
     /tmp/ccx9TjjK.s:61     .text:0000000000000060 .L0 
     /tmp/ccx9TjjK.s:62     .text:0000000000000060 .L0 
     /tmp/ccx9TjjK.s:64     .text:0000000000000064 .L0 
     /tmp/ccx9TjjK.s:66     .text:0000000000000068 .L0 
     /tmp/ccx9TjjK.s:68     .text:000000000000006c .L0 
     /tmp/ccx9TjjK.s:71     .text:0000000000000070 .L0 
     /tmp/ccx9TjjK.s:74     .text:0000000000000074 .L0 
     /tmp/ccx9TjjK.s:85     .text:0000000000000090 .L0 
     /tmp/ccx9TjjK.s:93     .text:00000000000000a8 .L0 
     /tmp/ccx9TjjK.s:131    .text:00000000000000a8 _ZN9myConsole4getcEv
     /tmp/ccx9TjjK.s:134    .text:00000000000000a8 .L0 
     /tmp/ccx9TjjK.s:135    .text:00000000000000a8 .L0 
     /tmp/ccx9TjjK.s:136    .text:00000000000000ac .L0 
     /tmp/ccx9TjjK.s:139    .text:00000000000000b4 .L0 
     /tmp/ccx9TjjK.s:140    .text:00000000000000b4 .L0 
     /tmp/ccx9TjjK.s:142    .text:00000000000000b8 .L0 
     /tmp/ccx9TjjK.s:144    .text:00000000000000b8 .L0 
     /tmp/ccx9TjjK.s:145    .text:00000000000000b8 .L0 
     /tmp/ccx9TjjK.s:149    .text:00000000000000c8 .L0 
     /tmp/ccx9TjjK.s:150    .text:00000000000000cc .L0 
     /tmp/ccx9TjjK.s:152    .text:00000000000000d0 .L0 
     /tmp/ccx9TjjK.s:153    .text:00000000000000d0 .L0 
     /tmp/ccx9TjjK.s:155    .text:00000000000000d4 .L0 
     /tmp/ccx9TjjK.s:157    .text:00000000000000d8 .L0 
     /tmp/ccx9TjjK.s:163    .text:00000000000000d8 _ZN9myConsole4putcEc
     /tmp/ccx9TjjK.s:166    .text:00000000000000d8 .L0 
     /tmp/ccx9TjjK.s:168    .text:00000000000000d8 .L0 
     /tmp/ccx9TjjK.s:169    .text:00000000000000dc .L0 
     /tmp/ccx9TjjK.s:172    .text:00000000000000e4 .L0 
     /tmp/ccx9TjjK.s:173    .text:00000000000000e4 .L0 
     /tmp/ccx9TjjK.s:175    .text:00000000000000e8 .L0 
     /tmp/ccx9TjjK.s:178    .text:00000000000000ec .L0 
     /tmp/ccx9TjjK.s:179    .text:00000000000000ec .L0 
     /tmp/ccx9TjjK.s:184    .text:00000000000000fc .L0 
     /tmp/ccx9TjjK.s:185    .text:0000000000000100 .L0 
     /tmp/ccx9TjjK.s:187    .text:0000000000000104 .L0 
GAS LISTING /tmp/ccx9TjjK.s 			page 8


     /tmp/ccx9TjjK.s:188    .text:0000000000000104 .L0 
     /tmp/ccx9TjjK.s:190    .text:0000000000000108 .L0 
     /tmp/ccx9TjjK.s:192    .text:000000000000010c .L0 
     /tmp/ccx9TjjK.s:198    .text:000000000000010c _ZN9myConsole5kgetcEv
     /tmp/ccx9TjjK.s:201    .text:000000000000010c .L0 
     /tmp/ccx9TjjK.s:202    .text:000000000000010c .L0 
     /tmp/ccx9TjjK.s:203    .text:0000000000000110 .L0 
     /tmp/ccx9TjjK.s:206    .text:0000000000000118 .L0 
     /tmp/ccx9TjjK.s:207    .text:0000000000000118 .L0 
     /tmp/ccx9TjjK.s:209    .text:000000000000011c .L0 
     /tmp/ccx9TjjK.s:211    .text:000000000000011c .L0 
     /tmp/ccx9TjjK.s:212    .text:000000000000011c .L0 
     /tmp/ccx9TjjK.s:216    .text:000000000000012c .L0 
     /tmp/ccx9TjjK.s:217    .text:0000000000000130 .L0 
     /tmp/ccx9TjjK.s:219    .text:0000000000000134 .L0 
     /tmp/ccx9TjjK.s:220    .text:0000000000000134 .L0 
     /tmp/ccx9TjjK.s:222    .text:0000000000000138 .L0 
     /tmp/ccx9TjjK.s:224    .text:000000000000013c .L0 
     /tmp/ccx9TjjK.s:230    .text:000000000000013c _ZN9myConsole5kputcEc
     /tmp/ccx9TjjK.s:233    .text:000000000000013c .L0 
     /tmp/ccx9TjjK.s:235    .text:000000000000013c .L0 
     /tmp/ccx9TjjK.s:236    .text:0000000000000140 .L0 
     /tmp/ccx9TjjK.s:239    .text:0000000000000148 .L0 
     /tmp/ccx9TjjK.s:240    .text:0000000000000148 .L0 
     /tmp/ccx9TjjK.s:242    .text:000000000000014c .L0 
     /tmp/ccx9TjjK.s:245    .text:0000000000000150 .L0 
     /tmp/ccx9TjjK.s:246    .text:0000000000000150 .L0 
     /tmp/ccx9TjjK.s:251    .text:0000000000000160 .L0 
     /tmp/ccx9TjjK.s:252    .text:0000000000000164 .L0 
     /tmp/ccx9TjjK.s:254    .text:0000000000000168 .L0 
     /tmp/ccx9TjjK.s:255    .text:0000000000000168 .L0 
     /tmp/ccx9TjjK.s:257    .text:000000000000016c .L0 
     /tmp/ccx9TjjK.s:259    .text:0000000000000170 .L0 
     /tmp/ccx9TjjK.s:273    .bss:0000000000000008 _ZN9myConsole12outputBufferE
     /tmp/ccx9TjjK.s:269    .bss:0000000000000000 _ZN9myConsole11inputBufferE
     /tmp/ccx9TjjK.s:266    .bss:0000000000000000 .LANCHOR0
     /tmp/ccx9TjjK.s:284    .text:0000000000000170 .L0 
     /tmp/ccx9TjjK.s:41     .text:0000000000000030 .L0 
     /tmp/ccx9TjjK.s:55     .text:0000000000000050 .L0 
     /tmp/ccx9TjjK.s:145    .text:00000000000000b8 .L0 
     /tmp/ccx9TjjK.s:179    .text:00000000000000ec .L0 
     /tmp/ccx9TjjK.s:212    .text:000000000000011c .L0 
     /tmp/ccx9TjjK.s:246    .text:0000000000000150 .L0 
     /tmp/ccx9TjjK.s:31     .text:000000000000001c .LEHB0
     /tmp/ccx9TjjK.s:10     .text:0000000000000000 .LFB34
     /tmp/ccx9TjjK.s:34     .text:0000000000000024 .LEHE0
     /tmp/ccx9TjjK.s:36     .text:0000000000000028 .LEHB1
     /tmp/ccx9TjjK.s:39     .text:0000000000000030 .LEHE1
     /tmp/ccx9TjjK.s:70     .text:0000000000000070 .L4
     /tmp/ccx9TjjK.s:45     .text:000000000000003c .LEHB2
     /tmp/ccx9TjjK.s:48     .text:0000000000000044 .LEHE2
     /tmp/ccx9TjjK.s:50     .text:0000000000000048 .LEHB3
     /tmp/ccx9TjjK.s:53     .text:0000000000000050 .LEHE3
     /tmp/ccx9TjjK.s:82     .text:000000000000008c .L5
     /tmp/ccx9TjjK.s:78     .text:0000000000000084 .LEHB4
     /tmp/ccx9TjjK.s:81     .text:000000000000008c .LEHE4
     /tmp/ccx9TjjK.s:89     .text:00000000000000a0 .LEHB5
GAS LISTING /tmp/ccx9TjjK.s 			page 9


     /tmp/ccx9TjjK.s:92     .text:00000000000000a8 .LEHE5
     /tmp/ccx9TjjK.s:1517   .debug_abbrev:0000000000000000 .Ldebug_abbrev0
     /tmp/ccx9TjjK.s:2692   .debug_str:000000000000060c .LASF132
     /tmp/ccx9TjjK.s:2486   .debug_str:00000000000000ad .LASF133
     /tmp/ccx9TjjK.s:2548   .debug_str:0000000000000270 .LASF134
     /tmp/ccx9TjjK.s:5      .text:0000000000000000 .Ltext0
     /tmp/ccx9TjjK.s:276    .text:0000000000000170 .Letext0
     /tmp/ccx9TjjK.s:2464   .debug_line:0000000000000000 .Ldebug_line0
     /tmp/ccx9TjjK.s:2562   .debug_str:00000000000002e4 .LASF0
     /tmp/ccx9TjjK.s:2582   .debug_str:0000000000000353 .LASF1
     /tmp/ccx9TjjK.s:2640   .debug_str:00000000000004b9 .LASF2
     /tmp/ccx9TjjK.s:2648   .debug_str:00000000000004fb .LASF4
     /tmp/ccx9TjjK.s:2568   .debug_str:0000000000000307 .LASF3
     /tmp/ccx9TjjK.s:2472   .debug_str:0000000000000044 .LASF5
     /tmp/ccx9TjjK.s:2626   .debug_str:000000000000046b .LASF6
     /tmp/ccx9TjjK.s:2620   .debug_str:0000000000000439 .LASF7
     /tmp/ccx9TjjK.s:2574   .debug_str:000000000000032d .LASF8
     /tmp/ccx9TjjK.s:2544   .debug_str:0000000000000254 .LASF9
     /tmp/ccx9TjjK.s:2554   .debug_str:00000000000002b2 .LASF10
     /tmp/ccx9TjjK.s:2504   .debug_str:000000000000011e .LASF11
     /tmp/ccx9TjjK.s:2536   .debug_str:0000000000000203 .LASF12
     /tmp/ccx9TjjK.s:2514   .debug_str:000000000000015c .LASF13
     /tmp/ccx9TjjK.s:2502   .debug_str:000000000000010e .LASF14
     /tmp/ccx9TjjK.s:2674   .debug_str:000000000000059b .LASF15
     /tmp/ccx9TjjK.s:2530   .debug_str:00000000000001b5 .LASF16
     /tmp/ccx9TjjK.s:2664   .debug_str:000000000000054b .LASF17
     /tmp/ccx9TjjK.s:2632   .debug_str:000000000000048d .LASF18
     /tmp/ccx9TjjK.s:2570   .debug_str:0000000000000319 .LASF19
     /tmp/ccx9TjjK.s:2528   .debug_str:00000000000001af .LASF135
     /tmp/ccx9TjjK.s:2576   .debug_str:0000000000000340 .LASF20
     /tmp/ccx9TjjK.s:2508   .debug_str:0000000000000132 .LASF21
     /tmp/ccx9TjjK.s:2630   .debug_str:0000000000000485 .LASF22
     /tmp/ccx9TjjK.s:2494   .debug_str:00000000000000d7 .LASF23
     /tmp/ccx9TjjK.s:2594   .debug_str:00000000000003aa .LASF24
     /tmp/ccx9TjjK.s:2682   .debug_str:00000000000005e1 .LASF136
     /tmp/ccx9TjjK.s:2728   .debug_str:00000000000007ca .LASF25
     /tmp/ccx9TjjK.s:2694   .debug_str:00000000000006d0 .LASF26
     /tmp/ccx9TjjK.s:2690   .debug_str:0000000000000604 .LASF113
     /tmp/ccx9TjjK.s:2736   .debug_str:00000000000007fc .LASF27
     /tmp/ccx9TjjK.s:2724   .debug_str:00000000000007ae .LASF29
     /tmp/ccx9TjjK.s:2500   .debug_str:0000000000000100 .LASF28
     /tmp/ccx9TjjK.s:2534   .debug_str:00000000000001db .LASF30
     /tmp/ccx9TjjK.s:2586   .debug_str:0000000000000378 .LASF43
     /tmp/ccx9TjjK.s:2484   .debug_str:0000000000000098 .LASF45
     /tmp/ccx9TjjK.s:2522   .debug_str:0000000000000193 .LASF59
     /tmp/ccx9TjjK.s:2510   .debug_str:000000000000013b .LASF61
     /tmp/ccx9TjjK.s:2656   .debug_str:000000000000051f .LASF31
     /tmp/ccx9TjjK.s:2660   .debug_str:000000000000052e .LASF33
     /tmp/ccx9TjjK.s:2588   .debug_str:000000000000037e .LASF32
     /tmp/ccx9TjjK.s:2716   .debug_str:0000000000000778 .LASF34
     /tmp/ccx9TjjK.s:2474   .debug_str:000000000000004b .LASF118
     /tmp/ccx9TjjK.s:2590   .debug_str:000000000000038b .LASF120
     /tmp/ccx9TjjK.s:2684   .debug_str:00000000000005e9 .LASF35
     /tmp/ccx9TjjK.s:2680   .debug_str:00000000000005cb .LASF36
     /tmp/ccx9TjjK.s:2598   .debug_str:00000000000003c5 .LASF37
     /tmp/ccx9TjjK.s:2516   .debug_str:000000000000016c .LASF38
     /tmp/ccx9TjjK.s:2650   .debug_str:0000000000000502 .LASF39
GAS LISTING /tmp/ccx9TjjK.s 			page 10


     /tmp/ccx9TjjK.s:2470   .debug_str:0000000000000038 .LASF40
     /tmp/ccx9TjjK.s:2744   .debug_str:0000000000000825 .LASF41
     /tmp/ccx9TjjK.s:2550   .debug_str:000000000000028e .LASF42
     /tmp/ccx9TjjK.s:2466   .debug_str:0000000000000000 .LASF44
     /tmp/ccx9TjjK.s:2616   .debug_str:0000000000000424 .LASF46
     /tmp/ccx9TjjK.s:2592   .debug_str:00000000000003a1 .LASF47
     /tmp/ccx9TjjK.s:2638   .debug_str:00000000000004a8 .LASF48
     /tmp/ccx9TjjK.s:2488   .debug_str:00000000000000bd .LASF49
     /tmp/ccx9TjjK.s:2644   .debug_str:00000000000004da .LASF50
     /tmp/ccx9TjjK.s:2526   .debug_str:00000000000001a1 .LASF51
     /tmp/ccx9TjjK.s:2636   .debug_str:000000000000049d .LASF52
     /tmp/ccx9TjjK.s:2520   .debug_str:000000000000018b .LASF53
     /tmp/ccx9TjjK.s:2740   .debug_str:000000000000080a .LASF54
     /tmp/ccx9TjjK.s:2658   .debug_str:0000000000000528 .LASF55
     /tmp/ccx9TjjK.s:2702   .debug_str:0000000000000708 .LASF56
     /tmp/ccx9TjjK.s:2604   .debug_str:00000000000003e0 .LASF57
     /tmp/ccx9TjjK.s:2662   .debug_str:0000000000000542 .LASF58
     /tmp/ccx9TjjK.s:2746   .debug_str:0000000000000832 .LASF137
     /tmp/ccx9TjjK.s:2518   .debug_str:000000000000017d .LASF126
     /tmp/ccx9TjjK.s:2468   .debug_str:0000000000000010 .LASF128
     /tmp/ccx9TjjK.s:2718   .debug_str:0000000000000791 .LASF138
     /tmp/ccx9TjjK.s:2476   .debug_str:0000000000000056 .LASF139
     /tmp/ccx9TjjK.s:2726   .debug_str:00000000000007be .LASF60
     /tmp/ccx9TjjK.s:2698   .debug_str:00000000000006dc .LASF62
     /tmp/ccx9TjjK.s:2634   .debug_str:0000000000000498 .LASF63
     /tmp/ccx9TjjK.s:2606   .debug_str:00000000000003ee .LASF64
     /tmp/ccx9TjjK.s:2712   .debug_str:0000000000000767 .LASF67
     /tmp/ccx9TjjK.s:2578   .debug_str:0000000000000349 .LASF65
     /tmp/ccx9TjjK.s:2506   .debug_str:000000000000012d .LASF66
     /tmp/ccx9TjjK.s:2480   .debug_str:0000000000000078 .LASF68
     /tmp/ccx9TjjK.s:2642   .debug_str:00000000000004c7 .LASF88
     /tmp/ccx9TjjK.s:2668   .debug_str:000000000000057a .LASF102
     /tmp/ccx9TjjK.s:2580   .debug_str:000000000000034e .LASF69
     /tmp/ccx9TjjK.s:2614   .debug_str:0000000000000414 .LASF70
     /tmp/ccx9TjjK.s:2670   .debug_str:0000000000000589 .LASF71
     /tmp/ccx9TjjK.s:2610   .debug_str:000000000000040a .LASF72
     /tmp/ccx9TjjK.s:2730   .debug_str:00000000000007d2 .LASF73
     /tmp/ccx9TjjK.s:2524   .debug_str:000000000000019c .LASF74
     /tmp/ccx9TjjK.s:2564   .debug_str:00000000000002f1 .LASF75
     /tmp/ccx9TjjK.s:2678   .debug_str:00000000000005c4 .LASF76
     /tmp/ccx9TjjK.s:2628   .debug_str:0000000000000472 .LASF77
     /tmp/ccx9TjjK.s:2490   .debug_str:00000000000000c8 .LASF78
     /tmp/ccx9TjjK.s:2540   .debug_str:0000000000000221 .LASF79
     /tmp/ccx9TjjK.s:2720   .debug_str:0000000000000799 .LASF80
     /tmp/ccx9TjjK.s:2498   .debug_str:00000000000000ec .LASF81
     /tmp/ccx9TjjK.s:2612   .debug_str:000000000000040f .LASF82
     /tmp/ccx9TjjK.s:2596   .debug_str:00000000000003b2 .LASF83
     /tmp/ccx9TjjK.s:2572   .debug_str:0000000000000325 .LASF84
     /tmp/ccx9TjjK.s:2706   .debug_str:0000000000000727 .LASF85
     /tmp/ccx9TjjK.s:2546   .debug_str:0000000000000264 .LASF86
     /tmp/ccx9TjjK.s:2672   .debug_str:000000000000058e .LASF87
     /tmp/ccx9TjjK.s:2496   .debug_str:00000000000000e0 .LASF89
     /tmp/ccx9TjjK.s:2560   .debug_str:00000000000002de .LASF90
     /tmp/ccx9TjjK.s:2532   .debug_str:00000000000001cb .LASF91
     /tmp/ccx9TjjK.s:2738   .debug_str:0000000000000802 .LASF92
     /tmp/ccx9TjjK.s:2652   .debug_str:0000000000000507 .LASF93
     /tmp/ccx9TjjK.s:2558   .debug_str:00000000000002d8 .LASF94
GAS LISTING /tmp/ccx9TjjK.s 			page 11


     /tmp/ccx9TjjK.s:2618   .debug_str:0000000000000431 .LASF95
     /tmp/ccx9TjjK.s:2688   .debug_str:00000000000005f9 .LASF96
     /tmp/ccx9TjjK.s:2512   .debug_str:000000000000014e .LASF97
     /tmp/ccx9TjjK.s:2608   .debug_str:00000000000003f3 .LASF98
     /tmp/ccx9TjjK.s:2538   .debug_str:0000000000000212 .LASF99
     /tmp/ccx9TjjK.s:2704   .debug_str:0000000000000710 .LASF100
     /tmp/ccx9TjjK.s:2624   .debug_str:0000000000000452 .LASF101
     /tmp/ccx9TjjK.s:2666   .debug_str:0000000000000561 .LASF103
     /tmp/ccx9TjjK.s:2708   .debug_str:000000000000073b .LASF104
     /tmp/ccx9TjjK.s:2556   .debug_str:00000000000002c0 .LASF105
     /tmp/ccx9TjjK.s:2478   .debug_str:0000000000000068 .LASF106
     /tmp/ccx9TjjK.s:2600   .debug_str:00000000000003cc .LASF107
     /tmp/ccx9TjjK.s:2696   .debug_str:00000000000006d5 .LASF108
     /tmp/ccx9TjjK.s:2686   .debug_str:00000000000005f4 .LASF109
     /tmp/ccx9TjjK.s:2482   .debug_str:000000000000008e .LASF110
     /tmp/ccx9TjjK.s:2584   .debug_str:0000000000000366 .LASF111
     /tmp/ccx9TjjK.s:2646   .debug_str:00000000000004e6 .LASF112
     /tmp/ccx9TjjK.s:2714   .debug_str:000000000000076c .LASF114
     /tmp/ccx9TjjK.s:2722   .debug_str:00000000000007a1 .LASF115
     /tmp/ccx9TjjK.s:2492   .debug_str:00000000000000d2 .LASF116
     /tmp/ccx9TjjK.s:2710   .debug_str:0000000000000752 .LASF117
     /tmp/ccx9TjjK.s:2566   .debug_str:0000000000000302 .LASF119
     /tmp/ccx9TjjK.s:2732   .debug_str:00000000000007d8 .LASF121
     /tmp/ccx9TjjK.s:2602   .debug_str:00000000000003db .LASF122
     /tmp/ccx9TjjK.s:2700   .debug_str:00000000000006f3 .LASF123
     /tmp/ccx9TjjK.s:2622   .debug_str:000000000000044c .LASF124
     /tmp/ccx9TjjK.s:2742   .debug_str:000000000000080f .LASF125
     /tmp/ccx9TjjK.s:2654   .debug_str:0000000000000519 .LASF127
     /tmp/ccx9TjjK.s:2748   .debug_str:0000000000000855 .LASF129
     /tmp/ccx9TjjK.s:2542   .debug_str:0000000000000238 .LASF130
     /tmp/ccx9TjjK.s:2676   .debug_str:00000000000005a7 .LASF131
     /tmp/ccx9TjjK.s:231    .text:000000000000013c .LFB38
     /tmp/ccx9TjjK.s:260    .text:0000000000000170 .LFE38
     /tmp/ccx9TjjK.s:2423   .debug_loc:0000000000000000 .LLST1
     /tmp/ccx9TjjK.s:249    .text:0000000000000160 .LVL15
     /tmp/ccx9TjjK.s:199    .text:000000000000010c .LFB37
     /tmp/ccx9TjjK.s:225    .text:000000000000013c .LFE37
     /tmp/ccx9TjjK.s:214    .text:000000000000012c .LVL12
     /tmp/ccx9TjjK.s:164    .text:00000000000000d8 .LFB36
     /tmp/ccx9TjjK.s:193    .text:000000000000010c .LFE36
     /tmp/ccx9TjjK.s:2437   .debug_loc:0000000000000039 .LLST0
     /tmp/ccx9TjjK.s:182    .text:00000000000000fc .LVL11
     /tmp/ccx9TjjK.s:132    .text:00000000000000a8 .LFB35
     /tmp/ccx9TjjK.s:158    .text:00000000000000d8 .LFE35
     /tmp/ccx9TjjK.s:147    .text:00000000000000c8 .LVL8
     /tmp/ccx9TjjK.s:94     .text:00000000000000a8 .LFE34
     /tmp/ccx9TjjK.s:33     .text:0000000000000024 .LVL0
     /tmp/ccx9TjjK.s:38     .text:0000000000000030 .LVL1
     /tmp/ccx9TjjK.s:47     .text:0000000000000044 .LVL2
     /tmp/ccx9TjjK.s:52     .text:0000000000000050 .LVL3
     /tmp/ccx9TjjK.s:76     .text:0000000000000080 .LVL4
     /tmp/ccx9TjjK.s:80     .text:000000000000008c .LVL5
     /tmp/ccx9TjjK.s:87     .text:000000000000009c .LVL6
     /tmp/ccx9TjjK.s:91     .text:00000000000000a8 .LVL7
     /tmp/ccx9TjjK.s:2734   .debug_str:00000000000007ed .LASF140
     /tmp/ccx9TjjK.s:2552   .debug_str:000000000000029a .LASF141
     /tmp/ccx9TjjK.s:234    .text:000000000000013c .LVL13
GAS LISTING /tmp/ccx9TjjK.s 			page 12


     /tmp/ccx9TjjK.s:247    .text:0000000000000158 .LVL14
     /tmp/ccx9TjjK.s:167    .text:00000000000000d8 .LVL9
     /tmp/ccx9TjjK.s:180    .text:00000000000000f4 .LVL10
     /tmp/ccx9TjjK.s:285    .debug_info:0000000000000000 .Ldebug_info0
     /tmp/ccx9TjjK.s:97     .gcc_except_table:0000000000000000 .LLSDA34

UNDEFINED SYMBOLS
_ZN13BoundedBuffernwEm
_ZN13BoundedBufferC1Ev
_ZN13BoundedBufferdlEPv
_Unwind_Resume
__gxx_personality_v0
_ZN13BoundedBuffer3getEv
_ZN13BoundedBuffer3putEc
