GAS LISTING /tmp/ccvsoJbX.s 			page 1


   1              		.file	"Console.cpp"
   2              		.option pic
   3              		.option norelax
   4              		.text
   5              	.Ltext0:
   6              		.align	2
   7              		.globl	_ZN9myConsole4initEv
   9              	_ZN9myConsole4initEv:
  10              	.LFB34:
  11              		.file 1 "src/Console.cpp"
   1:src/Console.cpp **** #include "../h/Console.hpp"
   2:src/Console.cpp **** 
   3:src/Console.cpp **** BoundedBuffer* myConsole::inputBuffer = nullptr;
   4:src/Console.cpp **** BoundedBuffer* myConsole::outputBuffer = nullptr;
   5:src/Console.cpp **** TCB* myConsole::char_handler = nullptr;
   6:src/Console.cpp **** 
   7:src/Console.cpp **** void myConsole::init() {
  12              		.loc 1 7 24
  13              		.cfi_startproc
  14              		.cfi_personality 0x9b,DW.ref.__gxx_personality_v0
  15              		.cfi_lsda 0x1b,.LLSDA34
  16 0000 130101FE 		addi	sp,sp,-32
  17              		.cfi_def_cfa_offset 32
  18 0004 233C1100 		sd	ra,24(sp)
  19 0008 23388100 		sd	s0,16(sp)
  20 000c 23349100 		sd	s1,8(sp)
  21 0010 23302101 		sd	s2,0(sp)
  22              		.cfi_offset 1, -8
  23              		.cfi_offset 8, -16
  24              		.cfi_offset 9, -24
  25              		.cfi_offset 18, -32
  26 0014 13040102 		addi	s0,sp,32
  27              		.cfi_def_cfa 8, 0
   8:src/Console.cpp ****     inputBuffer = new BoundedBuffer();   // from controller to getc
  28              		.loc 1 8 5
  29              		.loc 1 8 37 is_stmt 0
  30 0018 13050015 		li	a0,336
  31              	.LEHB0:
  32 001c 97000000 		call	_ZN13BoundedBuffernwEm@plt
  32      E7800000 
  33              	.LVL0:
  34              	.LEHE0:
  35 0024 93040500 		mv	s1,a0
  36              	.LEHB1:
  37 0028 97000000 		call	_ZN13BoundedBufferC1Ev@plt
  37      E7800000 
  38              	.LVL1:
  39              	.LEHE1:
  40              		.loc 1 8 17 discriminator 2
  41 0030 97070000 		sd	s1,.LANCHOR0,a5
  41      23B09700 
   9:src/Console.cpp ****     outputBuffer = new BoundedBuffer();  // from putc to controller
  42              		.loc 1 9 5 is_stmt 1 discriminator 2
  43              		.loc 1 9 38 is_stmt 0 discriminator 2
  44 0038 13050015 		li	a0,336
  45              	.LEHB2:
  46 003c 97000000 		call	_ZN13BoundedBuffernwEm@plt
GAS LISTING /tmp/ccvsoJbX.s 			page 2


  46      E7800000 
  47              	.LVL2:
  48              	.LEHE2:
  49 0044 93040500 		mv	s1,a0
  50              	.LEHB3:
  51 0048 97000000 		call	_ZN13BoundedBufferC1Ev@plt
  51      E7800000 
  52              	.LVL3:
  53              	.LEHE3:
  54              		.loc 1 9 18
  55 0050 97070000 		sd	s1,.LANCHOR0+8,a5
  55      23B09700 
  10:src/Console.cpp ****     //thread_create(&char_handler, char_handler_wrapper, nullptr);
  11:src/Console.cpp **** }
  56              		.loc 1 11 1
  57 0058 83308101 		ld	ra,24(sp)
  58              		.cfi_remember_state
  59              		.cfi_restore 1
  60 005c 03340101 		ld	s0,16(sp)
  61              		.cfi_restore 8
  62              		.cfi_def_cfa 2, 32
  63 0060 83348100 		ld	s1,8(sp)
  64              		.cfi_restore 9
  65 0064 03390100 		ld	s2,0(sp)
  66              		.cfi_restore 18
  67 0068 13010102 		addi	sp,sp,32
  68              		.cfi_def_cfa_offset 0
  69 006c 67800000 		jr	ra
  70              	.L4:
  71              		.cfi_restore_state
  72 0070 13090500 		mv	s2,a0
   8:src/Console.cpp ****     outputBuffer = new BoundedBuffer();  // from putc to controller
  73              		.loc 1 8 37
  74 0074 13850400 		mv	a0,s1
  75 0078 97000000 		call	_ZN13BoundedBufferdlEPv@plt
  75      E7800000 
  76              	.LVL4:
  77 0080 13050900 		mv	a0,s2
  78              	.LEHB4:
  79 0084 97000000 		call	_Unwind_Resume@plt
  79      E7800000 
  80              	.LVL5:
  81              	.LEHE4:
  82              	.L5:
  83 008c 13090500 		mv	s2,a0
   9:src/Console.cpp ****     outputBuffer = new BoundedBuffer();  // from putc to controller
  84              		.loc 1 9 38
  85 0090 13850400 		mv	a0,s1
  86 0094 97000000 		call	_ZN13BoundedBufferdlEPv@plt
  86      E7800000 
  87              	.LVL6:
  88 009c 13050900 		mv	a0,s2
  89              	.LEHB5:
  90 00a0 97000000 		call	_Unwind_Resume@plt
  90      E7800000 
  91              	.LVL7:
  92              	.LEHE5:
GAS LISTING /tmp/ccvsoJbX.s 			page 3


  93              		.cfi_endproc
  94              	.LFE34:
  95              		.globl	__gxx_personality_v0
  96              		.section	.gcc_except_table,"a",@progbits
  97              	.LLSDA34:
  98 0000 FF       		.byte	0xff
  99 0001 FF       		.byte	0xff
 100 0002 03       		.byte	0x3
 101 0003 4E       		.byte	0x4e
 102 0004 00000000 		.4byte	.LEHB0-.LFB34
 103 0008 00000000 		.4byte	.LEHE0-.LEHB0
 104 000c 00000000 		.4byte	0
 105 0010 00       		.byte	0
 106 0011 00000000 		.4byte	.LEHB1-.LFB34
 107 0015 00000000 		.4byte	.LEHE1-.LEHB1
 108 0019 00000000 		.4byte	.L4-.LFB34
 109 001d 00       		.byte	0
 110 001e 00000000 		.4byte	.LEHB2-.LFB34
 111 0022 00000000 		.4byte	.LEHE2-.LEHB2
 112 0026 00000000 		.4byte	0
 113 002a 00       		.byte	0
 114 002b 00000000 		.4byte	.LEHB3-.LFB34
 115 002f 00000000 		.4byte	.LEHE3-.LEHB3
 116 0033 00000000 		.4byte	.L5-.LFB34
 117 0037 00       		.byte	0
 118 0038 00000000 		.4byte	.LEHB4-.LFB34
 119 003c 00000000 		.4byte	.LEHE4-.LEHB4
 120 0040 00000000 		.4byte	0
 121 0044 00       		.byte	0
 122 0045 00000000 		.4byte	.LEHB5-.LFB34
 123 0049 00000000 		.4byte	.LEHE5-.LEHB5
 124 004d 00000000 		.4byte	0
 125 0051 00       		.byte	0
 126              		.text
 128              		.align	2
 129              		.globl	_ZN9myConsole10input_getcEv
 131              	_ZN9myConsole10input_getcEv:
 132              	.LFB35:
  12:src/Console.cpp **** 
  13:src/Console.cpp **** char myConsole::input_getc() {
 133              		.loc 1 13 30 is_stmt 1
 134              		.cfi_startproc
 135 00a8 130101FF 		addi	sp,sp,-16
 136              		.cfi_def_cfa_offset 16
 137 00ac 23341100 		sd	ra,8(sp)
 138 00b0 23308100 		sd	s0,0(sp)
 139              		.cfi_offset 1, -8
 140              		.cfi_offset 8, -16
 141 00b4 13040101 		addi	s0,sp,16
 142              		.cfi_def_cfa 8, 0
  14:src/Console.cpp ****     return inputBuffer->get();
 143              		.loc 1 14 5
 144              		.loc 1 14 28 is_stmt 0
 145 00b8 17050000 		ld	a0,.LANCHOR0
 145      03350500 
 146 00c0 97000000 		call	_ZN13BoundedBuffer3getEv@plt
 146      E7800000 
GAS LISTING /tmp/ccvsoJbX.s 			page 4


 147              	.LVL8:
  15:src/Console.cpp **** }
 148              		.loc 1 15 1
 149 00c8 83308100 		ld	ra,8(sp)
 150              		.cfi_restore 1
 151 00cc 03340100 		ld	s0,0(sp)
 152              		.cfi_restore 8
 153              		.cfi_def_cfa 2, 16
 154 00d0 13010101 		addi	sp,sp,16
 155              		.cfi_def_cfa_offset 0
 156 00d4 67800000 		jr	ra
 157              		.cfi_endproc
 158              	.LFE35:
 160              		.align	2
 161              		.globl	_ZN9myConsole11output_putcEc
 163              	_ZN9myConsole11output_putcEc:
 164              	.LFB36:
  16:src/Console.cpp **** 
  17:src/Console.cpp **** void myConsole::output_putc(char c) {
 165              		.loc 1 17 37 is_stmt 1
 166              		.cfi_startproc
 167              	.LVL9:
 168 00d8 130101FF 		addi	sp,sp,-16
 169              		.cfi_def_cfa_offset 16
 170 00dc 23341100 		sd	ra,8(sp)
 171 00e0 23308100 		sd	s0,0(sp)
 172              		.cfi_offset 1, -8
 173              		.cfi_offset 8, -16
 174 00e4 13040101 		addi	s0,sp,16
 175              		.cfi_def_cfa 8, 0
 176 00e8 93050500 		mv	a1,a0
  18:src/Console.cpp ****     outputBuffer->put(c);
 177              		.loc 1 18 5
 178              		.loc 1 18 22 is_stmt 0
 179 00ec 17050000 		ld	a0,.LANCHOR0+8
 179      03350500 
 180              	.LVL10:
 181 00f4 97000000 		call	_ZN13BoundedBuffer3putEc@plt
 181      E7800000 
 182              	.LVL11:
  19:src/Console.cpp **** }
 183              		.loc 1 19 1
 184 00fc 83308100 		ld	ra,8(sp)
 185              		.cfi_restore 1
 186 0100 03340100 		ld	s0,0(sp)
 187              		.cfi_restore 8
 188              		.cfi_def_cfa 2, 16
 189 0104 13010101 		addi	sp,sp,16
 190              		.cfi_def_cfa_offset 0
 191 0108 67800000 		jr	ra
 192              		.cfi_endproc
 193              	.LFE36:
 195              		.align	2
 196              		.globl	_ZN9myConsole11output_getcEv
 198              	_ZN9myConsole11output_getcEv:
 199              	.LFB37:
  20:src/Console.cpp **** 
GAS LISTING /tmp/ccvsoJbX.s 			page 5


  21:src/Console.cpp **** char myConsole::output_getc() {
 200              		.loc 1 21 31 is_stmt 1
 201              		.cfi_startproc
 202 010c 130101FF 		addi	sp,sp,-16
 203              		.cfi_def_cfa_offset 16
 204 0110 23341100 		sd	ra,8(sp)
 205 0114 23308100 		sd	s0,0(sp)
 206              		.cfi_offset 1, -8
 207              		.cfi_offset 8, -16
 208 0118 13040101 		addi	s0,sp,16
 209              		.cfi_def_cfa 8, 0
  22:src/Console.cpp ****     return outputBuffer->get();
 210              		.loc 1 22 5
 211              		.loc 1 22 29 is_stmt 0
 212 011c 17050000 		ld	a0,.LANCHOR0+8
 212      03350500 
 213 0124 97000000 		call	_ZN13BoundedBuffer3getEv@plt
 213      E7800000 
 214              	.LVL12:
  23:src/Console.cpp **** }
 215              		.loc 1 23 1
 216 012c 83308100 		ld	ra,8(sp)
 217              		.cfi_restore 1
 218 0130 03340100 		ld	s0,0(sp)
 219              		.cfi_restore 8
 220              		.cfi_def_cfa 2, 16
 221 0134 13010101 		addi	sp,sp,16
 222              		.cfi_def_cfa_offset 0
 223 0138 67800000 		jr	ra
 224              		.cfi_endproc
 225              	.LFE37:
 227              		.align	2
 228              		.globl	_ZN9myConsole10input_putcEc
 230              	_ZN9myConsole10input_putcEc:
 231              	.LFB38:
  24:src/Console.cpp **** 
  25:src/Console.cpp **** void myConsole::input_putc(char c) {
 232              		.loc 1 25 36 is_stmt 1
 233              		.cfi_startproc
 234              	.LVL13:
 235 013c 130101FF 		addi	sp,sp,-16
 236              		.cfi_def_cfa_offset 16
 237 0140 23341100 		sd	ra,8(sp)
 238 0144 23308100 		sd	s0,0(sp)
 239              		.cfi_offset 1, -8
 240              		.cfi_offset 8, -16
 241 0148 13040101 		addi	s0,sp,16
 242              		.cfi_def_cfa 8, 0
 243 014c 93050500 		mv	a1,a0
  26:src/Console.cpp ****     inputBuffer->put(c);
 244              		.loc 1 26 5
 245              		.loc 1 26 21 is_stmt 0
 246 0150 17050000 		ld	a0,.LANCHOR0
 246      03350500 
 247              	.LVL14:
 248 0158 97000000 		call	_ZN13BoundedBuffer3putEc@plt
 248      E7800000 
GAS LISTING /tmp/ccvsoJbX.s 			page 6


 249              	.LVL15:
  27:src/Console.cpp **** }
 250              		.loc 1 27 1
 251 0160 83308100 		ld	ra,8(sp)
 252              		.cfi_restore 1
 253 0164 03340100 		ld	s0,0(sp)
 254              		.cfi_restore 8
 255              		.cfi_def_cfa 2, 16
 256 0168 13010101 		addi	sp,sp,16
 257              		.cfi_def_cfa_offset 0
 258 016c 67800000 		jr	ra
 259              		.cfi_endproc
 260              	.LFE38:
 262              		.align	2
 263              		.globl	_ZN9myConsole20char_handler_wrapperEPv
 265              	_ZN9myConsole20char_handler_wrapperEPv:
 266              	.LFB39:
  28:src/Console.cpp **** 
  29:src/Console.cpp **** void myConsole::char_handler_wrapper(void *) {
 267              		.loc 1 29 46 is_stmt 1
 268              		.cfi_startproc
 269              	.L21:
  30:src/Console.cpp **** 
  31:src/Console.cpp ****     while (true) { // dodatan uslov?
 270              		.loc 1 31 5
 271              	.LBB2:
  32:src/Console.cpp **** 
  33:src/Console.cpp ****         while (*(char *) CONSOLE_STATUS & CONSOLE_TX_STATUS_BIT) {
 272              		.loc 1 33 9
 273              		.loc 1 33 43
 274              		.loc 1 33 16 is_stmt 0
 275 0170 97070000 		la	a5,CONSOLE_STATUS
 275      83B70700 
 276 0178 83B70700 		ld	a5,0(a5)
 277 017c 83C70700 		lbu	a5,0(a5)
 278              		.loc 1 33 43
 279 0180 93F70702 		andi	a5,a5,32
 280 0184 E38607FE 		beqz	a5,.L21
 281              	.LBE2:
  29:src/Console.cpp **** 
 282              		.loc 1 29 46
 283 0188 130101FF 		addi	sp,sp,-16
 284              		.cfi_def_cfa_offset 16
 285 018c 23341100 		sd	ra,8(sp)
 286 0190 23308100 		sd	s0,0(sp)
 287              		.cfi_offset 1, -8
 288              		.cfi_offset 8, -16
 289 0194 13040101 		addi	s0,sp,16
 290              		.cfi_def_cfa 8, 0
 291              	.L22:
 292              	.LBB4:
 293              	.LBB3:
  34:src/Console.cpp ****             // console controller is ready for new char
  35:src/Console.cpp ****             char c = myConsole::output_getc();
 294              		.loc 1 35 13 is_stmt 1
 295              		.loc 1 35 44 is_stmt 0
 296 0198 97000000 		call	_ZN9myConsole11output_getcEv
GAS LISTING /tmp/ccvsoJbX.s 			page 7


 296      E7800000 
 297              	.LVL16:
  36:src/Console.cpp ****             if (c == '\r') continue;
 298              		.loc 1 36 13 is_stmt 1
 299 01a0 9307D000 		li	a5,13
 300 01a4 630AF500 		beq	a0,a5,.L18
  37:src/Console.cpp ****             *(char *) CONSOLE_TX_DATA = c;
 301              		.loc 1 37 13
 302 01a8 97070000 		la	a5,CONSOLE_TX_DATA
 302      83B70700 
 303 01b0 83B70700 		ld	a5,0(a5)
 304              		.loc 1 37 39 is_stmt 0
 305 01b4 2380A700 		sb	a0,0(a5)
 306              	.L18:
 307              	.LBE3:
 308              	.LBE4:
  31:src/Console.cpp **** 
 309              		.loc 1 31 5 is_stmt 1
 310              	.LBB5:
  33:src/Console.cpp ****             // console controller is ready for new char
 311              		.loc 1 33 9
  33:src/Console.cpp ****             // console controller is ready for new char
 312              		.loc 1 33 43
  33:src/Console.cpp ****             // console controller is ready for new char
 313              		.loc 1 33 16 is_stmt 0
 314 01b8 97070000 		la	a5,CONSOLE_STATUS
 314      83B70700 
 315 01c0 83B70700 		ld	a5,0(a5)
 316 01c4 83C70700 		lbu	a5,0(a5)
  33:src/Console.cpp ****             // console controller is ready for new char
 317              		.loc 1 33 43
 318 01c8 93F70702 		andi	a5,a5,32
 319 01cc E38607FE 		beqz	a5,.L18
 320 01d0 6FF09FFC 		j	.L22
 321              	.LBE5:
 322              		.cfi_endproc
 323              	.LFE39:
 325              		.globl	_ZN9myConsole12char_handlerE
 326              		.globl	_ZN9myConsole12outputBufferE
 327              		.globl	_ZN9myConsole11inputBufferE
 328              		.bss
 329              		.align	3
 330              		.set	.LANCHOR0,. + 0
 333              	_ZN9myConsole11inputBufferE:
 334 0000 00000000 		.zero	8
 334      00000000 
 337              	_ZN9myConsole12outputBufferE:
 338 0008 00000000 		.zero	8
 338      00000000 
 341              	_ZN9myConsole12char_handlerE:
 342 0010 00000000 		.zero	8
 342      00000000 
 343              		.text
 344              	.Letext0:
 345              		.file 2 "src/../h/../lib/hw.h"
 346              		.file 3 "src/../h/../h/Memoryallocator.hpp"
 347              		.file 4 "src/../h/thread.hpp"
GAS LISTING /tmp/ccvsoJbX.s 			page 8


 348              		.file 5 "src/../h/../h/syscall_c.h"
 349              		.file 6 "src/../h/semaphore.hpp"
 350              		.file 7 "src/../h/List.hpp"
 351              		.file 8 "src/../h/BoundedBuffer.hpp"
 352              		.file 9 "src/../h/Console.hpp"
 3154              		.align	3
 3157              	DW.ref.__gxx_personality_v0:
 3158 0000 00000000 		.dword	__gxx_personality_v0
 3158      00000000 
 3159              		.ident	"GCC: (Ubuntu 9.4.0-1ubuntu1~20.04) 9.4.0"
 3160              		.section	.note.GNU-stack,"",@progbits
GAS LISTING /tmp/ccvsoJbX.s 			page 9


DEFINED SYMBOLS
                            *ABS*:0000000000000000 Console.cpp
     /tmp/ccvsoJbX.s:9      .text:0000000000000000 _ZN9myConsole4initEv
     /tmp/ccvsoJbX.s:13     .text:0000000000000000 .L0 
     /tmp/ccvsoJbX.s:3157   .data.rel.local.DW.ref.__gxx_personality_v0:0000000000000000 DW.ref.__gxx_personality_v0
     /tmp/ccvsoJbX.s:16     .text:0000000000000000 .L0 
     /tmp/ccvsoJbX.s:17     .text:0000000000000004 .L0 
     /tmp/ccvsoJbX.s:22     .text:0000000000000014 .L0 
     /tmp/ccvsoJbX.s:23     .text:0000000000000014 .L0 
     /tmp/ccvsoJbX.s:24     .text:0000000000000014 .L0 
     /tmp/ccvsoJbX.s:25     .text:0000000000000014 .L0 
     /tmp/ccvsoJbX.s:27     .text:0000000000000018 .L0 
     /tmp/ccvsoJbX.s:29     .text:0000000000000018 .L0 
     /tmp/ccvsoJbX.s:30     .text:0000000000000018 .L0 
     /tmp/ccvsoJbX.s:41     .text:0000000000000030 .L0 
     /tmp/ccvsoJbX.s:43     .text:0000000000000038 .L0 
     /tmp/ccvsoJbX.s:44     .text:0000000000000038 .L0 
     /tmp/ccvsoJbX.s:55     .text:0000000000000050 .L0 
     /tmp/ccvsoJbX.s:57     .text:0000000000000058 .L0 
     /tmp/ccvsoJbX.s:58     .text:000000000000005c .L0 
     /tmp/ccvsoJbX.s:59     .text:000000000000005c .L0 
     /tmp/ccvsoJbX.s:61     .text:0000000000000060 .L0 
     /tmp/ccvsoJbX.s:62     .text:0000000000000060 .L0 
     /tmp/ccvsoJbX.s:64     .text:0000000000000064 .L0 
     /tmp/ccvsoJbX.s:66     .text:0000000000000068 .L0 
     /tmp/ccvsoJbX.s:68     .text:000000000000006c .L0 
     /tmp/ccvsoJbX.s:71     .text:0000000000000070 .L0 
     /tmp/ccvsoJbX.s:74     .text:0000000000000074 .L0 
     /tmp/ccvsoJbX.s:85     .text:0000000000000090 .L0 
     /tmp/ccvsoJbX.s:93     .text:00000000000000a8 .L0 
     /tmp/ccvsoJbX.s:131    .text:00000000000000a8 _ZN9myConsole10input_getcEv
     /tmp/ccvsoJbX.s:134    .text:00000000000000a8 .L0 
     /tmp/ccvsoJbX.s:135    .text:00000000000000a8 .L0 
     /tmp/ccvsoJbX.s:136    .text:00000000000000ac .L0 
     /tmp/ccvsoJbX.s:139    .text:00000000000000b4 .L0 
     /tmp/ccvsoJbX.s:140    .text:00000000000000b4 .L0 
     /tmp/ccvsoJbX.s:142    .text:00000000000000b8 .L0 
     /tmp/ccvsoJbX.s:144    .text:00000000000000b8 .L0 
     /tmp/ccvsoJbX.s:145    .text:00000000000000b8 .L0 
     /tmp/ccvsoJbX.s:149    .text:00000000000000c8 .L0 
     /tmp/ccvsoJbX.s:150    .text:00000000000000cc .L0 
     /tmp/ccvsoJbX.s:152    .text:00000000000000d0 .L0 
     /tmp/ccvsoJbX.s:153    .text:00000000000000d0 .L0 
     /tmp/ccvsoJbX.s:155    .text:00000000000000d4 .L0 
     /tmp/ccvsoJbX.s:157    .text:00000000000000d8 .L0 
     /tmp/ccvsoJbX.s:163    .text:00000000000000d8 _ZN9myConsole11output_putcEc
     /tmp/ccvsoJbX.s:166    .text:00000000000000d8 .L0 
     /tmp/ccvsoJbX.s:168    .text:00000000000000d8 .L0 
     /tmp/ccvsoJbX.s:169    .text:00000000000000dc .L0 
     /tmp/ccvsoJbX.s:172    .text:00000000000000e4 .L0 
     /tmp/ccvsoJbX.s:173    .text:00000000000000e4 .L0 
     /tmp/ccvsoJbX.s:175    .text:00000000000000e8 .L0 
     /tmp/ccvsoJbX.s:178    .text:00000000000000ec .L0 
     /tmp/ccvsoJbX.s:179    .text:00000000000000ec .L0 
     /tmp/ccvsoJbX.s:184    .text:00000000000000fc .L0 
     /tmp/ccvsoJbX.s:185    .text:0000000000000100 .L0 
     /tmp/ccvsoJbX.s:187    .text:0000000000000104 .L0 
GAS LISTING /tmp/ccvsoJbX.s 			page 10


     /tmp/ccvsoJbX.s:188    .text:0000000000000104 .L0 
     /tmp/ccvsoJbX.s:190    .text:0000000000000108 .L0 
     /tmp/ccvsoJbX.s:192    .text:000000000000010c .L0 
     /tmp/ccvsoJbX.s:198    .text:000000000000010c _ZN9myConsole11output_getcEv
     /tmp/ccvsoJbX.s:201    .text:000000000000010c .L0 
     /tmp/ccvsoJbX.s:202    .text:000000000000010c .L0 
     /tmp/ccvsoJbX.s:203    .text:0000000000000110 .L0 
     /tmp/ccvsoJbX.s:206    .text:0000000000000118 .L0 
     /tmp/ccvsoJbX.s:207    .text:0000000000000118 .L0 
     /tmp/ccvsoJbX.s:209    .text:000000000000011c .L0 
     /tmp/ccvsoJbX.s:211    .text:000000000000011c .L0 
     /tmp/ccvsoJbX.s:212    .text:000000000000011c .L0 
     /tmp/ccvsoJbX.s:216    .text:000000000000012c .L0 
     /tmp/ccvsoJbX.s:217    .text:0000000000000130 .L0 
     /tmp/ccvsoJbX.s:219    .text:0000000000000134 .L0 
     /tmp/ccvsoJbX.s:220    .text:0000000000000134 .L0 
     /tmp/ccvsoJbX.s:222    .text:0000000000000138 .L0 
     /tmp/ccvsoJbX.s:224    .text:000000000000013c .L0 
     /tmp/ccvsoJbX.s:230    .text:000000000000013c _ZN9myConsole10input_putcEc
     /tmp/ccvsoJbX.s:233    .text:000000000000013c .L0 
     /tmp/ccvsoJbX.s:235    .text:000000000000013c .L0 
     /tmp/ccvsoJbX.s:236    .text:0000000000000140 .L0 
     /tmp/ccvsoJbX.s:239    .text:0000000000000148 .L0 
     /tmp/ccvsoJbX.s:240    .text:0000000000000148 .L0 
     /tmp/ccvsoJbX.s:242    .text:000000000000014c .L0 
     /tmp/ccvsoJbX.s:245    .text:0000000000000150 .L0 
     /tmp/ccvsoJbX.s:246    .text:0000000000000150 .L0 
     /tmp/ccvsoJbX.s:251    .text:0000000000000160 .L0 
     /tmp/ccvsoJbX.s:252    .text:0000000000000164 .L0 
     /tmp/ccvsoJbX.s:254    .text:0000000000000168 .L0 
     /tmp/ccvsoJbX.s:255    .text:0000000000000168 .L0 
     /tmp/ccvsoJbX.s:257    .text:000000000000016c .L0 
     /tmp/ccvsoJbX.s:259    .text:0000000000000170 .L0 
     /tmp/ccvsoJbX.s:265    .text:0000000000000170 _ZN9myConsole20char_handler_wrapperEPv
     /tmp/ccvsoJbX.s:268    .text:0000000000000170 .L0 
     /tmp/ccvsoJbX.s:270    .text:0000000000000170 .L0 
     /tmp/ccvsoJbX.s:272    .text:0000000000000170 .L0 
     /tmp/ccvsoJbX.s:273    .text:0000000000000170 .L0 
     /tmp/ccvsoJbX.s:274    .text:0000000000000170 .L0 
     /tmp/ccvsoJbX.s:275    .text:0000000000000170 .L0 
     /tmp/ccvsoJbX.s:279    .text:0000000000000180 .L0 
     /tmp/ccvsoJbX.s:283    .text:0000000000000188 .L0 
     /tmp/ccvsoJbX.s:284    .text:000000000000018c .L0 
     /tmp/ccvsoJbX.s:287    .text:0000000000000194 .L0 
     /tmp/ccvsoJbX.s:288    .text:0000000000000194 .L0 
     /tmp/ccvsoJbX.s:290    .text:0000000000000198 .L0 
     /tmp/ccvsoJbX.s:295    .text:0000000000000198 .L0 
     /tmp/ccvsoJbX.s:296    .text:0000000000000198 .L0 
     /tmp/ccvsoJbX.s:299    .text:00000000000001a0 .L0 
     /tmp/ccvsoJbX.s:302    .text:00000000000001a8 .L0 
     /tmp/ccvsoJbX.s:305    .text:00000000000001b4 .L0 
     /tmp/ccvsoJbX.s:311    .text:00000000000001b8 .L0 
     /tmp/ccvsoJbX.s:312    .text:00000000000001b8 .L0 
     /tmp/ccvsoJbX.s:313    .text:00000000000001b8 .L0 
     /tmp/ccvsoJbX.s:314    .text:00000000000001b8 .L0 
     /tmp/ccvsoJbX.s:318    .text:00000000000001c8 .L0 
     /tmp/ccvsoJbX.s:322    .text:00000000000001d4 .L0 
GAS LISTING /tmp/ccvsoJbX.s 			page 11


     /tmp/ccvsoJbX.s:341    .bss:0000000000000010 _ZN9myConsole12char_handlerE
     /tmp/ccvsoJbX.s:337    .bss:0000000000000008 _ZN9myConsole12outputBufferE
     /tmp/ccvsoJbX.s:333    .bss:0000000000000000 _ZN9myConsole11inputBufferE
     /tmp/ccvsoJbX.s:330    .bss:0000000000000000 .LANCHOR0
     /tmp/ccvsoJbX.s:353    .text:00000000000001d4 .L0 
     /tmp/ccvsoJbX.s:41     .text:0000000000000030 .L0 
     /tmp/ccvsoJbX.s:55     .text:0000000000000050 .L0 
     /tmp/ccvsoJbX.s:145    .text:00000000000000b8 .L0 
     /tmp/ccvsoJbX.s:179    .text:00000000000000ec .L0 
     /tmp/ccvsoJbX.s:212    .text:000000000000011c .L0 
     /tmp/ccvsoJbX.s:246    .text:0000000000000150 .L0 
     /tmp/ccvsoJbX.s:275    .text:0000000000000170 .L0 
     /tmp/ccvsoJbX.s:302    .text:00000000000001a8 .L0 
     /tmp/ccvsoJbX.s:314    .text:00000000000001b8 .L0 
     /tmp/ccvsoJbX.s:269    .text:0000000000000170 .L21
     /tmp/ccvsoJbX.s:306    .text:00000000000001b8 .L18
     /tmp/ccvsoJbX.s:291    .text:0000000000000198 .L22
     /tmp/ccvsoJbX.s:31     .text:000000000000001c .LEHB0
     /tmp/ccvsoJbX.s:10     .text:0000000000000000 .LFB34
     /tmp/ccvsoJbX.s:34     .text:0000000000000024 .LEHE0
     /tmp/ccvsoJbX.s:36     .text:0000000000000028 .LEHB1
     /tmp/ccvsoJbX.s:39     .text:0000000000000030 .LEHE1
     /tmp/ccvsoJbX.s:70     .text:0000000000000070 .L4
     /tmp/ccvsoJbX.s:45     .text:000000000000003c .LEHB2
     /tmp/ccvsoJbX.s:48     .text:0000000000000044 .LEHE2
     /tmp/ccvsoJbX.s:50     .text:0000000000000048 .LEHB3
     /tmp/ccvsoJbX.s:53     .text:0000000000000050 .LEHE3
     /tmp/ccvsoJbX.s:82     .text:000000000000008c .L5
     /tmp/ccvsoJbX.s:78     .text:0000000000000084 .LEHB4
     /tmp/ccvsoJbX.s:81     .text:000000000000008c .LEHE4
     /tmp/ccvsoJbX.s:89     .text:00000000000000a0 .LEHB5
     /tmp/ccvsoJbX.s:92     .text:00000000000000a8 .LEHE5
     /tmp/ccvsoJbX.s:1781   .debug_abbrev:0000000000000000 .Ldebug_abbrev0
     /tmp/ccvsoJbX.s:3091   .debug_str:00000000000007d4 .LASF154
     /tmp/ccvsoJbX.s:2845   .debug_str:00000000000000cf .LASF155
     /tmp/ccvsoJbX.s:2925   .debug_str:000000000000034c .LASF156
     /tmp/ccvsoJbX.s:5      .text:0000000000000000 .Ltext0
     /tmp/ccvsoJbX.s:344    .text:00000000000001d4 .Letext0
     /tmp/ccvsoJbX.s:2815   .debug_line:0000000000000000 .Ldebug_line0
     /tmp/ccvsoJbX.s:2939   .debug_str:00000000000003c0 .LASF0
     /tmp/ccvsoJbX.s:2965   .debug_str:000000000000046c .LASF1
     /tmp/ccvsoJbX.s:3041   .debug_str:000000000000068a .LASF2
     /tmp/ccvsoJbX.s:3047   .debug_str:00000000000006b9 .LASF4
     /tmp/ccvsoJbX.s:2945   .debug_str:00000000000003f3 .LASF3
     /tmp/ccvsoJbX.s:2829   .debug_str:000000000000005c .LASF5
     /tmp/ccvsoJbX.s:3019   .debug_str:00000000000005f3 .LASF6
     /tmp/ccvsoJbX.s:3013   .debug_str:00000000000005b2 .LASF7
     /tmp/ccvsoJbX.s:2953   .debug_str:0000000000000423 .LASF8
     /tmp/ccvsoJbX.s:2921   .debug_str:0000000000000330 .LASF9
     /tmp/ccvsoJbX.s:2931   .debug_str:000000000000038e .LASF10
     /tmp/ccvsoJbX.s:2867   .debug_str:0000000000000164 .LASF11
     /tmp/ccvsoJbX.s:2913   .debug_str:00000000000002df .LASF12
     /tmp/ccvsoJbX.s:2881   .debug_str:00000000000001c5 .LASF13
     /tmp/ccvsoJbX.s:2865   .debug_str:0000000000000154 .LASF14
     /tmp/ccvsoJbX.s:3073   .debug_str:0000000000000763 .LASF15
     /tmp/ccvsoJbX.s:2903   .debug_str:0000000000000259 .LASF16
     /tmp/ccvsoJbX.s:3061   .debug_str:0000000000000703 .LASF17
GAS LISTING /tmp/ccvsoJbX.s 			page 12


     /tmp/ccvsoJbX.s:3027   .debug_str:0000000000000630 .LASF18
     /tmp/ccvsoJbX.s:2897   .debug_str:0000000000000235 .LASF157
     /tmp/ccvsoJbX.s:2955   .debug_str:0000000000000436 .LASF19
     /tmp/ccvsoJbX.s:2871   .debug_str:0000000000000178 .LASF20
     /tmp/ccvsoJbX.s:3025   .debug_str:0000000000000628 .LASF21
     /tmp/ccvsoJbX.s:2857   .debug_str:000000000000011d .LASF22
     /tmp/ccvsoJbX.s:2979   .debug_str:00000000000004c8 .LASF23
     /tmp/ccvsoJbX.s:3081   .debug_str:00000000000007a9 .LASF158
     /tmp/ccvsoJbX.s:3129   .debug_str:000000000000098d .LASF24
     /tmp/ccvsoJbX.s:3095   .debug_str:00000000000008ae .LASF25
     /tmp/ccvsoJbX.s:3089   .debug_str:00000000000007cc .LASF80
     /tmp/ccvsoJbX.s:3137   .debug_str:00000000000009c0 .LASF26
     /tmp/ccvsoJbX.s:3125   .debug_str:0000000000000971 .LASF28
     /tmp/ccvsoJbX.s:2863   .debug_str:0000000000000146 .LASF27
     /tmp/ccvsoJbX.s:2911   .debug_str:00000000000002b7 .LASF29
     /tmp/ccvsoJbX.s:2969   .debug_str:0000000000000491 .LASF42
     /tmp/ccvsoJbX.s:2843   .debug_str:00000000000000ba .LASF44
     /tmp/ccvsoJbX.s:2891   .debug_str:0000000000000219 .LASF59
     /tmp/ccvsoJbX.s:2875   .debug_str:000000000000019e .LASF61
     /tmp/ccvsoJbX.s:3053   .debug_str:00000000000006d7 .LASF30
     /tmp/ccvsoJbX.s:3057   .debug_str:00000000000006e6 .LASF32
     /tmp/ccvsoJbX.s:2971   .debug_str:0000000000000497 .LASF31
     /tmp/ccvsoJbX.s:3115   .debug_str:0000000000000933 .LASF33
     /tmp/ccvsoJbX.s:2831   .debug_str:0000000000000063 .LASF138
     /tmp/ccvsoJbX.s:2975   .debug_str:00000000000004a9 .LASF140
     /tmp/ccvsoJbX.s:3083   .debug_str:00000000000007b1 .LASF34
     /tmp/ccvsoJbX.s:3079   .debug_str:0000000000000793 .LASF35
     /tmp/ccvsoJbX.s:2983   .debug_str:00000000000004e3 .LASF36
     /tmp/ccvsoJbX.s:2883   .debug_str:00000000000001d5 .LASF37
     /tmp/ccvsoJbX.s:3049   .debug_str:00000000000006c0 .LASF38
     /tmp/ccvsoJbX.s:2827   .debug_str:0000000000000050 .LASF39
     /tmp/ccvsoJbX.s:3143   .debug_str:00000000000009d3 .LASF40
     /tmp/ccvsoJbX.s:2927   .debug_str:000000000000036a .LASF41
     /tmp/ccvsoJbX.s:2823   .debug_str:0000000000000018 .LASF43
     /tmp/ccvsoJbX.s:3007   .debug_str:0000000000000590 .LASF45
     /tmp/ccvsoJbX.s:2977   .debug_str:00000000000004bf .LASF46
     /tmp/ccvsoJbX.s:3039   .debug_str:0000000000000679 .LASF47
     /tmp/ccvsoJbX.s:2847   .debug_str:00000000000000df .LASF48
     /tmp/ccvsoJbX.s:3043   .debug_str:0000000000000698 .LASF49
     /tmp/ccvsoJbX.s:2957   .debug_str:000000000000043f .LASF50
     /tmp/ccvsoJbX.s:2895   .debug_str:0000000000000227 .LASF51
     /tmp/ccvsoJbX.s:3033   .debug_str:000000000000064c .LASF52
     /tmp/ccvsoJbX.s:2889   .debug_str:0000000000000211 .LASF53
     /tmp/ccvsoJbX.s:3141   .debug_str:00000000000009ce .LASF54
     /tmp/ccvsoJbX.s:3055   .debug_str:00000000000006e0 .LASF55
     /tmp/ccvsoJbX.s:3103   .debug_str:00000000000008da .LASF56
     /tmp/ccvsoJbX.s:2989   .debug_str:0000000000000514 .LASF57
     /tmp/ccvsoJbX.s:3059   .debug_str:00000000000006fa .LASF58
     /tmp/ccvsoJbX.s:3147   .debug_str:00000000000009f6 .LASF159
     /tmp/ccvsoJbX.s:2887   .debug_str:0000000000000203 .LASF91
     /tmp/ccvsoJbX.s:2825   .debug_str:0000000000000028 .LASF93
     /tmp/ccvsoJbX.s:3117   .debug_str:000000000000094c .LASF160
     /tmp/ccvsoJbX.s:2835   .debug_str:000000000000007b .LASF161
     /tmp/ccvsoJbX.s:3127   .debug_str:0000000000000981 .LASF60
     /tmp/ccvsoJbX.s:3099   .debug_str:00000000000008ba .LASF62
     /tmp/ccvsoJbX.s:3133   .debug_str:00000000000009ab .LASF63
     /tmp/ccvsoJbX.s:2893   .debug_str:0000000000000222 .LASF64
GAS LISTING /tmp/ccvsoJbX.s 			page 13


     /tmp/ccvsoJbX.s:2941   .debug_str:00000000000003cd .LASF65
     /tmp/ccvsoJbX.s:3077   .debug_str:000000000000078c .LASF66
     /tmp/ccvsoJbX.s:3021   .debug_str:00000000000005fa .LASF67
     /tmp/ccvsoJbX.s:3101   .debug_str:00000000000008d1 .LASF68
     /tmp/ccvsoJbX.s:2999   .debug_str:000000000000054b .LASF69
     /tmp/ccvsoJbX.s:2849   .debug_str:00000000000000ea .LASF70
     /tmp/ccvsoJbX.s:2917   .debug_str:00000000000002fd .LASF71
     /tmp/ccvsoJbX.s:3121   .debug_str:000000000000095f .LASF72
     /tmp/ccvsoJbX.s:2861   .debug_str:0000000000000132 .LASF73
     /tmp/ccvsoJbX.s:3003   .debug_str:0000000000000586 .LASF74
     /tmp/ccvsoJbX.s:2981   .debug_str:00000000000004d0 .LASF75
     /tmp/ccvsoJbX.s:2951   .debug_str:000000000000041b .LASF76
     /tmp/ccvsoJbX.s:3105   .debug_str:00000000000008e2 .LASF77
     /tmp/ccvsoJbX.s:2923   .debug_str:0000000000000340 .LASF78
     /tmp/ccvsoJbX.s:3069   .debug_str:000000000000074a .LASF79
     /tmp/ccvsoJbX.s:3035   .debug_str:0000000000000657 .LASF81
     /tmp/ccvsoJbX.s:2973   .debug_str:00000000000004a4 .LASF82
     /tmp/ccvsoJbX.s:2859   .debug_str:0000000000000126 .LASF101
     /tmp/ccvsoJbX.s:2937   .debug_str:00000000000003ba .LASF83
     /tmp/ccvsoJbX.s:2907   .debug_str:000000000000028b .LASF84
     /tmp/ccvsoJbX.s:3139   .debug_str:00000000000009c6 .LASF85
     /tmp/ccvsoJbX.s:3051   .debug_str:00000000000006c5 .LASF86
     /tmp/ccvsoJbX.s:2935   .debug_str:00000000000003b4 .LASF87
     /tmp/ccvsoJbX.s:2869   .debug_str:0000000000000173 .LASF88
     /tmp/ccvsoJbX.s:3009   .debug_str:000000000000059d .LASF89
     /tmp/ccvsoJbX.s:2817   .debug_str:0000000000000000 .LASF90
     /tmp/ccvsoJbX.s:2855   .debug_str:0000000000000116 .LASF92
     /tmp/ccvsoJbX.s:2839   .debug_str:000000000000009d .LASF94
     /tmp/ccvsoJbX.s:2947   .debug_str:0000000000000405 .LASF162
     /tmp/ccvsoJbX.s:3145   .debug_str:00000000000009e0 .LASF163
     /tmp/ccvsoJbX.s:2949   .debug_str:000000000000040f .LASF95
     /tmp/ccvsoJbX.s:3031   .debug_str:0000000000000647 .LASF96
     /tmp/ccvsoJbX.s:2993   .debug_str:0000000000000527 .LASF97
     /tmp/ccvsoJbX.s:3123   .debug_str:0000000000000967 .LASF98
     /tmp/ccvsoJbX.s:2991   .debug_str:0000000000000522 .LASF99
     /tmp/ccvsoJbX.s:3063   .debug_str:0000000000000719 .LASF100
     /tmp/ccvsoJbX.s:2901   .debug_str:0000000000000241 .LASF102
     /tmp/ccvsoJbX.s:2943   .debug_str:00000000000003de .LASF118
     /tmp/ccvsoJbX.s:2961   .debug_str:0000000000000462 .LASF103
     /tmp/ccvsoJbX.s:3093   .debug_str:0000000000000898 .LASF104
     /tmp/ccvsoJbX.s:2963   .debug_str:0000000000000467 .LASF105
     /tmp/ccvsoJbX.s:3131   .debug_str:0000000000000995 .LASF106
     /tmp/ccvsoJbX.s:3111   .debug_str:0000000000000922 .LASF164
     /tmp/ccvsoJbX.s:3067   .debug_str:0000000000000745 .LASF107
     /tmp/ccvsoJbX.s:2997   .debug_str:0000000000000546 .LASF108
     /tmp/ccvsoJbX.s:2819   .debug_str:000000000000000b .LASF109
     /tmp/ccvsoJbX.s:2821   .debug_str:0000000000000011 .LASF110
     /tmp/ccvsoJbX.s:3023   .debug_str:000000000000060d .LASF111
     /tmp/ccvsoJbX.s:3087   .debug_str:00000000000007c1 .LASF112
     /tmp/ccvsoJbX.s:2879   .debug_str:00000000000001b7 .LASF113
     /tmp/ccvsoJbX.s:2995   .debug_str:000000000000052f .LASF114
     /tmp/ccvsoJbX.s:2915   .debug_str:00000000000002ee .LASF115
     /tmp/ccvsoJbX.s:2959   .debug_str:000000000000044b .LASF116
     /tmp/ccvsoJbX.s:3017   .debug_str:00000000000005da .LASF117
     /tmp/ccvsoJbX.s:3065   .debug_str:000000000000072c .LASF119
     /tmp/ccvsoJbX.s:2877   .debug_str:00000000000001b1 .LASF120
     /tmp/ccvsoJbX.s:3037   .debug_str:000000000000065d .LASF121
GAS LISTING /tmp/ccvsoJbX.s 			page 14


     /tmp/ccvsoJbX.s:3005   .debug_str:000000000000058b .LASF122
     /tmp/ccvsoJbX.s:2987   .debug_str:00000000000004f9 .LASF123
     /tmp/ccvsoJbX.s:3107   .debug_str:00000000000008f6 .LASF124
     /tmp/ccvsoJbX.s:2933   .debug_str:000000000000039c .LASF125
     /tmp/ccvsoJbX.s:2837   .debug_str:000000000000008d .LASF126
     /tmp/ccvsoJbX.s:2985   .debug_str:00000000000004ea .LASF127
     /tmp/ccvsoJbX.s:2899   .debug_str:000000000000023b .LASF128
     /tmp/ccvsoJbX.s:3097   .debug_str:00000000000008b3 .LASF129
     /tmp/ccvsoJbX.s:3085   .debug_str:00000000000007bc .LASF130
     /tmp/ccvsoJbX.s:2841   .debug_str:00000000000000b0 .LASF131
     /tmp/ccvsoJbX.s:2967   .debug_str:000000000000047f .LASF132
     /tmp/ccvsoJbX.s:3045   .debug_str:00000000000006a4 .LASF133
     /tmp/ccvsoJbX.s:3113   .debug_str:0000000000000927 .LASF134
     /tmp/ccvsoJbX.s:2833   .debug_str:000000000000006e .LASF135
     /tmp/ccvsoJbX.s:2851   .debug_str:00000000000000f4 .LASF136
     /tmp/ccvsoJbX.s:3109   .debug_str:000000000000090d .LASF137
     /tmp/ccvsoJbX.s:3119   .debug_str:0000000000000954 .LASF139
     /tmp/ccvsoJbX.s:2905   .debug_str:000000000000026f .LASF141
     /tmp/ccvsoJbX.s:3071   .debug_str:0000000000000757 .LASF142
     /tmp/ccvsoJbX.s:2885   .debug_str:00000000000001e6 .LASF143
     /tmp/ccvsoJbX.s:3029   .debug_str:000000000000063b .LASF144
     /tmp/ccvsoJbX.s:2873   .debug_str:0000000000000181 .LASF145
     /tmp/ccvsoJbX.s:3149   .debug_str:0000000000000a19 .LASF146
     /tmp/ccvsoJbX.s:2909   .debug_str:000000000000029b .LASF147
     /tmp/ccvsoJbX.s:3011   .debug_str:00000000000005a5 .LASF148
     /tmp/ccvsoJbX.s:3015   .debug_str:00000000000005c5 .LASF149
     /tmp/ccvsoJbX.s:3001   .debug_str:000000000000055f .LASF150
     /tmp/ccvsoJbX.s:2919   .debug_str:0000000000000314 .LASF151
     /tmp/ccvsoJbX.s:3075   .debug_str:000000000000076f .LASF152
     /tmp/ccvsoJbX.s:2853   .debug_str:00000000000000f9 .LASF153
     /tmp/ccvsoJbX.s:266    .text:0000000000000170 .LFB39
     /tmp/ccvsoJbX.s:323    .text:00000000000001d4 .LFE39
     /tmp/ccvsoJbX.s:293    .text:0000000000000198 .LBB3
     /tmp/ccvsoJbX.s:307    .text:00000000000001b8 .LBE3
     /tmp/ccvsoJbX.s:297    .text:00000000000001a0 .LVL16
     /tmp/ccvsoJbX.s:231    .text:000000000000013c .LFB38
     /tmp/ccvsoJbX.s:260    .text:0000000000000170 .LFE38
     /tmp/ccvsoJbX.s:2774   .debug_loc:0000000000000000 .LLST1
     /tmp/ccvsoJbX.s:249    .text:0000000000000160 .LVL15
     /tmp/ccvsoJbX.s:199    .text:000000000000010c .LFB37
     /tmp/ccvsoJbX.s:225    .text:000000000000013c .LFE37
     /tmp/ccvsoJbX.s:214    .text:000000000000012c .LVL12
     /tmp/ccvsoJbX.s:164    .text:00000000000000d8 .LFB36
     /tmp/ccvsoJbX.s:193    .text:000000000000010c .LFE36
     /tmp/ccvsoJbX.s:2788   .debug_loc:0000000000000039 .LLST0
     /tmp/ccvsoJbX.s:182    .text:00000000000000fc .LVL11
     /tmp/ccvsoJbX.s:132    .text:00000000000000a8 .LFB35
     /tmp/ccvsoJbX.s:158    .text:00000000000000d8 .LFE35
     /tmp/ccvsoJbX.s:147    .text:00000000000000c8 .LVL8
     /tmp/ccvsoJbX.s:94     .text:00000000000000a8 .LFE34
     /tmp/ccvsoJbX.s:33     .text:0000000000000024 .LVL0
     /tmp/ccvsoJbX.s:38     .text:0000000000000030 .LVL1
     /tmp/ccvsoJbX.s:47     .text:0000000000000044 .LVL2
     /tmp/ccvsoJbX.s:52     .text:0000000000000050 .LVL3
     /tmp/ccvsoJbX.s:76     .text:0000000000000080 .LVL4
     /tmp/ccvsoJbX.s:80     .text:000000000000008c .LVL5
     /tmp/ccvsoJbX.s:87     .text:000000000000009c .LVL6
GAS LISTING /tmp/ccvsoJbX.s 			page 15


     /tmp/ccvsoJbX.s:91     .text:00000000000000a8 .LVL7
     /tmp/ccvsoJbX.s:3135   .debug_str:00000000000009b1 .LASF165
     /tmp/ccvsoJbX.s:2929   .debug_str:0000000000000376 .LASF166
     /tmp/ccvsoJbX.s:234    .text:000000000000013c .LVL13
     /tmp/ccvsoJbX.s:247    .text:0000000000000158 .LVL14
     /tmp/ccvsoJbX.s:167    .text:00000000000000d8 .LVL9
     /tmp/ccvsoJbX.s:180    .text:00000000000000f4 .LVL10
     /tmp/ccvsoJbX.s:354    .debug_info:0000000000000000 .Ldebug_info0
     /tmp/ccvsoJbX.s:97     .gcc_except_table:0000000000000000 .LLSDA34

UNDEFINED SYMBOLS
_ZN13BoundedBuffernwEm
_ZN13BoundedBufferC1Ev
_ZN13BoundedBufferdlEPv
_Unwind_Resume
__gxx_personality_v0
_ZN13BoundedBuffer3getEv
_ZN13BoundedBuffer3putEc
CONSOLE_STATUS
CONSOLE_TX_DATA
