GAS LISTING /tmp/ccUVuGHG.s 			page 1


   1              		.file	"List.cpp"
   2              		.option pic
   3              		.option norelax
   4              		.text
   5              	.Ltext0:
   6              		.align	2
   7              		.globl	_ZN4List3getEv
   9              	_ZN4List3getEv:
  10              	.LFB28:
  11              		.file 1 "src/List.cpp"
   1:src/List.cpp  **** #include "../h/List.hpp"
   2:src/List.cpp  **** 
   3:src/List.cpp  **** void List::add(TCB *tcb) {
   4:src/List.cpp  **** 
   5:src/List.cpp  ****     Elem* toAdd = new Elem(tcb);
   6:src/List.cpp  **** 
   7:src/List.cpp  ****     if (!head) head = tail = toAdd;
   8:src/List.cpp  ****     else tail = tail -> next = toAdd;
   9:src/List.cpp  **** 
  10:src/List.cpp  **** }
  11:src/List.cpp  **** 
  12:src/List.cpp  **** TCB *List::get() {
  12              		.loc 1 12 18
  13              		.cfi_startproc
  14              	.LVL0:
  15 0000 130101FF 		addi	sp,sp,-16
  16              		.cfi_def_cfa_offset 16
  17 0004 23348100 		sd	s0,8(sp)
  18              		.cfi_offset 8, -8
  19 0008 13040101 		addi	s0,sp,16
  20              		.cfi_def_cfa 8, 0
  13:src/List.cpp  **** 
  14:src/List.cpp  ****     if (!head) return nullptr;
  21              		.loc 1 14 5
  22              		.loc 1 14 10 is_stmt 0
  23 000c 03370500 		ld	a4,0(a0)
  24              		.loc 1 14 5
  25 0010 63060702 		beqz	a4,.L3
  26 0014 93070500 		mv	a5,a0
  15:src/List.cpp  **** 
  16:src/List.cpp  ****     TCB* tcb = head -> data;
  27              		.loc 1 16 5 is_stmt 1
  28              		.loc 1 16 10 is_stmt 0
  29 0018 03350700 		ld	a0,0(a4)
  30              	.LVL1:
  17:src/List.cpp  **** //    Elem* oldHead = head;
  18:src/List.cpp  ****     head = head -> next;
  31              		.loc 1 18 5 is_stmt 1
  32              		.loc 1 18 20 is_stmt 0
  33 001c 03378700 		ld	a4,8(a4)
  34              		.loc 1 18 10
  35 0020 23B0E700 		sd	a4,0(a5)
  19:src/List.cpp  **** 
  20:src/List.cpp  ****     if (!head) tail = nullptr;
  36              		.loc 1 20 5 is_stmt 1
  37 0024 63080700 		beqz	a4,.L5
  38              	.LVL2:
GAS LISTING /tmp/ccUVuGHG.s 			page 2


  39              	.L1:
  21:src/List.cpp  **** 
  22:src/List.cpp  ****     return tcb;
  23:src/List.cpp  **** }
  40              		.loc 1 23 1 is_stmt 0
  41 0028 03348100 		ld	s0,8(sp)
  42              		.cfi_remember_state
  43              		.cfi_restore 8
  44              		.cfi_def_cfa 2, 16
  45 002c 13010101 		addi	sp,sp,16
  46              		.cfi_def_cfa_offset 0
  47 0030 67800000 		jr	ra
  48              	.LVL3:
  49              	.L5:
  50              		.cfi_restore_state
  20:src/List.cpp  **** 
  51              		.loc 1 20 16 is_stmt 1 discriminator 1
  20:src/List.cpp  **** 
  52              		.loc 1 20 21 is_stmt 0 discriminator 1
  53 0034 23B40700 		sd	zero,8(a5)
  54 0038 6FF01FFF 		j	.L1
  55              	.LVL4:
  56              	.L3:
  14:src/List.cpp  **** 
  57              		.loc 1 14 23
  58 003c 13050700 		mv	a0,a4
  59              	.LVL5:
  60 0040 6FF09FFE 		j	.L1
  61              		.cfi_endproc
  62              	.LFE28:
  64              		.align	2
  65              		.globl	_ZN4List4peekEv
  67              	_ZN4List4peekEv:
  68              	.LFB29:
  24:src/List.cpp  **** 
  25:src/List.cpp  **** TCB *List::peek() {
  69              		.loc 1 25 19 is_stmt 1
  70              		.cfi_startproc
  71              	.LVL6:
  72 0044 130101FF 		addi	sp,sp,-16
  73              		.cfi_def_cfa_offset 16
  74 0048 23348100 		sd	s0,8(sp)
  75              		.cfi_offset 8, -8
  76 004c 13040101 		addi	s0,sp,16
  77              		.cfi_def_cfa 8, 0
  26:src/List.cpp  ****     if (head) return head->data;
  78              		.loc 1 26 5
  79              		.loc 1 26 9 is_stmt 0
  80 0050 03350500 		ld	a0,0(a0)
  81              	.LVL7:
  82              		.loc 1 26 5
  83 0054 63040500 		beqz	a0,.L6
  84              		.loc 1 26 15 is_stmt 1 discriminator 1
  85              		.loc 1 26 28 is_stmt 0 discriminator 1
  86 0058 03350500 		ld	a0,0(a0)
  87              	.L6:
  27:src/List.cpp  ****     else return nullptr;
GAS LISTING /tmp/ccUVuGHG.s 			page 3


  28:src/List.cpp  **** }
  88              		.loc 1 28 1
  89 005c 03348100 		ld	s0,8(sp)
  90              		.cfi_restore 8
  91              		.cfi_def_cfa 2, 16
  92 0060 13010101 		addi	sp,sp,16
  93              		.cfi_def_cfa_offset 0
  94 0064 67800000 		jr	ra
  95              		.cfi_endproc
  96              	.LFE29:
  98              		.align	2
  99              		.globl	_ZN4List4ElemC2EP3TCB
 101              	_ZN4List4ElemC2EP3TCB:
 102              	.LFB31:
  29:src/List.cpp  **** 
  30:src/List.cpp  **** List::Elem::Elem(TCB *tcb) : data(tcb), next(nullptr) {}
 103              		.loc 1 30 1 is_stmt 1
 104              		.cfi_startproc
 105              	.LVL8:
 106 0068 130101FF 		addi	sp,sp,-16
 107              		.cfi_def_cfa_offset 16
 108 006c 23348100 		sd	s0,8(sp)
 109              		.cfi_offset 8, -8
 110 0070 13040101 		addi	s0,sp,16
 111              		.cfi_def_cfa 8, 0
 112              	.LBB2:
 113              		.loc 1 30 53 is_stmt 0
 114 0074 2330B500 		sd	a1,0(a0)
 115 0078 23340500 		sd	zero,8(a0)
 116              	.LBE2:
 117              		.loc 1 30 56
 118 007c 03348100 		ld	s0,8(sp)
 119              		.cfi_restore 8
 120              		.cfi_def_cfa 2, 16
 121 0080 13010101 		addi	sp,sp,16
 122              		.cfi_def_cfa_offset 0
 123 0084 67800000 		jr	ra
 124              		.cfi_endproc
 125              	.LFE31:
 127              		.globl	_ZN4List4ElemC1EP3TCB
 128              		.set	_ZN4List4ElemC1EP3TCB,_ZN4List4ElemC2EP3TCB
 129              		.align	2
 130              		.globl	_ZN4List3addEP3TCB
 132              	_ZN4List3addEP3TCB:
 133              	.LFB27:
   3:src/List.cpp  **** 
 134              		.loc 1 3 26 is_stmt 1
 135              		.cfi_startproc
 136              	.LVL9:
 137 0088 130101FD 		addi	sp,sp,-48
 138              		.cfi_def_cfa_offset 48
 139 008c 23341102 		sd	ra,40(sp)
 140 0090 23308102 		sd	s0,32(sp)
 141 0094 233C9100 		sd	s1,24(sp)
 142 0098 23382101 		sd	s2,16(sp)
 143 009c 23343101 		sd	s3,8(sp)
 144              		.cfi_offset 1, -8
GAS LISTING /tmp/ccUVuGHG.s 			page 4


 145              		.cfi_offset 8, -16
 146              		.cfi_offset 9, -24
 147              		.cfi_offset 18, -32
 148              		.cfi_offset 19, -40
 149 00a0 13040103 		addi	s0,sp,48
 150              		.cfi_def_cfa 8, 0
 151 00a4 93040500 		mv	s1,a0
 152 00a8 93890500 		mv	s3,a1
   5:src/List.cpp  **** 
 153              		.loc 1 5 5
   5:src/List.cpp  **** 
 154              		.loc 1 5 31 is_stmt 0
 155 00ac 13050001 		li	a0,16
 156              	.LVL10:
 157 00b0 97000000 		call	_Znwm@plt
 157      E7800000 
 158              	.LVL11:
 159 00b8 13090500 		mv	s2,a0
 160 00bc 93850900 		mv	a1,s3
 161 00c0 97000000 		call	_ZN4List4ElemC1EP3TCB
 161      E7800000 
 162              	.LVL12:
   7:src/List.cpp  ****     else tail = tail -> next = toAdd;
 163              		.loc 1 7 5 is_stmt 1
   7:src/List.cpp  ****     else tail = tail -> next = toAdd;
 164              		.loc 1 7 10 is_stmt 0
 165 00c8 83B70400 		ld	a5,0(s1)
   7:src/List.cpp  ****     else tail = tail -> next = toAdd;
 166              		.loc 1 7 5
 167 00cc 63860702 		beqz	a5,.L15
   8:src/List.cpp  **** 
 168              		.loc 1 8 10 is_stmt 1
   8:src/List.cpp  **** 
 169              		.loc 1 8 17 is_stmt 0
 170 00d0 83B78400 		ld	a5,8(s1)
   8:src/List.cpp  **** 
 171              		.loc 1 8 30
 172 00d4 23B42701 		sd	s2,8(a5)
   8:src/List.cpp  **** 
 173              		.loc 1 8 15
 174 00d8 23B42401 		sd	s2,8(s1)
 175              	.L11:
  10:src/List.cpp  **** 
 176              		.loc 1 10 1
 177 00dc 83308102 		ld	ra,40(sp)
 178              		.cfi_remember_state
 179              		.cfi_restore 1
 180 00e0 03340102 		ld	s0,32(sp)
 181              		.cfi_restore 8
 182              		.cfi_def_cfa 2, 48
 183 00e4 83348101 		ld	s1,24(sp)
 184              		.cfi_restore 9
 185              	.LVL13:
 186 00e8 03390101 		ld	s2,16(sp)
 187              		.cfi_restore 18
 188              	.LVL14:
 189 00ec 83398100 		ld	s3,8(sp)
GAS LISTING /tmp/ccUVuGHG.s 			page 5


 190              		.cfi_restore 19
 191              	.LVL15:
 192 00f0 13010103 		addi	sp,sp,48
 193              		.cfi_def_cfa_offset 0
 194 00f4 67800000 		jr	ra
 195              	.LVL16:
 196              	.L15:
 197              		.cfi_restore_state
   7:src/List.cpp  ****     else tail = tail -> next = toAdd;
 198              		.loc 1 7 16 is_stmt 1 discriminator 1
   7:src/List.cpp  ****     else tail = tail -> next = toAdd;
 199              		.loc 1 7 28 is_stmt 0 discriminator 1
 200 00f8 23B42401 		sd	s2,8(s1)
   7:src/List.cpp  ****     else tail = tail -> next = toAdd;
 201              		.loc 1 7 21 discriminator 1
 202 00fc 23B02401 		sd	s2,0(s1)
 203 0100 6FF0DFFD 		j	.L11
 204              		.cfi_endproc
 205              	.LFE27:
 207              	.Letext0:
 208              		.file 2 "src/../h/../lib/hw.h"
 209              		.file 3 "src/../h/../h/Memoryallocator.hpp"
 210              		.file 4 "src/../h/thread.hpp"
 211              		.file 5 "src/../h/List.hpp"
 212              		.file 6 "src/../h/../h/syscall_c.h"
GAS LISTING /tmp/ccUVuGHG.s 			page 6

