GAS LISTING /tmp/ccUVuGHG.s 			page 1


   1              		.file	"List.cpp"
   2              		.option pic
   3              		.option norelax
   4              		.text
   5              	.Ltext0:
   6              		.align	2
   7              		.globl	_ZN4List3getEv
   9              	_ZN4List3getEv:
  10              	.LFB28:
  11              		.file 1 "src/List.cpp"
   1:src/List.cpp  **** #include "../h/List.hpp"
   2:src/List.cpp  **** 
   3:src/List.cpp  **** void List::add(TCB *tcb) {
   4:src/List.cpp  **** 
   5:src/List.cpp  ****     Elem* toAdd = new Elem(tcb);
   6:src/List.cpp  **** 
   7:src/List.cpp  ****     if (!head) head = tail = toAdd;
   8:src/List.cpp  ****     else tail = tail -> next = toAdd;
   9:src/List.cpp  **** 
  10:src/List.cpp  **** }
  11:src/List.cpp  **** 
  12:src/List.cpp  **** TCB *List::get() {
  12              		.loc 1 12 18
  13              		.cfi_startproc
  14              	.LVL0:
  15 0000 130101FF 		addi	sp,sp,-16
  16              		.cfi_def_cfa_offset 16
  17 0004 23348100 		sd	s0,8(sp)
  18              		.cfi_offset 8, -8
  19 0008 13040101 		addi	s0,sp,16
  20              		.cfi_def_cfa 8, 0
  13:src/List.cpp  **** 
  14:src/List.cpp  ****     if (!head) return nullptr;
  21              		.loc 1 14 5
  22              		.loc 1 14 10 is_stmt 0
  23 000c 03370500 		ld	a4,0(a0)
  24              		.loc 1 14 5
  25 0010 63060702 		beqz	a4,.L3
  26 0014 93070500 		mv	a5,a0
  15:src/List.cpp  **** 
  16:src/List.cpp  ****     TCB* tcb = head -> data;
  27              		.loc 1 16 5 is_stmt 1
  28              		.loc 1 16 10 is_stmt 0
  29 0018 03350700 		ld	a0,0(a4)
  30              	.LVL1:
  17:src/List.cpp  **** //    Elem* oldHead = head;
  18:src/List.cpp  ****     head = head -> next;
  31              		.loc 1 18 5 is_stmt 1
  32              		.loc 1 18 20 is_stmt 0
  33 001c 03378700 		ld	a4,8(a4)
  34              		.loc 1 18 10
  35 0020 23B0E700 		sd	a4,0(a5)
  19:src/List.cpp  **** 
  20:src/List.cpp  ****     if (!head) tail = nullptr;
  36              		.loc 1 20 5 is_stmt 1
  37 0024 63080700 		beqz	a4,.L5
  38              	.LVL2:
GAS LISTING /tmp/ccUVuGHG.s 			page 2


  39              	.L1:
  21:src/List.cpp  **** 
  22:src/List.cpp  ****     return tcb;
  23:src/List.cpp  **** }
  40              		.loc 1 23 1 is_stmt 0
  41 0028 03348100 		ld	s0,8(sp)
  42              		.cfi_remember_state
  43              		.cfi_restore 8
  44              		.cfi_def_cfa 2, 16
  45 002c 13010101 		addi	sp,sp,16
  46              		.cfi_def_cfa_offset 0
  47 0030 67800000 		jr	ra
  48              	.LVL3:
  49              	.L5:
  50              		.cfi_restore_state
  20:src/List.cpp  **** 
  51              		.loc 1 20 16 is_stmt 1 discriminator 1
  20:src/List.cpp  **** 
  52              		.loc 1 20 21 is_stmt 0 discriminator 1
  53 0034 23B40700 		sd	zero,8(a5)
  54 0038 6FF01FFF 		j	.L1
  55              	.LVL4:
  56              	.L3:
  14:src/List.cpp  **** 
  57              		.loc 1 14 23
  58 003c 13050700 		mv	a0,a4
  59              	.LVL5:
  60 0040 6FF09FFE 		j	.L1
  61              		.cfi_endproc
  62              	.LFE28:
  64              		.align	2
  65              		.globl	_ZN4List4peekEv
  67              	_ZN4List4peekEv:
  68              	.LFB29:
  24:src/List.cpp  **** 
  25:src/List.cpp  **** TCB *List::peek() {
  69              		.loc 1 25 19 is_stmt 1
  70              		.cfi_startproc
  71              	.LVL6:
  72 0044 130101FF 		addi	sp,sp,-16
  73              		.cfi_def_cfa_offset 16
  74 0048 23348100 		sd	s0,8(sp)
  75              		.cfi_offset 8, -8
  76 004c 13040101 		addi	s0,sp,16
  77              		.cfi_def_cfa 8, 0
  26:src/List.cpp  ****     if (head) return head->data;
  78              		.loc 1 26 5
  79              		.loc 1 26 9 is_stmt 0
  80 0050 03350500 		ld	a0,0(a0)
  81              	.LVL7:
  82              		.loc 1 26 5
  83 0054 63040500 		beqz	a0,.L6
  84              		.loc 1 26 15 is_stmt 1 discriminator 1
  85              		.loc 1 26 28 is_stmt 0 discriminator 1
  86 0058 03350500 		ld	a0,0(a0)
  87              	.L6:
  27:src/List.cpp  ****     else return nullptr;
GAS LISTING /tmp/ccUVuGHG.s 			page 3


  28:src/List.cpp  **** }
  88              		.loc 1 28 1
  89 005c 03348100 		ld	s0,8(sp)
  90              		.cfi_restore 8
  91              		.cfi_def_cfa 2, 16
  92 0060 13010101 		addi	sp,sp,16
  93              		.cfi_def_cfa_offset 0
  94 0064 67800000 		jr	ra
  95              		.cfi_endproc
  96              	.LFE29:
  98              		.align	2
  99              		.globl	_ZN4List4ElemC2EP3TCB
 101              	_ZN4List4ElemC2EP3TCB:
 102              	.LFB31:
  29:src/List.cpp  **** 
  30:src/List.cpp  **** List::Elem::Elem(TCB *tcb) : data(tcb), next(nullptr) {}
 103              		.loc 1 30 1 is_stmt 1
 104              		.cfi_startproc
 105              	.LVL8:
 106 0068 130101FF 		addi	sp,sp,-16
 107              		.cfi_def_cfa_offset 16
 108 006c 23348100 		sd	s0,8(sp)
 109              		.cfi_offset 8, -8
 110 0070 13040101 		addi	s0,sp,16
 111              		.cfi_def_cfa 8, 0
 112              	.LBB2:
 113              		.loc 1 30 53 is_stmt 0
 114 0074 2330B500 		sd	a1,0(a0)
 115 0078 23340500 		sd	zero,8(a0)
 116              	.LBE2:
 117              		.loc 1 30 56
 118 007c 03348100 		ld	s0,8(sp)
 119              		.cfi_restore 8
 120              		.cfi_def_cfa 2, 16
 121 0080 13010101 		addi	sp,sp,16
 122              		.cfi_def_cfa_offset 0
 123 0084 67800000 		jr	ra
 124              		.cfi_endproc
 125              	.LFE31:
 127              		.globl	_ZN4List4ElemC1EP3TCB
 128              		.set	_ZN4List4ElemC1EP3TCB,_ZN4List4ElemC2EP3TCB
 129              		.align	2
 130              		.globl	_ZN4List3addEP3TCB
 132              	_ZN4List3addEP3TCB:
 133              	.LFB27:
   3:src/List.cpp  **** 
 134              		.loc 1 3 26 is_stmt 1
 135              		.cfi_startproc
 136              	.LVL9:
 137 0088 130101FD 		addi	sp,sp,-48
 138              		.cfi_def_cfa_offset 48
 139 008c 23341102 		sd	ra,40(sp)
 140 0090 23308102 		sd	s0,32(sp)
 141 0094 233C9100 		sd	s1,24(sp)
 142 0098 23382101 		sd	s2,16(sp)
 143 009c 23343101 		sd	s3,8(sp)
 144              		.cfi_offset 1, -8
GAS LISTING /tmp/ccUVuGHG.s 			page 4


 145              		.cfi_offset 8, -16
 146              		.cfi_offset 9, -24
 147              		.cfi_offset 18, -32
 148              		.cfi_offset 19, -40
 149 00a0 13040103 		addi	s0,sp,48
 150              		.cfi_def_cfa 8, 0
 151 00a4 93040500 		mv	s1,a0
 152 00a8 93890500 		mv	s3,a1
   5:src/List.cpp  **** 
 153              		.loc 1 5 5
   5:src/List.cpp  **** 
 154              		.loc 1 5 31 is_stmt 0
 155 00ac 13050001 		li	a0,16
 156              	.LVL10:
 157 00b0 97000000 		call	_Znwm@plt
 157      E7800000 
 158              	.LVL11:
 159 00b8 13090500 		mv	s2,a0
 160 00bc 93850900 		mv	a1,s3
 161 00c0 97000000 		call	_ZN4List4ElemC1EP3TCB
 161      E7800000 
 162              	.LVL12:
   7:src/List.cpp  ****     else tail = tail -> next = toAdd;
 163              		.loc 1 7 5 is_stmt 1
   7:src/List.cpp  ****     else tail = tail -> next = toAdd;
 164              		.loc 1 7 10 is_stmt 0
 165 00c8 83B70400 		ld	a5,0(s1)
   7:src/List.cpp  ****     else tail = tail -> next = toAdd;
 166              		.loc 1 7 5
 167 00cc 63860702 		beqz	a5,.L15
   8:src/List.cpp  **** 
 168              		.loc 1 8 10 is_stmt 1
   8:src/List.cpp  **** 
 169              		.loc 1 8 17 is_stmt 0
 170 00d0 83B78400 		ld	a5,8(s1)
   8:src/List.cpp  **** 
 171              		.loc 1 8 30
 172 00d4 23B42701 		sd	s2,8(a5)
   8:src/List.cpp  **** 
 173              		.loc 1 8 15
 174 00d8 23B42401 		sd	s2,8(s1)
 175              	.L11:
  10:src/List.cpp  **** 
 176              		.loc 1 10 1
 177 00dc 83308102 		ld	ra,40(sp)
 178              		.cfi_remember_state
 179              		.cfi_restore 1
 180 00e0 03340102 		ld	s0,32(sp)
 181              		.cfi_restore 8
 182              		.cfi_def_cfa 2, 48
 183 00e4 83348101 		ld	s1,24(sp)
 184              		.cfi_restore 9
 185              	.LVL13:
 186 00e8 03390101 		ld	s2,16(sp)
 187              		.cfi_restore 18
 188              	.LVL14:
 189 00ec 83398100 		ld	s3,8(sp)
GAS LISTING /tmp/ccUVuGHG.s 			page 5


 190              		.cfi_restore 19
 191              	.LVL15:
 192 00f0 13010103 		addi	sp,sp,48
 193              		.cfi_def_cfa_offset 0
 194 00f4 67800000 		jr	ra
 195              	.LVL16:
 196              	.L15:
 197              		.cfi_restore_state
   7:src/List.cpp  ****     else tail = tail -> next = toAdd;
 198              		.loc 1 7 16 is_stmt 1 discriminator 1
   7:src/List.cpp  ****     else tail = tail -> next = toAdd;
 199              		.loc 1 7 28 is_stmt 0 discriminator 1
 200 00f8 23B42401 		sd	s2,8(s1)
   7:src/List.cpp  ****     else tail = tail -> next = toAdd;
 201              		.loc 1 7 21 discriminator 1
 202 00fc 23B02401 		sd	s2,0(s1)
 203 0100 6FF0DFFD 		j	.L11
 204              		.cfi_endproc
 205              	.LFE27:
 207              	.Letext0:
 208              		.file 2 "src/../h/../lib/hw.h"
 209              		.file 3 "src/../h/../h/Memoryallocator.hpp"
 210              		.file 4 "src/../h/thread.hpp"
 211              		.file 5 "src/../h/List.hpp"
 212              		.file 6 "src/../h/../h/syscall_c.h"
GAS LISTING /tmp/ccUVuGHG.s 			page 6


DEFINED SYMBOLS
                            *ABS*:0000000000000000 List.cpp
     /tmp/ccUVuGHG.s:9      .text:0000000000000000 _ZN4List3getEv
     /tmp/ccUVuGHG.s:13     .text:0000000000000000 .L0 
     /tmp/ccUVuGHG.s:15     .text:0000000000000000 .L0 
     /tmp/ccUVuGHG.s:16     .text:0000000000000004 .L0 
     /tmp/ccUVuGHG.s:18     .text:0000000000000008 .L0 
     /tmp/ccUVuGHG.s:20     .text:000000000000000c .L0 
     /tmp/ccUVuGHG.s:22     .text:000000000000000c .L0 
     /tmp/ccUVuGHG.s:23     .text:000000000000000c .L0 
     /tmp/ccUVuGHG.s:25     .text:0000000000000010 .L0 
     /tmp/ccUVuGHG.s:28     .text:0000000000000018 .L0 
     /tmp/ccUVuGHG.s:29     .text:0000000000000018 .L0 
     /tmp/ccUVuGHG.s:32     .text:000000000000001c .L0 
     /tmp/ccUVuGHG.s:33     .text:000000000000001c .L0 
     /tmp/ccUVuGHG.s:35     .text:0000000000000020 .L0 
     /tmp/ccUVuGHG.s:37     .text:0000000000000024 .L0 
     /tmp/ccUVuGHG.s:41     .text:0000000000000028 .L0 
     /tmp/ccUVuGHG.s:42     .text:000000000000002c .L0 
     /tmp/ccUVuGHG.s:43     .text:000000000000002c .L0 
     /tmp/ccUVuGHG.s:44     .text:000000000000002c .L0 
     /tmp/ccUVuGHG.s:46     .text:0000000000000030 .L0 
     /tmp/ccUVuGHG.s:50     .text:0000000000000034 .L0 
     /tmp/ccUVuGHG.s:52     .text:0000000000000034 .L0 
     /tmp/ccUVuGHG.s:53     .text:0000000000000034 .L0 
     /tmp/ccUVuGHG.s:58     .text:000000000000003c .L0 
     /tmp/ccUVuGHG.s:61     .text:0000000000000044 .L0 
     /tmp/ccUVuGHG.s:67     .text:0000000000000044 _ZN4List4peekEv
     /tmp/ccUVuGHG.s:70     .text:0000000000000044 .L0 
     /tmp/ccUVuGHG.s:72     .text:0000000000000044 .L0 
     /tmp/ccUVuGHG.s:73     .text:0000000000000048 .L0 
     /tmp/ccUVuGHG.s:75     .text:000000000000004c .L0 
     /tmp/ccUVuGHG.s:77     .text:0000000000000050 .L0 
     /tmp/ccUVuGHG.s:79     .text:0000000000000050 .L0 
     /tmp/ccUVuGHG.s:80     .text:0000000000000050 .L0 
     /tmp/ccUVuGHG.s:83     .text:0000000000000054 .L0 
     /tmp/ccUVuGHG.s:85     .text:0000000000000058 .L0 
     /tmp/ccUVuGHG.s:86     .text:0000000000000058 .L0 
     /tmp/ccUVuGHG.s:89     .text:000000000000005c .L0 
     /tmp/ccUVuGHG.s:90     .text:0000000000000060 .L0 
     /tmp/ccUVuGHG.s:91     .text:0000000000000060 .L0 
     /tmp/ccUVuGHG.s:93     .text:0000000000000064 .L0 
     /tmp/ccUVuGHG.s:95     .text:0000000000000068 .L0 
     /tmp/ccUVuGHG.s:101    .text:0000000000000068 _ZN4List4ElemC2EP3TCB
     /tmp/ccUVuGHG.s:104    .text:0000000000000068 .L0 
     /tmp/ccUVuGHG.s:106    .text:0000000000000068 .L0 
     /tmp/ccUVuGHG.s:107    .text:000000000000006c .L0 
     /tmp/ccUVuGHG.s:109    .text:0000000000000070 .L0 
     /tmp/ccUVuGHG.s:111    .text:0000000000000074 .L0 
     /tmp/ccUVuGHG.s:114    .text:0000000000000074 .L0 
     /tmp/ccUVuGHG.s:118    .text:000000000000007c .L0 
     /tmp/ccUVuGHG.s:119    .text:0000000000000080 .L0 
     /tmp/ccUVuGHG.s:120    .text:0000000000000080 .L0 
     /tmp/ccUVuGHG.s:122    .text:0000000000000084 .L0 
     /tmp/ccUVuGHG.s:124    .text:0000000000000088 .L0 
     /tmp/ccUVuGHG.s:101    .text:0000000000000068 _ZN4List4ElemC1EP3TCB
     /tmp/ccUVuGHG.s:132    .text:0000000000000088 _ZN4List3addEP3TCB
GAS LISTING /tmp/ccUVuGHG.s 			page 7


     /tmp/ccUVuGHG.s:135    .text:0000000000000088 .L0 
     /tmp/ccUVuGHG.s:137    .text:0000000000000088 .L0 
     /tmp/ccUVuGHG.s:138    .text:000000000000008c .L0 
     /tmp/ccUVuGHG.s:144    .text:00000000000000a0 .L0 
     /tmp/ccUVuGHG.s:145    .text:00000000000000a0 .L0 
     /tmp/ccUVuGHG.s:146    .text:00000000000000a0 .L0 
     /tmp/ccUVuGHG.s:147    .text:00000000000000a0 .L0 
     /tmp/ccUVuGHG.s:148    .text:00000000000000a0 .L0 
     /tmp/ccUVuGHG.s:150    .text:00000000000000a4 .L0 
     /tmp/ccUVuGHG.s:154    .text:00000000000000ac .L0 
     /tmp/ccUVuGHG.s:155    .text:00000000000000ac .L0 
     /tmp/ccUVuGHG.s:164    .text:00000000000000c8 .L0 
     /tmp/ccUVuGHG.s:165    .text:00000000000000c8 .L0 
     /tmp/ccUVuGHG.s:167    .text:00000000000000cc .L0 
     /tmp/ccUVuGHG.s:169    .text:00000000000000d0 .L0 
     /tmp/ccUVuGHG.s:170    .text:00000000000000d0 .L0 
     /tmp/ccUVuGHG.s:172    .text:00000000000000d4 .L0 
     /tmp/ccUVuGHG.s:174    .text:00000000000000d8 .L0 
     /tmp/ccUVuGHG.s:177    .text:00000000000000dc .L0 
     /tmp/ccUVuGHG.s:178    .text:00000000000000e0 .L0 
     /tmp/ccUVuGHG.s:179    .text:00000000000000e0 .L0 
     /tmp/ccUVuGHG.s:181    .text:00000000000000e4 .L0 
     /tmp/ccUVuGHG.s:182    .text:00000000000000e4 .L0 
     /tmp/ccUVuGHG.s:184    .text:00000000000000e8 .L0 
     /tmp/ccUVuGHG.s:187    .text:00000000000000ec .L0 
     /tmp/ccUVuGHG.s:190    .text:00000000000000f0 .L0 
     /tmp/ccUVuGHG.s:193    .text:00000000000000f4 .L0 
     /tmp/ccUVuGHG.s:197    .text:00000000000000f8 .L0 
     /tmp/ccUVuGHG.s:199    .text:00000000000000f8 .L0 
     /tmp/ccUVuGHG.s:200    .text:00000000000000f8 .L0 
     /tmp/ccUVuGHG.s:202    .text:00000000000000fc .L0 
     /tmp/ccUVuGHG.s:204    .text:0000000000000104 .L0 
     /tmp/ccUVuGHG.s:213    .text:0000000000000104 .L0 
     /tmp/ccUVuGHG.s:56     .text:000000000000003c .L3
     /tmp/ccUVuGHG.s:49     .text:0000000000000034 .L5
     /tmp/ccUVuGHG.s:39     .text:0000000000000028 .L1
     /tmp/ccUVuGHG.s:87     .text:000000000000005c .L6
     /tmp/ccUVuGHG.s:196    .text:00000000000000f8 .L15
     /tmp/ccUVuGHG.s:175    .text:00000000000000dc .L11
     /tmp/ccUVuGHG.s:1020   .debug_abbrev:0000000000000000 .Ldebug_abbrev0
     /tmp/ccUVuGHG.s:2168   .debug_str:0000000000000401 .LASF78
     /tmp/ccUVuGHG.s:2022   .debug_str:0000000000000061 .LASF79
     /tmp/ccUVuGHG.s:2076   .debug_str:00000000000001d5 .LASF80
     /tmp/ccUVuGHG.s:5      .text:0000000000000000 .Ltext0
     /tmp/ccUVuGHG.s:207    .text:0000000000000104 .Letext0
     /tmp/ccUVuGHG.s:2010   .debug_line:0000000000000000 .Ldebug_line0
     /tmp/ccUVuGHG.s:2082   .debug_str:000000000000020d .LASF0
     /tmp/ccUVuGHG.s:2096   .debug_str:000000000000025e .LASF1
     /tmp/ccUVuGHG.s:2134   .debug_str:0000000000000335 .LASF2
     /tmp/ccUVuGHG.s:2140   .debug_str:0000000000000362 .LASF4
     /tmp/ccUVuGHG.s:2084   .debug_str:000000000000021a .LASF3
     /tmp/ccUVuGHG.s:2020   .debug_str:000000000000005a .LASF5
     /tmp/ccUVuGHG.s:2122   .debug_str:00000000000002fa .LASF6
     /tmp/ccUVuGHG.s:2120   .debug_str:00000000000002e7 .LASF7
     /tmp/ccUVuGHG.s:2088   .debug_str:0000000000000238 .LASF8
     /tmp/ccUVuGHG.s:2074   .debug_str:00000000000001c5 .LASF9
     /tmp/ccUVuGHG.s:2080   .debug_str:00000000000001ff .LASF10
GAS LISTING /tmp/ccUVuGHG.s 			page 8


     /tmp/ccUVuGHG.s:2042   .debug_str:00000000000000e9 .LASF11
     /tmp/ccUVuGHG.s:2070   .debug_str:00000000000001b1 .LASF12
     /tmp/ccUVuGHG.s:2050   .debug_str:0000000000000119 .LASF13
     /tmp/ccUVuGHG.s:2040   .debug_str:00000000000000d9 .LASF14
     /tmp/ccUVuGHG.s:2158   .debug_str:00000000000003c4 .LASF15
     /tmp/ccUVuGHG.s:2064   .debug_str:000000000000016d .LASF16
     /tmp/ccUVuGHG.s:2152   .debug_str:000000000000039a .LASF17
     /tmp/ccUVuGHG.s:2126   .debug_str:0000000000000309 .LASF18
     /tmp/ccUVuGHG.s:2062   .debug_str:0000000000000167 .LASF81
     /tmp/ccUVuGHG.s:2090   .debug_str:000000000000024b .LASF19
     /tmp/ccUVuGHG.s:2046   .debug_str:00000000000000fd .LASF20
     /tmp/ccUVuGHG.s:2124   .debug_str:0000000000000301 .LASF21
     /tmp/ccUVuGHG.s:2034   .debug_str:00000000000000bc .LASF22
     /tmp/ccUVuGHG.s:2106   .debug_str:00000000000002a3 .LASF23
     /tmp/ccUVuGHG.s:2162   .debug_str:00000000000003e6 .LASF82
     /tmp/ccUVuGHG.s:2192   .debug_str:0000000000000554 .LASF24
     /tmp/ccUVuGHG.s:2170   .debug_str:00000000000004c5 .LASF25
     /tmp/ccUVuGHG.s:2166   .debug_str:00000000000003f9 .LASF83
     /tmp/ccUVuGHG.s:2194   .debug_str:000000000000055c .LASF26
     /tmp/ccUVuGHG.s:2188   .debug_str:0000000000000538 .LASF28
     /tmp/ccUVuGHG.s:2038   .debug_str:00000000000000cb .LASF27
     /tmp/ccUVuGHG.s:2068   .debug_str:0000000000000189 .LASF29
     /tmp/ccUVuGHG.s:2098   .debug_str:0000000000000271 .LASF42
     /tmp/ccUVuGHG.s:2030   .debug_str:000000000000009c .LASF44
     /tmp/ccUVuGHG.s:2058   .debug_str:0000000000000150 .LASF58
     /tmp/ccUVuGHG.s:2048   .debug_str:0000000000000106 .LASF60
     /tmp/ccUVuGHG.s:2144   .debug_str:000000000000036e .LASF30
     /tmp/ccUVuGHG.s:2148   .debug_str:000000000000037d .LASF32
     /tmp/ccUVuGHG.s:2100   .debug_str:0000000000000277 .LASF31
     /tmp/ccUVuGHG.s:2182   .debug_str:000000000000050a .LASF33
     /tmp/ccUVuGHG.s:2174   .debug_str:00000000000004e1 .LASF84
     /tmp/ccUVuGHG.s:2102   .debug_str:0000000000000284 .LASF85
     /tmp/ccUVuGHG.s:2164   .debug_str:00000000000003ee .LASF34
     /tmp/ccUVuGHG.s:2160   .debug_str:00000000000003d0 .LASF35
     /tmp/ccUVuGHG.s:2108   .debug_str:00000000000002ab .LASF36
     /tmp/ccUVuGHG.s:2052   .debug_str:0000000000000129 .LASF37
     /tmp/ccUVuGHG.s:2142   .debug_str:0000000000000369 .LASF38
     /tmp/ccUVuGHG.s:2018   .debug_str:000000000000004e .LASF39
     /tmp/ccUVuGHG.s:2198   .debug_str:0000000000000567 .LASF40
     /tmp/ccUVuGHG.s:2078   .debug_str:00000000000001f3 .LASF41
     /tmp/ccUVuGHG.s:2012   .debug_str:0000000000000000 .LASF43
     /tmp/ccUVuGHG.s:2118   .debug_str:00000000000002da .LASF45
     /tmp/ccUVuGHG.s:2104   .debug_str:000000000000029a .LASF46
     /tmp/ccUVuGHG.s:2132   .debug_str:0000000000000324 .LASF47
     /tmp/ccUVuGHG.s:2032   .debug_str:00000000000000b1 .LASF48
     /tmp/ccUVuGHG.s:2138   .debug_str:0000000000000356 .LASF49
     /tmp/ccUVuGHG.s:2060   .debug_str:0000000000000159 .LASF50
     /tmp/ccUVuGHG.s:2130   .debug_str:0000000000000319 .LASF51
     /tmp/ccUVuGHG.s:2056   .debug_str:0000000000000148 .LASF52
     /tmp/ccUVuGHG.s:2196   .debug_str:0000000000000562 .LASF53
     /tmp/ccUVuGHG.s:2146   .debug_str:0000000000000377 .LASF54
     /tmp/ccUVuGHG.s:2176   .debug_str:00000000000004ec .LASF55
     /tmp/ccUVuGHG.s:2110   .debug_str:00000000000002b2 .LASF56
     /tmp/ccUVuGHG.s:2150   .debug_str:0000000000000391 .LASF57
     /tmp/ccUVuGHG.s:2200   .debug_str:0000000000000574 .LASF86
     /tmp/ccUVuGHG.s:2054   .debug_str:000000000000013a .LASF87
     /tmp/ccUVuGHG.s:2016   .debug_str:0000000000000026 .LASF88
GAS LISTING /tmp/ccUVuGHG.s 			page 9


     /tmp/ccUVuGHG.s:2184   .debug_str:0000000000000523 .LASF89
     /tmp/ccUVuGHG.s:2024   .debug_str:000000000000006e .LASF90
     /tmp/ccUVuGHG.s:2190   .debug_str:0000000000000548 .LASF59
     /tmp/ccUVuGHG.s:2172   .debug_str:00000000000004ca .LASF61
     /tmp/ccUVuGHG.s:2086   .debug_str:000000000000022c .LASF62
     /tmp/ccUVuGHG.s:2128   .debug_str:0000000000000314 .LASF63
     /tmp/ccUVuGHG.s:2112   .debug_str:00000000000002c0 .LASF64
     /tmp/ccUVuGHG.s:2180   .debug_str:0000000000000505 .LASF67
     /tmp/ccUVuGHG.s:2092   .debug_str:0000000000000254 .LASF65
     /tmp/ccUVuGHG.s:2044   .debug_str:00000000000000f8 .LASF66
     /tmp/ccUVuGHG.s:2028   .debug_str:0000000000000086 .LASF68
     /tmp/ccUVuGHG.s:2186   .debug_str:000000000000052b .LASF69
     /tmp/ccUVuGHG.s:2136   .debug_str:0000000000000343 .LASF91
     /tmp/ccUVuGHG.s:2154   .debug_str:00000000000003b0 .LASF92
     /tmp/ccUVuGHG.s:2094   .debug_str:0000000000000259 .LASF70
     /tmp/ccUVuGHG.s:2116   .debug_str:00000000000002ca .LASF71
     /tmp/ccUVuGHG.s:2036   .debug_str:00000000000000c5 .LASF72
     /tmp/ccUVuGHG.s:2178   .debug_str:00000000000004f4 .LASF73
     /tmp/ccUVuGHG.s:2156   .debug_str:00000000000003bf .LASF74
     /tmp/ccUVuGHG.s:2114   .debug_str:00000000000002c5 .LASF75
     /tmp/ccUVuGHG.s:2072   .debug_str:00000000000001c0 .LASF76
     /tmp/ccUVuGHG.s:2014   .debug_str:0000000000000010 .LASF93
     /tmp/ccUVuGHG.s:102    .text:0000000000000068 .LFB31
     /tmp/ccUVuGHG.s:125    .text:0000000000000088 .LFE31
     /tmp/ccUVuGHG.s:68     .text:0000000000000044 .LFB29
     /tmp/ccUVuGHG.s:96     .text:0000000000000068 .LFE29
     /tmp/ccUVuGHG.s:1884   .debug_loc:0000000000000000 .LLST2
     /tmp/ccUVuGHG.s:10     .text:0000000000000000 .LFB28
     /tmp/ccUVuGHG.s:62     .text:0000000000000044 .LFE28
     /tmp/ccUVuGHG.s:1898   .debug_loc:0000000000000039 .LLST0
     /tmp/ccUVuGHG.s:1931   .debug_loc:00000000000000c1 .LLST1
     /tmp/ccUVuGHG.s:133    .text:0000000000000088 .LFB27
     /tmp/ccUVuGHG.s:205    .text:0000000000000104 .LFE27
     /tmp/ccUVuGHG.s:1942   .debug_loc:00000000000000f7 .LLST3
     /tmp/ccUVuGHG.s:1964   .debug_loc:0000000000000156 .LLST4
     /tmp/ccUVuGHG.s:2026   .debug_str:0000000000000080 .LASF77
     /tmp/ccUVuGHG.s:1986   .debug_loc:00000000000001b5 .LLST5
     /tmp/ccUVuGHG.s:158    .text:00000000000000b8 .LVL11
     /tmp/ccUVuGHG.s:162    .text:00000000000000c8 .LVL12
     /tmp/ccUVuGHG.s:2066   .debug_str:0000000000000183 .LASF94
     /tmp/ccUVuGHG.s:71     .text:0000000000000044 .LVL6
     /tmp/ccUVuGHG.s:81     .text:0000000000000054 .LVL7
     /tmp/ccUVuGHG.s:14     .text:0000000000000000 .LVL0
     /tmp/ccUVuGHG.s:30     .text:000000000000001c .LVL1
     /tmp/ccUVuGHG.s:38     .text:0000000000000028 .LVL2
     /tmp/ccUVuGHG.s:48     .text:0000000000000034 .LVL3
     /tmp/ccUVuGHG.s:55     .text:000000000000003c .LVL4
     /tmp/ccUVuGHG.s:59     .text:0000000000000040 .LVL5
     /tmp/ccUVuGHG.s:136    .text:0000000000000088 .LVL9
     /tmp/ccUVuGHG.s:156    .text:00000000000000b0 .LVL10
     /tmp/ccUVuGHG.s:185    .text:00000000000000e8 .LVL13
     /tmp/ccUVuGHG.s:195    .text:00000000000000f8 .LVL16
     /tmp/ccUVuGHG.s:191    .text:00000000000000f0 .LVL15
     /tmp/ccUVuGHG.s:188    .text:00000000000000ec .LVL14
     /tmp/ccUVuGHG.s:214    .debug_info:0000000000000000 .Ldebug_info0

UNDEFINED SYMBOLS
GAS LISTING /tmp/ccUVuGHG.s 			page 10


_Znwm
