GAS LISTING /tmp/ccuW6vvw.s 			page 1


   1              		.file	"main.cpp"
   2              		.option pic
   3              		.option norelax
   4              		.text
   5              	.Ltext0:
   6              		.align	2
   7              		.globl	_Z14handleNewCharsPv
   9              	_Z14handleNewCharsPv:
  10              	.LFB38:
  11              		.file 1 "src/main.cpp"
   1:src/main.cpp  **** 
   2:src/main.cpp  **** #include "../h/Memoryallocator.hpp"
   3:src/main.cpp  **** #include "../h/Scheduler.hpp"
   4:src/main.cpp  **** #include "../h/Console.hpp"
   5:src/main.cpp  **** #include "../lib/console.h"
   6:src/main.cpp  **** #include "../h/print.hpp"
   7:src/main.cpp  **** 
   8:src/main.cpp  **** thread_t mythreads[10];
   9:src/main.cpp  **** sem_t mySem;
  10:src/main.cpp  **** 
  11:src/main.cpp  **** thread_t mainThread;
  12:src/main.cpp  **** thread_t consoleThread;
  13:src/main.cpp  **** thread_t userMainThread;
  14:src/main.cpp  **** 
  15:src/main.cpp  **** void testMemoryAllocator() {
  16:src/main.cpp  **** 
  17:src/main.cpp  ****     void *addr = MemoryAllocator::mem_alloc(1);
  18:src/main.cpp  ****     MemoryAllocator::print();
  19:src/main.cpp  ****     int ret1 = MemoryAllocator::mem_free(addr);
  20:src/main.cpp  ****     MemoryAllocator::print();
  21:src/main.cpp  **** 
  22:src/main.cpp  ****     int ret2 = MemoryAllocator::mem_free(addr);
  23:src/main.cpp  ****     MemoryAllocator::print();
  24:src/main.cpp  **** 
  25:src/main.cpp  ****     if (ret1 == 0) __putc('G');
  26:src/main.cpp  ****     if (ret2 < 0) __putc('G');
  27:src/main.cpp  **** 
  28:src/main.cpp  **** }
  29:src/main.cpp  **** 
  30:src/main.cpp  **** void testCMemory() {
  31:src/main.cpp  ****     MemoryAllocator::print();
  32:src/main.cpp  ****     void* addr = mem_alloc(50);
  33:src/main.cpp  ****     MemoryAllocator::print();
  34:src/main.cpp  ****     mem_free(addr);
  35:src/main.cpp  ****     MemoryAllocator::print();
  36:src/main.cpp  **** }
  37:src/main.cpp  **** 
  38:src/main.cpp  **** void testConsole(void *args) {
  39:src/main.cpp  ****     while (true) {
  40:src/main.cpp  ****         char c1 = getc();
  41:src/main.cpp  ****         char c2 = getc();
  42:src/main.cpp  ****         char c3 = getc();
  43:src/main.cpp  ****         putc(c1);
  44:src/main.cpp  ****         putc(c2);
  45:src/main.cpp  ****         putc(c3);
  46:src/main.cpp  ****     }
  47:src/main.cpp  **** }
GAS LISTING /tmp/ccuW6vvw.s 			page 2


  48:src/main.cpp  **** 
  49:src/main.cpp  **** void handleNewChars(void * args) {
  12              		.loc 1 49 34
  13              		.cfi_startproc
  14              	.LVL0:
  15 0000 130101FF 		addi	sp,sp,-16
  16              		.cfi_def_cfa_offset 16
  17 0004 23341100 		sd	ra,8(sp)
  18 0008 23308100 		sd	s0,0(sp)
  19              		.cfi_offset 1, -8
  20              		.cfi_offset 8, -16
  21 000c 13040101 		addi	s0,sp,16
  22              		.cfi_def_cfa 8, 0
  23 0010 6F00C000 		j	.L2
  24              	.LVL1:
  25              	.L3:
  26              	.LBB10:
  50:src/main.cpp  **** 
  51:src/main.cpp  ****     while (true ) {
  52:src/main.cpp  ****         while (*(char *) CONSOLE_STATUS & CONSOLE_TX_STATUS_BIT) {
  53:src/main.cpp  ****             // console controller is ready for new char
  54:src/main.cpp  ****             char c = myConsole::output_getc();
  55:src/main.cpp  ****             if (c == '\r') continue;
  56:src/main.cpp  ****             *(char *) CONSOLE_TX_DATA = c;
  57:src/main.cpp  ****             // pop from output buffer and wr to TX DATA
  58:src/main.cpp  ****         }
  59:src/main.cpp  **** 
  60:src/main.cpp  ****         // no more work to do, move on
  61:src/main.cpp  ****         thread_dispatch();
  27              		.loc 1 61 9
  28              		.loc 1 61 24 is_stmt 0
  29 0014 97000000 		call	_Z15thread_dispatchv@plt
  29      E7800000 
  30              	.LVL2:
  31              	.LBE10:
  51:src/main.cpp  ****         while (*(char *) CONSOLE_STATUS & CONSOLE_TX_STATUS_BIT) {
  32              		.loc 1 51 5 is_stmt 1
  33              	.L2:
  51:src/main.cpp  ****         while (*(char *) CONSOLE_STATUS & CONSOLE_TX_STATUS_BIT) {
  34              		.loc 1 51 5
  35              	.LBB12:
  52:src/main.cpp  ****             // console controller is ready for new char
  36              		.loc 1 52 9
  52:src/main.cpp  ****             // console controller is ready for new char
  37              		.loc 1 52 43
  52:src/main.cpp  ****             // console controller is ready for new char
  38              		.loc 1 52 16 is_stmt 0
  39 001c 97070000 		la	a5,CONSOLE_STATUS
  39      83B70700 
  40 0024 83B70700 		ld	a5,0(a5)
  41 0028 83C70700 		lbu	a5,0(a5)
  52:src/main.cpp  ****             // console controller is ready for new char
  42              		.loc 1 52 43
  43 002c 93F70702 		andi	a5,a5,32
  44 0030 E38207FE 		beqz	a5,.L3
  45              	.LBB11:
  54:src/main.cpp  ****             if (c == '\r') continue;
GAS LISTING /tmp/ccuW6vvw.s 			page 3


  46              		.loc 1 54 13 is_stmt 1
  54:src/main.cpp  ****             if (c == '\r') continue;
  47              		.loc 1 54 44 is_stmt 0
  48 0034 97000000 		call	_ZN9myConsole11output_getcEv@plt
  48      E7800000 
  49              	.LVL3:
  55:src/main.cpp  ****             *(char *) CONSOLE_TX_DATA = c;
  50              		.loc 1 55 13 is_stmt 1
  51 003c 9307D000 		li	a5,13
  52 0040 E30EF5FC 		beq	a0,a5,.L2
  56:src/main.cpp  ****             // pop from output buffer and wr to TX DATA
  53              		.loc 1 56 13
  54 0044 97070000 		la	a5,CONSOLE_TX_DATA
  54      83B70700 
  55 004c 83B70700 		ld	a5,0(a5)
  56:src/main.cpp  ****             // pop from output buffer and wr to TX DATA
  56              		.loc 1 56 39 is_stmt 0
  57 0050 2380A700 		sb	a0,0(a5)
  58 0054 6FF09FFC 		j	.L2
  59              	.LBE11:
  60              	.LBE12:
  61              		.cfi_endproc
  62              	.LFE38:
  64              		.align	2
  65              		.globl	_Z11userWrapperPv
  67              	_Z11userWrapperPv:
  68              	.LFB43:
  62:src/main.cpp  ****     }
  63:src/main.cpp  **** }
  64:src/main.cpp  **** 
  65:src/main.cpp  **** void testTimedWait(void* args) {
  66:src/main.cpp  **** 
  67:src/main.cpp  **** }
  68:src/main.cpp  **** 
  69:src/main.cpp  **** 
  70:src/main.cpp  **** void semWaiter(void* ) {
  71:src/main.cpp  ****     sem_wait(mySem);
  72:src/main.cpp  **** }
  73:src/main.cpp  **** 
  74:src/main.cpp  **** void runningForever(void* args) {
  75:src/main.cpp  **** 
  76:src/main.cpp  ****     //char * arg = (char*)args;
  77:src/main.cpp  **** 
  78:src/main.cpp  ****     while (!mythreads[2] -> isFinished()) {
  79:src/main.cpp  ****         putc('a');
  80:src/main.cpp  ****     }
  81:src/main.cpp  **** }
  82:src/main.cpp  **** 
  83:src/main.cpp  **** void timedWaiter(void *) {
  84:src/main.cpp  ****     int result = sem_timedwait(mySem, 1);
  85:src/main.cpp  ****     if (result == Sem::TIMEOUT) putc('t');
  86:src/main.cpp  ****     thread_exit();
  87:src/main.cpp  **** }
  88:src/main.cpp  **** 
  89:src/main.cpp  **** extern void userMain();
  90:src/main.cpp  **** 
  91:src/main.cpp  **** void userWrapper(void* args) {
GAS LISTING /tmp/ccuW6vvw.s 			page 4


  69              		.loc 1 91 30 is_stmt 1
  70              		.cfi_startproc
  71              	.LVL4:
  72 0058 130101FF 		addi	sp,sp,-16
  73              		.cfi_def_cfa_offset 16
  74 005c 23341100 		sd	ra,8(sp)
  75 0060 23308100 		sd	s0,0(sp)
  76              		.cfi_offset 1, -8
  77              		.cfi_offset 8, -16
  78 0064 13040101 		addi	s0,sp,16
  79              		.cfi_def_cfa 8, 0
  92:src/main.cpp  ****     userMain();
  80              		.loc 1 92 5
  81              		.loc 1 92 13 is_stmt 0
  82 0068 97000000 		call	_Z8userMainv@plt
  82      E7800000 
  83              	.LVL5:
  93:src/main.cpp  **** }
  84              		.loc 1 93 1
  85 0070 83308100 		ld	ra,8(sp)
  86              		.cfi_restore 1
  87 0074 03340100 		ld	s0,0(sp)
  88              		.cfi_restore 8
  89              		.cfi_def_cfa 2, 16
  90 0078 13010101 		addi	sp,sp,16
  91              		.cfi_def_cfa_offset 0
  92 007c 67800000 		jr	ra
  93              		.cfi_endproc
  94              	.LFE43:
  96              		.align	2
  97              		.globl	_Z19testMemoryAllocatorv
  99              	_Z19testMemoryAllocatorv:
 100              	.LFB35:
  15:src/main.cpp  **** 
 101              		.loc 1 15 28 is_stmt 1
 102              		.cfi_startproc
 103 0080 130101FE 		addi	sp,sp,-32
 104              		.cfi_def_cfa_offset 32
 105 0084 233C1100 		sd	ra,24(sp)
 106 0088 23388100 		sd	s0,16(sp)
 107 008c 23349100 		sd	s1,8(sp)
 108 0090 23302101 		sd	s2,0(sp)
 109              		.cfi_offset 1, -8
 110              		.cfi_offset 8, -16
 111              		.cfi_offset 9, -24
 112              		.cfi_offset 18, -32
 113 0094 13040102 		addi	s0,sp,32
 114              		.cfi_def_cfa 8, 0
  17:src/main.cpp  ****     MemoryAllocator::print();
 115              		.loc 1 17 5
  17:src/main.cpp  ****     MemoryAllocator::print();
 116              		.loc 1 17 44 is_stmt 0
 117 0098 13051000 		li	a0,1
 118 009c 97000000 		call	_ZN15MemoryAllocator9mem_allocEm@plt
 118      E7800000 
 119              	.LVL6:
 120 00a4 93040500 		mv	s1,a0
GAS LISTING /tmp/ccuW6vvw.s 			page 5


 121              	.LVL7:
  18:src/main.cpp  ****     int ret1 = MemoryAllocator::mem_free(addr);
 122              		.loc 1 18 5 is_stmt 1
  18:src/main.cpp  ****     int ret1 = MemoryAllocator::mem_free(addr);
 123              		.loc 1 18 27 is_stmt 0
 124 00a8 97000000 		call	_ZN15MemoryAllocator5printEv@plt
 124      E7800000 
 125              	.LVL8:
  19:src/main.cpp  ****     MemoryAllocator::print();
 126              		.loc 1 19 5 is_stmt 1
  19:src/main.cpp  ****     MemoryAllocator::print();
 127              		.loc 1 19 41 is_stmt 0
 128 00b0 13850400 		mv	a0,s1
 129 00b4 97000000 		call	_ZN15MemoryAllocator8mem_freeEPv@plt
 129      E7800000 
 130              	.LVL9:
 131 00bc 13090500 		mv	s2,a0
 132              	.LVL10:
  20:src/main.cpp  **** 
 133              		.loc 1 20 5 is_stmt 1
  20:src/main.cpp  **** 
 134              		.loc 1 20 27 is_stmt 0
 135 00c0 97000000 		call	_ZN15MemoryAllocator5printEv@plt
 135      E7800000 
 136              	.LVL11:
  22:src/main.cpp  ****     MemoryAllocator::print();
 137              		.loc 1 22 5 is_stmt 1
  22:src/main.cpp  ****     MemoryAllocator::print();
 138              		.loc 1 22 41 is_stmt 0
 139 00c8 13850400 		mv	a0,s1
 140 00cc 97000000 		call	_ZN15MemoryAllocator8mem_freeEPv@plt
 140      E7800000 
 141              	.LVL12:
 142 00d4 93040500 		mv	s1,a0
 143              	.LVL13:
  23:src/main.cpp  **** 
 144              		.loc 1 23 5 is_stmt 1
  23:src/main.cpp  **** 
 145              		.loc 1 23 27 is_stmt 0
 146 00d8 97000000 		call	_ZN15MemoryAllocator5printEv@plt
 146      E7800000 
 147              	.LVL14:
  25:src/main.cpp  ****     if (ret2 < 0) __putc('G');
 148              		.loc 1 25 5 is_stmt 1
 149 00e0 63000902 		beqz	s2,.L12
 150              	.L9:
  26:src/main.cpp  **** 
 151              		.loc 1 26 5
 152 00e4 63C60402 		bltz	s1,.L13
 153              	.L8:
  28:src/main.cpp  **** 
 154              		.loc 1 28 1 is_stmt 0
 155 00e8 83308101 		ld	ra,24(sp)
 156              		.cfi_remember_state
 157              		.cfi_restore 1
 158 00ec 03340101 		ld	s0,16(sp)
 159              		.cfi_restore 8
GAS LISTING /tmp/ccuW6vvw.s 			page 6


 160              		.cfi_def_cfa 2, 32
 161 00f0 83348100 		ld	s1,8(sp)
 162              		.cfi_restore 9
 163              	.LVL15:
 164 00f4 03390100 		ld	s2,0(sp)
 165              		.cfi_restore 18
 166              	.LVL16:
 167 00f8 13010102 		addi	sp,sp,32
 168              		.cfi_def_cfa_offset 0
 169 00fc 67800000 		jr	ra
 170              	.LVL17:
 171              	.L12:
 172              		.cfi_restore_state
  25:src/main.cpp  ****     if (ret2 < 0) __putc('G');
 173              		.loc 1 25 20 is_stmt 1 discriminator 1
  25:src/main.cpp  ****     if (ret2 < 0) __putc('G');
 174              		.loc 1 25 26 is_stmt 0 discriminator 1
 175 0100 13057004 		li	a0,71
 176 0104 97000000 		call	__putc@plt
 176      E7800000 
 177              	.LVL18:
 178 010c 6FF09FFD 		j	.L9
 179              	.L13:
  26:src/main.cpp  **** 
 180              		.loc 1 26 19 is_stmt 1 discriminator 1
  26:src/main.cpp  **** 
 181              		.loc 1 26 25 is_stmt 0 discriminator 1
 182 0110 13057004 		li	a0,71
 183 0114 97000000 		call	__putc@plt
 183      E7800000 
 184              	.LVL19:
  28:src/main.cpp  **** 
 185              		.loc 1 28 1 discriminator 1
 186 011c 6FF0DFFC 		j	.L8
 187              		.cfi_endproc
 188              	.LFE35:
 190              		.align	2
 191              		.globl	_Z11testCMemoryv
 193              	_Z11testCMemoryv:
 194              	.LFB36:
  30:src/main.cpp  ****     MemoryAllocator::print();
 195              		.loc 1 30 20 is_stmt 1
 196              		.cfi_startproc
 197 0120 130101FE 		addi	sp,sp,-32
 198              		.cfi_def_cfa_offset 32
 199 0124 233C1100 		sd	ra,24(sp)
 200 0128 23388100 		sd	s0,16(sp)
 201 012c 23349100 		sd	s1,8(sp)
 202              		.cfi_offset 1, -8
 203              		.cfi_offset 8, -16
 204              		.cfi_offset 9, -24
 205 0130 13040102 		addi	s0,sp,32
 206              		.cfi_def_cfa 8, 0
  31:src/main.cpp  ****     void* addr = mem_alloc(50);
 207              		.loc 1 31 5
  31:src/main.cpp  ****     void* addr = mem_alloc(50);
 208              		.loc 1 31 27 is_stmt 0
GAS LISTING /tmp/ccuW6vvw.s 			page 7


 209 0134 97000000 		call	_ZN15MemoryAllocator5printEv@plt
 209      E7800000 
 210              	.LVL20:
  32:src/main.cpp  ****     MemoryAllocator::print();
 211              		.loc 1 32 5 is_stmt 1
  32:src/main.cpp  ****     MemoryAllocator::print();
 212              		.loc 1 32 27 is_stmt 0
 213 013c 13052003 		li	a0,50
 214 0140 97000000 		call	_Z9mem_allocm@plt
 214      E7800000 
 215              	.LVL21:
 216 0148 93040500 		mv	s1,a0
 217              	.LVL22:
  33:src/main.cpp  ****     mem_free(addr);
 218              		.loc 1 33 5 is_stmt 1
  33:src/main.cpp  ****     mem_free(addr);
 219              		.loc 1 33 27 is_stmt 0
 220 014c 97000000 		call	_ZN15MemoryAllocator5printEv@plt
 220      E7800000 
 221              	.LVL23:
  34:src/main.cpp  ****     MemoryAllocator::print();
 222              		.loc 1 34 5 is_stmt 1
  34:src/main.cpp  ****     MemoryAllocator::print();
 223              		.loc 1 34 13 is_stmt 0
 224 0154 13850400 		mv	a0,s1
 225 0158 97000000 		call	_Z8mem_freePv@plt
 225      E7800000 
 226              	.LVL24:
  35:src/main.cpp  **** }
 227              		.loc 1 35 5 is_stmt 1
  35:src/main.cpp  **** }
 228              		.loc 1 35 27 is_stmt 0
 229 0160 97000000 		call	_ZN15MemoryAllocator5printEv@plt
 229      E7800000 
 230              	.LVL25:
  36:src/main.cpp  **** 
 231              		.loc 1 36 1
 232 0168 83308101 		ld	ra,24(sp)
 233              		.cfi_restore 1
 234 016c 03340101 		ld	s0,16(sp)
 235              		.cfi_restore 8
 236              		.cfi_def_cfa 2, 32
 237 0170 83348100 		ld	s1,8(sp)
 238              		.cfi_restore 9
 239              	.LVL26:
 240 0174 13010102 		addi	sp,sp,32
 241              		.cfi_def_cfa_offset 0
 242 0178 67800000 		jr	ra
 243              		.cfi_endproc
 244              	.LFE36:
 246              		.align	2
 247              		.globl	_Z11testConsolePv
 249              	_Z11testConsolePv:
 250              	.LFB37:
  38:src/main.cpp  ****     while (true) {
 251              		.loc 1 38 30 is_stmt 1
 252              		.cfi_startproc
GAS LISTING /tmp/ccuW6vvw.s 			page 8


 253              	.LVL27:
 254 017c 130101FD 		addi	sp,sp,-48
 255              		.cfi_def_cfa_offset 48
 256 0180 23341102 		sd	ra,40(sp)
 257 0184 23308102 		sd	s0,32(sp)
 258 0188 233C9100 		sd	s1,24(sp)
 259 018c 23382101 		sd	s2,16(sp)
 260 0190 23343101 		sd	s3,8(sp)
 261              		.cfi_offset 1, -8
 262              		.cfi_offset 8, -16
 263              		.cfi_offset 9, -24
 264              		.cfi_offset 18, -32
 265              		.cfi_offset 19, -40
 266 0194 13040103 		addi	s0,sp,48
 267              		.cfi_def_cfa 8, 0
 268              	.LVL28:
 269              	.L17:
  39:src/main.cpp  ****         char c1 = getc();
 270              		.loc 1 39 5 discriminator 1
 271              	.LBB13:
  40:src/main.cpp  ****         char c2 = getc();
 272              		.loc 1 40 9 discriminator 1
  40:src/main.cpp  ****         char c2 = getc();
 273              		.loc 1 40 23 is_stmt 0 discriminator 1
 274 0198 97000000 		call	_Z4getcv@plt
 274      E7800000 
 275              	.LVL29:
 276 01a0 93090500 		mv	s3,a0
 277              	.LVL30:
  41:src/main.cpp  ****         char c3 = getc();
 278              		.loc 1 41 9 is_stmt 1 discriminator 1
  41:src/main.cpp  ****         char c3 = getc();
 279              		.loc 1 41 23 is_stmt 0 discriminator 1
 280 01a4 97000000 		call	_Z4getcv@plt
 280      E7800000 
 281              	.LVL31:
 282 01ac 13090500 		mv	s2,a0
 283              	.LVL32:
  42:src/main.cpp  ****         putc(c1);
 284              		.loc 1 42 9 is_stmt 1 discriminator 1
  42:src/main.cpp  ****         putc(c1);
 285              		.loc 1 42 23 is_stmt 0 discriminator 1
 286 01b0 97000000 		call	_Z4getcv@plt
 286      E7800000 
 287              	.LVL33:
 288 01b8 93040500 		mv	s1,a0
 289              	.LVL34:
  43:src/main.cpp  ****         putc(c2);
 290              		.loc 1 43 9 is_stmt 1 discriminator 1
  43:src/main.cpp  ****         putc(c2);
 291              		.loc 1 43 13 is_stmt 0 discriminator 1
 292 01bc 13850900 		mv	a0,s3
 293 01c0 97000000 		call	_Z4putcc@plt
 293      E7800000 
 294              	.LVL35:
  44:src/main.cpp  ****         putc(c3);
 295              		.loc 1 44 9 is_stmt 1 discriminator 1
GAS LISTING /tmp/ccuW6vvw.s 			page 9


  44:src/main.cpp  ****         putc(c3);
 296              		.loc 1 44 13 is_stmt 0 discriminator 1
 297 01c8 13050900 		mv	a0,s2
 298 01cc 97000000 		call	_Z4putcc@plt
 298      E7800000 
 299              	.LVL36:
  45:src/main.cpp  ****     }
 300              		.loc 1 45 9 is_stmt 1 discriminator 1
  45:src/main.cpp  ****     }
 301              		.loc 1 45 13 is_stmt 0 discriminator 1
 302 01d4 13850400 		mv	a0,s1
 303 01d8 97000000 		call	_Z4putcc@plt
 303      E7800000 
 304              	.LVL37:
 305              	.LBE13:
  39:src/main.cpp  ****         char c1 = getc();
 306              		.loc 1 39 5 is_stmt 1 discriminator 1
 307 01e0 6FF09FFB 		j	.L17
 308              		.cfi_endproc
 309              	.LFE37:
 311              		.align	2
 312              		.globl	_Z13testTimedWaitPv
 314              	_Z13testTimedWaitPv:
 315              	.LFB39:
  65:src/main.cpp  **** 
 316              		.loc 1 65 32
 317              		.cfi_startproc
 318              	.LVL38:
 319 01e4 130101FF 		addi	sp,sp,-16
 320              		.cfi_def_cfa_offset 16
 321 01e8 23348100 		sd	s0,8(sp)
 322              		.cfi_offset 8, -8
 323 01ec 13040101 		addi	s0,sp,16
 324              		.cfi_def_cfa 8, 0
  67:src/main.cpp  **** 
 325              		.loc 1 67 1 is_stmt 0
 326 01f0 03348100 		ld	s0,8(sp)
 327              		.cfi_restore 8
 328              		.cfi_def_cfa 2, 16
 329 01f4 13010101 		addi	sp,sp,16
 330              		.cfi_def_cfa_offset 0
 331 01f8 67800000 		jr	ra
 332              		.cfi_endproc
 333              	.LFE39:
 335              		.align	2
 336              		.globl	_Z9semWaiterPv
 338              	_Z9semWaiterPv:
 339              	.LFB40:
  70:src/main.cpp  ****     sem_wait(mySem);
 340              		.loc 1 70 24 is_stmt 1
 341              		.cfi_startproc
 342 01fc 130101FF 		addi	sp,sp,-16
 343              		.cfi_def_cfa_offset 16
 344 0200 23341100 		sd	ra,8(sp)
 345 0204 23308100 		sd	s0,0(sp)
 346              		.cfi_offset 1, -8
 347              		.cfi_offset 8, -16
GAS LISTING /tmp/ccuW6vvw.s 			page 10


 348 0208 13040101 		addi	s0,sp,16
 349              		.cfi_def_cfa 8, 0
  71:src/main.cpp  **** }
 350              		.loc 1 71 5
  71:src/main.cpp  **** }
 351              		.loc 1 71 13 is_stmt 0
 352 020c 17050000 		ld	a0,.LANCHOR0
 352      03350500 
 353 0214 97000000 		call	_Z8sem_waitP3Sem@plt
 353      E7800000 
 354              	.LVL39:
  72:src/main.cpp  **** 
 355              		.loc 1 72 1
 356 021c 83308100 		ld	ra,8(sp)
 357              		.cfi_restore 1
 358 0220 03340100 		ld	s0,0(sp)
 359              		.cfi_restore 8
 360              		.cfi_def_cfa 2, 16
 361 0224 13010101 		addi	sp,sp,16
 362              		.cfi_def_cfa_offset 0
 363 0228 67800000 		jr	ra
 364              		.cfi_endproc
 365              	.LFE40:
 367              		.align	2
 368              		.globl	_Z14runningForeverPv
 370              	_Z14runningForeverPv:
 371              	.LFB41:
  74:src/main.cpp  **** 
 372              		.loc 1 74 33 is_stmt 1
 373              		.cfi_startproc
 374              	.LVL40:
  78:src/main.cpp  ****         putc('a');
 375              		.loc 1 78 5
  78:src/main.cpp  ****         putc('a');
 376              		.loc 1 78 12
 377              	.LBB14:
 378              	.LBB15:
 379              		.file 2 "src/../h/thread.hpp"
   1:src/../h/thread.hpp **** //
   2:src/../h/thread.hpp **** // Created by os on 4/9/24.
   3:src/../h/thread.hpp **** //
   4:src/../h/thread.hpp **** 
   5:src/../h/thread.hpp **** #ifndef PROJECT_BASE_THREAD_HPP
   6:src/../h/thread.hpp **** #define PROJECT_BASE_THREAD_HPP
   7:src/../h/thread.hpp **** 
   8:src/../h/thread.hpp **** #include "../lib/hw.h"
   9:src/../h/thread.hpp **** #include "../h/Memoryallocator.hpp"
  10:src/../h/thread.hpp **** #include "../h/riscv.hpp"
  11:src/../h/thread.hpp **** #include "../h/syscall_c.hpp"
  12:src/../h/thread.hpp **** 
  13:src/../h/thread.hpp **** //extern void thread_dispatch();
  14:src/../h/thread.hpp **** 
  15:src/../h/thread.hpp **** using routine_ptr = void(*)(void *);
  16:src/../h/thread.hpp **** 
  17:src/../h/thread.hpp **** // _thread je wrapper ove klase
  18:src/../h/thread.hpp **** class TCB final {
  19:src/../h/thread.hpp **** 
GAS LISTING /tmp/ccuW6vvw.s 			page 11


  20:src/../h/thread.hpp ****     friend class RISCV;
  21:src/../h/thread.hpp ****     friend class Sem;
  22:src/../h/thread.hpp ****     friend class Scheduler;
  23:src/../h/thread.hpp **** 
  24:src/../h/thread.hpp **** public:
  25:src/../h/thread.hpp **** 
  26:src/../h/thread.hpp ****     static TCB* running; // current thread
  27:src/../h/thread.hpp **** 
  28:src/../h/thread.hpp ****     enum state {
  29:src/../h/thread.hpp ****         RUNNABLE,
  30:src/../h/thread.hpp ****         SLEEPING,
  31:src/../h/thread.hpp ****         CREATED,
  32:src/../h/thread.hpp ****         FINISHED,
  33:src/../h/thread.hpp ****         BLOCKED
  34:src/../h/thread.hpp ****     };
  35:src/../h/thread.hpp ****     struct Context {
  36:src/../h/thread.hpp ****         // nadogradi kasnije
  37:src/../h/thread.hpp ****         uint64 pc;
  38:src/../h/thread.hpp ****         uint64 sp;
  39:src/../h/thread.hpp ****         uint64 sstatus;
  40:src/../h/thread.hpp ****         uint64 sepc;
  41:src/../h/thread.hpp ****     };
  42:src/../h/thread.hpp **** 
  43:src/../h/thread.hpp ****     static int _threadCreate(TCB** handle, routine_ptr routine, void* args, void* stack_space); // 
  44:src/../h/thread.hpp **** 
  45:src/../h/thread.hpp ****     static void yield(TCB*, TCB*);
  46:src/../h/thread.hpp **** 
  47:src/../h/thread.hpp ****     static void dispatch();
  48:src/../h/thread.hpp **** 
  49:src/../h/thread.hpp ****     state getState() const {return current_state;}
  50:src/../h/thread.hpp ****     time_t getTimeSlice() const {return time_slice;}
  51:src/../h/thread.hpp **** 
  52:src/../h/thread.hpp ****     static bool isRunnable();
  53:src/../h/thread.hpp **** 
  54:src/../h/thread.hpp ****     static bool isFinished() {return TCB::running->current_state == state::FINISHED;}
 380              		.loc 2 54 31
 381              		.loc 2 54 52 is_stmt 0
 382 022c 97070000 		la	a5,_ZN3TCB7runningE
 382      83B70700 
 383 0234 83B70700 		ld	a5,0(a5)
 384 0238 03A78706 		lw	a4,104(a5)
 385              	.LBE15:
 386              	.LBE14:
  78:src/main.cpp  ****         putc('a');
 387              		.loc 1 78 12
 388 023c 93073000 		li	a5,3
 389 0240 6304F704 		beq	a4,a5,.L31
  74:src/main.cpp  **** 
 390              		.loc 1 74 33
 391 0244 130101FF 		addi	sp,sp,-16
 392              		.cfi_def_cfa_offset 16
 393 0248 23341100 		sd	ra,8(sp)
 394 024c 23308100 		sd	s0,0(sp)
 395              		.cfi_offset 1, -8
 396              		.cfi_offset 8, -16
 397 0250 13040101 		addi	s0,sp,16
 398              		.cfi_def_cfa 8, 0
GAS LISTING /tmp/ccuW6vvw.s 			page 12


 399              	.LVL41:
 400              	.L27:
  79:src/main.cpp  ****     }
 401              		.loc 1 79 9 is_stmt 1
  79:src/main.cpp  ****     }
 402              		.loc 1 79 13 is_stmt 0
 403 0254 13051006 		li	a0,97
 404 0258 97000000 		call	_Z4putcc@plt
 404      E7800000 
 405              	.LVL42:
  78:src/main.cpp  ****         putc('a');
 406              		.loc 1 78 5 is_stmt 1
  78:src/main.cpp  ****         putc('a');
 407              		.loc 1 78 12
 408              	.LBB17:
 409              	.LBB16:
 410              		.loc 2 54 31
 411              		.loc 2 54 52 is_stmt 0
 412 0260 97070000 		la	a5,_ZN3TCB7runningE
 412      83B70700 
 413 0268 83B70700 		ld	a5,0(a5)
 414 026c 03A78706 		lw	a4,104(a5)
 415              	.LBE16:
 416              	.LBE17:
  78:src/main.cpp  ****         putc('a');
 417              		.loc 1 78 12
 418 0270 93073000 		li	a5,3
 419 0274 E310F7FE 		bne	a4,a5,.L27
  81:src/main.cpp  **** 
 420              		.loc 1 81 1
 421 0278 83308100 		ld	ra,8(sp)
 422              		.cfi_restore 1
 423 027c 03340100 		ld	s0,0(sp)
 424              		.cfi_restore 8
 425              		.cfi_def_cfa 2, 16
 426 0280 13010101 		addi	sp,sp,16
 427              		.cfi_def_cfa_offset 0
 428 0284 67800000 		jr	ra
 429              	.LVL43:
 430              	.L31:
 431 0288 67800000 		ret
 432              		.cfi_endproc
 433              	.LFE41:
 435              		.align	2
 436              		.globl	_Z11timedWaiterPv
 438              	_Z11timedWaiterPv:
 439              	.LFB42:
  83:src/main.cpp  ****     int result = sem_timedwait(mySem, 1);
 440              		.loc 1 83 26 is_stmt 1
 441              		.cfi_startproc
 442 028c 130101FF 		addi	sp,sp,-16
 443              		.cfi_def_cfa_offset 16
 444 0290 23341100 		sd	ra,8(sp)
 445 0294 23308100 		sd	s0,0(sp)
 446              		.cfi_offset 1, -8
 447              		.cfi_offset 8, -16
 448 0298 13040101 		addi	s0,sp,16
GAS LISTING /tmp/ccuW6vvw.s 			page 13


 449              		.cfi_def_cfa 8, 0
  84:src/main.cpp  ****     if (result == Sem::TIMEOUT) putc('t');
 450              		.loc 1 84 5
  84:src/main.cpp  ****     if (result == Sem::TIMEOUT) putc('t');
 451              		.loc 1 84 31 is_stmt 0
 452 029c 93051000 		li	a1,1
 453 02a0 17050000 		ld	a0,.LANCHOR0
 453      03350500 
 454 02a8 97000000 		call	_Z13sem_timedwaitP3Semm@plt
 454      E7800000 
 455              	.LVL44:
  85:src/main.cpp  ****     thread_exit();
 456              		.loc 1 85 5 is_stmt 1
 457 02b0 9307E0FF 		li	a5,-2
 458 02b4 630EF500 		beq	a0,a5,.L35
 459              	.LVL45:
 460              	.L33:
  86:src/main.cpp  **** }
 461              		.loc 1 86 5
  86:src/main.cpp  **** }
 462              		.loc 1 86 16 is_stmt 0
 463 02b8 97000000 		call	_Z11thread_exitv@plt
 463      E7800000 
 464              	.LVL46:
  87:src/main.cpp  **** 
 465              		.loc 1 87 1
 466 02c0 83308100 		ld	ra,8(sp)
 467              		.cfi_remember_state
 468              		.cfi_restore 1
 469 02c4 03340100 		ld	s0,0(sp)
 470              		.cfi_restore 8
 471              		.cfi_def_cfa 2, 16
 472 02c8 13010101 		addi	sp,sp,16
 473              		.cfi_def_cfa_offset 0
 474 02cc 67800000 		jr	ra
 475              	.LVL47:
 476              	.L35:
 477              		.cfi_restore_state
  85:src/main.cpp  ****     thread_exit();
 478              		.loc 1 85 33 is_stmt 1 discriminator 1
  85:src/main.cpp  ****     thread_exit();
 479              		.loc 1 85 37 is_stmt 0 discriminator 1
 480 02d0 13054007 		li	a0,116
 481              	.LVL48:
 482 02d4 97000000 		call	_Z4putcc@plt
 482      E7800000 
 483              	.LVL49:
 484 02dc 6FF0DFFD 		j	.L33
 485              		.cfi_endproc
 486              	.LFE42:
 488              		.align	2
 489              		.globl	main
 491              	main:
 492              	.LFB44:
  94:src/main.cpp  **** 
  95:src/main.cpp  **** int main() {
 493              		.loc 1 95 12 is_stmt 1
GAS LISTING /tmp/ccuW6vvw.s 			page 14


 494              		.cfi_startproc
 495 02e0 130101FF 		addi	sp,sp,-16
 496              		.cfi_def_cfa_offset 16
 497 02e4 23341100 		sd	ra,8(sp)
 498 02e8 23308100 		sd	s0,0(sp)
 499              		.cfi_offset 1, -8
 500              		.cfi_offset 8, -16
 501 02ec 13040101 		addi	s0,sp,16
 502              		.cfi_def_cfa 8, 0
  96:src/main.cpp  **** 
  97:src/main.cpp  ****     RISCV::wr_stvec((uint64)&RISCV::supervisor_trap);
 503              		.loc 1 97 5
 504              		.loc 1 97 20 is_stmt 0
 505 02f0 97070000 		la	a5,_ZN5RISCV15supervisor_trapEv
 505      83B70700 
 506              	.LVL50:
 507              	.LBB18:
 508              	.LBB19:
 509              		.file 3 "src/../h/../h/riscv.hpp"
   1:src/../h/../h/riscv.hpp **** //
   2:src/../h/../h/riscv.hpp **** // Created by os on 4/7/24.
   3:src/../h/../h/riscv.hpp **** //
   4:src/../h/../h/riscv.hpp **** 
   5:src/../h/../h/riscv.hpp **** #ifndef PROJECT_BASE_RISCV_HPP
   6:src/../h/../h/riscv.hpp **** #define PROJECT_BASE_RISCV_HPP
   7:src/../h/../h/riscv.hpp **** 
   8:src/../h/../h/riscv.hpp **** #include "../lib/hw.h"
   9:src/../h/../h/riscv.hpp **** 
  10:src/../h/../h/riscv.hpp **** class RISCV {
  11:src/../h/../h/riscv.hpp **** public:
  12:src/../h/../h/riscv.hpp **** 
  13:src/../h/../h/riscv.hpp ****     enum causes {
  14:src/../h/../h/riscv.hpp ****         SOFTWARE = 0x8000000000000001UL,
  15:src/../h/../h/riscv.hpp ****         EXTERNAL = 0x8000000000000009UL,
  16:src/../h/../h/riscv.hpp ****         U_ECALL  = 0x0000000000000008UL,
  17:src/../h/../h/riscv.hpp ****         S_ECALL  = 0x0000000000000009UL
  18:src/../h/../h/riscv.hpp ****     };
  19:src/../h/../h/riscv.hpp **** 
  20:src/../h/../h/riscv.hpp ****     static void supervisor_trap();
  21:src/../h/../h/riscv.hpp ****     static void handle_interrupt();
  22:src/../h/../h/riscv.hpp **** 
  23:src/../h/../h/riscv.hpp ****     static void push_regs();
  24:src/../h/../h/riscv.hpp ****     static void pop_regs();
  25:src/../h/../h/riscv.hpp **** 
  26:src/../h/../h/riscv.hpp ****     static uint64 return_value(uint64 value);
  27:src/../h/../h/riscv.hpp **** 
  28:src/../h/../h/riscv.hpp ****     static uint64 rd_scause();
  29:src/../h/../h/riscv.hpp ****     static void wr_scause(uint64 value);
  30:src/../h/../h/riscv.hpp **** 
  31:src/../h/../h/riscv.hpp ****     static uint64 rd_sepc();
  32:src/../h/../h/riscv.hpp ****     static void wr_sepc(uint64 value);
  33:src/../h/../h/riscv.hpp **** 
  34:src/../h/../h/riscv.hpp ****     static uint64 rd_stvec();
  35:src/../h/../h/riscv.hpp ****     static void wr_stvec(uint64 value);
  36:src/../h/../h/riscv.hpp **** 
  37:src/../h/../h/riscv.hpp ****     static uint64 rd_stval();
  38:src/../h/../h/riscv.hpp ****     static void wr_stval(uint64 value);
GAS LISTING /tmp/ccuW6vvw.s 			page 15


  39:src/../h/../h/riscv.hpp **** 
  40:src/../h/../h/riscv.hpp ****     static uint64 rd_sip();
  41:src/../h/../h/riscv.hpp ****     static void wr_sip(uint64 value);
  42:src/../h/../h/riscv.hpp **** 
  43:src/../h/../h/riscv.hpp ****     static uint64 rd_sstatus();
  44:src/../h/../h/riscv.hpp ****     static void wr_sstatus(uint64 value);
  45:src/../h/../h/riscv.hpp **** 
  46:src/../h/../h/riscv.hpp ****     static void clear_sip(uint64 mask);
  47:src/../h/../h/riscv.hpp ****     static void set_sip(uint64 mask);
  48:src/../h/../h/riscv.hpp **** 
  49:src/../h/../h/riscv.hpp ****     static void mask_status(uint64 mask);
  50:src/../h/../h/riscv.hpp ****     static void set_status(uint64 mask);
  51:src/../h/../h/riscv.hpp **** 
  52:src/../h/../h/riscv.hpp ****     static void popSppSpie();
  53:src/../h/../h/riscv.hpp ****     // pop sstatus.spp and sstatus.spie bits
  54:src/../h/../h/riscv.hpp ****     // must be in cpp, not inline
  55:src/../h/../h/riscv.hpp **** 
  56:src/../h/../h/riscv.hpp ****     enum mask_sstatus {
  57:src/../h/../h/riscv.hpp ****         SIE = (1 << 1),
  58:src/../h/../h/riscv.hpp ****         SPIE =(1 << 5),
  59:src/../h/../h/riscv.hpp ****         SPP = (1 << 8)
  60:src/../h/../h/riscv.hpp ****     };
  61:src/../h/../h/riscv.hpp **** 
  62:src/../h/../h/riscv.hpp ****     enum mask_sip_sie {
  63:src/../h/../h/riscv.hpp ****         SS = (1 << 1),
  64:src/../h/../h/riscv.hpp ****         SE = (1 << 9)
  65:src/../h/../h/riscv.hpp ****     };
  66:src/../h/../h/riscv.hpp **** 
  67:src/../h/../h/riscv.hpp **** };
  68:src/../h/../h/riscv.hpp **** 
  69:src/../h/../h/riscv.hpp **** inline uint64 RISCV::rd_scause() {
  70:src/../h/../h/riscv.hpp ****     uint64 volatile value;
  71:src/../h/../h/riscv.hpp ****     __asm__ volatile ("csrr %0, scause" : "=r"(value));
  72:src/../h/../h/riscv.hpp ****     return value;
  73:src/../h/../h/riscv.hpp **** }
  74:src/../h/../h/riscv.hpp **** 
  75:src/../h/../h/riscv.hpp **** inline void RISCV::wr_scause(uint64 value) {
  76:src/../h/../h/riscv.hpp ****     __asm__ volatile ("csrw scause, %0" : : "r"(value));
  77:src/../h/../h/riscv.hpp **** }
  78:src/../h/../h/riscv.hpp **** 
  79:src/../h/../h/riscv.hpp **** inline uint64 RISCV::rd_sepc() {
  80:src/../h/../h/riscv.hpp ****     uint64 volatile value;
  81:src/../h/../h/riscv.hpp ****     __asm__ volatile ("csrr %0, sepc" : "=r"(value));
  82:src/../h/../h/riscv.hpp ****     return value;
  83:src/../h/../h/riscv.hpp **** }
  84:src/../h/../h/riscv.hpp **** 
  85:src/../h/../h/riscv.hpp **** inline void RISCV::wr_sepc(uint64 value) {
  86:src/../h/../h/riscv.hpp ****     __asm__ volatile ("csrw sepc, %0" : : "r"(value));
  87:src/../h/../h/riscv.hpp **** }
  88:src/../h/../h/riscv.hpp **** 
  89:src/../h/../h/riscv.hpp **** inline uint64 RISCV::rd_stvec() {
  90:src/../h/../h/riscv.hpp ****     uint64 volatile value;
  91:src/../h/../h/riscv.hpp ****     __asm__ volatile ("csrr %0, stvec" : "=r"(value));
  92:src/../h/../h/riscv.hpp ****     return value;
  93:src/../h/../h/riscv.hpp **** }
  94:src/../h/../h/riscv.hpp **** 
  95:src/../h/../h/riscv.hpp **** inline void RISCV::wr_stvec(uint64 value) {
GAS LISTING /tmp/ccuW6vvw.s 			page 16


  96:src/../h/../h/riscv.hpp ****     __asm__ volatile ("csrw stvec, %0" : : "r"(value));
 510              		.loc 3 96 5 is_stmt 1
 511              		.loc 3 96 55 is_stmt 0
 512              	#APP
 513              	# 96 "src/../h/../h/riscv.hpp" 1
  97              	}
 514              		csrw stvec, a5
 515              	# 0 "" 2
 516              	.LVL51:
 517              	#NO_APP
 518              	.LBE19:
 519              	.LBE18:
  98:src/main.cpp  **** 
  99:src/main.cpp  ****     MemoryAllocator::init_allocator();
 520              		.loc 1 99 5 is_stmt 1
 521              		.loc 1 99 36 is_stmt 0
 522 02fc 97000000 		call	_ZN15MemoryAllocator14init_allocatorEv@plt
 522      E7800000 
 523              	.LVL52:
 100:src/main.cpp  ****     Scheduler::init_scheduler();
 524              		.loc 1 100 5 is_stmt 1
 525              		.loc 1 100 30 is_stmt 0
 526 0304 97000000 		call	_ZN9Scheduler14init_schedulerEv@plt
 526      E7800000 
 527              	.LVL53:
 101:src/main.cpp  ****     myConsole::init_myconsole();
 528              		.loc 1 101 5 is_stmt 1
 529              		.loc 1 101 30 is_stmt 0
 530 030c 97000000 		call	_ZN9myConsole14init_myconsoleEv@plt
 530      E7800000 
 531              	.LVL54:
 102:src/main.cpp  **** 
 103:src/main.cpp  **** //    testMemoryAllocator();
 104:src/main.cpp  **** //    testCMemory();
 105:src/main.cpp  **** 
 106:src/main.cpp  ****     thread_create(&mainThread, nullptr, nullptr); // main
 532              		.loc 1 106 5 is_stmt 1
 533              		.loc 1 106 18 is_stmt 0
 534 0314 13060000 		li	a2,0
 535 0318 93050000 		li	a1,0
 536 031c 17050000 		lla	a0,.LANCHOR0+8
 536      13050500 
 537 0324 97000000 		call	_Z13thread_createPP3TCBPFvPvES2_@plt
 537      E7800000 
 538              	.LVL55:
 107:src/main.cpp  **** 
 108:src/main.cpp  ****     TCB::running = mainThread;
 539              		.loc 1 108 5 is_stmt 1
 540              		.loc 1 108 18 is_stmt 0
 541 032c 97070000 		la	a5,_ZN3TCB7runningE
 541      83B70700 
 542 0334 17070000 		ld	a4,.LANCHOR0+8
 542      03370700 
 543 033c 23B0E700 		sd	a4,0(a5)
 109:src/main.cpp  **** 
 110:src/main.cpp  ****     RISCV::set_status(RISCV::SIE); // interrupts enabled
 544              		.loc 1 110 5 is_stmt 1
GAS LISTING /tmp/ccuW6vvw.s 			page 17


 545              	.LVL56:
 546              	.LBB20:
 547              	.LBB21:
  98:src/../h/../h/riscv.hpp **** 
  99:src/../h/../h/riscv.hpp **** inline uint64 RISCV::rd_stval() {
 100:src/../h/../h/riscv.hpp ****     uint64 volatile value;
 101:src/../h/../h/riscv.hpp ****     __asm__ volatile ("csrr %0, stval" : "=r"(value));
 102:src/../h/../h/riscv.hpp ****     return value;
 103:src/../h/../h/riscv.hpp **** }
 104:src/../h/../h/riscv.hpp **** 
 105:src/../h/../h/riscv.hpp **** inline void RISCV::wr_stval(uint64 value) {
 106:src/../h/../h/riscv.hpp ****     __asm__ volatile ("csrw stval, %0" : : "r"(value));
 107:src/../h/../h/riscv.hpp **** }
 108:src/../h/../h/riscv.hpp **** 
 109:src/../h/../h/riscv.hpp **** inline uint64 RISCV::rd_sip() {
 110:src/../h/../h/riscv.hpp ****     uint64 volatile value;
 111:src/../h/../h/riscv.hpp ****     __asm__ volatile ("csrr %0, sip" : "=r"(value));
 112:src/../h/../h/riscv.hpp ****     return value;
 113:src/../h/../h/riscv.hpp **** }
 114:src/../h/../h/riscv.hpp **** 
 115:src/../h/../h/riscv.hpp **** inline void RISCV::wr_sip(uint64 value) {
 116:src/../h/../h/riscv.hpp ****     __asm__ volatile ("csrw sip, %0" : : "r"(value));
 117:src/../h/../h/riscv.hpp **** }
 118:src/../h/../h/riscv.hpp **** 
 119:src/../h/../h/riscv.hpp **** inline uint64 RISCV::rd_sstatus() {
 120:src/../h/../h/riscv.hpp ****     uint64 volatile value;
 121:src/../h/../h/riscv.hpp ****     __asm__ volatile ("csrr %0, sstatus" : "=r"(value));
 122:src/../h/../h/riscv.hpp ****     return value;
 123:src/../h/../h/riscv.hpp **** }
 124:src/../h/../h/riscv.hpp **** 
 125:src/../h/../h/riscv.hpp **** inline void RISCV::wr_sstatus(uint64 value) {
 126:src/../h/../h/riscv.hpp ****     __asm__ volatile ("csrw sstatus, %0" : : "r"(value));
 127:src/../h/../h/riscv.hpp **** }
 128:src/../h/../h/riscv.hpp **** 
 129:src/../h/../h/riscv.hpp **** inline void RISCV::clear_sip(uint64 mask) {
 130:src/../h/../h/riscv.hpp ****     __asm__ volatile("csrc sip, %0" : : "r"(mask));
 131:src/../h/../h/riscv.hpp **** }
 132:src/../h/../h/riscv.hpp **** 
 133:src/../h/../h/riscv.hpp **** inline void RISCV::set_sip(uint64 mask) {
 134:src/../h/../h/riscv.hpp ****     __asm__ volatile("csrs sip, %0" : : "r"(mask));
 135:src/../h/../h/riscv.hpp **** }
 136:src/../h/../h/riscv.hpp **** 
 137:src/../h/../h/riscv.hpp **** inline void RISCV::mask_status(uint64 mask) {
 138:src/../h/../h/riscv.hpp ****     __asm__ volatile("csrc sstatus, %0" : : "r"(mask));
 139:src/../h/../h/riscv.hpp **** };
 140:src/../h/../h/riscv.hpp **** 
 141:src/../h/../h/riscv.hpp **** inline void RISCV::set_status(uint64 mask) {
 142:src/../h/../h/riscv.hpp ****     __asm__ volatile("csrs sstatus, %0" : : "r"(mask));
 548              		.loc 3 142 5
 549              		.loc 3 142 55 is_stmt 0
 550 0340 93072000 		li	a5,2
 551              	#APP
 552              	# 142 "src/../h/../h/riscv.hpp" 1
 143              	}
 553              		csrs sstatus, a5
 554              	# 0 "" 2
 555              	.LVL57:
GAS LISTING /tmp/ccuW6vvw.s 			page 18


 556              	#NO_APP
 557              	.LBE21:
 558              	.LBE20:
 111:src/main.cpp  **** 
 112:src/main.cpp  ****     thread_create(&consoleThread, handleNewChars, nullptr);
 559              		.loc 1 112 5 is_stmt 1
 560              		.loc 1 112 18 is_stmt 0
 561 0348 13060000 		li	a2,0
 562 034c 97050000 		lla	a1,_Z14handleNewCharsPv
 562      93850500 
 563 0354 17050000 		lla	a0,.LANCHOR0+16
 563      13050500 
 564 035c 97000000 		call	_Z13thread_createPP3TCBPFvPvES2_@plt
 564      E7800000 
 565              	.LVL58:
 113:src/main.cpp  **** 
 114:src/main.cpp  **** //    thread_create(&mythreads[0], runningForever, (void *)('b'));
 115:src/main.cpp  **** //    thread_create(&mythreads[1], runningForever, (void *)('a'));
 116:src/main.cpp  **** //    thread_create(&mythreads[3], runningForever, (void *)('b'));
 117:src/main.cpp  **** //    thread_create(&mythreads[4], semWaiter, (void *)('a'));
 118:src/main.cpp  **** //    thread_create(&mythreads[5], semWaiter, (void *)('b'));
 119:src/main.cpp  **** //    thread_create(&mythreads[2], timedWaiter, nullptr);
 120:src/main.cpp  **** 
 121:src/main.cpp  ****     thread_create(&userMainThread, userWrapper, nullptr);
 566              		.loc 1 121 5 is_stmt 1
 567              		.loc 1 121 18 is_stmt 0
 568 0364 13060000 		li	a2,0
 569 0368 97050000 		lla	a1,_Z11userWrapperPv
 569      93850500 
 570 0370 17050000 		lla	a0,.LANCHOR0+24
 570      13050500 
 571 0378 97000000 		call	_Z13thread_createPP3TCBPFvPvES2_@plt
 571      E7800000 
 572              	.LVL59:
 573              	.L38:
 122:src/main.cpp  **** 
 123:src/main.cpp  **** //    sem_open(&mySem, 1); // mutex
 124:src/main.cpp  **** 
 125:src/main.cpp  ****      while (!userMainThread -> all_work_done()) thread_dispatch();
 574              		.loc 1 125 6 is_stmt 1 discriminator 2
 575              		.loc 1 125 13 discriminator 2
 576              		.loc 1 125 45 is_stmt 0 discriminator 2
 577 0380 97070000 		ld	a5,.LANCHOR0+24
 577      83B70700 
 578              	.LVL60:
 579              	.LBB22:
 580              	.LBB23:
  55:src/../h/thread.hpp ****     void finish() { current_state = state::FINISHED; }
  56:src/../h/thread.hpp ****     bool all_work_done() {return current_state == state::FINISHED;}
 581              		.loc 2 56 27 is_stmt 1 discriminator 2
 582              		.loc 2 56 34 is_stmt 0 discriminator 2
 583 0388 03A78706 		lw	a4,104(a5)
 584              	.LVL61:
 585              	.LBE23:
 586              	.LBE22:
 587              		.loc 1 125 13 discriminator 2
 588 038c 93073000 		li	a5,3
GAS LISTING /tmp/ccuW6vvw.s 			page 19


 589 0390 6308F700 		beq	a4,a5,.L37
 590              		.loc 1 125 49 is_stmt 1 discriminator 1
 591              		.loc 1 125 64 is_stmt 0 discriminator 1
 592 0394 97000000 		call	_Z15thread_dispatchv@plt
 592      E7800000 
 593              	.LVL62:
 594              		.loc 1 125 6 discriminator 1
 595 039c 6FF05FFE 		j	.L38
 596              	.L37:
 126:src/main.cpp  **** 
 127:src/main.cpp  ****      return 0;
 597              		.loc 1 127 6 is_stmt 1
 128:src/main.cpp  **** }
 598              		.loc 1 128 1 is_stmt 0
 599 03a0 13050000 		li	a0,0
 600 03a4 83308100 		ld	ra,8(sp)
 601              		.cfi_restore 1
 602 03a8 03340100 		ld	s0,0(sp)
 603              		.cfi_restore 8
 604              		.cfi_def_cfa 2, 16
 605 03ac 13010101 		addi	sp,sp,16
 606              		.cfi_def_cfa_offset 0
 607 03b0 67800000 		jr	ra
 608              		.cfi_endproc
 609              	.LFE44:
 611              		.globl	userMainThread
 612              		.globl	consoleThread
 613              		.globl	mainThread
 614              		.globl	mySem
 615              		.globl	mythreads
 616              		.bss
 617              		.align	3
 618              		.set	.LANCHOR0,. + 0
 621              	mySem:
 622 0000 00000000 		.zero	8
 622      00000000 
 625              	mainThread:
 626 0008 00000000 		.zero	8
 626      00000000 
 629              	consoleThread:
 630 0010 00000000 		.zero	8
 630      00000000 
 633              	userMainThread:
 634 0018 00000000 		.zero	8
 634      00000000 
 637              	mythreads:
 638 0020 00000000 		.zero	80
 638      00000000 
 638      00000000 
 638      00000000 
 638      00000000 
 639              		.text
 640              	.Letext0:
 641              		.file 4 "src/../h/../lib/hw.h"
 642              		.file 5 "src/../h/Memoryallocator.hpp"
 643              		.file 6 "src/../h/../h/syscall_c.hpp"
 644              		.file 7 "src/../h/semaphore.hpp"
GAS LISTING /tmp/ccuW6vvw.s 			page 20


 645              		.file 8 "src/../h/Scheduler.hpp"
 646              		.file 9 "src/../h/List.hpp"
 647              		.file 10 "src/../h/BoundedBuffer.hpp"
 648              		.file 11 "src/../h/Console.hpp"
 649              		.file 12 "src/../lib/console.h"
GAS LISTING /tmp/ccuW6vvw.s 			page 21


DEFINED SYMBOLS
                            *ABS*:0000000000000000 main.cpp
     /tmp/ccuW6vvw.s:9      .text:0000000000000000 _Z14handleNewCharsPv
     /tmp/ccuW6vvw.s:13     .text:0000000000000000 .L0 
     /tmp/ccuW6vvw.s:15     .text:0000000000000000 .L0 
     /tmp/ccuW6vvw.s:16     .text:0000000000000004 .L0 
     /tmp/ccuW6vvw.s:19     .text:000000000000000c .L0 
     /tmp/ccuW6vvw.s:20     .text:000000000000000c .L0 
     /tmp/ccuW6vvw.s:22     .text:0000000000000010 .L0 
     /tmp/ccuW6vvw.s:28     .text:0000000000000014 .L0 
     /tmp/ccuW6vvw.s:29     .text:0000000000000014 .L0 
     /tmp/ccuW6vvw.s:34     .text:000000000000001c .L0 
     /tmp/ccuW6vvw.s:36     .text:000000000000001c .L0 
     /tmp/ccuW6vvw.s:37     .text:000000000000001c .L0 
     /tmp/ccuW6vvw.s:38     .text:000000000000001c .L0 
     /tmp/ccuW6vvw.s:39     .text:000000000000001c .L0 
     /tmp/ccuW6vvw.s:43     .text:000000000000002c .L0 
     /tmp/ccuW6vvw.s:47     .text:0000000000000034 .L0 
     /tmp/ccuW6vvw.s:48     .text:0000000000000034 .L0 
     /tmp/ccuW6vvw.s:51     .text:000000000000003c .L0 
     /tmp/ccuW6vvw.s:54     .text:0000000000000044 .L0 
     /tmp/ccuW6vvw.s:57     .text:0000000000000050 .L0 
     /tmp/ccuW6vvw.s:61     .text:0000000000000058 .L0 
     /tmp/ccuW6vvw.s:67     .text:0000000000000058 _Z11userWrapperPv
     /tmp/ccuW6vvw.s:70     .text:0000000000000058 .L0 
     /tmp/ccuW6vvw.s:72     .text:0000000000000058 .L0 
     /tmp/ccuW6vvw.s:73     .text:000000000000005c .L0 
     /tmp/ccuW6vvw.s:76     .text:0000000000000064 .L0 
     /tmp/ccuW6vvw.s:77     .text:0000000000000064 .L0 
     /tmp/ccuW6vvw.s:79     .text:0000000000000068 .L0 
     /tmp/ccuW6vvw.s:81     .text:0000000000000068 .L0 
     /tmp/ccuW6vvw.s:82     .text:0000000000000068 .L0 
     /tmp/ccuW6vvw.s:85     .text:0000000000000070 .L0 
     /tmp/ccuW6vvw.s:86     .text:0000000000000074 .L0 
     /tmp/ccuW6vvw.s:88     .text:0000000000000078 .L0 
     /tmp/ccuW6vvw.s:89     .text:0000000000000078 .L0 
     /tmp/ccuW6vvw.s:91     .text:000000000000007c .L0 
     /tmp/ccuW6vvw.s:93     .text:0000000000000080 .L0 
     /tmp/ccuW6vvw.s:99     .text:0000000000000080 _Z19testMemoryAllocatorv
     /tmp/ccuW6vvw.s:102    .text:0000000000000080 .L0 
     /tmp/ccuW6vvw.s:103    .text:0000000000000080 .L0 
     /tmp/ccuW6vvw.s:104    .text:0000000000000084 .L0 
     /tmp/ccuW6vvw.s:109    .text:0000000000000094 .L0 
     /tmp/ccuW6vvw.s:110    .text:0000000000000094 .L0 
     /tmp/ccuW6vvw.s:111    .text:0000000000000094 .L0 
     /tmp/ccuW6vvw.s:112    .text:0000000000000094 .L0 
     /tmp/ccuW6vvw.s:114    .text:0000000000000098 .L0 
     /tmp/ccuW6vvw.s:116    .text:0000000000000098 .L0 
     /tmp/ccuW6vvw.s:117    .text:0000000000000098 .L0 
     /tmp/ccuW6vvw.s:123    .text:00000000000000a8 .L0 
     /tmp/ccuW6vvw.s:124    .text:00000000000000a8 .L0 
     /tmp/ccuW6vvw.s:127    .text:00000000000000b0 .L0 
     /tmp/ccuW6vvw.s:128    .text:00000000000000b0 .L0 
     /tmp/ccuW6vvw.s:134    .text:00000000000000c0 .L0 
     /tmp/ccuW6vvw.s:135    .text:00000000000000c0 .L0 
     /tmp/ccuW6vvw.s:138    .text:00000000000000c8 .L0 
     /tmp/ccuW6vvw.s:139    .text:00000000000000c8 .L0 
GAS LISTING /tmp/ccuW6vvw.s 			page 22


     /tmp/ccuW6vvw.s:145    .text:00000000000000d8 .L0 
     /tmp/ccuW6vvw.s:146    .text:00000000000000d8 .L0 
     /tmp/ccuW6vvw.s:149    .text:00000000000000e0 .L0 
     /tmp/ccuW6vvw.s:152    .text:00000000000000e4 .L0 
     /tmp/ccuW6vvw.s:155    .text:00000000000000e8 .L0 
     /tmp/ccuW6vvw.s:156    .text:00000000000000ec .L0 
     /tmp/ccuW6vvw.s:157    .text:00000000000000ec .L0 
     /tmp/ccuW6vvw.s:159    .text:00000000000000f0 .L0 
     /tmp/ccuW6vvw.s:160    .text:00000000000000f0 .L0 
     /tmp/ccuW6vvw.s:162    .text:00000000000000f4 .L0 
     /tmp/ccuW6vvw.s:165    .text:00000000000000f8 .L0 
     /tmp/ccuW6vvw.s:168    .text:00000000000000fc .L0 
     /tmp/ccuW6vvw.s:172    .text:0000000000000100 .L0 
     /tmp/ccuW6vvw.s:174    .text:0000000000000100 .L0 
     /tmp/ccuW6vvw.s:175    .text:0000000000000100 .L0 
     /tmp/ccuW6vvw.s:181    .text:0000000000000110 .L0 
     /tmp/ccuW6vvw.s:182    .text:0000000000000110 .L0 
     /tmp/ccuW6vvw.s:186    .text:000000000000011c .L0 
     /tmp/ccuW6vvw.s:187    .text:0000000000000120 .L0 
     /tmp/ccuW6vvw.s:193    .text:0000000000000120 _Z11testCMemoryv
     /tmp/ccuW6vvw.s:196    .text:0000000000000120 .L0 
     /tmp/ccuW6vvw.s:197    .text:0000000000000120 .L0 
     /tmp/ccuW6vvw.s:198    .text:0000000000000124 .L0 
     /tmp/ccuW6vvw.s:202    .text:0000000000000130 .L0 
     /tmp/ccuW6vvw.s:203    .text:0000000000000130 .L0 
     /tmp/ccuW6vvw.s:204    .text:0000000000000130 .L0 
     /tmp/ccuW6vvw.s:206    .text:0000000000000134 .L0 
     /tmp/ccuW6vvw.s:208    .text:0000000000000134 .L0 
     /tmp/ccuW6vvw.s:209    .text:0000000000000134 .L0 
     /tmp/ccuW6vvw.s:212    .text:000000000000013c .L0 
     /tmp/ccuW6vvw.s:213    .text:000000000000013c .L0 
     /tmp/ccuW6vvw.s:219    .text:000000000000014c .L0 
     /tmp/ccuW6vvw.s:220    .text:000000000000014c .L0 
     /tmp/ccuW6vvw.s:223    .text:0000000000000154 .L0 
     /tmp/ccuW6vvw.s:224    .text:0000000000000154 .L0 
     /tmp/ccuW6vvw.s:228    .text:0000000000000160 .L0 
     /tmp/ccuW6vvw.s:229    .text:0000000000000160 .L0 
     /tmp/ccuW6vvw.s:232    .text:0000000000000168 .L0 
     /tmp/ccuW6vvw.s:233    .text:000000000000016c .L0 
     /tmp/ccuW6vvw.s:235    .text:0000000000000170 .L0 
     /tmp/ccuW6vvw.s:236    .text:0000000000000170 .L0 
     /tmp/ccuW6vvw.s:238    .text:0000000000000174 .L0 
     /tmp/ccuW6vvw.s:241    .text:0000000000000178 .L0 
     /tmp/ccuW6vvw.s:243    .text:000000000000017c .L0 
     /tmp/ccuW6vvw.s:249    .text:000000000000017c _Z11testConsolePv
     /tmp/ccuW6vvw.s:252    .text:000000000000017c .L0 
     /tmp/ccuW6vvw.s:254    .text:000000000000017c .L0 
     /tmp/ccuW6vvw.s:255    .text:0000000000000180 .L0 
     /tmp/ccuW6vvw.s:261    .text:0000000000000194 .L0 
     /tmp/ccuW6vvw.s:262    .text:0000000000000194 .L0 
     /tmp/ccuW6vvw.s:263    .text:0000000000000194 .L0 
     /tmp/ccuW6vvw.s:264    .text:0000000000000194 .L0 
     /tmp/ccuW6vvw.s:265    .text:0000000000000194 .L0 
     /tmp/ccuW6vvw.s:267    .text:0000000000000198 .L0 
     /tmp/ccuW6vvw.s:272    .text:0000000000000198 .L0 
     /tmp/ccuW6vvw.s:273    .text:0000000000000198 .L0 
     /tmp/ccuW6vvw.s:274    .text:0000000000000198 .L0 
GAS LISTING /tmp/ccuW6vvw.s 			page 23


     /tmp/ccuW6vvw.s:279    .text:00000000000001a4 .L0 
     /tmp/ccuW6vvw.s:280    .text:00000000000001a4 .L0 
     /tmp/ccuW6vvw.s:285    .text:00000000000001b0 .L0 
     /tmp/ccuW6vvw.s:286    .text:00000000000001b0 .L0 
     /tmp/ccuW6vvw.s:291    .text:00000000000001bc .L0 
     /tmp/ccuW6vvw.s:292    .text:00000000000001bc .L0 
     /tmp/ccuW6vvw.s:296    .text:00000000000001c8 .L0 
     /tmp/ccuW6vvw.s:297    .text:00000000000001c8 .L0 
     /tmp/ccuW6vvw.s:301    .text:00000000000001d4 .L0 
     /tmp/ccuW6vvw.s:302    .text:00000000000001d4 .L0 
     /tmp/ccuW6vvw.s:307    .text:00000000000001e0 .L0 
     /tmp/ccuW6vvw.s:308    .text:00000000000001e4 .L0 
     /tmp/ccuW6vvw.s:314    .text:00000000000001e4 _Z13testTimedWaitPv
     /tmp/ccuW6vvw.s:317    .text:00000000000001e4 .L0 
     /tmp/ccuW6vvw.s:319    .text:00000000000001e4 .L0 
     /tmp/ccuW6vvw.s:320    .text:00000000000001e8 .L0 
     /tmp/ccuW6vvw.s:322    .text:00000000000001ec .L0 
     /tmp/ccuW6vvw.s:324    .text:00000000000001f0 .L0 
     /tmp/ccuW6vvw.s:326    .text:00000000000001f0 .L0 
     /tmp/ccuW6vvw.s:327    .text:00000000000001f4 .L0 
     /tmp/ccuW6vvw.s:328    .text:00000000000001f4 .L0 
     /tmp/ccuW6vvw.s:330    .text:00000000000001f8 .L0 
     /tmp/ccuW6vvw.s:332    .text:00000000000001fc .L0 
     /tmp/ccuW6vvw.s:338    .text:00000000000001fc _Z9semWaiterPv
     /tmp/ccuW6vvw.s:341    .text:00000000000001fc .L0 
     /tmp/ccuW6vvw.s:342    .text:00000000000001fc .L0 
     /tmp/ccuW6vvw.s:343    .text:0000000000000200 .L0 
     /tmp/ccuW6vvw.s:346    .text:0000000000000208 .L0 
     /tmp/ccuW6vvw.s:347    .text:0000000000000208 .L0 
     /tmp/ccuW6vvw.s:349    .text:000000000000020c .L0 
     /tmp/ccuW6vvw.s:351    .text:000000000000020c .L0 
     /tmp/ccuW6vvw.s:352    .text:000000000000020c .L0 
     /tmp/ccuW6vvw.s:356    .text:000000000000021c .L0 
     /tmp/ccuW6vvw.s:357    .text:0000000000000220 .L0 
     /tmp/ccuW6vvw.s:359    .text:0000000000000224 .L0 
     /tmp/ccuW6vvw.s:360    .text:0000000000000224 .L0 
     /tmp/ccuW6vvw.s:362    .text:0000000000000228 .L0 
     /tmp/ccuW6vvw.s:364    .text:000000000000022c .L0 
     /tmp/ccuW6vvw.s:370    .text:000000000000022c _Z14runningForeverPv
     /tmp/ccuW6vvw.s:373    .text:000000000000022c .L0 
     /tmp/ccuW6vvw.s:375    .text:000000000000022c .L0 
     /tmp/ccuW6vvw.s:376    .text:000000000000022c .L0 
     /tmp/ccuW6vvw.s:380    .text:000000000000022c .L0 
     /tmp/ccuW6vvw.s:381    .text:000000000000022c .L0 
     /tmp/ccuW6vvw.s:382    .text:000000000000022c .L0 
     /tmp/ccuW6vvw.s:388    .text:000000000000023c .L0 
     /tmp/ccuW6vvw.s:391    .text:0000000000000244 .L0 
     /tmp/ccuW6vvw.s:392    .text:0000000000000248 .L0 
     /tmp/ccuW6vvw.s:395    .text:0000000000000250 .L0 
     /tmp/ccuW6vvw.s:396    .text:0000000000000250 .L0 
     /tmp/ccuW6vvw.s:398    .text:0000000000000254 .L0 
     /tmp/ccuW6vvw.s:402    .text:0000000000000254 .L0 
     /tmp/ccuW6vvw.s:403    .text:0000000000000254 .L0 
     /tmp/ccuW6vvw.s:407    .text:0000000000000260 .L0 
     /tmp/ccuW6vvw.s:410    .text:0000000000000260 .L0 
     /tmp/ccuW6vvw.s:411    .text:0000000000000260 .L0 
     /tmp/ccuW6vvw.s:412    .text:0000000000000260 .L0 
GAS LISTING /tmp/ccuW6vvw.s 			page 24


     /tmp/ccuW6vvw.s:418    .text:0000000000000270 .L0 
     /tmp/ccuW6vvw.s:421    .text:0000000000000278 .L0 
     /tmp/ccuW6vvw.s:422    .text:000000000000027c .L0 
     /tmp/ccuW6vvw.s:424    .text:0000000000000280 .L0 
     /tmp/ccuW6vvw.s:425    .text:0000000000000280 .L0 
     /tmp/ccuW6vvw.s:427    .text:0000000000000284 .L0 
     /tmp/ccuW6vvw.s:432    .text:000000000000028c .L0 
     /tmp/ccuW6vvw.s:438    .text:000000000000028c _Z11timedWaiterPv
     /tmp/ccuW6vvw.s:441    .text:000000000000028c .L0 
     /tmp/ccuW6vvw.s:442    .text:000000000000028c .L0 
     /tmp/ccuW6vvw.s:443    .text:0000000000000290 .L0 
     /tmp/ccuW6vvw.s:446    .text:0000000000000298 .L0 
     /tmp/ccuW6vvw.s:447    .text:0000000000000298 .L0 
     /tmp/ccuW6vvw.s:449    .text:000000000000029c .L0 
     /tmp/ccuW6vvw.s:451    .text:000000000000029c .L0 
     /tmp/ccuW6vvw.s:452    .text:000000000000029c .L0 
     /tmp/ccuW6vvw.s:457    .text:00000000000002b0 .L0 
     /tmp/ccuW6vvw.s:462    .text:00000000000002b8 .L0 
     /tmp/ccuW6vvw.s:463    .text:00000000000002b8 .L0 
     /tmp/ccuW6vvw.s:466    .text:00000000000002c0 .L0 
     /tmp/ccuW6vvw.s:467    .text:00000000000002c4 .L0 
     /tmp/ccuW6vvw.s:468    .text:00000000000002c4 .L0 
     /tmp/ccuW6vvw.s:470    .text:00000000000002c8 .L0 
     /tmp/ccuW6vvw.s:471    .text:00000000000002c8 .L0 
     /tmp/ccuW6vvw.s:473    .text:00000000000002cc .L0 
     /tmp/ccuW6vvw.s:477    .text:00000000000002d0 .L0 
     /tmp/ccuW6vvw.s:479    .text:00000000000002d0 .L0 
     /tmp/ccuW6vvw.s:480    .text:00000000000002d0 .L0 
     /tmp/ccuW6vvw.s:485    .text:00000000000002e0 .L0 
     /tmp/ccuW6vvw.s:491    .text:00000000000002e0 main
     /tmp/ccuW6vvw.s:494    .text:00000000000002e0 .L0 
     /tmp/ccuW6vvw.s:495    .text:00000000000002e0 .L0 
     /tmp/ccuW6vvw.s:496    .text:00000000000002e4 .L0 
     /tmp/ccuW6vvw.s:499    .text:00000000000002ec .L0 
     /tmp/ccuW6vvw.s:500    .text:00000000000002ec .L0 
     /tmp/ccuW6vvw.s:502    .text:00000000000002f0 .L0 
     /tmp/ccuW6vvw.s:504    .text:00000000000002f0 .L0 
     /tmp/ccuW6vvw.s:505    .text:00000000000002f0 .L0 
     /tmp/ccuW6vvw.s:511    .text:00000000000002f8 .L0 
src/../h/../h/riscv.hpp:96     .text:00000000000002f8 .L0 
     /tmp/ccuW6vvw.s:521    .text:00000000000002fc .L0 
     /tmp/ccuW6vvw.s:522    .text:00000000000002fc .L0 
     /tmp/ccuW6vvw.s:525    .text:0000000000000304 .L0 
     /tmp/ccuW6vvw.s:526    .text:0000000000000304 .L0 
     /tmp/ccuW6vvw.s:529    .text:000000000000030c .L0 
     /tmp/ccuW6vvw.s:530    .text:000000000000030c .L0 
     /tmp/ccuW6vvw.s:533    .text:0000000000000314 .L0 
     /tmp/ccuW6vvw.s:534    .text:0000000000000314 .L0 
     /tmp/ccuW6vvw.s:540    .text:000000000000032c .L0 
     /tmp/ccuW6vvw.s:541    .text:000000000000032c .L0 
     /tmp/ccuW6vvw.s:548    .text:0000000000000340 .L0 
     /tmp/ccuW6vvw.s:549    .text:0000000000000340 .L0 
     /tmp/ccuW6vvw.s:550    .text:0000000000000340 .L0 
     /tmp/ccuW6vvw.s:560    .text:0000000000000348 .L0 
     /tmp/ccuW6vvw.s:561    .text:0000000000000348 .L0 
     /tmp/ccuW6vvw.s:567    .text:0000000000000364 .L0 
     /tmp/ccuW6vvw.s:568    .text:0000000000000364 .L0 
GAS LISTING /tmp/ccuW6vvw.s 			page 25


     /tmp/ccuW6vvw.s:575    .text:0000000000000380 .L0 
     /tmp/ccuW6vvw.s:576    .text:0000000000000380 .L0 
     /tmp/ccuW6vvw.s:577    .text:0000000000000380 .L0 
     /tmp/ccuW6vvw.s:582    .text:0000000000000388 .L0 
     /tmp/ccuW6vvw.s:583    .text:0000000000000388 .L0 
     /tmp/ccuW6vvw.s:588    .text:000000000000038c .L0 
     /tmp/ccuW6vvw.s:591    .text:0000000000000394 .L0 
     /tmp/ccuW6vvw.s:592    .text:0000000000000394 .L0 
     /tmp/ccuW6vvw.s:595    .text:000000000000039c .L0 
     /tmp/ccuW6vvw.s:598    .text:00000000000003a0 .L0 
     /tmp/ccuW6vvw.s:599    .text:00000000000003a0 .L0 
     /tmp/ccuW6vvw.s:601    .text:00000000000003a8 .L0 
     /tmp/ccuW6vvw.s:603    .text:00000000000003ac .L0 
     /tmp/ccuW6vvw.s:604    .text:00000000000003ac .L0 
     /tmp/ccuW6vvw.s:606    .text:00000000000003b0 .L0 
     /tmp/ccuW6vvw.s:608    .text:00000000000003b4 .L0 
     /tmp/ccuW6vvw.s:633    .bss:0000000000000018 userMainThread
     /tmp/ccuW6vvw.s:629    .bss:0000000000000010 consoleThread
     /tmp/ccuW6vvw.s:625    .bss:0000000000000008 mainThread
     /tmp/ccuW6vvw.s:621    .bss:0000000000000000 mySem
     /tmp/ccuW6vvw.s:637    .bss:0000000000000020 mythreads
     /tmp/ccuW6vvw.s:618    .bss:0000000000000000 .LANCHOR0
     /tmp/ccuW6vvw.s:650    .text:00000000000003b4 .L0 
     /tmp/ccuW6vvw.s:39     .text:000000000000001c .L0 
     /tmp/ccuW6vvw.s:54     .text:0000000000000044 .L0 
     /tmp/ccuW6vvw.s:352    .text:000000000000020c .L0 
     /tmp/ccuW6vvw.s:382    .text:000000000000022c .L0 
     /tmp/ccuW6vvw.s:412    .text:0000000000000260 .L0 
     /tmp/ccuW6vvw.s:453    .text:00000000000002a0 .L0 
     /tmp/ccuW6vvw.s:505    .text:00000000000002f0 .L0 
     /tmp/ccuW6vvw.s:536    .text:000000000000031c .L0 
     /tmp/ccuW6vvw.s:541    .text:000000000000032c .L0 
     /tmp/ccuW6vvw.s:542    .text:0000000000000334 .L0 
     /tmp/ccuW6vvw.s:562    .text:000000000000034c .L0 
     /tmp/ccuW6vvw.s:563    .text:0000000000000354 .L0 
     /tmp/ccuW6vvw.s:569    .text:0000000000000368 .L0 
     /tmp/ccuW6vvw.s:570    .text:0000000000000370 .L0 
     /tmp/ccuW6vvw.s:577    .text:0000000000000380 .L0 
     /tmp/ccuW6vvw.s:33     .text:000000000000001c .L2
     /tmp/ccuW6vvw.s:25     .text:0000000000000014 .L3
     /tmp/ccuW6vvw.s:171    .text:0000000000000100 .L12
     /tmp/ccuW6vvw.s:179    .text:0000000000000110 .L13
     /tmp/ccuW6vvw.s:150    .text:00000000000000e4 .L9
     /tmp/ccuW6vvw.s:153    .text:00000000000000e8 .L8
     /tmp/ccuW6vvw.s:269    .text:0000000000000198 .L17
     /tmp/ccuW6vvw.s:430    .text:0000000000000288 .L31
     /tmp/ccuW6vvw.s:400    .text:0000000000000254 .L27
     /tmp/ccuW6vvw.s:476    .text:00000000000002d0 .L35
     /tmp/ccuW6vvw.s:460    .text:00000000000002b8 .L33
     /tmp/ccuW6vvw.s:596    .text:00000000000003a0 .L37
     /tmp/ccuW6vvw.s:573    .text:0000000000000380 .L38
     /tmp/ccuW6vvw.s:3103   .debug_abbrev:0000000000000000 .Ldebug_abbrev0
     /tmp/ccuW6vvw.s:5068   .debug_str:0000000000000d85 .LASF292
     /tmp/ccuW6vvw.s:4748   .debug_str:0000000000000491 .LASF293
     /tmp/ccuW6vvw.s:4766   .debug_str:000000000000050b .LASF294
     /tmp/ccuW6vvw.s:5      .text:0000000000000000 .Ltext0
     /tmp/ccuW6vvw.s:640    .text:00000000000003b4 .Letext0
GAS LISTING /tmp/ccuW6vvw.s 			page 26


     /tmp/ccuW6vvw.s:4594   .debug_line:0000000000000000 .Ldebug_line0
     /tmp/ccuW6vvw.s:4804   .debug_str:0000000000000626 .LASF0
     /tmp/ccuW6vvw.s:4848   .debug_str:0000000000000752 .LASF1
     /tmp/ccuW6vvw.s:4990   .debug_str:0000000000000b3c .LASF2
     /tmp/ccuW6vvw.s:5000   .debug_str:0000000000000bbb .LASF4
     /tmp/ccuW6vvw.s:4824   .debug_str:00000000000006af .LASF3
     /tmp/ccuW6vvw.s:4610   .debug_str:0000000000000045 .LASF5
     /tmp/ccuW6vvw.s:4952   .debug_str:0000000000000a62 .LASF6
     /tmp/ccuW6vvw.s:4940   .debug_str:00000000000009fb .LASF7
     /tmp/ccuW6vvw.s:4832   .debug_str:00000000000006f0 .LASF8
     /tmp/ccuW6vvw.s:4760   .debug_str:00000000000004ce .LASF9
     /tmp/ccuW6vvw.s:4776   .debug_str:0000000000000563 .LASF10
     /tmp/ccuW6vvw.s:4670   .debug_str:0000000000000245 .LASF11
     /tmp/ccuW6vvw.s:4744   .debug_str:0000000000000476 .LASF12
     /tmp/ccuW6vvw.s:4688   .debug_str:00000000000002b7 .LASF13
     /tmp/ccuW6vvw.s:4668   .debug_str:0000000000000235 .LASF14
     /tmp/ccuW6vvw.s:5040   .debug_str:0000000000000cd8 .LASF15
     /tmp/ccuW6vvw.s:4728   .debug_str:00000000000003d6 .LASF16
     /tmp/ccuW6vvw.s:5024   .debug_str:0000000000000c59 .LASF17
     /tmp/ccuW6vvw.s:4938   .debug_str:00000000000009eb .LASF21
     /tmp/ccuW6vvw.s:4662   .debug_str:000000000000020b .LASF91
     /tmp/ccuW6vvw.s:4672   .debug_str:0000000000000254 .LASF18
     /tmp/ccuW6vvw.s:4628   .debug_str:00000000000000e2 .LASF19
     /tmp/ccuW6vvw.s:4846   .debug_str:000000000000074d .LASF20
     /tmp/ccuW6vvw.s:4626   .debug_str:00000000000000c9 .LASF22
     /tmp/ccuW6vvw.s:5022   .debug_str:0000000000000c3e .LASF23
     /tmp/ccuW6vvw.s:5136   .debug_str:0000000000001039 .LASF103
     /tmp/ccuW6vvw.s:5160   .debug_str:00000000000010d6 .LASF105
     /tmp/ccuW6vvw.s:5060   .debug_str:0000000000000d5f .LASF24
     /tmp/ccuW6vvw.s:4622   .debug_str:00000000000000b1 .LASF25
     /tmp/ccuW6vvw.s:4818   .debug_str:0000000000000684 .LASF49
     /tmp/ccuW6vvw.s:4996   .debug_str:0000000000000b74 .LASF51
     /tmp/ccuW6vvw.s:5108   .debug_str:0000000000000f8c .LASF95
     /tmp/ccuW6vvw.s:4726   .debug_str:00000000000003c7 .LASF45
     /tmp/ccuW6vvw.s:4898   .debug_str:00000000000008ca .LASF47
     /tmp/ccuW6vvw.s:4894   .debug_str:000000000000089f .LASF26
     /tmp/ccuW6vvw.s:4612   .debug_str:000000000000004c .LASF27
     /tmp/ccuW6vvw.s:5050   .debug_str:0000000000000d14 .LASF28
     /tmp/ccuW6vvw.s:4896   .debug_str:00000000000008a9 .LASF29
     /tmp/ccuW6vvw.s:4604   .debug_str:0000000000000026 .LASF33
     /tmp/ccuW6vvw.s:4644   .debug_str:000000000000015d .LASF35
     /tmp/ccuW6vvw.s:4962   .debug_str:0000000000000aa7 .LASF30
     /tmp/ccuW6vvw.s:5150   .debug_str:0000000000001096 .LASF31
     /tmp/ccuW6vvw.s:4606   .debug_str:000000000000002c .LASF84
     /tmp/ccuW6vvw.s:4968   .debug_str:0000000000000ac1 .LASF32
     /tmp/ccuW6vvw.s:4704   .debug_str:0000000000000331 .LASF34
     /tmp/ccuW6vvw.s:4984   .debug_str:0000000000000b03 .LASF36
     /tmp/ccuW6vvw.s:4712   .debug_str:0000000000000357 .LASF37
     /tmp/ccuW6vvw.s:4992   .debug_str:0000000000000b4a .LASF38
     /tmp/ccuW6vvw.s:4650   .debug_str:00000000000001ab .LASF39
     /tmp/ccuW6vvw.s:5096   .debug_str:0000000000000f07 .LASF40
     /tmp/ccuW6vvw.s:4774   .debug_str:000000000000055a .LASF41
     /tmp/ccuW6vvw.s:5154   .debug_str:00000000000010b2 .LASF42
     /tmp/ccuW6vvw.s:5100   .debug_str:0000000000000f34 .LASF43
     /tmp/ccuW6vvw.s:5052   .debug_str:0000000000000d1d .LASF44
     /tmp/ccuW6vvw.s:4982   .debug_str:0000000000000af9 .LASF46
     /tmp/ccuW6vvw.s:5194   .debug_str:000000000000120c .LASF48
GAS LISTING /tmp/ccuW6vvw.s 			page 27


     /tmp/ccuW6vvw.s:5048   .debug_str:0000000000000d0a .LASF50
     /tmp/ccuW6vvw.s:4950   .debug_str:0000000000000a4c .LASF52
     /tmp/ccuW6vvw.s:5132   .debug_str:000000000000101d .LASF53
     /tmp/ccuW6vvw.s:5134   .debug_str:0000000000001025 .LASF54
     /tmp/ccuW6vvw.s:5010   .debug_str:0000000000000bfd .LASF55
     /tmp/ccuW6vvw.s:5192   .debug_str:00000000000011f8 .LASF56
     /tmp/ccuW6vvw.s:4664   .debug_str:0000000000000217 .LASF57
     /tmp/ccuW6vvw.s:5178   .debug_str:000000000000118b .LASF58
     /tmp/ccuW6vvw.s:4862   .debug_str:00000000000007b0 .LASF59
     /tmp/ccuW6vvw.s:5056   .debug_str:0000000000000d3c .LASF60
     /tmp/ccuW6vvw.s:4966   .debug_str:0000000000000ab8 .LASF61
     /tmp/ccuW6vvw.s:4870   .debug_str:00000000000007f9 .LASF62
     /tmp/ccuW6vvw.s:5138   .debug_str:0000000000001044 .LASF63
     /tmp/ccuW6vvw.s:4946   .debug_str:0000000000000a1e .LASF64
     /tmp/ccuW6vvw.s:4920   .debug_str:000000000000097f .LASF65
     /tmp/ccuW6vvw.s:4884   .debug_str:000000000000085f .LASF66
     /tmp/ccuW6vvw.s:4736   .debug_str:000000000000041e .LASF67
     /tmp/ccuW6vvw.s:5032   .debug_str:0000000000000ca0 .LASF68
     /tmp/ccuW6vvw.s:5084   .debug_str:0000000000000eb3 .LASF69
     /tmp/ccuW6vvw.s:4682   .debug_str:000000000000028b .LASF70
     /tmp/ccuW6vvw.s:5148   .debug_str:000000000000108b .LASF71
     /tmp/ccuW6vvw.s:5106   .debug_str:0000000000000f74 .LASF72
     /tmp/ccuW6vvw.s:4830   .debug_str:00000000000006e6 .LASF73
     /tmp/ccuW6vvw.s:5104   .debug_str:0000000000000f5e .LASF74
     /tmp/ccuW6vvw.s:5080   .debug_str:0000000000000e97 .LASF75
     /tmp/ccuW6vvw.s:5082   .debug_str:0000000000000e9f .LASF76
     /tmp/ccuW6vvw.s:4698   .debug_str:0000000000000308 .LASF77
     /tmp/ccuW6vvw.s:5176   .debug_str:0000000000001172 .LASF78
     /tmp/ccuW6vvw.s:4974   .debug_str:0000000000000ad8 .LASF79
     /tmp/ccuW6vvw.s:4868   .debug_str:00000000000007e1 .LASF80
     /tmp/ccuW6vvw.s:4790   .debug_str:00000000000005c6 .LASF81
     /tmp/ccuW6vvw.s:4718   .debug_str:000000000000037c .LASF82
     /tmp/ccuW6vvw.s:5126   .debug_str:0000000000000ff6 .LASF83
     /tmp/ccuW6vvw.s:4716   .debug_str:0000000000000376 .LASF85
     /tmp/ccuW6vvw.s:4834   .debug_str:0000000000000703 .LASF86
     /tmp/ccuW6vvw.s:4676   .debug_str:0000000000000267 .LASF87
     /tmp/ccuW6vvw.s:4960   .debug_str:0000000000000a9f .LASF88
     /tmp/ccuW6vvw.s:4648   .debug_str:00000000000001a2 .LASF89
     /tmp/ccuW6vvw.s:4878   .debug_str:000000000000083d .LASF90
     /tmp/ccuW6vvw.s:4678   .debug_str:0000000000000270 .LASF92
     /tmp/ccuW6vvw.s:5142   .debug_str:0000000000001062 .LASF93
     /tmp/ccuW6vvw.s:5070   .debug_str:0000000000000e49 .LASF94
     /tmp/ccuW6vvw.s:5066   .debug_str:0000000000000d7d .LASF96
     /tmp/ccuW6vvw.s:4660   .debug_str:00000000000001fd .LASF97
     /tmp/ccuW6vvw.s:4742   .debug_str:000000000000044e .LASF98
     /tmp/ccuW6vvw.s:4852   .debug_str:0000000000000777 .LASF99
     /tmp/ccuW6vvw.s:4858   .debug_str:0000000000000796 .LASF100
     /tmp/ccuW6vvw.s:4708   .debug_str:0000000000000349 .LASF101
     /tmp/ccuW6vvw.s:4680   .debug_str:0000000000000278 .LASF102
     /tmp/ccuW6vvw.s:5008   .debug_str:0000000000000bf4 .LASF104
     /tmp/ccuW6vvw.s:5020   .debug_str:0000000000000c2a .LASF106
     /tmp/ccuW6vvw.s:4856   .debug_str:0000000000000789 .LASF107
     /tmp/ccuW6vvw.s:5112   .debug_str:0000000000000fa4 .LASF108
     /tmp/ccuW6vvw.s:5088   .debug_str:0000000000000ed3 .LASF109
     /tmp/ccuW6vvw.s:4866   .debug_str:00000000000007cb .LASF110
     /tmp/ccuW6vvw.s:4782   .debug_str:000000000000058a .LASF111
     /tmp/ccuW6vvw.s:5046   .debug_str:0000000000000cf4 .LASF112
GAS LISTING /tmp/ccuW6vvw.s 			page 28


     /tmp/ccuW6vvw.s:4882   .debug_str:0000000000000858 .LASF113
     /tmp/ccuW6vvw.s:4690   .debug_str:00000000000002c7 .LASF114
     /tmp/ccuW6vvw.s:4674   .debug_str:0000000000000259 .LASF115
     /tmp/ccuW6vvw.s:4740   .debug_str:0000000000000435 .LASF116
     /tmp/ccuW6vvw.s:5002   .debug_str:0000000000000bc2 .LASF117
     /tmp/ccuW6vvw.s:4608   .debug_str:0000000000000039 .LASF118
     /tmp/ccuW6vvw.s:5180   .debug_str:00000000000011a0 .LASF119
     /tmp/ccuW6vvw.s:4770   .debug_str:0000000000000531 .LASF120
     /tmp/ccuW6vvw.s:4806   .debug_str:0000000000000633 .LASF121
     /tmp/ccuW6vvw.s:4928   .debug_str:00000000000009b2 .LASF122
     /tmp/ccuW6vvw.s:5012   .debug_str:0000000000000c05 .LASF123
     /tmp/ccuW6vvw.s:4988   .debug_str:0000000000000b2b .LASF124
     /tmp/ccuW6vvw.s:4632   .debug_str:0000000000000108 .LASF125
     /tmp/ccuW6vvw.s:4994   .debug_str:0000000000000b68 .LASF126
     /tmp/ccuW6vvw.s:4836   .debug_str:000000000000070c .LASF127
     /tmp/ccuW6vvw.s:4714   .debug_str:0000000000000368 .LASF128
     /tmp/ccuW6vvw.s:4978   .debug_str:0000000000000ae8 .LASF129
     /tmp/ccuW6vvw.s:4706   .debug_str:0000000000000341 .LASF130
     /tmp/ccuW6vvw.s:4930   .debug_str:00000000000009bf .LASF131
     /tmp/ccuW6vvw.s:5018   .debug_str:0000000000000c24 .LASF132
     /tmp/ccuW6vvw.s:5092   .debug_str:0000000000000eed .LASF133
     /tmp/ccuW6vvw.s:4900   .debug_str:00000000000008f1 .LASF134
     /tmp/ccuW6vvw.s:5186   .debug_str:00000000000011be .LASF177
     /tmp/ccuW6vvw.s:4696   .debug_str:00000000000002fa .LASF168
     /tmp/ccuW6vvw.s:4646   .debug_str:000000000000017a .LASF170
     /tmp/ccuW6vvw.s:5114   .debug_str:0000000000000fbd .LASF191
     /tmp/ccuW6vvw.s:4618   .debug_str:000000000000008f .LASF193
     /tmp/ccuW6vvw.s:4934   .debug_str:00000000000009d5 .LASF135
     /tmp/ccuW6vvw.s:5074   .debug_str:0000000000000e55 .LASF136
     /tmp/ccuW6vvw.s:5158   .debug_str:00000000000010d0 .LASF137
     /tmp/ccuW6vvw.s:4964   .debug_str:0000000000000ab2 .LASF138
     /tmp/ccuW6vvw.s:4638   .debug_str:0000000000000127 .LASF139
     /tmp/ccuW6vvw.s:5144   .debug_str:000000000000106a .LASF140
     /tmp/ccuW6vvw.s:4732   .debug_str:00000000000003fa .LASF141
     /tmp/ccuW6vvw.s:4768   .debug_str:0000000000000529 .LASF142
     /tmp/ccuW6vvw.s:4710   .debug_str:0000000000000352 .LASF143
     /tmp/ccuW6vvw.s:4810   .debug_str:0000000000000648 .LASF144
     /tmp/ccuW6vvw.s:5044   .debug_str:0000000000000ced .LASF145
     /tmp/ccuW6vvw.s:4956   .debug_str:0000000000000a71 .LASF146
     /tmp/ccuW6vvw.s:5182   .debug_str:00000000000011ad .LASF147
     /tmp/ccuW6vvw.s:4822   .debug_str:000000000000069a .LASF148
     /tmp/ccuW6vvw.s:4936   .debug_str:00000000000009e1 .LASF149
     /tmp/ccuW6vvw.s:4756   .debug_str:00000000000004ad .LASF150
     /tmp/ccuW6vvw.s:5124   .debug_str:0000000000000fee .LASF151
     /tmp/ccuW6vvw.s:4658   .debug_str:00000000000001e9 .LASF152
     /tmp/ccuW6vvw.s:4924   .debug_str:0000000000000995 .LASF153
     /tmp/ccuW6vvw.s:4880   .debug_str:0000000000000845 .LASF154
     /tmp/ccuW6vvw.s:4786   .debug_str:00000000000005a6 .LASF155
     /tmp/ccuW6vvw.s:4654   .debug_str:00000000000001c3 .LASF156
     /tmp/ccuW6vvw.s:4762   .debug_str:00000000000004de .LASF157
     /tmp/ccuW6vvw.s:5034   .debug_str:0000000000000cb3 .LASF158
     /tmp/ccuW6vvw.s:4980   .debug_str:0000000000000af3 .LASF159
     /tmp/ccuW6vvw.s:4860   .debug_str:00000000000007ab .LASF160
     /tmp/ccuW6vvw.s:4872   .debug_str:000000000000080e .LASF202
     /tmp/ccuW6vvw.s:4802   .debug_str:0000000000000620 .LASF161
     /tmp/ccuW6vvw.s:4738   .debug_str:0000000000000425 .LASF162
     /tmp/ccuW6vvw.s:5172   .debug_str:000000000000115b .LASF163
GAS LISTING /tmp/ccuW6vvw.s 			page 29


     /tmp/ccuW6vvw.s:5004   .debug_str:0000000000000bc7 .LASF164
     /tmp/ccuW6vvw.s:4794   .debug_str:00000000000005e4 .LASF165
     /tmp/ccuW6vvw.s:4954   .debug_str:0000000000000a69 .LASF166
     /tmp/ccuW6vvw.s:4596   .debug_str:0000000000000000 .LASF167
     /tmp/ccuW6vvw.s:4908   .debug_str:0000000000000923 .LASF169
     /tmp/ccuW6vvw.s:4912   .debug_str:0000000000000930 .LASF171
     /tmp/ccuW6vvw.s:4942   .debug_str:0000000000000a0e .LASF295
     /tmp/ccuW6vvw.s:4916   .debug_str:0000000000000953 .LASF296
     /tmp/ccuW6vvw.s:4826   .debug_str:00000000000006c1 .LASF172
     /tmp/ccuW6vvw.s:4976   .debug_str:0000000000000ae3 .LASF173
     /tmp/ccuW6vvw.s:4758   .debug_str:00000000000004c4 .LASF174
     /tmp/ccuW6vvw.s:4840   .debug_str:0000000000000722 .LASF175
     /tmp/ccuW6vvw.s:5162   .debug_str:00000000000010f1 .LASF176
     /tmp/ccuW6vvw.s:5170   .debug_str:0000000000001147 .LASF297
     /tmp/ccuW6vvw.s:4798   .debug_str:00000000000005fc .LASF178
     /tmp/ccuW6vvw.s:4844   .debug_str:0000000000000748 .LASF179
     /tmp/ccuW6vvw.s:4722   .debug_str:000000000000039a .LASF180
     /tmp/ccuW6vvw.s:4684   .debug_str:00000000000002a3 .LASF181
     /tmp/ccuW6vvw.s:5152   .debug_str:000000000000109c .LASF182
     /tmp/ccuW6vvw.s:4986   .debug_str:0000000000000b20 .LASF183
     /tmp/ccuW6vvw.s:4630   .debug_str:00000000000000e7 .LASF184
     /tmp/ccuW6vvw.s:5094   .debug_str:0000000000000ef5 .LASF185
     /tmp/ccuW6vvw.s:4792   .debug_str:00000000000005d1 .LASF186
     /tmp/ccuW6vvw.s:4666   .debug_str:0000000000000220 .LASF187
     /tmp/ccuW6vvw.s:4746   .debug_str:0000000000000485 .LASF188
     /tmp/ccuW6vvw.s:4772   .debug_str:000000000000053d .LASF189
     /tmp/ccuW6vvw.s:5164   .debug_str:0000000000001111 .LASF190
     /tmp/ccuW6vvw.s:4636   .debug_str:000000000000011f .LASF192
     /tmp/ccuW6vvw.s:4926   .debug_str:000000000000099a .LASF194
     /tmp/ccuW6vvw.s:4750   .debug_str:000000000000049e .LASF195
     /tmp/ccuW6vvw.s:5014   .debug_str:0000000000000c0e .LASF196
     /tmp/ccuW6vvw.s:5190   .debug_str:00000000000011ec .LASF197
     /tmp/ccuW6vvw.s:4904   .debug_str:0000000000000904 .LASF198
     /tmp/ccuW6vvw.s:5128   .debug_str:0000000000000fff .LASF199
     /tmp/ccuW6vvw.s:4902   .debug_str:00000000000008ff .LASF200
     /tmp/ccuW6vvw.s:5026   .debug_str:0000000000000c6f .LASF201
     /tmp/ccuW6vvw.s:4724   .debug_str:00000000000003af .LASF203
     /tmp/ccuW6vvw.s:4816   .debug_str:000000000000066f .LASF217
     /tmp/ccuW6vvw.s:5168   .debug_str:0000000000001131 .LASF204
     /tmp/ccuW6vvw.s:5146   .debug_str:0000000000001075 .LASF205
     /tmp/ccuW6vvw.s:4694   .debug_str:00000000000002f5 .LASF298
     /tmp/ccuW6vvw.s:5064   .debug_str:0000000000000d78 .LASF206
     /tmp/ccuW6vvw.s:4910   .debug_str:000000000000092b .LASF207
     /tmp/ccuW6vvw.s:4600   .debug_str:0000000000000019 .LASF208
     /tmp/ccuW6vvw.s:4602   .debug_str:000000000000001f .LASF209
     /tmp/ccuW6vvw.s:4958   .debug_str:0000000000000a84 .LASF210
     /tmp/ccuW6vvw.s:5062   .debug_str:0000000000000d6d .LASF211
     /tmp/ccuW6vvw.s:4686   .debug_str:00000000000002a9 .LASF212
     /tmp/ccuW6vvw.s:4906   .debug_str:000000000000090c .LASF213
     /tmp/ccuW6vvw.s:5076   .debug_str:0000000000000e6c .LASF214
     /tmp/ccuW6vvw.s:4842   .debug_str:0000000000000731 .LASF215
     /tmp/ccuW6vvw.s:4948   .debug_str:0000000000000a33 .LASF216
     /tmp/ccuW6vvw.s:5028   .debug_str:0000000000000c82 .LASF218
     /tmp/ccuW6vvw.s:4876   .debug_str:0000000000000821 .LASF219
     /tmp/ccuW6vvw.s:5030   .debug_str:0000000000000c9b .LASF220
     /tmp/ccuW6vvw.s:5006   .debug_str:0000000000000bd9 .LASF221
     /tmp/ccuW6vvw.s:5098   .debug_str:0000000000000f1d .LASF222
GAS LISTING /tmp/ccuW6vvw.s 			page 30


     /tmp/ccuW6vvw.s:4788   .debug_str:00000000000005ae .LASF223
     /tmp/ccuW6vvw.s:4620   .debug_str:00000000000000a1 .LASF224
     /tmp/ccuW6vvw.s:4886   .debug_str:0000000000000872 .LASF225
     /tmp/ccuW6vvw.s:4720   .debug_str:0000000000000394 .LASF226
     /tmp/ccuW6vvw.s:5072   .debug_str:0000000000000e4e .LASF227
     /tmp/ccuW6vvw.s:5054   .debug_str:0000000000000d37 .LASF228
     /tmp/ccuW6vvw.s:4624   .debug_str:00000000000000bf .LASF229
     /tmp/ccuW6vvw.s:4850   .debug_str:0000000000000765 .LASF230
     /tmp/ccuW6vvw.s:4998   .debug_str:0000000000000ba6 .LASF231
     /tmp/ccuW6vvw.s:4800   .debug_str:0000000000000614 .LASF232
     /tmp/ccuW6vvw.s:4616   .debug_str:0000000000000082 .LASF233
     /tmp/ccuW6vvw.s:4780   .debug_str:000000000000057b .LASF234
     /tmp/ccuW6vvw.s:4640   .debug_str:0000000000000132 .LASF235
     /tmp/ccuW6vvw.s:5118   .debug_str:0000000000000fd5 .LASF236
     /tmp/ccuW6vvw.s:4734   .debug_str:0000000000000402 .LASF237
     /tmp/ccuW6vvw.s:5038   .debug_str:0000000000000ccc .LASF238
     /tmp/ccuW6vvw.s:4692   .debug_str:00000000000002d8 .LASF239
     /tmp/ccuW6vvw.s:4970   .debug_str:0000000000000ac6 .LASF240
     /tmp/ccuW6vvw.s:5102   .debug_str:0000000000000f41 .LASF241
     /tmp/ccuW6vvw.s:5188   .debug_str:00000000000011e1 .LASF242
     /tmp/ccuW6vvw.s:5078   .debug_str:0000000000000e7b .LASF243
     /tmp/ccuW6vvw.s:4778   .debug_str:0000000000000571 .LASF244
     /tmp/ccuW6vvw.s:4972   .debug_str:0000000000000ad2 .LASF245
     /tmp/ccuW6vvw.s:4642   .debug_str:0000000000000152 .LASF246
     /tmp/ccuW6vvw.s:4652   .debug_str:00000000000001b5 .LASF247
     /tmp/ccuW6vvw.s:4922   .debug_str:0000000000000986 .LASF248
     /tmp/ccuW6vvw.s:4754   .debug_str:00000000000004a8 .LASF249
     /tmp/ccuW6vvw.s:492    .text:00000000000002e0 .LFB44
     /tmp/ccuW6vvw.s:609    .text:00000000000003b4 .LFE44
     /tmp/ccuW6vvw.s:507    .text:00000000000002f8 .LBB18
     /tmp/ccuW6vvw.s:519    .text:00000000000002fc .LBE18
     /tmp/ccuW6vvw.s:546    .text:0000000000000340 .LBB20
     /tmp/ccuW6vvw.s:558    .text:0000000000000348 .LBE20
     /tmp/ccuW6vvw.s:4451   .debug_loc:0000000000000000 .LLST9
     /tmp/ccuW6vvw.s:579    .text:0000000000000388 .LBB22
     /tmp/ccuW6vvw.s:586    .text:000000000000038c .LBE22
     /tmp/ccuW6vvw.s:4459   .debug_loc:0000000000000024 .LLST10
     /tmp/ccuW6vvw.s:523    .text:0000000000000304 .LVL52
     /tmp/ccuW6vvw.s:527    .text:000000000000030c .LVL53
     /tmp/ccuW6vvw.s:531    .text:0000000000000314 .LVL54
     /tmp/ccuW6vvw.s:538    .text:000000000000032c .LVL55
     /tmp/ccuW6vvw.s:565    .text:0000000000000364 .LVL58
     /tmp/ccuW6vvw.s:572    .text:0000000000000380 .LVL59
     /tmp/ccuW6vvw.s:593    .text:000000000000039c .LVL62
     /tmp/ccuW6vvw.s:5036   .debug_str:0000000000000cc0 .LASF250
     /tmp/ccuW6vvw.s:4796   .debug_str:00000000000005ea .LASF251
     /tmp/ccuW6vvw.s:68     .text:0000000000000058 .LFB43
     /tmp/ccuW6vvw.s:94     .text:0000000000000080 .LFE43
     /tmp/ccuW6vvw.s:4466   .debug_loc:0000000000000047 .LLST1
     /tmp/ccuW6vvw.s:83     .text:0000000000000070 .LVL5
     /tmp/ccuW6vvw.s:4888   .debug_str:0000000000000881 .LASF252
     /tmp/ccuW6vvw.s:4864   .debug_str:00000000000007b9 .LASF253
     /tmp/ccuW6vvw.s:439    .text:000000000000028c .LFB42
     /tmp/ccuW6vvw.s:486    .text:00000000000002e0 .LFE42
     /tmp/ccuW6vvw.s:5184   .debug_str:00000000000011b7 .LASF254
     /tmp/ccuW6vvw.s:4480   .debug_loc:0000000000000080 .LLST8
     /tmp/ccuW6vvw.s:455    .text:00000000000002b0 .LVL44
GAS LISTING /tmp/ccuW6vvw.s 			page 31


     /tmp/ccuW6vvw.s:464    .text:00000000000002c0 .LVL46
     /tmp/ccuW6vvw.s:483    .text:00000000000002dc .LVL49
     /tmp/ccuW6vvw.s:5090   .debug_str:0000000000000ede .LASF255
     /tmp/ccuW6vvw.s:5086   .debug_str:0000000000000ebe .LASF256
     /tmp/ccuW6vvw.s:371    .text:000000000000022c .LFB41
     /tmp/ccuW6vvw.s:433    .text:000000000000028c .LFE41
     /tmp/ccuW6vvw.s:4491   .debug_loc:00000000000000b6 .LLST7
     /tmp/ccuW6vvw.s:377    .text:000000000000022c .LBB14
     /tmp/ccuW6vvw.s:4586   .debug_ranges:0000000000000000 .Ldebug_ranges0
     /tmp/ccuW6vvw.s:405    .text:0000000000000260 .LVL42
     /tmp/ccuW6vvw.s:4838   .debug_str:0000000000000718 .LASF257
     /tmp/ccuW6vvw.s:4914   .debug_str:0000000000000944 .LASF258
     /tmp/ccuW6vvw.s:339    .text:00000000000001fc .LFB40
     /tmp/ccuW6vvw.s:365    .text:000000000000022c .LFE40
     /tmp/ccuW6vvw.s:354    .text:000000000000021c .LVL39
     /tmp/ccuW6vvw.s:5058   .debug_str:0000000000000d51 .LASF259
     /tmp/ccuW6vvw.s:5130   .debug_str:0000000000001009 .LASF260
     /tmp/ccuW6vvw.s:315    .text:00000000000001e4 .LFB39
     /tmp/ccuW6vvw.s:333    .text:00000000000001fc .LFE39
     /tmp/ccuW6vvw.s:5174   .debug_str:0000000000001163 .LASF261
     /tmp/ccuW6vvw.s:4614   .debug_str:000000000000006d .LASF262
     /tmp/ccuW6vvw.s:10     .text:0000000000000000 .LFB38
     /tmp/ccuW6vvw.s:62     .text:0000000000000058 .LFE38
     /tmp/ccuW6vvw.s:4509   .debug_loc:0000000000000102 .LLST0
     /tmp/ccuW6vvw.s:45     .text:0000000000000034 .LBB11
     /tmp/ccuW6vvw.s:59     .text:0000000000000058 .LBE11
     /tmp/ccuW6vvw.s:49     .text:000000000000003c .LVL3
     /tmp/ccuW6vvw.s:30     .text:000000000000001c .LVL2
     /tmp/ccuW6vvw.s:4634   .debug_str:0000000000000113 .LASF263
     /tmp/ccuW6vvw.s:4656   .debug_str:00000000000001d7 .LASF264
     /tmp/ccuW6vvw.s:250    .text:000000000000017c .LFB37
     /tmp/ccuW6vvw.s:309    .text:00000000000001e4 .LFE37
     /tmp/ccuW6vvw.s:4523   .debug_loc:000000000000013b .LLST6
     /tmp/ccuW6vvw.s:271    .text:0000000000000198 .LBB13
     /tmp/ccuW6vvw.s:305    .text:00000000000001e0 .LBE13
     /tmp/ccuW6vvw.s:275    .text:00000000000001a0 .LVL29
     /tmp/ccuW6vvw.s:281    .text:00000000000001ac .LVL31
     /tmp/ccuW6vvw.s:287    .text:00000000000001b8 .LVL33
     /tmp/ccuW6vvw.s:294    .text:00000000000001c8 .LVL35
     /tmp/ccuW6vvw.s:299    .text:00000000000001d4 .LVL36
     /tmp/ccuW6vvw.s:304    .text:00000000000001e0 .LVL37
     /tmp/ccuW6vvw.s:4854   .debug_str:000000000000077d .LASF265
     /tmp/ccuW6vvw.s:4932   .debug_str:00000000000009c4 .LASF266
     /tmp/ccuW6vvw.s:194    .text:0000000000000120 .LFB36
     /tmp/ccuW6vvw.s:244    .text:000000000000017c .LFE36
     /tmp/ccuW6vvw.s:4702   .debug_str:000000000000032c .LASF267
     /tmp/ccuW6vvw.s:4537   .debug_loc:0000000000000174 .LLST5
     /tmp/ccuW6vvw.s:210    .text:000000000000013c .LVL20
     /tmp/ccuW6vvw.s:215    .text:0000000000000148 .LVL21
     /tmp/ccuW6vvw.s:221    .text:0000000000000154 .LVL23
     /tmp/ccuW6vvw.s:226    .text:0000000000000160 .LVL24
     /tmp/ccuW6vvw.s:230    .text:0000000000000168 .LVL25
     /tmp/ccuW6vvw.s:4918   .debug_str:000000000000096b .LASF268
     /tmp/ccuW6vvw.s:4828   .debug_str:00000000000006cd .LASF269
     /tmp/ccuW6vvw.s:100    .text:0000000000000080 .LFB35
     /tmp/ccuW6vvw.s:188    .text:0000000000000120 .LFE35
     /tmp/ccuW6vvw.s:4544   .debug_loc:0000000000000197 .LLST2
GAS LISTING /tmp/ccuW6vvw.s 			page 32


     /tmp/ccuW6vvw.s:4944   .debug_str:0000000000000a19 .LASF270
     /tmp/ccuW6vvw.s:4551   .debug_loc:00000000000001ba .LLST3
     /tmp/ccuW6vvw.s:4808   .debug_str:0000000000000643 .LASF271
     /tmp/ccuW6vvw.s:4562   .debug_loc:00000000000001f0 .LLST4
     /tmp/ccuW6vvw.s:119    .text:00000000000000a4 .LVL6
     /tmp/ccuW6vvw.s:125    .text:00000000000000b0 .LVL8
     /tmp/ccuW6vvw.s:130    .text:00000000000000bc .LVL9
     /tmp/ccuW6vvw.s:136    .text:00000000000000c8 .LVL11
     /tmp/ccuW6vvw.s:141    .text:00000000000000d4 .LVL12
     /tmp/ccuW6vvw.s:147    .text:00000000000000e0 .LVL14
     /tmp/ccuW6vvw.s:177    .text:000000000000010c .LVL18
     /tmp/ccuW6vvw.s:184    .text:000000000000011c .LVL19
     /tmp/ccuW6vvw.s:4752   .debug_str:00000000000004a3 .LASF299
     /tmp/ccuW6vvw.s:5120   .debug_str:0000000000000fe0 .LASF272
     /tmp/ccuW6vvw.s:4764   .debug_str:00000000000004ea .LASF273
     /tmp/ccuW6vvw.s:5110   .debug_str:0000000000000f96 .LASF275
     /tmp/ccuW6vvw.s:5140   .debug_str:000000000000104d .LASF274
     /tmp/ccuW6vvw.s:5116   .debug_str:0000000000000fc5 .LASF276
     /tmp/ccuW6vvw.s:4892   .debug_str:0000000000000892 .LASF277
     /tmp/ccuW6vvw.s:5156   .debug_str:00000000000010c7 .LASF278
     /tmp/ccuW6vvw.s:4700   .debug_str:0000000000000314 .LASF279
     /tmp/ccuW6vvw.s:4598   .debug_str:000000000000000b .LASF280
     /tmp/ccuW6vvw.s:4814   .debug_str:000000000000065e .LASF281
     /tmp/ccuW6vvw.s:4820   .debug_str:000000000000068e .LASF282
     /tmp/ccuW6vvw.s:5042   .debug_str:0000000000000ce4 .LASF283
     /tmp/ccuW6vvw.s:4890   .debug_str:000000000000088d .LASF284
     /tmp/ccuW6vvw.s:4784   .debug_str:0000000000000595 .LASF285
     /tmp/ccuW6vvw.s:5016   .debug_str:0000000000000c1b .LASF286
     /tmp/ccuW6vvw.s:5122   .debug_str:0000000000000fe5 .LASF287
     /tmp/ccuW6vvw.s:4812   .debug_str:0000000000000659 .LASF288
     /tmp/ccuW6vvw.s:4730   .debug_str:00000000000003ec .LASF289
     /tmp/ccuW6vvw.s:5166   .debug_str:0000000000001123 .LASF290
     /tmp/ccuW6vvw.s:4874   .debug_str:000000000000081a .LASF291
     /tmp/ccuW6vvw.s:545    .text:0000000000000340 .LVL56
     /tmp/ccuW6vvw.s:555    .text:0000000000000348 .LVL57
     /tmp/ccuW6vvw.s:578    .text:0000000000000388 .LVL60
     /tmp/ccuW6vvw.s:584    .text:000000000000038c .LVL61
     /tmp/ccuW6vvw.s:71     .text:0000000000000058 .LVL4
     /tmp/ccuW6vvw.s:459    .text:00000000000002b8 .LVL45
     /tmp/ccuW6vvw.s:475    .text:00000000000002d0 .LVL47
     /tmp/ccuW6vvw.s:481    .text:00000000000002d4 .LVL48
     /tmp/ccuW6vvw.s:374    .text:000000000000022c .LVL40
     /tmp/ccuW6vvw.s:399    .text:0000000000000254 .LVL41
     /tmp/ccuW6vvw.s:429    .text:0000000000000288 .LVL43
     /tmp/ccuW6vvw.s:14     .text:0000000000000000 .LVL0
     /tmp/ccuW6vvw.s:24     .text:0000000000000014 .LVL1
     /tmp/ccuW6vvw.s:253    .text:000000000000017c .LVL27
     /tmp/ccuW6vvw.s:268    .text:0000000000000198 .LVL28
     /tmp/ccuW6vvw.s:217    .text:000000000000014c .LVL22
     /tmp/ccuW6vvw.s:239    .text:0000000000000174 .LVL26
     /tmp/ccuW6vvw.s:121    .text:00000000000000a8 .LVL7
     /tmp/ccuW6vvw.s:143    .text:00000000000000d8 .LVL13
     /tmp/ccuW6vvw.s:132    .text:00000000000000c0 .LVL10
     /tmp/ccuW6vvw.s:166    .text:00000000000000f8 .LVL16
     /tmp/ccuW6vvw.s:170    .text:0000000000000100 .LVL17
     /tmp/ccuW6vvw.s:163    .text:00000000000000f4 .LVL15
     /tmp/ccuW6vvw.s:651    .debug_info:0000000000000000 .Ldebug_info0
GAS LISTING /tmp/ccuW6vvw.s 			page 33


     /tmp/ccuW6vvw.s:386    .text:000000000000023c .LBE14
     /tmp/ccuW6vvw.s:408    .text:0000000000000260 .LBB17
     /tmp/ccuW6vvw.s:416    .text:0000000000000270 .LBE17

UNDEFINED SYMBOLS
_Z15thread_dispatchv
CONSOLE_STATUS
_ZN9myConsole11output_getcEv
CONSOLE_TX_DATA
_Z8userMainv
_ZN15MemoryAllocator9mem_allocEm
_ZN15MemoryAllocator5printEv
_ZN15MemoryAllocator8mem_freeEPv
__putc
_Z9mem_allocm
_Z8mem_freePv
_Z4getcv
_Z4putcc
_Z8sem_waitP3Sem
_ZN3TCB7runningE
_Z13sem_timedwaitP3Semm
_Z11thread_exitv
_ZN5RISCV15supervisor_trapEv
_ZN15MemoryAllocator14init_allocatorEv
_ZN9Scheduler14init_schedulerEv
_ZN9myConsole14init_myconsoleEv
_Z13thread_createPP3TCBPFvPvES2_
