GAS LISTING /tmp/ccnTWODx.s 			page 1


   1              		.file	"main.cpp"
   2              		.option pic
   3              		.option norelax
   4              		.text
   5              	.Ltext0:
   6              		.align	2
   7              		.globl	_Z14handleNewCharsPv
   9              	_Z14handleNewCharsPv:
  10              	.LFB34:
  11              		.file 1 "src/main.cpp"
   1:src/main.cpp  **** 
   2:src/main.cpp  **** #include "../h/Memoryallocator.hpp"
   3:src/main.cpp  **** #include "../h/Scheduler.hpp"
   4:src/main.cpp  **** #include "../h/Console.hpp"
   5:src/main.cpp  **** #include "../lib/console.h"
   6:src/main.cpp  **** #include "../h/print.hpp"
   7:src/main.cpp  **** 
   8:src/main.cpp  **** void testMemoryAllocator() {
   9:src/main.cpp  **** 
  10:src/main.cpp  ****     void *addr = MemoryAllocator::mem_alloc(1);
  11:src/main.cpp  ****     MemoryAllocator::print();
  12:src/main.cpp  ****     int ret1 = MemoryAllocator::mem_free(addr);
  13:src/main.cpp  ****     MemoryAllocator::print();
  14:src/main.cpp  **** 
  15:src/main.cpp  ****     int ret2 = MemoryAllocator::mem_free(addr);
  16:src/main.cpp  ****     MemoryAllocator::print();
  17:src/main.cpp  **** 
  18:src/main.cpp  ****     if (ret1 == 0) __putc('G');
  19:src/main.cpp  ****     if (ret2 < 0) __putc('G');
  20:src/main.cpp  **** 
  21:src/main.cpp  **** }
  22:src/main.cpp  **** 
  23:src/main.cpp  **** void testCMemory() {
  24:src/main.cpp  ****     MemoryAllocator::print();
  25:src/main.cpp  ****     void* addr = mem_alloc(50);
  26:src/main.cpp  ****     MemoryAllocator::print();
  27:src/main.cpp  ****     mem_free(addr);
  28:src/main.cpp  ****     MemoryAllocator::print();
  29:src/main.cpp  **** }
  30:src/main.cpp  **** 
  31:src/main.cpp  **** 
  32:src/main.cpp  **** //sem_t mySem = nullptr;
  33:src/main.cpp  **** //
  34:src/main.cpp  **** //void workerA(void*) {
  35:src/main.cpp  **** //    for (int i = 0; i < 4; ++i) {
  36:src/main.cpp  **** //        printInteger(i);
  37:src/main.cpp  **** //        __putc('(');
  38:src/main.cpp  **** //        __putc('A');
  39:src/main.cpp  **** //        __putc(')');
  40:src/main.cpp  **** //        for (int j = 0; j < 10000; ++j) {
  41:src/main.cpp  **** //            for (int k = 0; k < 30000; ++k) {}
  42:src/main.cpp  **** //            thread_dispatch();
  43:src/main.cpp  **** //        }
  44:src/main.cpp  **** //    }
  45:src/main.cpp  **** //}
  46:src/main.cpp  **** 
  47:src/main.cpp  **** //void workerB(void*) {
GAS LISTING /tmp/ccnTWODx.s 			page 2


  48:src/main.cpp  **** //
  49:src/main.cpp  **** //    while (true) {
  50:src/main.cpp  **** //        char c = getc();
  51:src/main.cpp  **** //        putc(c);
  52:src/main.cpp  **** //        c+=1;
  53:src/main.cpp  **** //    }
  54:src/main.cpp  **** //}
  55:src/main.cpp  **** 
  56:src/main.cpp  **** void testConsole(void *args) {
  57:src/main.cpp  ****     while (true) {
  58:src/main.cpp  ****         char c1 = getc();
  59:src/main.cpp  ****         char c2 = getc();
  60:src/main.cpp  ****         char c3 = getc();
  61:src/main.cpp  ****         putc(c1);
  62:src/main.cpp  ****         putc(c2);
  63:src/main.cpp  ****         putc(c3);
  64:src/main.cpp  ****     }
  65:src/main.cpp  **** }
  66:src/main.cpp  **** 
  67:src/main.cpp  **** void handleNewChars(void * args) {
  12              		.loc 1 67 34
  13              		.cfi_startproc
  14              	.LVL0:
  15              	.L6:
  68:src/main.cpp  **** 
  69:src/main.cpp  ****     while (true) {
  16              		.loc 1 69 5
  17              	.LBB6:
  70:src/main.cpp  ****         while (*(char *) CONSOLE_STATUS & CONSOLE_TX_STATUS_BIT) {
  18              		.loc 1 70 9
  19              		.loc 1 70 43
  20              		.loc 1 70 16 is_stmt 0
  21 0000 97070000 		la	a5,CONSOLE_STATUS
  21      83B70700 
  22 0008 83B70700 		ld	a5,0(a5)
  23 000c 83C70700 		lbu	a5,0(a5)
  24              		.loc 1 70 43
  25 0010 93F70702 		andi	a5,a5,32
  26 0014 E38607FE 		beqz	a5,.L6
  27              	.LBE6:
  67:src/main.cpp  **** 
  28              		.loc 1 67 34
  29 0018 130101FF 		addi	sp,sp,-16
  30              		.cfi_def_cfa_offset 16
  31 001c 23341100 		sd	ra,8(sp)
  32 0020 23308100 		sd	s0,0(sp)
  33              		.cfi_offset 1, -8
  34              		.cfi_offset 8, -16
  35 0024 13040101 		addi	s0,sp,16
  36              		.cfi_def_cfa 8, 0
  37              	.LVL1:
  38              	.L7:
  39              	.LBB8:
  40              	.LBB7:
  71:src/main.cpp  ****             // console controller is ready for new char
  72:src/main.cpp  ****             char c = myConsole::output_getc();
  41              		.loc 1 72 13 is_stmt 1
GAS LISTING /tmp/ccnTWODx.s 			page 3


  42              		.loc 1 72 44 is_stmt 0
  43 0028 97000000 		call	_ZN9myConsole11output_getcEv@plt
  43      E7800000 
  44              	.LVL2:
  73:src/main.cpp  ****             if (c == '\r') continue;
  45              		.loc 1 73 13 is_stmt 1
  46 0030 9307D000 		li	a5,13
  47 0034 630AF500 		beq	a0,a5,.L3
  74:src/main.cpp  ****             *(char *) CONSOLE_TX_DATA = c;
  48              		.loc 1 74 13
  49 0038 97070000 		la	a5,CONSOLE_TX_DATA
  49      83B70700 
  50 0040 83B70700 		ld	a5,0(a5)
  51              		.loc 1 74 39 is_stmt 0
  52 0044 2380A700 		sb	a0,0(a5)
  53              	.L3:
  54              	.LBE7:
  55              	.LBE8:
  69:src/main.cpp  ****         while (*(char *) CONSOLE_STATUS & CONSOLE_TX_STATUS_BIT) {
  56              		.loc 1 69 5 is_stmt 1
  57              	.LBB9:
  70:src/main.cpp  ****             // console controller is ready for new char
  58              		.loc 1 70 9
  70:src/main.cpp  ****             // console controller is ready for new char
  59              		.loc 1 70 43
  70:src/main.cpp  ****             // console controller is ready for new char
  60              		.loc 1 70 16 is_stmt 0
  61 0048 97070000 		la	a5,CONSOLE_STATUS
  61      83B70700 
  62 0050 83B70700 		ld	a5,0(a5)
  63 0054 83C70700 		lbu	a5,0(a5)
  70:src/main.cpp  ****             // console controller is ready for new char
  64              		.loc 1 70 43
  65 0058 93F70702 		andi	a5,a5,32
  66 005c E38607FE 		beqz	a5,.L3
  67 0060 6FF09FFC 		j	.L7
  68              	.LBE9:
  69              		.cfi_endproc
  70              	.LFE34:
  72              		.align	2
  73              		.globl	_Z11userWrapperPv
  75              	_Z11userWrapperPv:
  76              	.LFB35:
  75:src/main.cpp  ****             // pop from output buffer and wr to TX DATA
  76:src/main.cpp  ****         }
  77:src/main.cpp  ****     }
  78:src/main.cpp  **** }
  79:src/main.cpp  **** 
  80:src/main.cpp  **** thread_t mythreads[5];
  81:src/main.cpp  **** 
  82:src/main.cpp  **** extern void userMain();
  83:src/main.cpp  **** 
  84:src/main.cpp  **** void userWrapper(void* args) {
  77              		.loc 1 84 30 is_stmt 1
  78              		.cfi_startproc
  79              	.LVL3:
  80 0064 130101FF 		addi	sp,sp,-16
GAS LISTING /tmp/ccnTWODx.s 			page 4


  81              		.cfi_def_cfa_offset 16
  82 0068 23341100 		sd	ra,8(sp)
  83 006c 23308100 		sd	s0,0(sp)
  84              		.cfi_offset 1, -8
  85              		.cfi_offset 8, -16
  86 0070 13040101 		addi	s0,sp,16
  87              		.cfi_def_cfa 8, 0
  85:src/main.cpp  ****     userMain();
  88              		.loc 1 85 5
  89              		.loc 1 85 13 is_stmt 0
  90 0074 97000000 		call	_Z8userMainv@plt
  90      E7800000 
  91              	.LVL4:
  86:src/main.cpp  **** }
  92              		.loc 1 86 1
  93 007c 83308100 		ld	ra,8(sp)
  94              		.cfi_restore 1
  95 0080 03340100 		ld	s0,0(sp)
  96              		.cfi_restore 8
  97              		.cfi_def_cfa 2, 16
  98 0084 13010101 		addi	sp,sp,16
  99              		.cfi_def_cfa_offset 0
 100 0088 67800000 		jr	ra
 101              		.cfi_endproc
 102              	.LFE35:
 104              		.align	2
 105              		.globl	_Z19testMemoryAllocatorv
 107              	_Z19testMemoryAllocatorv:
 108              	.LFB31:
   8:src/main.cpp  **** 
 109              		.loc 1 8 28 is_stmt 1
 110              		.cfi_startproc
 111 008c 130101FE 		addi	sp,sp,-32
 112              		.cfi_def_cfa_offset 32
 113 0090 233C1100 		sd	ra,24(sp)
 114 0094 23388100 		sd	s0,16(sp)
 115 0098 23349100 		sd	s1,8(sp)
 116 009c 23302101 		sd	s2,0(sp)
 117              		.cfi_offset 1, -8
 118              		.cfi_offset 8, -16
 119              		.cfi_offset 9, -24
 120              		.cfi_offset 18, -32
 121 00a0 13040102 		addi	s0,sp,32
 122              		.cfi_def_cfa 8, 0
  10:src/main.cpp  ****     MemoryAllocator::print();
 123              		.loc 1 10 5
  10:src/main.cpp  ****     MemoryAllocator::print();
 124              		.loc 1 10 44 is_stmt 0
 125 00a4 13051000 		li	a0,1
 126 00a8 97000000 		call	_ZN15MemoryAllocator9mem_allocEm@plt
 126      E7800000 
 127              	.LVL5:
 128 00b0 93040500 		mv	s1,a0
 129              	.LVL6:
  11:src/main.cpp  ****     int ret1 = MemoryAllocator::mem_free(addr);
 130              		.loc 1 11 5 is_stmt 1
  11:src/main.cpp  ****     int ret1 = MemoryAllocator::mem_free(addr);
GAS LISTING /tmp/ccnTWODx.s 			page 5


 131              		.loc 1 11 27 is_stmt 0
 132 00b4 97000000 		call	_ZN15MemoryAllocator5printEv@plt
 132      E7800000 
 133              	.LVL7:
  12:src/main.cpp  ****     MemoryAllocator::print();
 134              		.loc 1 12 5 is_stmt 1
  12:src/main.cpp  ****     MemoryAllocator::print();
 135              		.loc 1 12 41 is_stmt 0
 136 00bc 13850400 		mv	a0,s1
 137 00c0 97000000 		call	_ZN15MemoryAllocator8mem_freeEPv@plt
 137      E7800000 
 138              	.LVL8:
 139 00c8 13090500 		mv	s2,a0
 140              	.LVL9:
  13:src/main.cpp  **** 
 141              		.loc 1 13 5 is_stmt 1
  13:src/main.cpp  **** 
 142              		.loc 1 13 27 is_stmt 0
 143 00cc 97000000 		call	_ZN15MemoryAllocator5printEv@plt
 143      E7800000 
 144              	.LVL10:
  15:src/main.cpp  ****     MemoryAllocator::print();
 145              		.loc 1 15 5 is_stmt 1
  15:src/main.cpp  ****     MemoryAllocator::print();
 146              		.loc 1 15 41 is_stmt 0
 147 00d4 13850400 		mv	a0,s1
 148 00d8 97000000 		call	_ZN15MemoryAllocator8mem_freeEPv@plt
 148      E7800000 
 149              	.LVL11:
 150 00e0 93040500 		mv	s1,a0
 151              	.LVL12:
  16:src/main.cpp  **** 
 152              		.loc 1 16 5 is_stmt 1
  16:src/main.cpp  **** 
 153              		.loc 1 16 27 is_stmt 0
 154 00e4 97000000 		call	_ZN15MemoryAllocator5printEv@plt
 154      E7800000 
 155              	.LVL13:
  18:src/main.cpp  ****     if (ret2 < 0) __putc('G');
 156              		.loc 1 18 5 is_stmt 1
 157 00ec 63000902 		beqz	s2,.L14
 158              	.L11:
  19:src/main.cpp  **** 
 159              		.loc 1 19 5
 160 00f0 63C60402 		bltz	s1,.L15
 161              	.L10:
  21:src/main.cpp  **** 
 162              		.loc 1 21 1 is_stmt 0
 163 00f4 83308101 		ld	ra,24(sp)
 164              		.cfi_remember_state
 165              		.cfi_restore 1
 166 00f8 03340101 		ld	s0,16(sp)
 167              		.cfi_restore 8
 168              		.cfi_def_cfa 2, 32
 169 00fc 83348100 		ld	s1,8(sp)
 170              		.cfi_restore 9
 171              	.LVL14:
GAS LISTING /tmp/ccnTWODx.s 			page 6


 172 0100 03390100 		ld	s2,0(sp)
 173              		.cfi_restore 18
 174              	.LVL15:
 175 0104 13010102 		addi	sp,sp,32
 176              		.cfi_def_cfa_offset 0
 177 0108 67800000 		jr	ra
 178              	.LVL16:
 179              	.L14:
 180              		.cfi_restore_state
  18:src/main.cpp  ****     if (ret2 < 0) __putc('G');
 181              		.loc 1 18 20 is_stmt 1 discriminator 1
  18:src/main.cpp  ****     if (ret2 < 0) __putc('G');
 182              		.loc 1 18 26 is_stmt 0 discriminator 1
 183 010c 13057004 		li	a0,71
 184 0110 97000000 		call	__putc@plt
 184      E7800000 
 185              	.LVL17:
 186 0118 6FF09FFD 		j	.L11
 187              	.L15:
  19:src/main.cpp  **** 
 188              		.loc 1 19 19 is_stmt 1 discriminator 1
  19:src/main.cpp  **** 
 189              		.loc 1 19 25 is_stmt 0 discriminator 1
 190 011c 13057004 		li	a0,71
 191 0120 97000000 		call	__putc@plt
 191      E7800000 
 192              	.LVL18:
  21:src/main.cpp  **** 
 193              		.loc 1 21 1 discriminator 1
 194 0128 6FF0DFFC 		j	.L10
 195              		.cfi_endproc
 196              	.LFE31:
 198              		.align	2
 199              		.globl	_Z11testCMemoryv
 201              	_Z11testCMemoryv:
 202              	.LFB32:
  23:src/main.cpp  ****     MemoryAllocator::print();
 203              		.loc 1 23 20 is_stmt 1
 204              		.cfi_startproc
 205 012c 130101FE 		addi	sp,sp,-32
 206              		.cfi_def_cfa_offset 32
 207 0130 233C1100 		sd	ra,24(sp)
 208 0134 23388100 		sd	s0,16(sp)
 209 0138 23349100 		sd	s1,8(sp)
 210              		.cfi_offset 1, -8
 211              		.cfi_offset 8, -16
 212              		.cfi_offset 9, -24
 213 013c 13040102 		addi	s0,sp,32
 214              		.cfi_def_cfa 8, 0
  24:src/main.cpp  ****     void* addr = mem_alloc(50);
 215              		.loc 1 24 5
  24:src/main.cpp  ****     void* addr = mem_alloc(50);
 216              		.loc 1 24 27 is_stmt 0
 217 0140 97000000 		call	_ZN15MemoryAllocator5printEv@plt
 217      E7800000 
 218              	.LVL19:
  25:src/main.cpp  ****     MemoryAllocator::print();
GAS LISTING /tmp/ccnTWODx.s 			page 7


 219              		.loc 1 25 5 is_stmt 1
  25:src/main.cpp  ****     MemoryAllocator::print();
 220              		.loc 1 25 27 is_stmt 0
 221 0148 13052003 		li	a0,50
 222 014c 97000000 		call	_Z9mem_allocm@plt
 222      E7800000 
 223              	.LVL20:
 224 0154 93040500 		mv	s1,a0
 225              	.LVL21:
  26:src/main.cpp  ****     mem_free(addr);
 226              		.loc 1 26 5 is_stmt 1
  26:src/main.cpp  ****     mem_free(addr);
 227              		.loc 1 26 27 is_stmt 0
 228 0158 97000000 		call	_ZN15MemoryAllocator5printEv@plt
 228      E7800000 
 229              	.LVL22:
  27:src/main.cpp  ****     MemoryAllocator::print();
 230              		.loc 1 27 5 is_stmt 1
  27:src/main.cpp  ****     MemoryAllocator::print();
 231              		.loc 1 27 13 is_stmt 0
 232 0160 13850400 		mv	a0,s1
 233 0164 97000000 		call	_Z8mem_freePv@plt
 233      E7800000 
 234              	.LVL23:
  28:src/main.cpp  **** }
 235              		.loc 1 28 5 is_stmt 1
  28:src/main.cpp  **** }
 236              		.loc 1 28 27 is_stmt 0
 237 016c 97000000 		call	_ZN15MemoryAllocator5printEv@plt
 237      E7800000 
 238              	.LVL24:
  29:src/main.cpp  **** 
 239              		.loc 1 29 1
 240 0174 83308101 		ld	ra,24(sp)
 241              		.cfi_restore 1
 242 0178 03340101 		ld	s0,16(sp)
 243              		.cfi_restore 8
 244              		.cfi_def_cfa 2, 32
 245 017c 83348100 		ld	s1,8(sp)
 246              		.cfi_restore 9
 247              	.LVL25:
 248 0180 13010102 		addi	sp,sp,32
 249              		.cfi_def_cfa_offset 0
 250 0184 67800000 		jr	ra
 251              		.cfi_endproc
 252              	.LFE32:
 254              		.align	2
 255              		.globl	_Z11testConsolePv
 257              	_Z11testConsolePv:
 258              	.LFB33:
  56:src/main.cpp  ****     while (true) {
 259              		.loc 1 56 30 is_stmt 1
 260              		.cfi_startproc
 261              	.LVL26:
 262 0188 130101FD 		addi	sp,sp,-48
 263              		.cfi_def_cfa_offset 48
 264 018c 23341102 		sd	ra,40(sp)
GAS LISTING /tmp/ccnTWODx.s 			page 8


 265 0190 23308102 		sd	s0,32(sp)
 266 0194 233C9100 		sd	s1,24(sp)
 267 0198 23382101 		sd	s2,16(sp)
 268 019c 23343101 		sd	s3,8(sp)
 269              		.cfi_offset 1, -8
 270              		.cfi_offset 8, -16
 271              		.cfi_offset 9, -24
 272              		.cfi_offset 18, -32
 273              		.cfi_offset 19, -40
 274 01a0 13040103 		addi	s0,sp,48
 275              		.cfi_def_cfa 8, 0
 276              	.LVL27:
 277              	.L19:
  57:src/main.cpp  ****         char c1 = getc();
 278              		.loc 1 57 5 discriminator 1
 279              	.LBB10:
  58:src/main.cpp  ****         char c2 = getc();
 280              		.loc 1 58 9 discriminator 1
  58:src/main.cpp  ****         char c2 = getc();
 281              		.loc 1 58 23 is_stmt 0 discriminator 1
 282 01a4 97000000 		call	_Z4getcv@plt
 282      E7800000 
 283              	.LVL28:
 284 01ac 93090500 		mv	s3,a0
 285              	.LVL29:
  59:src/main.cpp  ****         char c3 = getc();
 286              		.loc 1 59 9 is_stmt 1 discriminator 1
  59:src/main.cpp  ****         char c3 = getc();
 287              		.loc 1 59 23 is_stmt 0 discriminator 1
 288 01b0 97000000 		call	_Z4getcv@plt
 288      E7800000 
 289              	.LVL30:
 290 01b8 13090500 		mv	s2,a0
 291              	.LVL31:
  60:src/main.cpp  ****         putc(c1);
 292              		.loc 1 60 9 is_stmt 1 discriminator 1
  60:src/main.cpp  ****         putc(c1);
 293              		.loc 1 60 23 is_stmt 0 discriminator 1
 294 01bc 97000000 		call	_Z4getcv@plt
 294      E7800000 
 295              	.LVL32:
 296 01c4 93040500 		mv	s1,a0
 297              	.LVL33:
  61:src/main.cpp  ****         putc(c2);
 298              		.loc 1 61 9 is_stmt 1 discriminator 1
  61:src/main.cpp  ****         putc(c2);
 299              		.loc 1 61 13 is_stmt 0 discriminator 1
 300 01c8 13850900 		mv	a0,s3
 301 01cc 97000000 		call	_Z4putcc@plt
 301      E7800000 
 302              	.LVL34:
  62:src/main.cpp  ****         putc(c3);
 303              		.loc 1 62 9 is_stmt 1 discriminator 1
  62:src/main.cpp  ****         putc(c3);
 304              		.loc 1 62 13 is_stmt 0 discriminator 1
 305 01d4 13050900 		mv	a0,s2
 306 01d8 97000000 		call	_Z4putcc@plt
GAS LISTING /tmp/ccnTWODx.s 			page 9


 306      E7800000 
 307              	.LVL35:
  63:src/main.cpp  ****     }
 308              		.loc 1 63 9 is_stmt 1 discriminator 1
  63:src/main.cpp  ****     }
 309              		.loc 1 63 13 is_stmt 0 discriminator 1
 310 01e0 13850400 		mv	a0,s1
 311 01e4 97000000 		call	_Z4putcc@plt
 311      E7800000 
 312              	.LVL36:
 313              	.LBE10:
  57:src/main.cpp  ****         char c1 = getc();
 314              		.loc 1 57 5 is_stmt 1 discriminator 1
 315 01ec 6FF09FFB 		j	.L19
 316              		.cfi_endproc
 317              	.LFE33:
 319              		.align	2
 320              		.globl	main
 322              	main:
 323              	.LFB36:
  87:src/main.cpp  **** 
  88:src/main.cpp  **** int main() {
 324              		.loc 1 88 12
 325              		.cfi_startproc
 326 01f0 130101FE 		addi	sp,sp,-32
 327              		.cfi_def_cfa_offset 32
 328 01f4 233C1100 		sd	ra,24(sp)
 329 01f8 23388100 		sd	s0,16(sp)
 330 01fc 23349100 		sd	s1,8(sp)
 331              		.cfi_offset 1, -8
 332              		.cfi_offset 8, -16
 333              		.cfi_offset 9, -24
 334 0200 13040102 		addi	s0,sp,32
 335              		.cfi_def_cfa 8, 0
  89:src/main.cpp  **** 
  90:src/main.cpp  ****     RISCV::wr_stvec((uint64)&RISCV::supervisor_trap);
 336              		.loc 1 90 5
 337              		.loc 1 90 20 is_stmt 0
 338 0204 97070000 		la	a5,_ZN5RISCV15supervisor_trapEv
 338      83B70700 
 339              	.LVL37:
 340              	.LBB11:
 341              	.LBB12:
 342              		.file 2 "src/../h/../h/riscv.hpp"
   1:src/../h/../h/riscv.hpp **** //
   2:src/../h/../h/riscv.hpp **** // Created by os on 4/7/24.
   3:src/../h/../h/riscv.hpp **** //
   4:src/../h/../h/riscv.hpp **** 
   5:src/../h/../h/riscv.hpp **** #ifndef PROJECT_BASE_RISCV_HPP
   6:src/../h/../h/riscv.hpp **** #define PROJECT_BASE_RISCV_HPP
   7:src/../h/../h/riscv.hpp **** 
   8:src/../h/../h/riscv.hpp **** #include "../lib/hw.h"
   9:src/../h/../h/riscv.hpp **** 
  10:src/../h/../h/riscv.hpp **** class RISCV {
  11:src/../h/../h/riscv.hpp **** public:
  12:src/../h/../h/riscv.hpp **** 
  13:src/../h/../h/riscv.hpp ****     enum causes {
GAS LISTING /tmp/ccnTWODx.s 			page 10


  14:src/../h/../h/riscv.hpp ****         SOFTWARE = 0x8000000000000001UL,
  15:src/../h/../h/riscv.hpp ****         EXTERNAL = 0x8000000000000009UL,
  16:src/../h/../h/riscv.hpp ****         U_ECALL  = 0x0000000000000008UL,
  17:src/../h/../h/riscv.hpp ****         S_ECALL  = 0x0000000000000009UL
  18:src/../h/../h/riscv.hpp ****     };
  19:src/../h/../h/riscv.hpp **** 
  20:src/../h/../h/riscv.hpp ****     static void supervisor_trap();
  21:src/../h/../h/riscv.hpp ****     static void handle_interrupt();
  22:src/../h/../h/riscv.hpp **** 
  23:src/../h/../h/riscv.hpp ****     static void push_regs();
  24:src/../h/../h/riscv.hpp ****     static void pop_regs();
  25:src/../h/../h/riscv.hpp **** 
  26:src/../h/../h/riscv.hpp ****     static uint64 rd_scause();
  27:src/../h/../h/riscv.hpp ****     static void wr_scause(uint64 value);
  28:src/../h/../h/riscv.hpp **** 
  29:src/../h/../h/riscv.hpp ****     static uint64 rd_sepc();
  30:src/../h/../h/riscv.hpp ****     static void wr_sepc(uint64 value);
  31:src/../h/../h/riscv.hpp **** 
  32:src/../h/../h/riscv.hpp ****     static uint64 rd_stvec();
  33:src/../h/../h/riscv.hpp ****     static void wr_stvec(uint64 value);
  34:src/../h/../h/riscv.hpp **** 
  35:src/../h/../h/riscv.hpp ****     static uint64 rd_stval();
  36:src/../h/../h/riscv.hpp ****     static void wr_stval(uint64 value);
  37:src/../h/../h/riscv.hpp **** 
  38:src/../h/../h/riscv.hpp ****     static uint64 rd_sip();
  39:src/../h/../h/riscv.hpp ****     static void wr_sip(uint64 value);
  40:src/../h/../h/riscv.hpp **** 
  41:src/../h/../h/riscv.hpp ****     static uint64 rd_sstatus();
  42:src/../h/../h/riscv.hpp ****     static void wr_sstatus(uint64 value);
  43:src/../h/../h/riscv.hpp **** 
  44:src/../h/../h/riscv.hpp ****     static inline void clear_sip(uint64 mask) {
  45:src/../h/../h/riscv.hpp ****         __asm__ volatile("csrc sip, %0" : : "r"(mask));
  46:src/../h/../h/riscv.hpp ****     }
  47:src/../h/../h/riscv.hpp **** 
  48:src/../h/../h/riscv.hpp ****     static inline void set_sip(uint64 mask) {
  49:src/../h/../h/riscv.hpp ****         __asm__ volatile("csrs sip, %0" : : "r"(mask));
  50:src/../h/../h/riscv.hpp ****     }
  51:src/../h/../h/riscv.hpp **** 
  52:src/../h/../h/riscv.hpp **** 
  53:src/../h/../h/riscv.hpp ****     static inline void mask_status(uint64 mask) {
  54:src/../h/../h/riscv.hpp ****         __asm__ volatile("csrc sstatus, %0" : : "r"(mask));
  55:src/../h/../h/riscv.hpp ****     };
  56:src/../h/../h/riscv.hpp **** 
  57:src/../h/../h/riscv.hpp ****     static inline void set_status(uint64 mask) {
  58:src/../h/../h/riscv.hpp ****         __asm__ volatile("csrs sstatus, %0" : : "r"(mask));
  59:src/../h/../h/riscv.hpp ****     }
  60:src/../h/../h/riscv.hpp **** 
  61:src/../h/../h/riscv.hpp ****     static void popSppSpie();
  62:src/../h/../h/riscv.hpp ****     // pop sstatus.spp and sstatus.spie bits
  63:src/../h/../h/riscv.hpp ****     // must be in cpp !!!
  64:src/../h/../h/riscv.hpp **** 
  65:src/../h/../h/riscv.hpp ****     enum mask_sstatus {
  66:src/../h/../h/riscv.hpp ****         SIE = (1 << 1),
  67:src/../h/../h/riscv.hpp ****         SPIE =(1 << 5),
  68:src/../h/../h/riscv.hpp ****         SPP = (1 << 8)
  69:src/../h/../h/riscv.hpp ****     };
  70:src/../h/../h/riscv.hpp **** 
GAS LISTING /tmp/ccnTWODx.s 			page 11


  71:src/../h/../h/riscv.hpp ****     enum mask_sip_sie {
  72:src/../h/../h/riscv.hpp ****         SS = (1 << 1),
  73:src/../h/../h/riscv.hpp ****         SE = (1 << 9)
  74:src/../h/../h/riscv.hpp ****     };
  75:src/../h/../h/riscv.hpp **** 
  76:src/../h/../h/riscv.hpp **** };
  77:src/../h/../h/riscv.hpp **** 
  78:src/../h/../h/riscv.hpp **** inline uint64 RISCV::rd_scause() {
  79:src/../h/../h/riscv.hpp ****     uint64 volatile value;
  80:src/../h/../h/riscv.hpp ****     __asm__ volatile ("csrr %0, scause" : "=r"(value));
  81:src/../h/../h/riscv.hpp ****     return value;
  82:src/../h/../h/riscv.hpp **** }
  83:src/../h/../h/riscv.hpp **** 
  84:src/../h/../h/riscv.hpp **** inline void RISCV::wr_scause(uint64 value) {
  85:src/../h/../h/riscv.hpp ****     __asm__ volatile ("csrw scause, %0" : : "r"(value));
  86:src/../h/../h/riscv.hpp **** }
  87:src/../h/../h/riscv.hpp **** 
  88:src/../h/../h/riscv.hpp **** inline uint64 RISCV::rd_sepc() {
  89:src/../h/../h/riscv.hpp ****     uint64 volatile value;
  90:src/../h/../h/riscv.hpp ****     __asm__ volatile ("csrr %0, sepc" : "=r"(value));
  91:src/../h/../h/riscv.hpp ****     return value;
  92:src/../h/../h/riscv.hpp **** }
  93:src/../h/../h/riscv.hpp **** 
  94:src/../h/../h/riscv.hpp **** inline void RISCV::wr_sepc(uint64 value) {
  95:src/../h/../h/riscv.hpp ****     __asm__ volatile ("csrw sepc, %0" : : "r"(value));
  96:src/../h/../h/riscv.hpp **** }
  97:src/../h/../h/riscv.hpp **** 
  98:src/../h/../h/riscv.hpp **** inline uint64 RISCV::rd_stvec() {
  99:src/../h/../h/riscv.hpp ****     uint64 volatile value;
 100:src/../h/../h/riscv.hpp ****     __asm__ volatile ("csrr %0, stvec" : "=r"(value));
 101:src/../h/../h/riscv.hpp ****     return value;
 102:src/../h/../h/riscv.hpp **** }
 103:src/../h/../h/riscv.hpp **** 
 104:src/../h/../h/riscv.hpp **** inline void RISCV::wr_stvec(uint64 value) {
 105:src/../h/../h/riscv.hpp ****     __asm__ volatile ("csrw stvec, %0" : : "r"(value));
 343              		.loc 2 105 5 is_stmt 1
 344              		.loc 2 105 55 is_stmt 0
 345              	#APP
 346              	# 105 "src/../h/../h/riscv.hpp" 1
 106              	}
 347              		csrw stvec, a5
 348              	# 0 "" 2
 349              	.LVL38:
 350              	#NO_APP
 351              	.LBE12:
 352              	.LBE11:
  91:src/main.cpp  ****     MemoryAllocator::getAllocator();
 353              		.loc 1 91 5 is_stmt 1
 354              		.loc 1 91 34 is_stmt 0
 355 0210 97000000 		call	_ZN15MemoryAllocator12getAllocatorEv@plt
 355      E7800000 
 356              	.LVL39:
  92:src/main.cpp  ****     Scheduler::init_scheduler();
 357              		.loc 1 92 5 is_stmt 1
 358              		.loc 1 92 30 is_stmt 0
 359 0218 97000000 		call	_ZN9Scheduler14init_schedulerEv@plt
 359      E7800000 
GAS LISTING /tmp/ccnTWODx.s 			page 12


 360              	.LVL40:
  93:src/main.cpp  ****     myConsole::init();
 361              		.loc 1 93 5 is_stmt 1
 362              		.loc 1 93 20 is_stmt 0
 363 0220 97000000 		call	_ZN9myConsole4initEv@plt
 363      E7800000 
 364              	.LVL41:
  94:src/main.cpp  **** 
  95:src/main.cpp  **** //    testMemoryAllocator();
  96:src/main.cpp  **** //    testCMemory();
  97:src/main.cpp  **** 
  98:src/main.cpp  ****     thread_create(&mythreads[0], nullptr, nullptr); // main
 365              		.loc 1 98 5 is_stmt 1
 366              		.loc 1 98 18 is_stmt 0
 367 0228 97040000 		lla	s1,.LANCHOR0
 367      93840400 
 368 0230 13060000 		li	a2,0
 369 0234 93050000 		li	a1,0
 370 0238 13850400 		mv	a0,s1
 371 023c 97000000 		call	_Z13thread_createPP3TCBPFvPvES2_@plt
 371      E7800000 
 372              	.LVL42:
  99:src/main.cpp  ****     TCB::running = mythreads[0];
 373              		.loc 1 99 5 is_stmt 1
 374              		.loc 1 99 31 is_stmt 0
 375 0244 03B70400 		ld	a4,0(s1)
 376              		.loc 1 99 18
 377 0248 97070000 		la	a5,_ZN3TCB7runningE
 377      83B70700 
 378 0250 23B0E700 		sd	a4,0(a5)
 100:src/main.cpp  **** 
 101:src/main.cpp  ****     thread_create(&mythreads[3], handleNewChars, nullptr);
 379              		.loc 1 101 5 is_stmt 1
 380              		.loc 1 101 18 is_stmt 0
 381 0254 13060000 		li	a2,0
 382 0258 97050000 		lla	a1,_Z14handleNewCharsPv
 382      93850500 
 383 0260 17050000 		lla	a0,.LANCHOR0+24
 383      13050500 
 384 0268 97000000 		call	_Z13thread_createPP3TCBPFvPvES2_@plt
 384      E7800000 
 385              	.LVL43:
 102:src/main.cpp  **** //    thread_create(&mythreads[1], testConsole, nullptr);
 103:src/main.cpp  ****     RISCV::set_status(RISCV::SIE); // interrupts enabled
 386              		.loc 1 103 5 is_stmt 1
 387              	.LBB13:
 388              	.LBB14:
  58:src/../h/../h/riscv.hpp ****     }
 389              		.loc 2 58 9
  58:src/../h/../h/riscv.hpp ****     }
 390              		.loc 2 58 59 is_stmt 0
 391 0270 93072000 		li	a5,2
 392              	#APP
 393              	# 58 "src/../h/../h/riscv.hpp" 1
 394              		csrs sstatus, a5
 395              	# 0 "" 2
 396              	.LVL44:
GAS LISTING /tmp/ccnTWODx.s 			page 13


 397              	#NO_APP
 398              	.LBE14:
 399              	.LBE13:
 104:src/main.cpp  **** 
 105:src/main.cpp  ****     thread_create(&mythreads[1], userWrapper, nullptr);
 400              		.loc 1 105 5 is_stmt 1
 401              		.loc 1 105 18 is_stmt 0
 402 0278 13060000 		li	a2,0
 403 027c 97050000 		lla	a1,_Z11userWrapperPv
 403      93850500 
 404 0284 17050000 		lla	a0,.LANCHOR0+8
 404      13050500 
 405 028c 97000000 		call	_Z13thread_createPP3TCBPFvPvES2_@plt
 405      E7800000 
 406              	.LVL45:
 407              	.L22:
 106:src/main.cpp  **** 
 107:src/main.cpp  ****     while ( true ) { thread_dispatch(); }
 408              		.loc 1 107 5 is_stmt 1 discriminator 1
 409              		.loc 1 107 22 discriminator 1
 410              		.loc 1 107 37 is_stmt 0 discriminator 1
 411 0294 97000000 		call	_Z15thread_dispatchv@plt
 411      E7800000 
 412              	.LVL46:
 413              		.loc 1 107 5 is_stmt 1 discriminator 1
 414 029c 6FF09FFF 		j	.L22
 415              		.cfi_endproc
 416              	.LFE36:
 418              		.globl	mythreads
 419              		.bss
 420              		.align	3
 421              		.set	.LANCHOR0,. + 0
 424              	mythreads:
 425 0000 00000000 		.zero	40
 425      00000000 
 425      00000000 
 425      00000000 
 425      00000000 
 426              		.text
 427              	.Letext0:
 428              		.file 3 "src/../h/../lib/hw.h"
 429              		.file 4 "src/../h/Memoryallocator.hpp"
 430              		.file 5 "src/../h/../h/syscall_c.h"
 431              		.file 6 "src/../h/thread.hpp"
 432              		.file 7 "src/../h/semaphore.hpp"
 433              		.file 8 "src/../h/Scheduler.hpp"
 434              		.file 9 "src/../h/List.hpp"
 435              		.file 10 "src/../h/BoundedBuffer.hpp"
 436              		.file 11 "src/../h/Console.hpp"
 437              		.file 12 "src/../lib/console.h"
GAS LISTING /tmp/ccnTWODx.s 			page 14


DEFINED SYMBOLS
                            *ABS*:0000000000000000 main.cpp
     /tmp/ccnTWODx.s:9      .text:0000000000000000 _Z14handleNewCharsPv
     /tmp/ccnTWODx.s:13     .text:0000000000000000 .L0 
     /tmp/ccnTWODx.s:16     .text:0000000000000000 .L0 
     /tmp/ccnTWODx.s:18     .text:0000000000000000 .L0 
     /tmp/ccnTWODx.s:19     .text:0000000000000000 .L0 
     /tmp/ccnTWODx.s:20     .text:0000000000000000 .L0 
     /tmp/ccnTWODx.s:21     .text:0000000000000000 .L0 
     /tmp/ccnTWODx.s:25     .text:0000000000000010 .L0 
     /tmp/ccnTWODx.s:29     .text:0000000000000018 .L0 
     /tmp/ccnTWODx.s:30     .text:000000000000001c .L0 
     /tmp/ccnTWODx.s:33     .text:0000000000000024 .L0 
     /tmp/ccnTWODx.s:34     .text:0000000000000024 .L0 
     /tmp/ccnTWODx.s:36     .text:0000000000000028 .L0 
     /tmp/ccnTWODx.s:42     .text:0000000000000028 .L0 
     /tmp/ccnTWODx.s:43     .text:0000000000000028 .L0 
     /tmp/ccnTWODx.s:46     .text:0000000000000030 .L0 
     /tmp/ccnTWODx.s:49     .text:0000000000000038 .L0 
     /tmp/ccnTWODx.s:52     .text:0000000000000044 .L0 
     /tmp/ccnTWODx.s:58     .text:0000000000000048 .L0 
     /tmp/ccnTWODx.s:59     .text:0000000000000048 .L0 
     /tmp/ccnTWODx.s:60     .text:0000000000000048 .L0 
     /tmp/ccnTWODx.s:61     .text:0000000000000048 .L0 
     /tmp/ccnTWODx.s:65     .text:0000000000000058 .L0 
     /tmp/ccnTWODx.s:69     .text:0000000000000064 .L0 
     /tmp/ccnTWODx.s:75     .text:0000000000000064 _Z11userWrapperPv
     /tmp/ccnTWODx.s:78     .text:0000000000000064 .L0 
     /tmp/ccnTWODx.s:80     .text:0000000000000064 .L0 
     /tmp/ccnTWODx.s:81     .text:0000000000000068 .L0 
     /tmp/ccnTWODx.s:84     .text:0000000000000070 .L0 
     /tmp/ccnTWODx.s:85     .text:0000000000000070 .L0 
     /tmp/ccnTWODx.s:87     .text:0000000000000074 .L0 
     /tmp/ccnTWODx.s:89     .text:0000000000000074 .L0 
     /tmp/ccnTWODx.s:90     .text:0000000000000074 .L0 
     /tmp/ccnTWODx.s:93     .text:000000000000007c .L0 
     /tmp/ccnTWODx.s:94     .text:0000000000000080 .L0 
     /tmp/ccnTWODx.s:96     .text:0000000000000084 .L0 
     /tmp/ccnTWODx.s:97     .text:0000000000000084 .L0 
     /tmp/ccnTWODx.s:99     .text:0000000000000088 .L0 
     /tmp/ccnTWODx.s:101    .text:000000000000008c .L0 
     /tmp/ccnTWODx.s:107    .text:000000000000008c _Z19testMemoryAllocatorv
     /tmp/ccnTWODx.s:110    .text:000000000000008c .L0 
     /tmp/ccnTWODx.s:111    .text:000000000000008c .L0 
     /tmp/ccnTWODx.s:112    .text:0000000000000090 .L0 
     /tmp/ccnTWODx.s:117    .text:00000000000000a0 .L0 
     /tmp/ccnTWODx.s:118    .text:00000000000000a0 .L0 
     /tmp/ccnTWODx.s:119    .text:00000000000000a0 .L0 
     /tmp/ccnTWODx.s:120    .text:00000000000000a0 .L0 
     /tmp/ccnTWODx.s:122    .text:00000000000000a4 .L0 
     /tmp/ccnTWODx.s:124    .text:00000000000000a4 .L0 
     /tmp/ccnTWODx.s:125    .text:00000000000000a4 .L0 
     /tmp/ccnTWODx.s:131    .text:00000000000000b4 .L0 
     /tmp/ccnTWODx.s:132    .text:00000000000000b4 .L0 
     /tmp/ccnTWODx.s:135    .text:00000000000000bc .L0 
     /tmp/ccnTWODx.s:136    .text:00000000000000bc .L0 
     /tmp/ccnTWODx.s:142    .text:00000000000000cc .L0 
GAS LISTING /tmp/ccnTWODx.s 			page 15


     /tmp/ccnTWODx.s:143    .text:00000000000000cc .L0 
     /tmp/ccnTWODx.s:146    .text:00000000000000d4 .L0 
     /tmp/ccnTWODx.s:147    .text:00000000000000d4 .L0 
     /tmp/ccnTWODx.s:153    .text:00000000000000e4 .L0 
     /tmp/ccnTWODx.s:154    .text:00000000000000e4 .L0 
     /tmp/ccnTWODx.s:157    .text:00000000000000ec .L0 
     /tmp/ccnTWODx.s:160    .text:00000000000000f0 .L0 
     /tmp/ccnTWODx.s:163    .text:00000000000000f4 .L0 
     /tmp/ccnTWODx.s:164    .text:00000000000000f8 .L0 
     /tmp/ccnTWODx.s:165    .text:00000000000000f8 .L0 
     /tmp/ccnTWODx.s:167    .text:00000000000000fc .L0 
     /tmp/ccnTWODx.s:168    .text:00000000000000fc .L0 
     /tmp/ccnTWODx.s:170    .text:0000000000000100 .L0 
     /tmp/ccnTWODx.s:173    .text:0000000000000104 .L0 
     /tmp/ccnTWODx.s:176    .text:0000000000000108 .L0 
     /tmp/ccnTWODx.s:180    .text:000000000000010c .L0 
     /tmp/ccnTWODx.s:182    .text:000000000000010c .L0 
     /tmp/ccnTWODx.s:183    .text:000000000000010c .L0 
     /tmp/ccnTWODx.s:189    .text:000000000000011c .L0 
     /tmp/ccnTWODx.s:190    .text:000000000000011c .L0 
     /tmp/ccnTWODx.s:194    .text:0000000000000128 .L0 
     /tmp/ccnTWODx.s:195    .text:000000000000012c .L0 
     /tmp/ccnTWODx.s:201    .text:000000000000012c _Z11testCMemoryv
     /tmp/ccnTWODx.s:204    .text:000000000000012c .L0 
     /tmp/ccnTWODx.s:205    .text:000000000000012c .L0 
     /tmp/ccnTWODx.s:206    .text:0000000000000130 .L0 
     /tmp/ccnTWODx.s:210    .text:000000000000013c .L0 
     /tmp/ccnTWODx.s:211    .text:000000000000013c .L0 
     /tmp/ccnTWODx.s:212    .text:000000000000013c .L0 
     /tmp/ccnTWODx.s:214    .text:0000000000000140 .L0 
     /tmp/ccnTWODx.s:216    .text:0000000000000140 .L0 
     /tmp/ccnTWODx.s:217    .text:0000000000000140 .L0 
     /tmp/ccnTWODx.s:220    .text:0000000000000148 .L0 
     /tmp/ccnTWODx.s:221    .text:0000000000000148 .L0 
     /tmp/ccnTWODx.s:227    .text:0000000000000158 .L0 
     /tmp/ccnTWODx.s:228    .text:0000000000000158 .L0 
     /tmp/ccnTWODx.s:231    .text:0000000000000160 .L0 
     /tmp/ccnTWODx.s:232    .text:0000000000000160 .L0 
     /tmp/ccnTWODx.s:236    .text:000000000000016c .L0 
     /tmp/ccnTWODx.s:237    .text:000000000000016c .L0 
     /tmp/ccnTWODx.s:240    .text:0000000000000174 .L0 
     /tmp/ccnTWODx.s:241    .text:0000000000000178 .L0 
     /tmp/ccnTWODx.s:243    .text:000000000000017c .L0 
     /tmp/ccnTWODx.s:244    .text:000000000000017c .L0 
     /tmp/ccnTWODx.s:246    .text:0000000000000180 .L0 
     /tmp/ccnTWODx.s:249    .text:0000000000000184 .L0 
     /tmp/ccnTWODx.s:251    .text:0000000000000188 .L0 
     /tmp/ccnTWODx.s:257    .text:0000000000000188 _Z11testConsolePv
     /tmp/ccnTWODx.s:260    .text:0000000000000188 .L0 
     /tmp/ccnTWODx.s:262    .text:0000000000000188 .L0 
     /tmp/ccnTWODx.s:263    .text:000000000000018c .L0 
     /tmp/ccnTWODx.s:269    .text:00000000000001a0 .L0 
     /tmp/ccnTWODx.s:270    .text:00000000000001a0 .L0 
     /tmp/ccnTWODx.s:271    .text:00000000000001a0 .L0 
     /tmp/ccnTWODx.s:272    .text:00000000000001a0 .L0 
     /tmp/ccnTWODx.s:273    .text:00000000000001a0 .L0 
     /tmp/ccnTWODx.s:275    .text:00000000000001a4 .L0 
GAS LISTING /tmp/ccnTWODx.s 			page 16


     /tmp/ccnTWODx.s:280    .text:00000000000001a4 .L0 
     /tmp/ccnTWODx.s:281    .text:00000000000001a4 .L0 
     /tmp/ccnTWODx.s:282    .text:00000000000001a4 .L0 
     /tmp/ccnTWODx.s:287    .text:00000000000001b0 .L0 
     /tmp/ccnTWODx.s:288    .text:00000000000001b0 .L0 
     /tmp/ccnTWODx.s:293    .text:00000000000001bc .L0 
     /tmp/ccnTWODx.s:294    .text:00000000000001bc .L0 
     /tmp/ccnTWODx.s:299    .text:00000000000001c8 .L0 
     /tmp/ccnTWODx.s:300    .text:00000000000001c8 .L0 
     /tmp/ccnTWODx.s:304    .text:00000000000001d4 .L0 
     /tmp/ccnTWODx.s:305    .text:00000000000001d4 .L0 
     /tmp/ccnTWODx.s:309    .text:00000000000001e0 .L0 
     /tmp/ccnTWODx.s:310    .text:00000000000001e0 .L0 
     /tmp/ccnTWODx.s:315    .text:00000000000001ec .L0 
     /tmp/ccnTWODx.s:316    .text:00000000000001f0 .L0 
     /tmp/ccnTWODx.s:322    .text:00000000000001f0 main
     /tmp/ccnTWODx.s:325    .text:00000000000001f0 .L0 
     /tmp/ccnTWODx.s:326    .text:00000000000001f0 .L0 
     /tmp/ccnTWODx.s:327    .text:00000000000001f4 .L0 
     /tmp/ccnTWODx.s:331    .text:0000000000000200 .L0 
     /tmp/ccnTWODx.s:332    .text:0000000000000200 .L0 
     /tmp/ccnTWODx.s:333    .text:0000000000000200 .L0 
     /tmp/ccnTWODx.s:335    .text:0000000000000204 .L0 
     /tmp/ccnTWODx.s:337    .text:0000000000000204 .L0 
     /tmp/ccnTWODx.s:338    .text:0000000000000204 .L0 
     /tmp/ccnTWODx.s:344    .text:000000000000020c .L0 
src/../h/../h/riscv.hpp:105    .text:000000000000020c .L0 
     /tmp/ccnTWODx.s:354    .text:0000000000000210 .L0 
     /tmp/ccnTWODx.s:355    .text:0000000000000210 .L0 
     /tmp/ccnTWODx.s:358    .text:0000000000000218 .L0 
     /tmp/ccnTWODx.s:359    .text:0000000000000218 .L0 
     /tmp/ccnTWODx.s:362    .text:0000000000000220 .L0 
     /tmp/ccnTWODx.s:363    .text:0000000000000220 .L0 
     /tmp/ccnTWODx.s:366    .text:0000000000000228 .L0 
     /tmp/ccnTWODx.s:367    .text:0000000000000228 .L0 
     /tmp/ccnTWODx.s:374    .text:0000000000000244 .L0 
     /tmp/ccnTWODx.s:375    .text:0000000000000244 .L0 
     /tmp/ccnTWODx.s:377    .text:0000000000000248 .L0 
     /tmp/ccnTWODx.s:380    .text:0000000000000254 .L0 
     /tmp/ccnTWODx.s:381    .text:0000000000000254 .L0 
     /tmp/ccnTWODx.s:389    .text:0000000000000270 .L0 
     /tmp/ccnTWODx.s:390    .text:0000000000000270 .L0 
     /tmp/ccnTWODx.s:391    .text:0000000000000270 .L0 
     /tmp/ccnTWODx.s:401    .text:0000000000000278 .L0 
     /tmp/ccnTWODx.s:402    .text:0000000000000278 .L0 
     /tmp/ccnTWODx.s:409    .text:0000000000000294 .L0 
     /tmp/ccnTWODx.s:410    .text:0000000000000294 .L0 
     /tmp/ccnTWODx.s:411    .text:0000000000000294 .L0 
     /tmp/ccnTWODx.s:414    .text:000000000000029c .L0 
     /tmp/ccnTWODx.s:415    .text:00000000000002a0 .L0 
     /tmp/ccnTWODx.s:424    .bss:0000000000000000 mythreads
     /tmp/ccnTWODx.s:421    .bss:0000000000000000 .LANCHOR0
     /tmp/ccnTWODx.s:438    .text:00000000000002a0 .L0 
     /tmp/ccnTWODx.s:21     .text:0000000000000000 .L0 
     /tmp/ccnTWODx.s:49     .text:0000000000000038 .L0 
     /tmp/ccnTWODx.s:61     .text:0000000000000048 .L0 
     /tmp/ccnTWODx.s:338    .text:0000000000000204 .L0 
GAS LISTING /tmp/ccnTWODx.s 			page 17


     /tmp/ccnTWODx.s:367    .text:0000000000000228 .L0 
     /tmp/ccnTWODx.s:377    .text:0000000000000248 .L0 
     /tmp/ccnTWODx.s:382    .text:0000000000000258 .L0 
     /tmp/ccnTWODx.s:383    .text:0000000000000260 .L0 
     /tmp/ccnTWODx.s:403    .text:000000000000027c .L0 
     /tmp/ccnTWODx.s:404    .text:0000000000000284 .L0 
     /tmp/ccnTWODx.s:15     .text:0000000000000000 .L6
     /tmp/ccnTWODx.s:53     .text:0000000000000048 .L3
     /tmp/ccnTWODx.s:38     .text:0000000000000028 .L7
     /tmp/ccnTWODx.s:179    .text:000000000000010c .L14
     /tmp/ccnTWODx.s:187    .text:000000000000011c .L15
     /tmp/ccnTWODx.s:158    .text:00000000000000f0 .L11
     /tmp/ccnTWODx.s:161    .text:00000000000000f4 .L10
     /tmp/ccnTWODx.s:277    .text:00000000000001a4 .L19
     /tmp/ccnTWODx.s:407    .text:0000000000000294 .L22
     /tmp/ccnTWODx.s:2593   .debug_abbrev:0000000000000000 .Ldebug_abbrev0
     /tmp/ccnTWODx.s:4347   .debug_str:0000000000000c13 .LASF260
     /tmp/ccnTWODx.s:4063   .debug_str:0000000000000403 .LASF261
     /tmp/ccnTWODx.s:4081   .debug_str:0000000000000496 .LASF262
     /tmp/ccnTWODx.s:5      .text:0000000000000000 .Ltext0
     /tmp/ccnTWODx.s:427    .text:00000000000002a0 .Letext0
     /tmp/ccnTWODx.s:3931   .debug_line:0000000000000000 .Ldebug_line0
     /tmp/ccnTWODx.s:4111   .debug_str:000000000000057e .LASF0
     /tmp/ccnTWODx.s:4143   .debug_str:000000000000063b .LASF1
     /tmp/ccnTWODx.s:4271   .debug_str:00000000000009db .LASF2
     /tmp/ccnTWODx.s:4283   .debug_str:0000000000000a6d .LASF4
     /tmp/ccnTWODx.s:4123   .debug_str:00000000000005c0 .LASF3
     /tmp/ccnTWODx.s:3939   .debug_str:000000000000001f .LASF5
     /tmp/ccnTWODx.s:4237   .debug_str:0000000000000908 .LASF6
     /tmp/ccnTWODx.s:4225   .debug_str:0000000000000897 .LASF7
     /tmp/ccnTWODx.s:4131   .debug_str:0000000000000601 .LASF8
     /tmp/ccnTWODx.s:4075   .debug_str:0000000000000459 .LASF9
     /tmp/ccnTWODx.s:4089   .debug_str:00000000000004e6 .LASF10
     /tmp/ccnTWODx.s:3997   .debug_str:00000000000001f9 .LASF11
     /tmp/ccnTWODx.s:4059   .debug_str:00000000000003e8 .LASF12
     /tmp/ccnTWODx.s:4015   .debug_str:0000000000000280 .LASF13
     /tmp/ccnTWODx.s:3995   .debug_str:00000000000001e9 .LASF14
     /tmp/ccnTWODx.s:4317   .debug_str:0000000000000b68 .LASF15
     /tmp/ccnTWODx.s:4047   .debug_str:000000000000035b .LASF16
     /tmp/ccnTWODx.s:4303   .debug_str:0000000000000ae7 .LASF17
     /tmp/ccnTWODx.s:4219   .debug_str:0000000000000855 .LASF21
     /tmp/ccnTWODx.s:3989   .debug_str:00000000000001bf .LASF89
     /tmp/ccnTWODx.s:3999   .debug_str:0000000000000208 .LASF18
     /tmp/ccnTWODx.s:3959   .debug_str:00000000000000e3 .LASF19
     /tmp/ccnTWODx.s:4141   .debug_str:0000000000000636 .LASF20
     /tmp/ccnTWODx.s:3955   .debug_str:00000000000000be .LASF22
     /tmp/ccnTWODx.s:4301   .debug_str:0000000000000acc .LASF23
     /tmp/ccnTWODx.s:4413   .debug_str:0000000000000e98 .LASF103
     /tmp/ccnTWODx.s:4431   .debug_str:0000000000000efb .LASF105
     /tmp/ccnTWODx.s:4337   .debug_str:0000000000000bdb .LASF24
     /tmp/ccnTWODx.s:3951   .debug_str:00000000000000a6 .LASF25
     /tmp/ccnTWODx.s:4121   .debug_str:00000000000005b6 .LASF47
     /tmp/ccnTWODx.s:4279   .debug_str:0000000000000a26 .LASF49
     /tmp/ccnTWODx.s:4383   .debug_str:0000000000000ddf .LASF93
     /tmp/ccnTWODx.s:4179   .debug_str:000000000000072f .LASF43
     /tmp/ccnTWODx.s:4221   .debug_str:0000000000000865 .LASF45
     /tmp/ccnTWODx.s:4183   .debug_str:0000000000000749 .LASF26
GAS LISTING /tmp/ccnTWODx.s 			page 18


     /tmp/ccnTWODx.s:3941   .debug_str:0000000000000026 .LASF27
     /tmp/ccnTWODx.s:4329   .debug_str:0000000000000bad .LASF28
     /tmp/ccnTWODx.s:4185   .debug_str:0000000000000753 .LASF29
     /tmp/ccnTWODx.s:3933   .debug_str:0000000000000000 .LASF33
     /tmp/ccnTWODx.s:3971   .debug_str:000000000000011a .LASF35
     /tmp/ccnTWODx.s:4245   .debug_str:0000000000000932 .LASF30
     /tmp/ccnTWODx.s:4423   .debug_str:0000000000000ec4 .LASF31
     /tmp/ccnTWODx.s:3935   .debug_str:0000000000000006 .LASF82
     /tmp/ccnTWODx.s:4251   .debug_str:0000000000000955 .LASF32
     /tmp/ccnTWODx.s:4027   .debug_str:00000000000002dd .LASF34
     /tmp/ccnTWODx.s:4265   .debug_str:0000000000000991 .LASF36
     /tmp/ccnTWODx.s:4035   .debug_str:0000000000000303 .LASF37
     /tmp/ccnTWODx.s:4273   .debug_str:00000000000009e9 .LASF38
     /tmp/ccnTWODx.s:3977   .debug_str:0000000000000168 .LASF39
     /tmp/ccnTWODx.s:4371   .debug_str:0000000000000d5e .LASF40
     /tmp/ccnTWODx.s:4087   .debug_str:00000000000004dd .LASF41
     /tmp/ccnTWODx.s:4427   .debug_str:0000000000000ee0 .LASF42
     /tmp/ccnTWODx.s:4263   .debug_str:0000000000000987 .LASF44
     /tmp/ccnTWODx.s:4459   .debug_str:0000000000001001 .LASF46
     /tmp/ccnTWODx.s:4325   .debug_str:0000000000000b9a .LASF48
     /tmp/ccnTWODx.s:4235   .debug_str:00000000000008f2 .LASF50
     /tmp/ccnTWODx.s:4409   .debug_str:0000000000000e7c .LASF51
     /tmp/ccnTWODx.s:4411   .debug_str:0000000000000e84 .LASF52
     /tmp/ccnTWODx.s:4291   .debug_str:0000000000000a94 .LASF53
     /tmp/ccnTWODx.s:4457   .debug_str:0000000000000fed .LASF54
     /tmp/ccnTWODx.s:3991   .debug_str:00000000000001cb .LASF55
     /tmp/ccnTWODx.s:4447   .debug_str:0000000000000f91 .LASF56
     /tmp/ccnTWODx.s:4155   .debug_str:0000000000000687 .LASF57
     /tmp/ccnTWODx.s:4335   .debug_str:0000000000000bc6 .LASF58
     /tmp/ccnTWODx.s:4249   .debug_str:000000000000094c .LASF59
     /tmp/ccnTWODx.s:4161   .debug_str:00000000000006be .LASF60
     /tmp/ccnTWODx.s:4415   .debug_str:0000000000000ea3 .LASF61
     /tmp/ccnTWODx.s:4231   .debug_str:00000000000008c4 .LASF62
     /tmp/ccnTWODx.s:4205   .debug_str:0000000000000802 .LASF63
     /tmp/ccnTWODx.s:4173   .debug_str:0000000000000708 .LASF64
     /tmp/ccnTWODx.s:4051   .debug_str:000000000000038d .LASF65
     /tmp/ccnTWODx.s:4311   .debug_str:0000000000000b3c .LASF66
     /tmp/ccnTWODx.s:4361   .debug_str:0000000000000d25 .LASF67
     /tmp/ccnTWODx.s:4009   .debug_str:0000000000000254 .LASF68
     /tmp/ccnTWODx.s:4421   .debug_str:0000000000000eb9 .LASF69
     /tmp/ccnTWODx.s:4381   .debug_str:0000000000000dc7 .LASF70
     /tmp/ccnTWODx.s:4129   .debug_str:00000000000005f7 .LASF71
     /tmp/ccnTWODx.s:4379   .debug_str:0000000000000db1 .LASF72
     /tmp/ccnTWODx.s:4357   .debug_str:0000000000000d09 .LASF73
     /tmp/ccnTWODx.s:4359   .debug_str:0000000000000d11 .LASF74
     /tmp/ccnTWODx.s:4025   .debug_str:00000000000002d1 .LASF75
     /tmp/ccnTWODx.s:4445   .debug_str:0000000000000f78 .LASF76
     /tmp/ccnTWODx.s:4255   .debug_str:0000000000000966 .LASF77
     /tmp/ccnTWODx.s:4159   .debug_str:00000000000006a6 .LASF78
     /tmp/ccnTWODx.s:4097   .debug_str:000000000000051e .LASF79
     /tmp/ccnTWODx.s:4041   .debug_str:0000000000000328 .LASF80
     /tmp/ccnTWODx.s:4403   .debug_str:0000000000000e56 .LASF81
     /tmp/ccnTWODx.s:4039   .debug_str:0000000000000322 .LASF83
     /tmp/ccnTWODx.s:4133   .debug_str:0000000000000614 .LASF84
     /tmp/ccnTWODx.s:4003   .debug_str:0000000000000230 .LASF85
     /tmp/ccnTWODx.s:4243   .debug_str:000000000000092a .LASF86
     /tmp/ccnTWODx.s:3975   .debug_str:000000000000015f .LASF87
GAS LISTING /tmp/ccnTWODx.s 			page 19


     /tmp/ccnTWODx.s:4167   .debug_str:00000000000006e6 .LASF88
     /tmp/ccnTWODx.s:4005   .debug_str:0000000000000239 .LASF90
     /tmp/ccnTWODx.s:4417   .debug_str:0000000000000eac .LASF91
     /tmp/ccnTWODx.s:4349   .debug_str:0000000000000cd7 .LASF92
     /tmp/ccnTWODx.s:4343   .debug_str:0000000000000bf9 .LASF94
     /tmp/ccnTWODx.s:4439   .debug_str:0000000000000f56 .LASF95
     /tmp/ccnTWODx.s:4407   .debug_str:0000000000000e6c .LASF96
     /tmp/ccnTWODx.s:3987   .debug_str:00000000000001b1 .LASF97
     /tmp/ccnTWODx.s:4057   .debug_str:00000000000003c0 .LASF98
     /tmp/ccnTWODx.s:4145   .debug_str:000000000000064e .LASF99
     /tmp/ccnTWODx.s:4151   .debug_str:000000000000066d .LASF100
     /tmp/ccnTWODx.s:4031   .debug_str:00000000000002f5 .LASF101
     /tmp/ccnTWODx.s:4007   .debug_str:0000000000000241 .LASF102
     /tmp/ccnTWODx.s:4289   .debug_str:0000000000000a8b .LASF104
     /tmp/ccnTWODx.s:4299   .debug_str:0000000000000ab8 .LASF106
     /tmp/ccnTWODx.s:4149   .debug_str:0000000000000660 .LASF107
     /tmp/ccnTWODx.s:4387   .debug_str:0000000000000df7 .LASF108
     /tmp/ccnTWODx.s:4365   .debug_str:0000000000000d39 .LASF109
     /tmp/ccnTWODx.s:4157   .debug_str:0000000000000690 .LASF110
     /tmp/ccnTWODx.s:4331   .debug_str:0000000000000bb6 .LASF111
     /tmp/ccnTWODx.s:4323   .debug_str:0000000000000b84 .LASF112
     /tmp/ccnTWODx.s:4171   .debug_str:0000000000000701 .LASF113
     /tmp/ccnTWODx.s:4017   .debug_str:0000000000000290 .LASF114
     /tmp/ccnTWODx.s:4285   .debug_str:0000000000000a74 .LASF115
     /tmp/ccnTWODx.s:3937   .debug_str:0000000000000013 .LASF116
     /tmp/ccnTWODx.s:4449   .debug_str:0000000000000fa6 .LASF117
     /tmp/ccnTWODx.s:4083   .debug_str:00000000000004b4 .LASF118
     /tmp/ccnTWODx.s:4113   .debug_str:000000000000058b .LASF119
     /tmp/ccnTWODx.s:4211   .debug_str:0000000000000826 .LASF120
     /tmp/ccnTWODx.s:4293   .debug_str:0000000000000a9c .LASF121
     /tmp/ccnTWODx.s:4269   .debug_str:00000000000009ca .LASF122
     /tmp/ccnTWODx.s:3961   .debug_str:00000000000000e8 .LASF123
     /tmp/ccnTWODx.s:4277   .debug_str:0000000000000a1a .LASF124
     /tmp/ccnTWODx.s:4037   .debug_str:0000000000000314 .LASF125
     /tmp/ccnTWODx.s:4259   .debug_str:0000000000000976 .LASF126
     /tmp/ccnTWODx.s:4029   .debug_str:00000000000002ed .LASF127
     /tmp/ccnTWODx.s:4213   .debug_str:0000000000000833 .LASF128
     /tmp/ccnTWODx.s:4297   .debug_str:0000000000000ab2 .LASF129
     /tmp/ccnTWODx.s:4367   .debug_str:0000000000000d44 .LASF130
     /tmp/ccnTWODx.s:4189   .debug_str:0000000000000789 .LASF131
     /tmp/ccnTWODx.s:4327   .debug_str:0000000000000ba4 .LASF132
     /tmp/ccnTWODx.s:4451   .debug_str:0000000000000fb3 .LASF161
     /tmp/ccnTWODx.s:4023   .debug_str:00000000000002c3 .LASF227
     /tmp/ccnTWODx.s:3973   .debug_str:0000000000000137 .LASF229
     /tmp/ccnTWODx.s:4389   .debug_str:0000000000000e10 .LASF175
     /tmp/ccnTWODx.s:3945   .debug_str:000000000000006e .LASF177
     /tmp/ccnTWODx.s:4217   .debug_str:0000000000000849 .LASF133
     /tmp/ccnTWODx.s:4353   .debug_str:0000000000000ce3 .LASF134
     /tmp/ccnTWODx.s:4429   .debug_str:0000000000000ef5 .LASF135
     /tmp/ccnTWODx.s:4033   .debug_str:00000000000002fe .LASF136
     /tmp/ccnTWODx.s:4117   .debug_str:00000000000005a0 .LASF137
     /tmp/ccnTWODx.s:4321   .debug_str:0000000000000b7d .LASF138
     /tmp/ccnTWODx.s:4241   .debug_str:0000000000000917 .LASF139
     /tmp/ccnTWODx.s:3963   .debug_str:00000000000000f3 .LASF140
     /tmp/ccnTWODx.s:4065   .debug_str:0000000000000410 .LASF141
     /tmp/ccnTWODx.s:4401   .debug_str:0000000000000e4e .LASF142
     /tmp/ccnTWODx.s:3985   .debug_str:000000000000019d .LASF143
GAS LISTING /tmp/ccnTWODx.s 			page 20


     /tmp/ccnTWODx.s:4207   .debug_str:0000000000000809 .LASF144
     /tmp/ccnTWODx.s:4169   .debug_str:00000000000006ee .LASF145
     /tmp/ccnTWODx.s:4093   .debug_str:00000000000004fe .LASF146
     /tmp/ccnTWODx.s:3981   .debug_str:0000000000000177 .LASF147
     /tmp/ccnTWODx.s:4077   .debug_str:0000000000000469 .LASF148
     /tmp/ccnTWODx.s:4313   .debug_str:0000000000000b4f .LASF149
     /tmp/ccnTWODx.s:4163   .debug_str:00000000000006d3 .LASF189
     /tmp/ccnTWODx.s:4109   .debug_str:0000000000000578 .LASF150
     /tmp/ccnTWODx.s:4053   .debug_str:0000000000000394 .LASF151
     /tmp/ccnTWODx.s:4443   .debug_str:0000000000000f70 .LASF152
     /tmp/ccnTWODx.s:4287   .debug_str:0000000000000a79 .LASF153
     /tmp/ccnTWODx.s:4101   .debug_str:000000000000053c .LASF154
     /tmp/ccnTWODx.s:4239   .debug_str:000000000000090f .LASF155
     /tmp/ccnTWODx.s:4125   .debug_str:00000000000005d2 .LASF156
     /tmp/ccnTWODx.s:4257   .debug_str:0000000000000971 .LASF157
     /tmp/ccnTWODx.s:4073   .debug_str:000000000000044f .LASF158
     /tmp/ccnTWODx.s:4135   .debug_str:000000000000061d .LASF159
     /tmp/ccnTWODx.s:4433   .debug_str:0000000000000f16 .LASF160
     /tmp/ccnTWODx.s:4441   .debug_str:0000000000000f5c .LASF263
     /tmp/ccnTWODx.s:4105   .debug_str:0000000000000554 .LASF162
     /tmp/ccnTWODx.s:4139   .debug_str:0000000000000631 .LASF163
     /tmp/ccnTWODx.s:4045   .debug_str:0000000000000346 .LASF164
     /tmp/ccnTWODx.s:4011   .debug_str:000000000000026c .LASF165
     /tmp/ccnTWODx.s:4425   .debug_str:0000000000000eca .LASF166
     /tmp/ccnTWODx.s:4201   .debug_str:00000000000007e1 .LASF167
     /tmp/ccnTWODx.s:4001   .debug_str:000000000000020d .LASF168
     /tmp/ccnTWODx.s:4369   .debug_str:0000000000000d4c .LASF169
     /tmp/ccnTWODx.s:4099   .debug_str:0000000000000529 .LASF170
     /tmp/ccnTWODx.s:3993   .debug_str:00000000000001d4 .LASF171
     /tmp/ccnTWODx.s:4061   .debug_str:00000000000003f7 .LASF172
     /tmp/ccnTWODx.s:4085   .debug_str:00000000000004c0 .LASF173
     /tmp/ccnTWODx.s:4435   .debug_str:0000000000000f36 .LASF174
     /tmp/ccnTWODx.s:3965   .debug_str:00000000000000fd .LASF176
     /tmp/ccnTWODx.s:4209   .debug_str:000000000000080e .LASF178
     /tmp/ccnTWODx.s:4419   .debug_str:0000000000000eb4 .LASF179
     /tmp/ccnTWODx.s:4261   .debug_str:0000000000000981 .LASF180
     /tmp/ccnTWODx.s:4153   .debug_str:0000000000000682 .LASF181
     /tmp/ccnTWODx.s:4295   .debug_str:0000000000000aa5 .LASF182
     /tmp/ccnTWODx.s:4455   .debug_str:0000000000000fe1 .LASF183
     /tmp/ccnTWODx.s:4191   .debug_str:0000000000000797 .LASF184
     /tmp/ccnTWODx.s:4021   .debug_str:00000000000002be .LASF186
     /tmp/ccnTWODx.s:4137   .debug_str:000000000000062c .LASF185
     /tmp/ccnTWODx.s:3949   .debug_str:0000000000000090 .LASF187
     /tmp/ccnTWODx.s:4395   .debug_str:0000000000000e33 .LASF188
     /tmp/ccnTWODx.s:4275   .debug_str:0000000000000a07 .LASF190
     /tmp/ccnTWODx.s:4309   .debug_str:0000000000000b2d .LASF201
     /tmp/ccnTWODx.s:3969   .debug_str:000000000000010a .LASF191
     /tmp/ccnTWODx.s:4375   .debug_str:0000000000000d8b .LASF192
     /tmp/ccnTWODx.s:4341   .debug_str:0000000000000bf4 .LASF193
     /tmp/ccnTWODx.s:4199   .debug_str:00000000000007dc .LASF194
     /tmp/ccnTWODx.s:4339   .debug_str:0000000000000be9 .LASF195
     /tmp/ccnTWODx.s:4013   .debug_str:0000000000000272 .LASF196
     /tmp/ccnTWODx.s:4195   .debug_str:00000000000007b9 .LASF197
     /tmp/ccnTWODx.s:4355   .debug_str:0000000000000cfa .LASF198
     /tmp/ccnTWODx.s:4307   .debug_str:0000000000000b16 .LASF199
     /tmp/ccnTWODx.s:4233   .debug_str:00000000000008d9 .LASF200
     /tmp/ccnTWODx.s:4305   .debug_str:0000000000000afd .LASF202
GAS LISTING /tmp/ccnTWODx.s 			page 21


     /tmp/ccnTWODx.s:4267   .debug_str:00000000000009ae .LASF203
     /tmp/ccnTWODx.s:4373   .debug_str:0000000000000d74 .LASF204
     /tmp/ccnTWODx.s:4095   .debug_str:0000000000000506 .LASF205
     /tmp/ccnTWODx.s:3947   .debug_str:0000000000000080 .LASF206
     /tmp/ccnTWODx.s:4175   .debug_str:000000000000071b .LASF207
     /tmp/ccnTWODx.s:4043   .debug_str:0000000000000340 .LASF208
     /tmp/ccnTWODx.s:4351   .debug_str:0000000000000cdc .LASF209
     /tmp/ccnTWODx.s:4333   .debug_str:0000000000000bc1 .LASF210
     /tmp/ccnTWODx.s:3953   .debug_str:00000000000000b4 .LASF211
     /tmp/ccnTWODx.s:4345   .debug_str:0000000000000c01 .LASF212
     /tmp/ccnTWODx.s:4281   .debug_str:0000000000000a58 .LASF213
     /tmp/ccnTWODx.s:4107   .debug_str:000000000000056c .LASF214
     /tmp/ccnTWODx.s:4405   .debug_str:0000000000000e5f .LASF215
     /tmp/ccnTWODx.s:3967   .debug_str:0000000000000105 .LASF216
     /tmp/ccnTWODx.s:4377   .debug_str:0000000000000d9c .LASF217
     /tmp/ccnTWODx.s:4393   .debug_str:0000000000000e28 .LASF218
     /tmp/ccnTWODx.s:4049   .debug_str:0000000000000371 .LASF219
     /tmp/ccnTWODx.s:4315   .debug_str:0000000000000b5c .LASF220
     /tmp/ccnTWODx.s:4019   .debug_str:00000000000002a1 .LASF221
     /tmp/ccnTWODx.s:4253   .debug_str:000000000000095a .LASF222
     /tmp/ccnTWODx.s:4193   .debug_str:000000000000079c .LASF223
     /tmp/ccnTWODx.s:4453   .debug_str:0000000000000fd6 .LASF224
     /tmp/ccnTWODx.s:4055   .debug_str:00000000000003a4 .LASF225
     /tmp/ccnTWODx.s:4223   .debug_str:000000000000088a .LASF226
     /tmp/ccnTWODx.s:4227   .debug_str:00000000000008aa .LASF228
     /tmp/ccnTWODx.s:3943   .debug_str:0000000000000047 .LASF230
     /tmp/ccnTWODx.s:4091   .debug_str:00000000000004f4 .LASF231
     /tmp/ccnTWODx.s:4069   .debug_str:0000000000000435 .LASF232
     /tmp/ccnTWODx.s:323    .text:00000000000001f0 .LFB36
     /tmp/ccnTWODx.s:416    .text:00000000000002a0 .LFE36
     /tmp/ccnTWODx.s:340    .text:000000000000020c .LBB11
     /tmp/ccnTWODx.s:352    .text:0000000000000210 .LBE11
     /tmp/ccnTWODx.s:387    .text:0000000000000270 .LBB13
     /tmp/ccnTWODx.s:399    .text:0000000000000278 .LBE13
     /tmp/ccnTWODx.s:3832   .debug_loc:0000000000000000 .LLST7
     /tmp/ccnTWODx.s:356    .text:0000000000000218 .LVL39
     /tmp/ccnTWODx.s:360    .text:0000000000000220 .LVL40
     /tmp/ccnTWODx.s:364    .text:0000000000000228 .LVL41
     /tmp/ccnTWODx.s:372    .text:0000000000000244 .LVL42
     /tmp/ccnTWODx.s:385    .text:0000000000000270 .LVL43
     /tmp/ccnTWODx.s:406    .text:0000000000000294 .LVL45
     /tmp/ccnTWODx.s:412    .text:000000000000029c .LVL46
     /tmp/ccnTWODx.s:4197   .debug_str:00000000000007d0 .LASF233
     /tmp/ccnTWODx.s:4103   .debug_str:0000000000000542 .LASF234
     /tmp/ccnTWODx.s:76     .text:0000000000000064 .LFB35
     /tmp/ccnTWODx.s:102    .text:000000000000008c .LFE35
     /tmp/ccnTWODx.s:3840   .debug_loc:0000000000000024 .LLST1
     /tmp/ccnTWODx.s:91     .text:000000000000007c .LVL4
     /tmp/ccnTWODx.s:4247   .debug_str:000000000000093d .LASF235
     /tmp/ccnTWODx.s:4071   .debug_str:000000000000043a .LASF236
     /tmp/ccnTWODx.s:10     .text:0000000000000000 .LFB34
     /tmp/ccnTWODx.s:70     .text:0000000000000064 .LFE34
     /tmp/ccnTWODx.s:3854   .debug_loc:000000000000005d .LLST0
     /tmp/ccnTWODx.s:40     .text:0000000000000028 .LBB7
     /tmp/ccnTWODx.s:54     .text:0000000000000048 .LBE7
     /tmp/ccnTWODx.s:44     .text:0000000000000030 .LVL2
     /tmp/ccnTWODx.s:3957   .debug_str:00000000000000d7 .LASF237
GAS LISTING /tmp/ccnTWODx.s 			page 22


     /tmp/ccnTWODx.s:3983   .debug_str:000000000000018b .LASF238
     /tmp/ccnTWODx.s:258    .text:0000000000000188 .LFB33
     /tmp/ccnTWODx.s:317    .text:00000000000001f0 .LFE33
     /tmp/ccnTWODx.s:3868   .debug_loc:0000000000000096 .LLST6
     /tmp/ccnTWODx.s:279    .text:00000000000001a4 .LBB10
     /tmp/ccnTWODx.s:313    .text:00000000000001ec .LBE10
     /tmp/ccnTWODx.s:283    .text:00000000000001ac .LVL28
     /tmp/ccnTWODx.s:289    .text:00000000000001b8 .LVL30
     /tmp/ccnTWODx.s:295    .text:00000000000001c4 .LVL32
     /tmp/ccnTWODx.s:302    .text:00000000000001d4 .LVL34
     /tmp/ccnTWODx.s:307    .text:00000000000001e0 .LVL35
     /tmp/ccnTWODx.s:312    .text:00000000000001ec .LVL36
     /tmp/ccnTWODx.s:4147   .debug_str:0000000000000654 .LASF239
     /tmp/ccnTWODx.s:4215   .debug_str:0000000000000838 .LASF240
     /tmp/ccnTWODx.s:202    .text:000000000000012c .LFB32
     /tmp/ccnTWODx.s:252    .text:0000000000000188 .LFE32
     /tmp/ccnTWODx.s:3979   .debug_str:0000000000000172 .LASF241
     /tmp/ccnTWODx.s:3882   .debug_loc:00000000000000cf .LLST5
     /tmp/ccnTWODx.s:218    .text:0000000000000148 .LVL19
     /tmp/ccnTWODx.s:223    .text:0000000000000154 .LVL20
     /tmp/ccnTWODx.s:229    .text:0000000000000160 .LVL22
     /tmp/ccnTWODx.s:234    .text:000000000000016c .LVL23
     /tmp/ccnTWODx.s:238    .text:0000000000000174 .LVL24
     /tmp/ccnTWODx.s:4203   .debug_str:00000000000007ee .LASF242
     /tmp/ccnTWODx.s:4127   .debug_str:00000000000005de .LASF243
     /tmp/ccnTWODx.s:108    .text:000000000000008c .LFB31
     /tmp/ccnTWODx.s:196    .text:000000000000012c .LFE31
     /tmp/ccnTWODx.s:3889   .debug_loc:00000000000000f2 .LLST2
     /tmp/ccnTWODx.s:4229   .debug_str:00000000000008bf .LASF244
     /tmp/ccnTWODx.s:3896   .debug_loc:0000000000000115 .LLST3
     /tmp/ccnTWODx.s:4115   .debug_str:000000000000059b .LASF245
     /tmp/ccnTWODx.s:3907   .debug_loc:000000000000014b .LLST4
     /tmp/ccnTWODx.s:127    .text:00000000000000b0 .LVL5
     /tmp/ccnTWODx.s:133    .text:00000000000000bc .LVL7
     /tmp/ccnTWODx.s:138    .text:00000000000000c8 .LVL8
     /tmp/ccnTWODx.s:144    .text:00000000000000d4 .LVL10
     /tmp/ccnTWODx.s:149    .text:00000000000000e0 .LVL11
     /tmp/ccnTWODx.s:155    .text:00000000000000ec .LVL13
     /tmp/ccnTWODx.s:185    .text:0000000000000118 .LVL17
     /tmp/ccnTWODx.s:192    .text:0000000000000128 .LVL18
     /tmp/ccnTWODx.s:4397   .debug_str:0000000000000e40 .LASF246
     /tmp/ccnTWODx.s:4079   .debug_str:0000000000000475 .LASF247
     /tmp/ccnTWODx.s:4385   .debug_str:0000000000000de9 .LASF249
     /tmp/ccnTWODx.s:4187   .debug_str:0000000000000774 .LASF248
     /tmp/ccnTWODx.s:4391   .debug_str:0000000000000e18 .LASF250
     /tmp/ccnTWODx.s:4181   .debug_str:000000000000073c .LASF251
     /tmp/ccnTWODx.s:4363   .debug_str:0000000000000d30 .LASF252
     /tmp/ccnTWODx.s:4399   .debug_str:0000000000000e45 .LASF253
     /tmp/ccnTWODx.s:4119   .debug_str:00000000000005b1 .LASF254
     /tmp/ccnTWODx.s:4319   .debug_str:0000000000000b74 .LASF255
     /tmp/ccnTWODx.s:4177   .debug_str:000000000000072a .LASF256
     /tmp/ccnTWODx.s:4067   .debug_str:0000000000000427 .LASF257
     /tmp/ccnTWODx.s:4437   .debug_str:0000000000000f48 .LASF258
     /tmp/ccnTWODx.s:4165   .debug_str:00000000000006df .LASF259
     /tmp/ccnTWODx.s:396    .text:0000000000000278 .LVL44
     /tmp/ccnTWODx.s:79     .text:0000000000000064 .LVL3
     /tmp/ccnTWODx.s:14     .text:0000000000000000 .LVL0
GAS LISTING /tmp/ccnTWODx.s 			page 23


     /tmp/ccnTWODx.s:37     .text:0000000000000028 .LVL1
     /tmp/ccnTWODx.s:261    .text:0000000000000188 .LVL26
     /tmp/ccnTWODx.s:276    .text:00000000000001a4 .LVL27
     /tmp/ccnTWODx.s:225    .text:0000000000000158 .LVL21
     /tmp/ccnTWODx.s:247    .text:0000000000000180 .LVL25
     /tmp/ccnTWODx.s:129    .text:00000000000000b4 .LVL6
     /tmp/ccnTWODx.s:151    .text:00000000000000e4 .LVL12
     /tmp/ccnTWODx.s:140    .text:00000000000000cc .LVL9
     /tmp/ccnTWODx.s:174    .text:0000000000000104 .LVL15
     /tmp/ccnTWODx.s:178    .text:000000000000010c .LVL16
     /tmp/ccnTWODx.s:171    .text:0000000000000100 .LVL14
     /tmp/ccnTWODx.s:439    .debug_info:0000000000000000 .Ldebug_info0

UNDEFINED SYMBOLS
CONSOLE_STATUS
_ZN9myConsole11output_getcEv
CONSOLE_TX_DATA
_Z8userMainv
_ZN15MemoryAllocator9mem_allocEm
_ZN15MemoryAllocator5printEv
_ZN15MemoryAllocator8mem_freeEPv
__putc
_Z9mem_allocm
_Z8mem_freePv
_Z4getcv
_Z4putcc
_ZN5RISCV15supervisor_trapEv
_ZN15MemoryAllocator12getAllocatorEv
_ZN9Scheduler14init_schedulerEv
_ZN9myConsole4initEv
_Z13thread_createPP3TCBPFvPvES2_
_ZN3TCB7runningE
_Z15thread_dispatchv
