GAS LISTING /tmp/ccX7bAak.s 			page 1


   1              		.file	"main.cpp"
   2              		.option pic
   3              		.option norelax
   4              		.text
   5              	.Ltext0:
   6              		.align	2
   7              		.globl	_Z14handleNewCharsPv
   9              	_Z14handleNewCharsPv:
  10              	.LFB33:
  11              		.file 1 "src/main.cpp"
   1:src/main.cpp  **** 
   2:src/main.cpp  **** #include "../h/Memoryallocator.hpp"
   3:src/main.cpp  **** #include "../h/Scheduler.hpp"
   4:src/main.cpp  **** #include "../h/Console.hpp"
   5:src/main.cpp  **** 
   6:src/main.cpp  **** thread_t mainThread;
   7:src/main.cpp  **** thread_t consoleThread;
   8:src/main.cpp  **** thread_t userMainThread;
   9:src/main.cpp  **** 
  10:src/main.cpp  **** void handleNewChars(void * args) {
  12              		.loc 1 10 34
  13              		.cfi_startproc
  14              	.LVL0:
  15 0000 130101FF 		addi	sp,sp,-16
  16              		.cfi_def_cfa_offset 16
  17 0004 23341100 		sd	ra,8(sp)
  18 0008 23308100 		sd	s0,0(sp)
  19              		.cfi_offset 1, -8
  20              		.cfi_offset 8, -16
  21 000c 13040101 		addi	s0,sp,16
  22              		.cfi_def_cfa 8, 0
  23 0010 6F00C001 		j	.L2
  24              	.LVL1:
  25              	.L6:
  26              	.LBB8:
  27              	.LBB9:
  11:src/main.cpp  **** 
  12:src/main.cpp  ****     while (true) {
  13:src/main.cpp  ****         while (*(char *) CONSOLE_STATUS & CONSOLE_TX_STATUS_BIT) {
  14:src/main.cpp  ****             // console controller is ready for new char
  15:src/main.cpp  ****             char c = myConsole::output_getc();
  28              		.loc 1 15 13
  29              		.loc 1 15 44 is_stmt 0
  30 0014 97000000 		call	_ZN9myConsole11output_getcEv@plt
  30      E7800000 
  31              	.LVL2:
  16:src/main.cpp  **** //            if (c == '\r') continue;
  17:src/main.cpp  ****             *(char *) CONSOLE_TX_DATA = c;
  32              		.loc 1 17 13 is_stmt 1
  33 001c 97070000 		la	a5,CONSOLE_TX_DATA
  33      83B70700 
  34 0024 83B70700 		ld	a5,0(a5)
  35              		.loc 1 17 39 is_stmt 0
  36 0028 2380A700 		sb	a0,0(a5)
  37              	.LVL3:
  38              	.L2:
  39              	.LBE9:
GAS LISTING /tmp/ccX7bAak.s 			page 2


  40              	.LBE8:
  12:src/main.cpp  ****         while (*(char *) CONSOLE_STATUS & CONSOLE_TX_STATUS_BIT) {
  41              		.loc 1 12 5 is_stmt 1
  42              	.LBB10:
  13:src/main.cpp  ****             // console controller is ready for new char
  43              		.loc 1 13 9
  13:src/main.cpp  ****             // console controller is ready for new char
  44              		.loc 1 13 43
  13:src/main.cpp  ****             // console controller is ready for new char
  45              		.loc 1 13 16 is_stmt 0
  46 002c 97070000 		la	a5,CONSOLE_STATUS
  46      83B70700 
  47 0034 83B70700 		ld	a5,0(a5)
  48 0038 83C70700 		lbu	a5,0(a5)
  13:src/main.cpp  ****             // console controller is ready for new char
  49              		.loc 1 13 43
  50 003c 93F70702 		andi	a5,a5,32
  51 0040 E39A07FC 		bnez	a5,.L6
  18:src/main.cpp  ****             // pop from output buffer and wr to TX DATA
  19:src/main.cpp  ****         }
  20:src/main.cpp  **** 
  21:src/main.cpp  ****         // no more work to do, move on
  22:src/main.cpp  ****         thread_dispatch();
  52              		.loc 1 22 9 is_stmt 1
  53              		.loc 1 22 24 is_stmt 0
  54 0044 97000000 		call	_Z15thread_dispatchv@plt
  54      E7800000 
  55              	.LVL4:
  56              	.LBE10:
  12:src/main.cpp  ****         while (*(char *) CONSOLE_STATUS & CONSOLE_TX_STATUS_BIT) {
  57              		.loc 1 12 5 is_stmt 1
  23:src/main.cpp  ****     }
  58              		.loc 1 23 5 is_stmt 0
  59 004c 6FF01FFE 		j	.L2
  60              		.cfi_endproc
  61              	.LFE33:
  63              		.align	2
  64              		.globl	_Z11userWrapperPv
  66              	_Z11userWrapperPv:
  67              	.LFB34:
  24:src/main.cpp  **** }
  25:src/main.cpp  **** 
  26:src/main.cpp  **** extern void userMain();
  27:src/main.cpp  **** 
  28:src/main.cpp  **** void userWrapper(void*) {
  68              		.loc 1 28 25 is_stmt 1
  69              		.cfi_startproc
  70 0050 130101FF 		addi	sp,sp,-16
  71              		.cfi_def_cfa_offset 16
  72 0054 23341100 		sd	ra,8(sp)
  73 0058 23308100 		sd	s0,0(sp)
  74              		.cfi_offset 1, -8
  75              		.cfi_offset 8, -16
  76 005c 13040101 		addi	s0,sp,16
  77              		.cfi_def_cfa 8, 0
  29:src/main.cpp  ****     userMain();
  78              		.loc 1 29 5
GAS LISTING /tmp/ccX7bAak.s 			page 3


  79              		.loc 1 29 13 is_stmt 0
  80 0060 97000000 		call	_Z8userMainv@plt
  80      E7800000 
  81              	.LVL5:
  30:src/main.cpp  **** }
  82              		.loc 1 30 1
  83 0068 83308100 		ld	ra,8(sp)
  84              		.cfi_restore 1
  85 006c 03340100 		ld	s0,0(sp)
  86              		.cfi_restore 8
  87              		.cfi_def_cfa 2, 16
  88 0070 13010101 		addi	sp,sp,16
  89              		.cfi_def_cfa_offset 0
  90 0074 67800000 		jr	ra
  91              		.cfi_endproc
  92              	.LFE34:
  94              		.align	2
  95              		.globl	main
  97              	main:
  98              	.LFB35:
  31:src/main.cpp  **** 
  32:src/main.cpp  **** int main() {
  99              		.loc 1 32 12 is_stmt 1
 100              		.cfi_startproc
 101 0078 130101FE 		addi	sp,sp,-32
 102              		.cfi_def_cfa_offset 32
 103 007c 233C1100 		sd	ra,24(sp)
 104 0080 23388100 		sd	s0,16(sp)
 105 0084 23349100 		sd	s1,8(sp)
 106              		.cfi_offset 1, -8
 107              		.cfi_offset 8, -16
 108              		.cfi_offset 9, -24
 109 0088 13040102 		addi	s0,sp,32
 110              		.cfi_def_cfa 8, 0
  33:src/main.cpp  **** 
  34:src/main.cpp  ****     RISCV::wr_stvec((uint64)&RISCV::supervisor_trap);
 111              		.loc 1 34 5
 112              		.loc 1 34 20 is_stmt 0
 113 008c 97070000 		la	a5,_ZN5RISCV15supervisor_trapEv
 113      83B70700 
 114              	.LVL6:
 115              	.LBB11:
 116              	.LBB12:
 117              		.file 2 "src/../h/../h/riscv.hpp"
   1:src/../h/../h/riscv.hpp **** //
   2:src/../h/../h/riscv.hpp **** // Created by os on 4/7/24.
   3:src/../h/../h/riscv.hpp **** //
   4:src/../h/../h/riscv.hpp **** 
   5:src/../h/../h/riscv.hpp **** #ifndef PROJECT_BASE_RISCV_HPP
   6:src/../h/../h/riscv.hpp **** #define PROJECT_BASE_RISCV_HPP
   7:src/../h/../h/riscv.hpp **** 
   8:src/../h/../h/riscv.hpp **** #include "../lib/hw.h"
   9:src/../h/../h/riscv.hpp **** 
  10:src/../h/../h/riscv.hpp **** class RISCV {
  11:src/../h/../h/riscv.hpp **** public:
  12:src/../h/../h/riscv.hpp **** 
  13:src/../h/../h/riscv.hpp ****     enum causes {
GAS LISTING /tmp/ccX7bAak.s 			page 4


  14:src/../h/../h/riscv.hpp ****         SOFTWARE = 0x8000000000000001UL,
  15:src/../h/../h/riscv.hpp ****         EXTERNAL = 0x8000000000000009UL,
  16:src/../h/../h/riscv.hpp ****         U_ECALL  = 0x0000000000000008UL,
  17:src/../h/../h/riscv.hpp ****         S_ECALL  = 0x0000000000000009UL
  18:src/../h/../h/riscv.hpp ****     };
  19:src/../h/../h/riscv.hpp **** 
  20:src/../h/../h/riscv.hpp ****     static void supervisor_trap();
  21:src/../h/../h/riscv.hpp ****     static void handle_interrupt();
  22:src/../h/../h/riscv.hpp **** 
  23:src/../h/../h/riscv.hpp ****     static void push_regs();
  24:src/../h/../h/riscv.hpp ****     static void pop_regs();
  25:src/../h/../h/riscv.hpp **** 
  26:src/../h/../h/riscv.hpp ****     static uint64 return_value(uint64 value);
  27:src/../h/../h/riscv.hpp **** 
  28:src/../h/../h/riscv.hpp ****     static uint64 rd_scause();
  29:src/../h/../h/riscv.hpp ****     static void wr_scause(uint64 value);
  30:src/../h/../h/riscv.hpp **** 
  31:src/../h/../h/riscv.hpp ****     static uint64 rd_sepc();
  32:src/../h/../h/riscv.hpp ****     static void wr_sepc(uint64 value);
  33:src/../h/../h/riscv.hpp **** 
  34:src/../h/../h/riscv.hpp ****     static uint64 rd_stvec();
  35:src/../h/../h/riscv.hpp ****     static void wr_stvec(uint64 value);
  36:src/../h/../h/riscv.hpp **** 
  37:src/../h/../h/riscv.hpp ****     static uint64 rd_stval();
  38:src/../h/../h/riscv.hpp ****     static void wr_stval(uint64 value);
  39:src/../h/../h/riscv.hpp **** 
  40:src/../h/../h/riscv.hpp ****     static uint64 rd_sip();
  41:src/../h/../h/riscv.hpp ****     static void wr_sip(uint64 value);
  42:src/../h/../h/riscv.hpp **** 
  43:src/../h/../h/riscv.hpp ****     static uint64 rd_sstatus();
  44:src/../h/../h/riscv.hpp ****     static void wr_sstatus(uint64 value);
  45:src/../h/../h/riscv.hpp **** 
  46:src/../h/../h/riscv.hpp ****     static void clear_sip(uint64 mask);
  47:src/../h/../h/riscv.hpp ****     static void set_sip(uint64 mask);
  48:src/../h/../h/riscv.hpp **** 
  49:src/../h/../h/riscv.hpp ****     static void mask_status(uint64 mask);
  50:src/../h/../h/riscv.hpp ****     static void set_status(uint64 mask);
  51:src/../h/../h/riscv.hpp **** 
  52:src/../h/../h/riscv.hpp ****     static void popSppSpie();
  53:src/../h/../h/riscv.hpp ****     // pop sstatus.spp and sstatus.spie bits
  54:src/../h/../h/riscv.hpp ****     // must be in cpp, not inline
  55:src/../h/../h/riscv.hpp **** 
  56:src/../h/../h/riscv.hpp ****     enum mask_sstatus {
  57:src/../h/../h/riscv.hpp ****         SIE = (1 << 1),
  58:src/../h/../h/riscv.hpp ****         SPIE =(1 << 5),
  59:src/../h/../h/riscv.hpp ****         SPP = (1 << 8)
  60:src/../h/../h/riscv.hpp ****     };
  61:src/../h/../h/riscv.hpp **** 
  62:src/../h/../h/riscv.hpp ****     enum mask_sip_sie {
  63:src/../h/../h/riscv.hpp ****         SS = (1 << 1),
  64:src/../h/../h/riscv.hpp ****         SE = (1 << 9)
  65:src/../h/../h/riscv.hpp ****     };
  66:src/../h/../h/riscv.hpp **** 
  67:src/../h/../h/riscv.hpp **** };
  68:src/../h/../h/riscv.hpp **** 
  69:src/../h/../h/riscv.hpp **** inline uint64 RISCV::rd_scause() {
  70:src/../h/../h/riscv.hpp ****     uint64 volatile value;
GAS LISTING /tmp/ccX7bAak.s 			page 5


  71:src/../h/../h/riscv.hpp ****     __asm__ volatile ("csrr %0, scause" : "=r"(value));
  72:src/../h/../h/riscv.hpp ****     return value;
  73:src/../h/../h/riscv.hpp **** }
  74:src/../h/../h/riscv.hpp **** 
  75:src/../h/../h/riscv.hpp **** inline void RISCV::wr_scause(uint64 value) {
  76:src/../h/../h/riscv.hpp ****     __asm__ volatile ("csrw scause, %0" : : "r"(value));
  77:src/../h/../h/riscv.hpp **** }
  78:src/../h/../h/riscv.hpp **** 
  79:src/../h/../h/riscv.hpp **** inline uint64 RISCV::rd_sepc() {
  80:src/../h/../h/riscv.hpp ****     uint64 volatile value;
  81:src/../h/../h/riscv.hpp ****     __asm__ volatile ("csrr %0, sepc" : "=r"(value));
  82:src/../h/../h/riscv.hpp ****     return value;
  83:src/../h/../h/riscv.hpp **** }
  84:src/../h/../h/riscv.hpp **** 
  85:src/../h/../h/riscv.hpp **** inline void RISCV::wr_sepc(uint64 value) {
  86:src/../h/../h/riscv.hpp ****     __asm__ volatile ("csrw sepc, %0" : : "r"(value));
  87:src/../h/../h/riscv.hpp **** }
  88:src/../h/../h/riscv.hpp **** 
  89:src/../h/../h/riscv.hpp **** inline uint64 RISCV::rd_stvec() {
  90:src/../h/../h/riscv.hpp ****     uint64 volatile value;
  91:src/../h/../h/riscv.hpp ****     __asm__ volatile ("csrr %0, stvec" : "=r"(value));
  92:src/../h/../h/riscv.hpp ****     return value;
  93:src/../h/../h/riscv.hpp **** }
  94:src/../h/../h/riscv.hpp **** 
  95:src/../h/../h/riscv.hpp **** inline void RISCV::wr_stvec(uint64 value) {
  96:src/../h/../h/riscv.hpp ****     __asm__ volatile ("csrw stvec, %0" : : "r"(value));
 118              		.loc 2 96 5 is_stmt 1
 119              		.loc 2 96 55 is_stmt 0
 120              	#APP
 121              	# 96 "src/../h/../h/riscv.hpp" 1
  97              	}
 122              		csrw stvec, a5
 123              	# 0 "" 2
 124              	.LVL7:
 125              	#NO_APP
 126              	.LBE12:
 127              	.LBE11:
  35:src/main.cpp  **** 
  36:src/main.cpp  ****     MemoryAllocator::init_allocator();
 128              		.loc 1 36 5 is_stmt 1
 129              		.loc 1 36 36 is_stmt 0
 130 0098 97000000 		call	_ZN15MemoryAllocator14init_allocatorEv@plt
 130      E7800000 
 131              	.LVL8:
  37:src/main.cpp  ****     myConsole::init_myconsole();
 132              		.loc 1 37 5 is_stmt 1
 133              		.loc 1 37 30 is_stmt 0
 134 00a0 97000000 		call	_ZN9myConsole14init_myconsoleEv@plt
 134      E7800000 
 135              	.LVL9:
  38:src/main.cpp  **** 
  39:src/main.cpp  ****     thread_create(&mainThread, nullptr, nullptr); // main
 136              		.loc 1 39 5 is_stmt 1
 137              		.loc 1 39 18 is_stmt 0
 138 00a8 97040000 		lla	s1,.LANCHOR0
 138      93840400 
 139 00b0 13060000 		li	a2,0
GAS LISTING /tmp/ccX7bAak.s 			page 6


 140 00b4 93050000 		li	a1,0
 141 00b8 13850400 		mv	a0,s1
 142 00bc 97000000 		call	_Z13thread_createPP3TCBPFvPvES2_@plt
 142      E7800000 
 143              	.LVL10:
  40:src/main.cpp  **** 
  41:src/main.cpp  ****     TCB::running = mainThread;
 144              		.loc 1 41 5 is_stmt 1
 145              		.loc 1 41 18 is_stmt 0
 146 00c4 03B70400 		ld	a4,0(s1)
 147 00c8 97070000 		la	a5,_ZN3TCB7runningE
 147      83B70700 
 148 00d0 23B0E700 		sd	a4,0(a5)
  42:src/main.cpp  **** 
  43:src/main.cpp  ****     RISCV::set_status(RISCV::SIE); // interrupts enabled
 149              		.loc 1 43 5 is_stmt 1
 150              	.LVL11:
 151              	.LBB13:
 152              	.LBB14:
  98:src/../h/../h/riscv.hpp **** 
  99:src/../h/../h/riscv.hpp **** inline uint64 RISCV::rd_stval() {
 100:src/../h/../h/riscv.hpp ****     uint64 volatile value;
 101:src/../h/../h/riscv.hpp ****     __asm__ volatile ("csrr %0, stval" : "=r"(value));
 102:src/../h/../h/riscv.hpp ****     return value;
 103:src/../h/../h/riscv.hpp **** }
 104:src/../h/../h/riscv.hpp **** 
 105:src/../h/../h/riscv.hpp **** inline void RISCV::wr_stval(uint64 value) {
 106:src/../h/../h/riscv.hpp ****     __asm__ volatile ("csrw stval, %0" : : "r"(value));
 107:src/../h/../h/riscv.hpp **** }
 108:src/../h/../h/riscv.hpp **** 
 109:src/../h/../h/riscv.hpp **** inline uint64 RISCV::rd_sip() {
 110:src/../h/../h/riscv.hpp ****     uint64 volatile value;
 111:src/../h/../h/riscv.hpp ****     __asm__ volatile ("csrr %0, sip" : "=r"(value));
 112:src/../h/../h/riscv.hpp ****     return value;
 113:src/../h/../h/riscv.hpp **** }
 114:src/../h/../h/riscv.hpp **** 
 115:src/../h/../h/riscv.hpp **** inline void RISCV::wr_sip(uint64 value) {
 116:src/../h/../h/riscv.hpp ****     __asm__ volatile ("csrw sip, %0" : : "r"(value));
 117:src/../h/../h/riscv.hpp **** }
 118:src/../h/../h/riscv.hpp **** 
 119:src/../h/../h/riscv.hpp **** inline uint64 RISCV::rd_sstatus() {
 120:src/../h/../h/riscv.hpp ****     uint64 volatile value;
 121:src/../h/../h/riscv.hpp ****     __asm__ volatile ("csrr %0, sstatus" : "=r"(value));
 122:src/../h/../h/riscv.hpp ****     return value;
 123:src/../h/../h/riscv.hpp **** }
 124:src/../h/../h/riscv.hpp **** 
 125:src/../h/../h/riscv.hpp **** inline void RISCV::wr_sstatus(uint64 value) {
 126:src/../h/../h/riscv.hpp ****     __asm__ volatile ("csrw sstatus, %0" : : "r"(value));
 127:src/../h/../h/riscv.hpp **** }
 128:src/../h/../h/riscv.hpp **** 
 129:src/../h/../h/riscv.hpp **** inline void RISCV::clear_sip(uint64 mask) {
 130:src/../h/../h/riscv.hpp ****     __asm__ volatile("csrc sip, %0" : : "r"(mask));
 131:src/../h/../h/riscv.hpp **** }
 132:src/../h/../h/riscv.hpp **** 
 133:src/../h/../h/riscv.hpp **** inline void RISCV::set_sip(uint64 mask) {
 134:src/../h/../h/riscv.hpp ****     __asm__ volatile("csrs sip, %0" : : "r"(mask));
 135:src/../h/../h/riscv.hpp **** }
GAS LISTING /tmp/ccX7bAak.s 			page 7


 136:src/../h/../h/riscv.hpp **** 
 137:src/../h/../h/riscv.hpp **** inline void RISCV::mask_status(uint64 mask) {
 138:src/../h/../h/riscv.hpp ****     __asm__ volatile("csrc sstatus, %0" : : "r"(mask));
 139:src/../h/../h/riscv.hpp **** };
 140:src/../h/../h/riscv.hpp **** 
 141:src/../h/../h/riscv.hpp **** inline void RISCV::set_status(uint64 mask) {
 142:src/../h/../h/riscv.hpp ****     __asm__ volatile("csrs sstatus, %0" : : "r"(mask));
 153              		.loc 2 142 5
 154              		.loc 2 142 55 is_stmt 0
 155 00d4 93072000 		li	a5,2
 156              	#APP
 157              	# 142 "src/../h/../h/riscv.hpp" 1
 143              	}
 158              		csrs sstatus, a5
 159              	# 0 "" 2
 160              	.LVL12:
 161              	#NO_APP
 162              	.LBE14:
 163              	.LBE13:
  44:src/main.cpp  **** 
  45:src/main.cpp  ****     thread_create(&consoleThread, handleNewChars, nullptr);
 164              		.loc 1 45 5 is_stmt 1
 165              		.loc 1 45 18 is_stmt 0
 166 00dc 13060000 		li	a2,0
 167 00e0 97050000 		lla	a1,_Z14handleNewCharsPv
 167      93850500 
 168 00e8 17050000 		lla	a0,.LANCHOR0+8
 168      13050500 
 169 00f0 97000000 		call	_Z13thread_createPP3TCBPFvPvES2_@plt
 169      E7800000 
 170              	.LVL13:
  46:src/main.cpp  **** 
  47:src/main.cpp  ****     thread_create(&userMainThread, userWrapper, nullptr);
 171              		.loc 1 47 5 is_stmt 1
 172              		.loc 1 47 18 is_stmt 0
 173 00f8 13060000 		li	a2,0
 174 00fc 97050000 		lla	a1,_Z11userWrapperPv
 174      93850500 
 175 0104 17050000 		lla	a0,.LANCHOR0+16
 175      13050500 
 176 010c 97000000 		call	_Z13thread_createPP3TCBPFvPvES2_@plt
 176      E7800000 
 177              	.LVL14:
 178              	.L11:
  48:src/main.cpp  **** 
  49:src/main.cpp  ****      while (!userMainThread->isFinished()) thread_dispatch();
 179              		.loc 1 49 6 is_stmt 1 discriminator 2
 180              		.loc 1 49 13 discriminator 2
 181              		.loc 1 49 40 is_stmt 0 discriminator 2
 182 0114 97070000 		ld	a5,.LANCHOR0+16
 182      83B70700 
 183              	.LVL15:
 184              	.LBB15:
 185              	.LBB16:
 186              		.file 3 "src/../h/thread.hpp"
   1:src/../h/thread.hpp **** //
   2:src/../h/thread.hpp **** // Created by os on 4/9/24.
GAS LISTING /tmp/ccX7bAak.s 			page 8


   3:src/../h/thread.hpp **** //
   4:src/../h/thread.hpp **** 
   5:src/../h/thread.hpp **** #ifndef PROJECT_BASE_THREAD_HPP
   6:src/../h/thread.hpp **** #define PROJECT_BASE_THREAD_HPP
   7:src/../h/thread.hpp **** 
   8:src/../h/thread.hpp **** #include "../lib/hw.h"
   9:src/../h/thread.hpp **** #include "../h/Memoryallocator.hpp"
  10:src/../h/thread.hpp **** #include "../h/riscv.hpp"
  11:src/../h/thread.hpp **** #include "../h/syscall_c.hpp"
  12:src/../h/thread.hpp **** 
  13:src/../h/thread.hpp **** //extern void thread_dispatch();
  14:src/../h/thread.hpp **** 
  15:src/../h/thread.hpp **** using routine_ptr = void(*)(void *);
  16:src/../h/thread.hpp **** 
  17:src/../h/thread.hpp **** // _thread je wrapper ove klase
  18:src/../h/thread.hpp **** class TCB final {
  19:src/../h/thread.hpp **** 
  20:src/../h/thread.hpp ****     friend class RISCV;
  21:src/../h/thread.hpp ****     friend class Sem;
  22:src/../h/thread.hpp ****     friend class Scheduler;
  23:src/../h/thread.hpp **** 
  24:src/../h/thread.hpp **** public:
  25:src/../h/thread.hpp **** 
  26:src/../h/thread.hpp ****     static TCB* running; // current thread
  27:src/../h/thread.hpp **** 
  28:src/../h/thread.hpp ****     enum state {
  29:src/../h/thread.hpp ****         RUNNABLE,
  30:src/../h/thread.hpp ****         SLEEPING,
  31:src/../h/thread.hpp ****         CREATED,
  32:src/../h/thread.hpp ****         FINISHED,
  33:src/../h/thread.hpp ****         BLOCKED
  34:src/../h/thread.hpp ****     };
  35:src/../h/thread.hpp ****     struct Context {
  36:src/../h/thread.hpp ****         // nadogradi kasnije
  37:src/../h/thread.hpp ****         uint64 pc;
  38:src/../h/thread.hpp ****         uint64 sp;
  39:src/../h/thread.hpp ****         uint64 sstatus;
  40:src/../h/thread.hpp ****         uint64 sepc;
  41:src/../h/thread.hpp ****     };
  42:src/../h/thread.hpp **** 
  43:src/../h/thread.hpp ****     static int _threadCreate(TCB** handle, routine_ptr routine, void* args, void* stack_space); // 
  44:src/../h/thread.hpp **** 
  45:src/../h/thread.hpp ****     static void yield(TCB*, TCB*);
  46:src/../h/thread.hpp **** 
  47:src/../h/thread.hpp ****     static void dispatch();
  48:src/../h/thread.hpp **** 
  49:src/../h/thread.hpp ****     time_t getTimeSlice() const {return time_slice;}
  50:src/../h/thread.hpp **** 
  51:src/../h/thread.hpp ****     static bool isRunnable();
  52:src/../h/thread.hpp **** 
  53:src/../h/thread.hpp ****     bool isFinished() {return current_state == state::FINISHED;}
 187              		.loc 3 53 24 is_stmt 1 discriminator 2
 188              		.loc 3 53 31 is_stmt 0 discriminator 2
 189 011c 03A78706 		lw	a4,104(a5)
 190              	.LVL16:
 191              	.LBE16:
 192              	.LBE15:
GAS LISTING /tmp/ccX7bAak.s 			page 9


 193              		.loc 1 49 13 discriminator 2
 194 0120 93073000 		li	a5,3
 195 0124 6308F700 		beq	a4,a5,.L10
 196              		.loc 1 49 44 is_stmt 1 discriminator 1
 197              		.loc 1 49 59 is_stmt 0 discriminator 1
 198 0128 97000000 		call	_Z15thread_dispatchv@plt
 198      E7800000 
 199              	.LVL17:
 200              		.loc 1 49 6 discriminator 1
 201 0130 6FF05FFE 		j	.L11
 202              	.L10:
  50:src/main.cpp  ****      while (!myConsole::no_work_for_con()) thread_dispatch();
 203              		.loc 1 50 6 is_stmt 1 discriminator 2
 204              		.loc 1 50 13 discriminator 2
 205              		.loc 1 50 40 is_stmt 0 discriminator 2
 206 0134 97000000 		call	_ZN9myConsole15no_work_for_conEv@plt
 206      E7800000 
 207              	.LVL18:
 208              		.loc 1 50 13 discriminator 2
 209 013c 63180500 		bnez	a0,.L12
 210              		.loc 1 50 44 is_stmt 1 discriminator 1
 211              		.loc 1 50 59 is_stmt 0 discriminator 1
 212 0140 97000000 		call	_Z15thread_dispatchv@plt
 212      E7800000 
 213              	.LVL19:
 214              		.loc 1 50 6 discriminator 1
 215 0148 6FF0DFFE 		j	.L10
 216              	.L12:
  51:src/main.cpp  **** 
  52:src/main.cpp  ****      return 0;
 217              		.loc 1 52 6 is_stmt 1
  53:src/main.cpp  **** }
 218              		.loc 1 53 1 is_stmt 0
 219 014c 13050000 		li	a0,0
 220 0150 83308101 		ld	ra,24(sp)
 221              		.cfi_restore 1
 222 0154 03340101 		ld	s0,16(sp)
 223              		.cfi_restore 8
 224              		.cfi_def_cfa 2, 32
 225 0158 83348100 		ld	s1,8(sp)
 226              		.cfi_restore 9
 227 015c 13010102 		addi	sp,sp,32
 228              		.cfi_def_cfa_offset 0
 229 0160 67800000 		jr	ra
 230              		.cfi_endproc
 231              	.LFE35:
 233              		.globl	userMainThread
 234              		.globl	consoleThread
 235              		.globl	mainThread
 236              		.bss
 237              		.align	3
 238              		.set	.LANCHOR0,. + 0
 241              	mainThread:
 242 0000 00000000 		.zero	8
 242      00000000 
 245              	consoleThread:
 246 0008 00000000 		.zero	8
GAS LISTING /tmp/ccX7bAak.s 			page 10


 246      00000000 
 249              	userMainThread:
 250 0010 00000000 		.zero	8
 250      00000000 
 251              		.text
 252              	.Letext0:
 253              		.file 4 "src/../h/../lib/hw.h"
 254              		.file 5 "src/../h/Memoryallocator.hpp"
 255              		.file 6 "src/../h/../h/syscall_c.hpp"
 256              		.file 7 "src/../h/semaphore.hpp"
 257              		.file 8 "src/../h/List.hpp"
 258              		.file 9 "src/../h/BoundedBuffer.hpp"
 259              		.file 10 "src/../h/Console.hpp"
GAS LISTING /tmp/ccX7bAak.s 			page 11


DEFINED SYMBOLS
                            *ABS*:0000000000000000 main.cpp
     /tmp/ccX7bAak.s:9      .text:0000000000000000 _Z14handleNewCharsPv
     /tmp/ccX7bAak.s:13     .text:0000000000000000 .L0 
     /tmp/ccX7bAak.s:15     .text:0000000000000000 .L0 
     /tmp/ccX7bAak.s:16     .text:0000000000000004 .L0 
     /tmp/ccX7bAak.s:19     .text:000000000000000c .L0 
     /tmp/ccX7bAak.s:20     .text:000000000000000c .L0 
     /tmp/ccX7bAak.s:22     .text:0000000000000010 .L0 
     /tmp/ccX7bAak.s:29     .text:0000000000000014 .L0 
     /tmp/ccX7bAak.s:30     .text:0000000000000014 .L0 
     /tmp/ccX7bAak.s:33     .text:000000000000001c .L0 
     /tmp/ccX7bAak.s:36     .text:0000000000000028 .L0 
     /tmp/ccX7bAak.s:43     .text:000000000000002c .L0 
     /tmp/ccX7bAak.s:44     .text:000000000000002c .L0 
     /tmp/ccX7bAak.s:45     .text:000000000000002c .L0 
     /tmp/ccX7bAak.s:46     .text:000000000000002c .L0 
     /tmp/ccX7bAak.s:50     .text:000000000000003c .L0 
     /tmp/ccX7bAak.s:53     .text:0000000000000044 .L0 
     /tmp/ccX7bAak.s:54     .text:0000000000000044 .L0 
     /tmp/ccX7bAak.s:58     .text:000000000000004c .L0 
     /tmp/ccX7bAak.s:59     .text:000000000000004c .L0 
     /tmp/ccX7bAak.s:60     .text:0000000000000050 .L0 
     /tmp/ccX7bAak.s:66     .text:0000000000000050 _Z11userWrapperPv
     /tmp/ccX7bAak.s:69     .text:0000000000000050 .L0 
     /tmp/ccX7bAak.s:70     .text:0000000000000050 .L0 
     /tmp/ccX7bAak.s:71     .text:0000000000000054 .L0 
     /tmp/ccX7bAak.s:74     .text:000000000000005c .L0 
     /tmp/ccX7bAak.s:75     .text:000000000000005c .L0 
     /tmp/ccX7bAak.s:77     .text:0000000000000060 .L0 
     /tmp/ccX7bAak.s:79     .text:0000000000000060 .L0 
     /tmp/ccX7bAak.s:80     .text:0000000000000060 .L0 
     /tmp/ccX7bAak.s:83     .text:0000000000000068 .L0 
     /tmp/ccX7bAak.s:84     .text:000000000000006c .L0 
     /tmp/ccX7bAak.s:86     .text:0000000000000070 .L0 
     /tmp/ccX7bAak.s:87     .text:0000000000000070 .L0 
     /tmp/ccX7bAak.s:89     .text:0000000000000074 .L0 
     /tmp/ccX7bAak.s:91     .text:0000000000000078 .L0 
     /tmp/ccX7bAak.s:97     .text:0000000000000078 main
     /tmp/ccX7bAak.s:100    .text:0000000000000078 .L0 
     /tmp/ccX7bAak.s:101    .text:0000000000000078 .L0 
     /tmp/ccX7bAak.s:102    .text:000000000000007c .L0 
     /tmp/ccX7bAak.s:106    .text:0000000000000088 .L0 
     /tmp/ccX7bAak.s:107    .text:0000000000000088 .L0 
     /tmp/ccX7bAak.s:108    .text:0000000000000088 .L0 
     /tmp/ccX7bAak.s:110    .text:000000000000008c .L0 
     /tmp/ccX7bAak.s:112    .text:000000000000008c .L0 
     /tmp/ccX7bAak.s:113    .text:000000000000008c .L0 
     /tmp/ccX7bAak.s:119    .text:0000000000000094 .L0 
src/../h/../h/riscv.hpp:96     .text:0000000000000094 .L0 
     /tmp/ccX7bAak.s:129    .text:0000000000000098 .L0 
     /tmp/ccX7bAak.s:130    .text:0000000000000098 .L0 
     /tmp/ccX7bAak.s:133    .text:00000000000000a0 .L0 
     /tmp/ccX7bAak.s:134    .text:00000000000000a0 .L0 
     /tmp/ccX7bAak.s:137    .text:00000000000000a8 .L0 
     /tmp/ccX7bAak.s:138    .text:00000000000000a8 .L0 
     /tmp/ccX7bAak.s:145    .text:00000000000000c4 .L0 
GAS LISTING /tmp/ccX7bAak.s 			page 12


     /tmp/ccX7bAak.s:146    .text:00000000000000c4 .L0 
     /tmp/ccX7bAak.s:153    .text:00000000000000d4 .L0 
     /tmp/ccX7bAak.s:154    .text:00000000000000d4 .L0 
     /tmp/ccX7bAak.s:155    .text:00000000000000d4 .L0 
     /tmp/ccX7bAak.s:165    .text:00000000000000dc .L0 
     /tmp/ccX7bAak.s:166    .text:00000000000000dc .L0 
     /tmp/ccX7bAak.s:172    .text:00000000000000f8 .L0 
     /tmp/ccX7bAak.s:173    .text:00000000000000f8 .L0 
     /tmp/ccX7bAak.s:180    .text:0000000000000114 .L0 
     /tmp/ccX7bAak.s:181    .text:0000000000000114 .L0 
     /tmp/ccX7bAak.s:182    .text:0000000000000114 .L0 
     /tmp/ccX7bAak.s:188    .text:000000000000011c .L0 
     /tmp/ccX7bAak.s:189    .text:000000000000011c .L0 
     /tmp/ccX7bAak.s:194    .text:0000000000000120 .L0 
     /tmp/ccX7bAak.s:197    .text:0000000000000128 .L0 
     /tmp/ccX7bAak.s:198    .text:0000000000000128 .L0 
     /tmp/ccX7bAak.s:201    .text:0000000000000130 .L0 
     /tmp/ccX7bAak.s:204    .text:0000000000000134 .L0 
     /tmp/ccX7bAak.s:205    .text:0000000000000134 .L0 
     /tmp/ccX7bAak.s:206    .text:0000000000000134 .L0 
     /tmp/ccX7bAak.s:209    .text:000000000000013c .L0 
     /tmp/ccX7bAak.s:211    .text:0000000000000140 .L0 
     /tmp/ccX7bAak.s:212    .text:0000000000000140 .L0 
     /tmp/ccX7bAak.s:215    .text:0000000000000148 .L0 
     /tmp/ccX7bAak.s:218    .text:000000000000014c .L0 
     /tmp/ccX7bAak.s:219    .text:000000000000014c .L0 
     /tmp/ccX7bAak.s:221    .text:0000000000000154 .L0 
     /tmp/ccX7bAak.s:223    .text:0000000000000158 .L0 
     /tmp/ccX7bAak.s:224    .text:0000000000000158 .L0 
     /tmp/ccX7bAak.s:226    .text:000000000000015c .L0 
     /tmp/ccX7bAak.s:228    .text:0000000000000160 .L0 
     /tmp/ccX7bAak.s:230    .text:0000000000000164 .L0 
     /tmp/ccX7bAak.s:249    .bss:0000000000000010 userMainThread
     /tmp/ccX7bAak.s:245    .bss:0000000000000008 consoleThread
     /tmp/ccX7bAak.s:241    .bss:0000000000000000 mainThread
     /tmp/ccX7bAak.s:238    .bss:0000000000000000 .LANCHOR0
     /tmp/ccX7bAak.s:260    .text:0000000000000164 .L0 
     /tmp/ccX7bAak.s:33     .text:000000000000001c .L0 
     /tmp/ccX7bAak.s:46     .text:000000000000002c .L0 
     /tmp/ccX7bAak.s:113    .text:000000000000008c .L0 
     /tmp/ccX7bAak.s:138    .text:00000000000000a8 .L0 
     /tmp/ccX7bAak.s:147    .text:00000000000000c8 .L0 
     /tmp/ccX7bAak.s:167    .text:00000000000000e0 .L0 
     /tmp/ccX7bAak.s:168    .text:00000000000000e8 .L0 
     /tmp/ccX7bAak.s:174    .text:00000000000000fc .L0 
     /tmp/ccX7bAak.s:175    .text:0000000000000104 .L0 
     /tmp/ccX7bAak.s:182    .text:0000000000000114 .L0 
     /tmp/ccX7bAak.s:38     .text:000000000000002c .L2
     /tmp/ccX7bAak.s:25     .text:0000000000000014 .L6
     /tmp/ccX7bAak.s:202    .text:0000000000000134 .L10
     /tmp/ccX7bAak.s:178    .text:0000000000000114 .L11
     /tmp/ccX7bAak.s:216    .text:000000000000014c .L12
     /tmp/ccX7bAak.s:2070   .debug_abbrev:0000000000000000 .Ldebug_abbrev0
     /tmp/ccX7bAak.s:3680   .debug_str:0000000000000b12 .LASF225
     /tmp/ccX7bAak.s:3422   .debug_str:0000000000000397 .LASF226
     /tmp/ccX7bAak.s:3436   .debug_str:0000000000000402 .LASF227
     /tmp/ccX7bAak.s:5      .text:0000000000000000 .Ltext0
GAS LISTING /tmp/ccX7bAak.s 			page 13


     /tmp/ccX7bAak.s:252    .text:0000000000000164 .Letext0
     /tmp/ccX7bAak.s:3300   .debug_line:0000000000000000 .Ldebug_line0
     /tmp/ccX7bAak.s:3462   .debug_str:00000000000004b2 .LASF0
     /tmp/ccX7bAak.s:3490   .debug_str:0000000000000575 .LASF1
     /tmp/ccX7bAak.s:3612   .debug_str:00000000000008f9 .LASF2
     /tmp/ccX7bAak.s:3622   .debug_str:0000000000000978 .LASF4
     /tmp/ccX7bAak.s:3472   .debug_str:0000000000000504 .LASF3
     /tmp/ccX7bAak.s:3314   .debug_str:0000000000000041 .LASF5
     /tmp/ccX7bAak.s:3576   .debug_str:000000000000080b .LASF6
     /tmp/ccX7bAak.s:3566   .debug_str:00000000000007a9 .LASF7
     /tmp/ccX7bAak.s:3478   .debug_str:000000000000052c .LASF8
     /tmp/ccX7bAak.s:3430   .debug_str:00000000000003c5 .LASF9
     /tmp/ccX7bAak.s:3442   .debug_str:0000000000000435 .LASF10
     /tmp/ccX7bAak.s:3360   .debug_str:00000000000001bd .LASF11
     /tmp/ccX7bAak.s:3418   .debug_str:0000000000000379 .LASF12
     /tmp/ccX7bAak.s:3376   .debug_str:0000000000000221 .LASF13
     /tmp/ccX7bAak.s:3358   .debug_str:00000000000001ad .LASF14
     /tmp/ccX7bAak.s:3656   .debug_str:0000000000000a7c .LASF15
     /tmp/ccX7bAak.s:3408   .debug_str:0000000000000308 .LASF16
     /tmp/ccX7bAak.s:3642   .debug_str:0000000000000a09 .LASF17
     /tmp/ccX7bAak.s:3564   .debug_str:0000000000000799 .LASF21
     /tmp/ccX7bAak.s:3354   .debug_str:0000000000000198 .LASF89
     /tmp/ccX7bAak.s:3362   .debug_str:00000000000001cc .LASF18
     /tmp/ccX7bAak.s:3332   .debug_str:00000000000000de .LASF19
     /tmp/ccX7bAak.s:3488   .debug_str:0000000000000570 .LASF20
     /tmp/ccX7bAak.s:3330   .debug_str:00000000000000c5 .LASF22
     /tmp/ccX7bAak.s:3640   .debug_str:00000000000009ee .LASF23
     /tmp/ccX7bAak.s:3738   .debug_str:0000000000000d72 .LASF228
     /tmp/ccX7bAak.s:3754   .debug_str:0000000000000dd0 .LASF229
     /tmp/ccX7bAak.s:3672   .debug_str:0000000000000aec .LASF24
     /tmp/ccX7bAak.s:3326   .debug_str:00000000000000ad .LASF25
     /tmp/ccX7bAak.s:3468   .debug_str:00000000000004e5 .LASF26
     /tmp/ccX7bAak.s:3618   .debug_str:0000000000000931 .LASF28
     /tmp/ccX7bAak.s:3714   .debug_str:0000000000000ce2 .LASF93
     /tmp/ccX7bAak.s:3406   .debug_str:00000000000002f9 .LASF45
     /tmp/ccX7bAak.s:3532   .debug_str:00000000000006c0 .LASF47
     /tmp/ccX7bAak.s:3526   .debug_str:0000000000000680 .LASF41
     /tmp/ccX7bAak.s:3316   .debug_str:0000000000000048 .LASF43
     /tmp/ccX7bAak.s:3664   .debug_str:0000000000000aaf .LASF27
     /tmp/ccX7bAak.s:3528   .debug_str:000000000000068a .LASF29
     /tmp/ccX7bAak.s:3586   .debug_str:0000000000000850 .LASF30
     /tmp/ccX7bAak.s:3748   .debug_str:0000000000000daf .LASF31
     /tmp/ccX7bAak.s:3310   .debug_str:0000000000000028 .LASF82
     /tmp/ccX7bAak.s:3592   .debug_str:0000000000000873 .LASF32
     /tmp/ccX7bAak.s:3388   .debug_str:000000000000027e .LASF33
     /tmp/ccX7bAak.s:3606   .debug_str:00000000000008af .LASF35
     /tmp/ccX7bAak.s:3396   .debug_str:00000000000002a4 .LASF34
     /tmp/ccX7bAak.s:3614   .debug_str:0000000000000907 .LASF36
     /tmp/ccX7bAak.s:3344   .debug_str:000000000000014a .LASF37
     /tmp/ccX7bAak.s:3702   .debug_str:0000000000000c5d .LASF38
     /tmp/ccX7bAak.s:3440   .debug_str:000000000000042c .LASF39
     /tmp/ccX7bAak.s:3750   .debug_str:0000000000000db5 .LASF40
     /tmp/ccX7bAak.s:3706   .debug_str:0000000000000c8a .LASF42
     /tmp/ccX7bAak.s:3666   .debug_str:0000000000000ab8 .LASF44
     /tmp/ccX7bAak.s:3604   .debug_str:00000000000008a5 .LASF46
     /tmp/ccX7bAak.s:3774   .debug_str:0000000000000e8e .LASF48
     /tmp/ccX7bAak.s:3662   .debug_str:0000000000000aa5 .LASF49
GAS LISTING /tmp/ccX7bAak.s 			page 14


     /tmp/ccX7bAak.s:3574   .debug_str:00000000000007f5 .LASF50
     /tmp/ccX7bAak.s:3734   .debug_str:0000000000000d56 .LASF51
     /tmp/ccX7bAak.s:3736   .debug_str:0000000000000d5e .LASF52
     /tmp/ccX7bAak.s:3632   .debug_str:00000000000009bb .LASF53
     /tmp/ccX7bAak.s:3772   .debug_str:0000000000000e7a .LASF54
     /tmp/ccX7bAak.s:3356   .debug_str:00000000000001a4 .LASF55
     /tmp/ccX7bAak.s:3762   .debug_str:0000000000000e22 .LASF56
     /tmp/ccX7bAak.s:3502   .debug_str:00000000000005c7 .LASF57
     /tmp/ccX7bAak.s:3670   .debug_str:0000000000000ad7 .LASF58
     /tmp/ccX7bAak.s:3590   .debug_str:000000000000086a .LASF59
     /tmp/ccX7bAak.s:3508   .debug_str:00000000000005fe .LASF60
     /tmp/ccX7bAak.s:3740   .debug_str:0000000000000d7d .LASF61
     /tmp/ccX7bAak.s:3570   .debug_str:00000000000007c7 .LASF62
     /tmp/ccX7bAak.s:3550   .debug_str:0000000000000756 .LASF63
     /tmp/ccX7bAak.s:3518   .debug_str:0000000000000641 .LASF64
     /tmp/ccX7bAak.s:3412   .debug_str:000000000000033a .LASF65
     /tmp/ccX7bAak.s:3650   .debug_str:0000000000000a50 .LASF66
     /tmp/ccX7bAak.s:3694   .debug_str:0000000000000c36 .LASF67
     /tmp/ccX7bAak.s:3370   .debug_str:00000000000001f5 .LASF68
     /tmp/ccX7bAak.s:3746   .debug_str:0000000000000da4 .LASF69
     /tmp/ccX7bAak.s:3712   .debug_str:0000000000000cca .LASF70
     /tmp/ccX7bAak.s:3476   .debug_str:0000000000000522 .LASF71
     /tmp/ccX7bAak.s:3710   .debug_str:0000000000000cb4 .LASF72
     /tmp/ccX7bAak.s:3690   .debug_str:0000000000000c1a .LASF73
     /tmp/ccX7bAak.s:3692   .debug_str:0000000000000c22 .LASF74
     /tmp/ccX7bAak.s:3386   .debug_str:0000000000000272 .LASF75
     /tmp/ccX7bAak.s:3760   .debug_str:0000000000000e09 .LASF76
     /tmp/ccX7bAak.s:3596   .debug_str:0000000000000884 .LASF77
     /tmp/ccX7bAak.s:3506   .debug_str:00000000000005e6 .LASF78
     /tmp/ccX7bAak.s:3452   .debug_str:000000000000047d .LASF79
     /tmp/ccX7bAak.s:3402   .debug_str:00000000000002c9 .LASF80
     /tmp/ccX7bAak.s:3730   .debug_str:0000000000000d43 .LASF81
     /tmp/ccX7bAak.s:3400   .debug_str:00000000000002c3 .LASF83
     /tmp/ccX7bAak.s:3480   .debug_str:000000000000053f .LASF84
     /tmp/ccX7bAak.s:3364   .debug_str:00000000000001d1 .LASF85
     /tmp/ccX7bAak.s:3584   .debug_str:0000000000000848 .LASF86
     /tmp/ccX7bAak.s:3342   .debug_str:0000000000000141 .LASF87
     /tmp/ccX7bAak.s:3512   .debug_str:000000000000061f .LASF88
     /tmp/ccX7bAak.s:3366   .debug_str:00000000000001da .LASF90
     /tmp/ccX7bAak.s:3742   .debug_str:0000000000000d86 .LASF91
     /tmp/ccX7bAak.s:3682   .debug_str:0000000000000bd6 .LASF92
     /tmp/ccX7bAak.s:3678   .debug_str:0000000000000b0a .LASF94
     /tmp/ccX7bAak.s:3352   .debug_str:000000000000018a .LASF95
     /tmp/ccX7bAak.s:3416   .debug_str:0000000000000351 .LASF96
     /tmp/ccX7bAak.s:3494   .debug_str:000000000000059a .LASF97
     /tmp/ccX7bAak.s:3498   .debug_str:00000000000005ad .LASF98
     /tmp/ccX7bAak.s:3392   .debug_str:0000000000000296 .LASF99
     /tmp/ccX7bAak.s:3368   .debug_str:00000000000001e2 .LASF100
     /tmp/ccX7bAak.s:3496   .debug_str:00000000000005a0 .LASF101
     /tmp/ccX7bAak.s:3718   .debug_str:0000000000000cfa .LASF102
     /tmp/ccX7bAak.s:3698   .debug_str:0000000000000c4a .LASF103
     /tmp/ccX7bAak.s:3504   .debug_str:00000000000005d0 .LASF104
     /tmp/ccX7bAak.s:3446   .debug_str:0000000000000452 .LASF105
     /tmp/ccX7bAak.s:3660   .debug_str:0000000000000a8f .LASF106
     /tmp/ccX7bAak.s:3516   .debug_str:000000000000063a .LASF107
     /tmp/ccX7bAak.s:3378   .debug_str:0000000000000231 .LASF108
     /tmp/ccX7bAak.s:3624   .debug_str:000000000000097f .LASF109
GAS LISTING /tmp/ccX7bAak.s 			page 15


     /tmp/ccX7bAak.s:3312   .debug_str:0000000000000035 .LASF110
     /tmp/ccX7bAak.s:3764   .debug_str:0000000000000e37 .LASF111
     /tmp/ccX7bAak.s:3438   .debug_str:0000000000000420 .LASF112
     /tmp/ccX7bAak.s:3308   .debug_str:0000000000000018 .LASF113
     /tmp/ccX7bAak.s:3556   .debug_str:0000000000000771 .LASF114
     /tmp/ccX7bAak.s:3634   .debug_str:00000000000009c3 .LASF115
     /tmp/ccX7bAak.s:3610   .debug_str:00000000000008e8 .LASF116
     /tmp/ccX7bAak.s:3334   .debug_str:00000000000000e3 .LASF117
     /tmp/ccX7bAak.s:3616   .debug_str:0000000000000925 .LASF118
     /tmp/ccX7bAak.s:3482   .debug_str:0000000000000548 .LASF119
     /tmp/ccX7bAak.s:3398   .debug_str:00000000000002b5 .LASF120
     /tmp/ccX7bAak.s:3600   .debug_str:0000000000000894 .LASF121
     /tmp/ccX7bAak.s:3390   .debug_str:000000000000028e .LASF122
     /tmp/ccX7bAak.s:3558   .debug_str:000000000000077e .LASF123
     /tmp/ccX7bAak.s:3636   .debug_str:00000000000009cc .LASF124
     /tmp/ccX7bAak.s:3700   .debug_str:0000000000000c55 .LASF125
     /tmp/ccX7bAak.s:3534   .debug_str:00000000000006e7 .LASF126
     /tmp/ccX7bAak.s:3768   .debug_str:0000000000000e4c .LASF230
     /tmp/ccX7bAak.s:3384   .debug_str:0000000000000264 .LASF155
     /tmp/ccX7bAak.s:3340   .debug_str:0000000000000119 .LASF157
     /tmp/ccX7bAak.s:3720   .debug_str:0000000000000d13 .LASF231
     /tmp/ccX7bAak.s:3322   .debug_str:000000000000008b .LASF232
     /tmp/ccX7bAak.s:3560   .debug_str:0000000000000783 .LASF127
     /tmp/ccX7bAak.s:3688   .debug_str:0000000000000c03 .LASF128
     /tmp/ccX7bAak.s:3752   .debug_str:0000000000000dca .LASF129
     /tmp/ccX7bAak.s:3394   .debug_str:000000000000029f .LASF130
     /tmp/ccX7bAak.s:3464   .debug_str:00000000000004bf .LASF131
     /tmp/ccX7bAak.s:3658   .debug_str:0000000000000a88 .LASF132
     /tmp/ccX7bAak.s:3580   .debug_str:000000000000081a .LASF133
     /tmp/ccX7bAak.s:3630   .debug_str:00000000000009b1 .LASF134
     /tmp/ccX7bAak.s:3470   .debug_str:00000000000004ef .LASF135
     /tmp/ccX7bAak.s:3562   .debug_str:000000000000078f .LASF136
     /tmp/ccX7bAak.s:3428   .debug_str:00000000000003ae .LASF137
     /tmp/ccX7bAak.s:3728   .debug_str:0000000000000d3b .LASF138
     /tmp/ccX7bAak.s:3350   .debug_str:0000000000000176 .LASF139
     /tmp/ccX7bAak.s:3554   .debug_str:000000000000076c .LASF140
     /tmp/ccX7bAak.s:3514   .debug_str:0000000000000627 .LASF141
     /tmp/ccX7bAak.s:3448   .debug_str:000000000000045d .LASF142
     /tmp/ccX7bAak.s:3348   .debug_str:0000000000000162 .LASF143
     /tmp/ccX7bAak.s:3432   .debug_str:00000000000003d5 .LASF144
     /tmp/ccX7bAak.s:3652   .debug_str:0000000000000a63 .LASF145
     /tmp/ccX7bAak.s:3602   .debug_str:000000000000089f .LASF146
     /tmp/ccX7bAak.s:3500   .debug_str:00000000000005c2 .LASF147
     /tmp/ccX7bAak.s:3510   .debug_str:0000000000000613 .LASF165
     /tmp/ccX7bAak.s:3460   .debug_str:00000000000004ac .LASF148
     /tmp/ccX7bAak.s:3414   .debug_str:0000000000000341 .LASF149
     /tmp/ccX7bAak.s:3758   .debug_str:0000000000000e01 .LASF150
     /tmp/ccX7bAak.s:3626   .debug_str:0000000000000984 .LASF151
     /tmp/ccX7bAak.s:3454   .debug_str:0000000000000488 .LASF152
     /tmp/ccX7bAak.s:3578   .debug_str:0000000000000812 .LASF153
     /tmp/ccX7bAak.s:3302   .debug_str:0000000000000000 .LASF154
     /tmp/ccX7bAak.s:3766   .debug_str:0000000000000e44 .LASF156
     /tmp/ccX7bAak.s:3546   .debug_str:000000000000072a .LASF158
     /tmp/ccX7bAak.s:3568   .debug_str:00000000000007bc .LASF233
     /tmp/ccX7bAak.s:3548   .debug_str:000000000000073e .LASF234
     /tmp/ccX7bAak.s:3474   .debug_str:0000000000000516 .LASF159
     /tmp/ccX7bAak.s:3598   .debug_str:000000000000088f .LASF160
GAS LISTING /tmp/ccX7bAak.s 			page 16


     /tmp/ccX7bAak.s:3538   .debug_str:00000000000006fa .LASF161
     /tmp/ccX7bAak.s:3732   .debug_str:0000000000000d4c .LASF162
     /tmp/ccX7bAak.s:3536   .debug_str:00000000000006f5 .LASF163
     /tmp/ccX7bAak.s:3644   .debug_str:0000000000000a1f .LASF164
     /tmp/ccX7bAak.s:3404   .debug_str:00000000000002e1 .LASF166
     /tmp/ccX7bAak.s:3466   .debug_str:00000000000004d0 .LASF181
     /tmp/ccX7bAak.s:3486   .debug_str:000000000000056b .LASF167
     /tmp/ccX7bAak.s:3756   .debug_str:0000000000000deb .LASF168
     /tmp/ccX7bAak.s:3744   .debug_str:0000000000000d8e .LASF169
     /tmp/ccX7bAak.s:3382   .debug_str:000000000000025f .LASF235
     /tmp/ccX7bAak.s:3676   .debug_str:0000000000000b05 .LASF170
     /tmp/ccX7bAak.s:3544   .debug_str:0000000000000725 .LASF171
     /tmp/ccX7bAak.s:3304   .debug_str:000000000000000b .LASF172
     /tmp/ccX7bAak.s:3306   .debug_str:0000000000000011 .LASF173
     /tmp/ccX7bAak.s:3582   .debug_str:000000000000082d .LASF174
     /tmp/ccX7bAak.s:3674   .debug_str:0000000000000afa .LASF175
     /tmp/ccX7bAak.s:3374   .debug_str:0000000000000213 .LASF176
     /tmp/ccX7bAak.s:3540   .debug_str:0000000000000702 .LASF177
     /tmp/ccX7bAak.s:3420   .debug_str:0000000000000388 .LASF178
     /tmp/ccX7bAak.s:3484   .debug_str:0000000000000554 .LASF179
     /tmp/ccX7bAak.s:3572   .debug_str:00000000000007dc .LASF180
     /tmp/ccX7bAak.s:3646   .debug_str:0000000000000a32 .LASF182
     /tmp/ccX7bAak.s:3372   .debug_str:000000000000020d .LASF183
     /tmp/ccX7bAak.s:3608   .debug_str:00000000000008cc .LASF184
     /tmp/ccX7bAak.s:3648   .debug_str:0000000000000a4b .LASF185
     /tmp/ccX7bAak.s:3628   .debug_str:0000000000000996 .LASF186
     /tmp/ccX7bAak.s:3704   .debug_str:0000000000000c73 .LASF187
     /tmp/ccX7bAak.s:3450   .debug_str:0000000000000465 .LASF188
     /tmp/ccX7bAak.s:3324   .debug_str:000000000000009d .LASF189
     /tmp/ccX7bAak.s:3520   .debug_str:0000000000000654 .LASF190
     /tmp/ccX7bAak.s:3686   .debug_str:0000000000000bfc .LASF191
     /tmp/ccX7bAak.s:3668   .debug_str:0000000000000ad2 .LASF192
     /tmp/ccX7bAak.s:3328   .debug_str:00000000000000bb .LASF193
     /tmp/ccX7bAak.s:3522   .debug_str:0000000000000663 .LASF194
     /tmp/ccX7bAak.s:3684   .debug_str:0000000000000bdb .LASF195
     /tmp/ccX7bAak.s:3492   .debug_str:0000000000000588 .LASF196
     /tmp/ccX7bAak.s:3620   .debug_str:0000000000000963 .LASF197
     /tmp/ccX7bAak.s:3458   .debug_str:00000000000004a0 .LASF198
     /tmp/ccX7bAak.s:3320   .debug_str:000000000000007e .LASF199
     /tmp/ccX7bAak.s:3444   .debug_str:0000000000000443 .LASF200
     /tmp/ccX7bAak.s:3336   .debug_str:00000000000000ee .LASF201
     /tmp/ccX7bAak.s:3724   .debug_str:0000000000000d2b .LASF202
     /tmp/ccX7bAak.s:3410   .debug_str:000000000000031e .LASF203
     /tmp/ccX7bAak.s:3654   .debug_str:0000000000000a70 .LASF204
     /tmp/ccX7bAak.s:3380   .debug_str:0000000000000242 .LASF205
     /tmp/ccX7bAak.s:3594   .debug_str:0000000000000878 .LASF206
     /tmp/ccX7bAak.s:3708   .debug_str:0000000000000c97 .LASF207
     /tmp/ccX7bAak.s:3770   .debug_str:0000000000000e6f .LASF208
     /tmp/ccX7bAak.s:3638   .debug_str:00000000000009d2 .LASF209
     /tmp/ccX7bAak.s:3338   .debug_str:000000000000010e .LASF210
     /tmp/ccX7bAak.s:3346   .debug_str:0000000000000154 .LASF211
     /tmp/ccX7bAak.s:3552   .debug_str:000000000000075d .LASF212
     /tmp/ccX7bAak.s:3426   .debug_str:00000000000003a9 .LASF213
     /tmp/ccX7bAak.s:98     .text:0000000000000078 .LFB35
     /tmp/ccX7bAak.s:231    .text:0000000000000164 .LFE35
     /tmp/ccX7bAak.s:115    .text:0000000000000094 .LBB11
     /tmp/ccX7bAak.s:127    .text:0000000000000098 .LBE11
GAS LISTING /tmp/ccX7bAak.s 			page 17


     /tmp/ccX7bAak.s:151    .text:00000000000000d4 .LBB13
     /tmp/ccX7bAak.s:163    .text:00000000000000dc .LBE13
     /tmp/ccX7bAak.s:3251   .debug_loc:0000000000000000 .LLST2
     /tmp/ccX7bAak.s:184    .text:000000000000011c .LBB15
     /tmp/ccX7bAak.s:192    .text:0000000000000120 .LBE15
     /tmp/ccX7bAak.s:3259   .debug_loc:0000000000000024 .LLST3
     /tmp/ccX7bAak.s:131    .text:00000000000000a0 .LVL8
     /tmp/ccX7bAak.s:135    .text:00000000000000a8 .LVL9
     /tmp/ccX7bAak.s:143    .text:00000000000000c4 .LVL10
     /tmp/ccX7bAak.s:170    .text:00000000000000f8 .LVL13
     /tmp/ccX7bAak.s:177    .text:0000000000000114 .LVL14
     /tmp/ccX7bAak.s:199    .text:0000000000000130 .LVL17
     /tmp/ccX7bAak.s:207    .text:000000000000013c .LVL18
     /tmp/ccX7bAak.s:213    .text:0000000000000148 .LVL19
     /tmp/ccX7bAak.s:3542   .debug_str:0000000000000719 .LASF214
     /tmp/ccX7bAak.s:3456   .debug_str:000000000000048e .LASF215
     /tmp/ccX7bAak.s:67     .text:0000000000000050 .LFB34
     /tmp/ccX7bAak.s:92     .text:0000000000000078 .LFE34
     /tmp/ccX7bAak.s:81     .text:0000000000000068 .LVL5
     /tmp/ccX7bAak.s:3588   .debug_str:000000000000085b .LASF216
     /tmp/ccX7bAak.s:3318   .debug_str:0000000000000069 .LASF217
     /tmp/ccX7bAak.s:10     .text:0000000000000000 .LFB33
     /tmp/ccX7bAak.s:61     .text:0000000000000050 .LFE33
     /tmp/ccX7bAak.s:3266   .debug_loc:0000000000000047 .LLST0
     /tmp/ccX7bAak.s:27     .text:0000000000000014 .LBB9
     /tmp/ccX7bAak.s:39     .text:000000000000002c .LBE9
     /tmp/ccX7bAak.s:3280   .debug_loc:0000000000000080 .LLST1
     /tmp/ccX7bAak.s:31     .text:000000000000001c .LVL2
     /tmp/ccX7bAak.s:55     .text:000000000000004c .LVL4
     /tmp/ccX7bAak.s:3424   .debug_str:00000000000003a4 .LASF236
     /tmp/ccX7bAak.s:3726   .debug_str:0000000000000d36 .LASF218
     /tmp/ccX7bAak.s:3434   .debug_str:00000000000003e1 .LASF219
     /tmp/ccX7bAak.s:3716   .debug_str:0000000000000cec .LASF221
     /tmp/ccX7bAak.s:3530   .debug_str:00000000000006ab .LASF220
     /tmp/ccX7bAak.s:3722   .debug_str:0000000000000d1b .LASF222
     /tmp/ccX7bAak.s:3524   .debug_str:0000000000000673 .LASF223
     /tmp/ccX7bAak.s:3696   .debug_str:0000000000000c41 .LASF224
     /tmp/ccX7bAak.s:150    .text:00000000000000d4 .LVL11
     /tmp/ccX7bAak.s:160    .text:00000000000000dc .LVL12
     /tmp/ccX7bAak.s:183    .text:000000000000011c .LVL15
     /tmp/ccX7bAak.s:190    .text:0000000000000120 .LVL16
     /tmp/ccX7bAak.s:14     .text:0000000000000000 .LVL0
     /tmp/ccX7bAak.s:24     .text:0000000000000014 .LVL1
     /tmp/ccX7bAak.s:37     .text:000000000000002c .LVL3
     /tmp/ccX7bAak.s:261    .debug_info:0000000000000000 .Ldebug_info0

UNDEFINED SYMBOLS
_ZN9myConsole11output_getcEv
CONSOLE_TX_DATA
CONSOLE_STATUS
_Z15thread_dispatchv
_Z8userMainv
_ZN5RISCV15supervisor_trapEv
_ZN15MemoryAllocator14init_allocatorEv
_ZN9myConsole14init_myconsoleEv
_Z13thread_createPP3TCBPFvPvES2_
_ZN3TCB7runningE
GAS LISTING /tmp/ccX7bAak.s 			page 18


_ZN9myConsole15no_work_for_conEv
