GAS LISTING /tmp/ccvK7vaS.s 			page 1


   1              		.file	"main.cpp"
   2              		.option pic
   3              		.option norelax
   4              		.text
   5              	.Ltext0:
   6              		.align	2
   7              		.globl	_Z14handleNewCharsPv
   9              	_Z14handleNewCharsPv:
  10              	.LFB33:
  11              		.file 1 "src/main.cpp"
   1:src/main.cpp  **** 
   2:src/main.cpp  **** #include "../h/Memoryallocator.hpp"
   3:src/main.cpp  **** #include "../h/Scheduler.hpp"
   4:src/main.cpp  **** #include "../h/Console.hpp"
   5:src/main.cpp  **** 
   6:src/main.cpp  **** thread_t mainThread;
   7:src/main.cpp  **** thread_t consoleThread;
   8:src/main.cpp  **** thread_t userMainThread;
   9:src/main.cpp  **** 
  10:src/main.cpp  **** void handleNewChars(void * args) {
  12              		.loc 1 10 34
  13              		.cfi_startproc
  14              	.LVL0:
  15 0000 130101FF 		addi	sp,sp,-16
  16              		.cfi_def_cfa_offset 16
  17 0004 23341100 		sd	ra,8(sp)
  18 0008 23308100 		sd	s0,0(sp)
  19              		.cfi_offset 1, -8
  20              		.cfi_offset 8, -16
  21 000c 13040101 		addi	s0,sp,16
  22              		.cfi_def_cfa 8, 0
  23 0010 6F00C001 		j	.L2
  24              	.LVL1:
  25              	.L6:
  26              	.LBB8:
  27              	.LBB9:
  11:src/main.cpp  **** 
  12:src/main.cpp  ****     while (true) {
  13:src/main.cpp  ****         while (*(char *) CONSOLE_STATUS & CONSOLE_TX_STATUS_BIT) {
  14:src/main.cpp  ****             // console controller is ready for new char
  15:src/main.cpp  ****             char c = myConsole::output_getc();
  28              		.loc 1 15 13
  29              		.loc 1 15 44 is_stmt 0
  30 0014 97000000 		call	_ZN9myConsole11output_getcEv@plt
  30      E7800000 
  31              	.LVL2:
  16:src/main.cpp  **** //            if (c == '\r') continue;
  17:src/main.cpp  ****             *(char *) CONSOLE_TX_DATA = c;
  32              		.loc 1 17 13 is_stmt 1
  33 001c 97070000 		la	a5,CONSOLE_TX_DATA
  33      83B70700 
  34 0024 83B70700 		ld	a5,0(a5)
  35              		.loc 1 17 39 is_stmt 0
  36 0028 2380A700 		sb	a0,0(a5)
  37              	.LVL3:
  38              	.L2:
  39              	.LBE9:
GAS LISTING /tmp/ccvK7vaS.s 			page 2


  40              	.LBE8:
  12:src/main.cpp  ****         while (*(char *) CONSOLE_STATUS & CONSOLE_TX_STATUS_BIT) {
  41              		.loc 1 12 5 is_stmt 1
  42              	.LBB10:
  13:src/main.cpp  ****             // console controller is ready for new char
  43              		.loc 1 13 9
  13:src/main.cpp  ****             // console controller is ready for new char
  44              		.loc 1 13 43
  13:src/main.cpp  ****             // console controller is ready for new char
  45              		.loc 1 13 16 is_stmt 0
  46 002c 97070000 		la	a5,CONSOLE_STATUS
  46      83B70700 
  47 0034 83B70700 		ld	a5,0(a5)
  48 0038 83C70700 		lbu	a5,0(a5)
  13:src/main.cpp  ****             // console controller is ready for new char
  49              		.loc 1 13 43
  50 003c 93F70702 		andi	a5,a5,32
  51 0040 E39A07FC 		bnez	a5,.L6
  18:src/main.cpp  ****             // pop from output buffer and wr to TX DATA
  19:src/main.cpp  ****         }
  20:src/main.cpp  **** 
  21:src/main.cpp  ****         // no more work to do, move on
  22:src/main.cpp  ****         thread_dispatch();
  52              		.loc 1 22 9 is_stmt 1
  53              		.loc 1 22 24 is_stmt 0
  54 0044 97000000 		call	_Z15thread_dispatchv@plt
  54      E7800000 
  55              	.LVL4:
  56              	.LBE10:
  12:src/main.cpp  ****         while (*(char *) CONSOLE_STATUS & CONSOLE_TX_STATUS_BIT) {
  57              		.loc 1 12 5 is_stmt 1
  23:src/main.cpp  ****     }
  58              		.loc 1 23 5 is_stmt 0
  59 004c 6FF01FFE 		j	.L2
  60              		.cfi_endproc
  61              	.LFE33:
  63              		.align	2
  64              		.globl	_Z11userWrapperPv
  66              	_Z11userWrapperPv:
  67              	.LFB34:
  24:src/main.cpp  **** }
  25:src/main.cpp  **** 
  26:src/main.cpp  **** extern void userMain();
  27:src/main.cpp  **** 
  28:src/main.cpp  **** void userWrapper(void* args) {
  68              		.loc 1 28 30 is_stmt 1
  69              		.cfi_startproc
  70              	.LVL5:
  71 0050 130101FF 		addi	sp,sp,-16
  72              		.cfi_def_cfa_offset 16
  73 0054 23341100 		sd	ra,8(sp)
  74 0058 23308100 		sd	s0,0(sp)
  75              		.cfi_offset 1, -8
  76              		.cfi_offset 8, -16
  77 005c 13040101 		addi	s0,sp,16
  78              		.cfi_def_cfa 8, 0
  29:src/main.cpp  ****     userMain();
GAS LISTING /tmp/ccvK7vaS.s 			page 3


  79              		.loc 1 29 5
  80              		.loc 1 29 13 is_stmt 0
  81 0060 97000000 		call	_Z8userMainv@plt
  81      E7800000 
  82              	.LVL6:
  30:src/main.cpp  **** }
  83              		.loc 1 30 1
  84 0068 83308100 		ld	ra,8(sp)
  85              		.cfi_restore 1
  86 006c 03340100 		ld	s0,0(sp)
  87              		.cfi_restore 8
  88              		.cfi_def_cfa 2, 16
  89 0070 13010101 		addi	sp,sp,16
  90              		.cfi_def_cfa_offset 0
  91 0074 67800000 		jr	ra
  92              		.cfi_endproc
  93              	.LFE34:
  95              		.align	2
  96              		.globl	main
  98              	main:
  99              	.LFB35:
  31:src/main.cpp  **** 
  32:src/main.cpp  **** int main() {
 100              		.loc 1 32 12 is_stmt 1
 101              		.cfi_startproc
 102 0078 130101FE 		addi	sp,sp,-32
 103              		.cfi_def_cfa_offset 32
 104 007c 233C1100 		sd	ra,24(sp)
 105 0080 23388100 		sd	s0,16(sp)
 106 0084 23349100 		sd	s1,8(sp)
 107              		.cfi_offset 1, -8
 108              		.cfi_offset 8, -16
 109              		.cfi_offset 9, -24
 110 0088 13040102 		addi	s0,sp,32
 111              		.cfi_def_cfa 8, 0
  33:src/main.cpp  **** 
  34:src/main.cpp  ****     RISCV::wr_stvec((uint64)&RISCV::supervisor_trap);
 112              		.loc 1 34 5
 113              		.loc 1 34 20 is_stmt 0
 114 008c 97070000 		la	a5,_ZN5RISCV15supervisor_trapEv
 114      83B70700 
 115              	.LVL7:
 116              	.LBB11:
 117              	.LBB12:
 118              		.file 2 "src/../h/../h/riscv.hpp"
   1:src/../h/../h/riscv.hpp **** //
   2:src/../h/../h/riscv.hpp **** // Created by os on 4/7/24.
   3:src/../h/../h/riscv.hpp **** //
   4:src/../h/../h/riscv.hpp **** 
   5:src/../h/../h/riscv.hpp **** #ifndef PROJECT_BASE_RISCV_HPP
   6:src/../h/../h/riscv.hpp **** #define PROJECT_BASE_RISCV_HPP
   7:src/../h/../h/riscv.hpp **** 
   8:src/../h/../h/riscv.hpp **** #include "../lib/hw.h"
   9:src/../h/../h/riscv.hpp **** 
  10:src/../h/../h/riscv.hpp **** class RISCV {
  11:src/../h/../h/riscv.hpp **** public:
  12:src/../h/../h/riscv.hpp **** 
GAS LISTING /tmp/ccvK7vaS.s 			page 4


  13:src/../h/../h/riscv.hpp ****     enum causes {
  14:src/../h/../h/riscv.hpp ****         SOFTWARE = 0x8000000000000001UL,
  15:src/../h/../h/riscv.hpp ****         EXTERNAL = 0x8000000000000009UL,
  16:src/../h/../h/riscv.hpp ****         U_ECALL  = 0x0000000000000008UL,
  17:src/../h/../h/riscv.hpp ****         S_ECALL  = 0x0000000000000009UL
  18:src/../h/../h/riscv.hpp ****     };
  19:src/../h/../h/riscv.hpp **** 
  20:src/../h/../h/riscv.hpp ****     static void supervisor_trap();
  21:src/../h/../h/riscv.hpp ****     static void handle_interrupt();
  22:src/../h/../h/riscv.hpp **** 
  23:src/../h/../h/riscv.hpp ****     static void push_regs();
  24:src/../h/../h/riscv.hpp ****     static void pop_regs();
  25:src/../h/../h/riscv.hpp **** 
  26:src/../h/../h/riscv.hpp ****     static uint64 return_value(uint64 value);
  27:src/../h/../h/riscv.hpp **** 
  28:src/../h/../h/riscv.hpp ****     static uint64 rd_scause();
  29:src/../h/../h/riscv.hpp ****     static void wr_scause(uint64 value);
  30:src/../h/../h/riscv.hpp **** 
  31:src/../h/../h/riscv.hpp ****     static uint64 rd_sepc();
  32:src/../h/../h/riscv.hpp ****     static void wr_sepc(uint64 value);
  33:src/../h/../h/riscv.hpp **** 
  34:src/../h/../h/riscv.hpp ****     static uint64 rd_stvec();
  35:src/../h/../h/riscv.hpp ****     static void wr_stvec(uint64 value);
  36:src/../h/../h/riscv.hpp **** 
  37:src/../h/../h/riscv.hpp ****     static uint64 rd_stval();
  38:src/../h/../h/riscv.hpp ****     static void wr_stval(uint64 value);
  39:src/../h/../h/riscv.hpp **** 
  40:src/../h/../h/riscv.hpp ****     static uint64 rd_sip();
  41:src/../h/../h/riscv.hpp ****     static void wr_sip(uint64 value);
  42:src/../h/../h/riscv.hpp **** 
  43:src/../h/../h/riscv.hpp ****     static uint64 rd_sstatus();
  44:src/../h/../h/riscv.hpp ****     static void wr_sstatus(uint64 value);
  45:src/../h/../h/riscv.hpp **** 
  46:src/../h/../h/riscv.hpp ****     static void clear_sip(uint64 mask);
  47:src/../h/../h/riscv.hpp ****     static void set_sip(uint64 mask);
  48:src/../h/../h/riscv.hpp **** 
  49:src/../h/../h/riscv.hpp ****     static void mask_status(uint64 mask);
  50:src/../h/../h/riscv.hpp ****     static void set_status(uint64 mask);
  51:src/../h/../h/riscv.hpp **** 
  52:src/../h/../h/riscv.hpp ****     static void popSppSpie();
  53:src/../h/../h/riscv.hpp ****     // pop sstatus.spp and sstatus.spie bits
  54:src/../h/../h/riscv.hpp ****     // must be in cpp, not inline
  55:src/../h/../h/riscv.hpp **** 
  56:src/../h/../h/riscv.hpp ****     enum mask_sstatus {
  57:src/../h/../h/riscv.hpp ****         SIE = (1 << 1),
  58:src/../h/../h/riscv.hpp ****         SPIE =(1 << 5),
  59:src/../h/../h/riscv.hpp ****         SPP = (1 << 8)
  60:src/../h/../h/riscv.hpp ****     };
  61:src/../h/../h/riscv.hpp **** 
  62:src/../h/../h/riscv.hpp ****     enum mask_sip_sie {
  63:src/../h/../h/riscv.hpp ****         SS = (1 << 1),
  64:src/../h/../h/riscv.hpp ****         SE = (1 << 9)
  65:src/../h/../h/riscv.hpp ****     };
  66:src/../h/../h/riscv.hpp **** 
  67:src/../h/../h/riscv.hpp **** };
  68:src/../h/../h/riscv.hpp **** 
  69:src/../h/../h/riscv.hpp **** inline uint64 RISCV::rd_scause() {
GAS LISTING /tmp/ccvK7vaS.s 			page 5


  70:src/../h/../h/riscv.hpp ****     uint64 volatile value;
  71:src/../h/../h/riscv.hpp ****     __asm__ volatile ("csrr %0, scause" : "=r"(value));
  72:src/../h/../h/riscv.hpp ****     return value;
  73:src/../h/../h/riscv.hpp **** }
  74:src/../h/../h/riscv.hpp **** 
  75:src/../h/../h/riscv.hpp **** inline void RISCV::wr_scause(uint64 value) {
  76:src/../h/../h/riscv.hpp ****     __asm__ volatile ("csrw scause, %0" : : "r"(value));
  77:src/../h/../h/riscv.hpp **** }
  78:src/../h/../h/riscv.hpp **** 
  79:src/../h/../h/riscv.hpp **** inline uint64 RISCV::rd_sepc() {
  80:src/../h/../h/riscv.hpp ****     uint64 volatile value;
  81:src/../h/../h/riscv.hpp ****     __asm__ volatile ("csrr %0, sepc" : "=r"(value));
  82:src/../h/../h/riscv.hpp ****     return value;
  83:src/../h/../h/riscv.hpp **** }
  84:src/../h/../h/riscv.hpp **** 
  85:src/../h/../h/riscv.hpp **** inline void RISCV::wr_sepc(uint64 value) {
  86:src/../h/../h/riscv.hpp ****     __asm__ volatile ("csrw sepc, %0" : : "r"(value));
  87:src/../h/../h/riscv.hpp **** }
  88:src/../h/../h/riscv.hpp **** 
  89:src/../h/../h/riscv.hpp **** inline uint64 RISCV::rd_stvec() {
  90:src/../h/../h/riscv.hpp ****     uint64 volatile value;
  91:src/../h/../h/riscv.hpp ****     __asm__ volatile ("csrr %0, stvec" : "=r"(value));
  92:src/../h/../h/riscv.hpp ****     return value;
  93:src/../h/../h/riscv.hpp **** }
  94:src/../h/../h/riscv.hpp **** 
  95:src/../h/../h/riscv.hpp **** inline void RISCV::wr_stvec(uint64 value) {
  96:src/../h/../h/riscv.hpp ****     __asm__ volatile ("csrw stvec, %0" : : "r"(value));
 119              		.loc 2 96 5 is_stmt 1
 120              		.loc 2 96 55 is_stmt 0
 121              	#APP
 122              	# 96 "src/../h/../h/riscv.hpp" 1
  97              	}
 123              		csrw stvec, a5
 124              	# 0 "" 2
 125              	.LVL8:
 126              	#NO_APP
 127              	.LBE12:
 128              	.LBE11:
  35:src/main.cpp  **** 
  36:src/main.cpp  ****     MemoryAllocator::init_allocator();
 129              		.loc 1 36 5 is_stmt 1
 130              		.loc 1 36 36 is_stmt 0
 131 0098 97000000 		call	_ZN15MemoryAllocator14init_allocatorEv@plt
 131      E7800000 
 132              	.LVL9:
  37:src/main.cpp  ****     myConsole::init_myconsole();
 133              		.loc 1 37 5 is_stmt 1
 134              		.loc 1 37 30 is_stmt 0
 135 00a0 97000000 		call	_ZN9myConsole14init_myconsoleEv@plt
 135      E7800000 
 136              	.LVL10:
  38:src/main.cpp  **** 
  39:src/main.cpp  ****     thread_create(&mainThread, nullptr, nullptr); // main
 137              		.loc 1 39 5 is_stmt 1
 138              		.loc 1 39 18 is_stmt 0
 139 00a8 97040000 		lla	s1,.LANCHOR0
 139      93840400 
GAS LISTING /tmp/ccvK7vaS.s 			page 6


 140 00b0 13060000 		li	a2,0
 141 00b4 93050000 		li	a1,0
 142 00b8 13850400 		mv	a0,s1
 143 00bc 97000000 		call	_Z13thread_createPP3TCBPFvPvES2_@plt
 143      E7800000 
 144              	.LVL11:
  40:src/main.cpp  **** 
  41:src/main.cpp  ****     TCB::running = mainThread;
 145              		.loc 1 41 5 is_stmt 1
 146              		.loc 1 41 18 is_stmt 0
 147 00c4 03B70400 		ld	a4,0(s1)
 148 00c8 97070000 		la	a5,_ZN3TCB7runningE
 148      83B70700 
 149 00d0 23B0E700 		sd	a4,0(a5)
  42:src/main.cpp  **** 
  43:src/main.cpp  ****     RISCV::set_status(RISCV::SIE); // interrupts enabled
 150              		.loc 1 43 5 is_stmt 1
 151              	.LVL12:
 152              	.LBB13:
 153              	.LBB14:
  98:src/../h/../h/riscv.hpp **** 
  99:src/../h/../h/riscv.hpp **** inline uint64 RISCV::rd_stval() {
 100:src/../h/../h/riscv.hpp ****     uint64 volatile value;
 101:src/../h/../h/riscv.hpp ****     __asm__ volatile ("csrr %0, stval" : "=r"(value));
 102:src/../h/../h/riscv.hpp ****     return value;
 103:src/../h/../h/riscv.hpp **** }
 104:src/../h/../h/riscv.hpp **** 
 105:src/../h/../h/riscv.hpp **** inline void RISCV::wr_stval(uint64 value) {
 106:src/../h/../h/riscv.hpp ****     __asm__ volatile ("csrw stval, %0" : : "r"(value));
 107:src/../h/../h/riscv.hpp **** }
 108:src/../h/../h/riscv.hpp **** 
 109:src/../h/../h/riscv.hpp **** inline uint64 RISCV::rd_sip() {
 110:src/../h/../h/riscv.hpp ****     uint64 volatile value;
 111:src/../h/../h/riscv.hpp ****     __asm__ volatile ("csrr %0, sip" : "=r"(value));
 112:src/../h/../h/riscv.hpp ****     return value;
 113:src/../h/../h/riscv.hpp **** }
 114:src/../h/../h/riscv.hpp **** 
 115:src/../h/../h/riscv.hpp **** inline void RISCV::wr_sip(uint64 value) {
 116:src/../h/../h/riscv.hpp ****     __asm__ volatile ("csrw sip, %0" : : "r"(value));
 117:src/../h/../h/riscv.hpp **** }
 118:src/../h/../h/riscv.hpp **** 
 119:src/../h/../h/riscv.hpp **** inline uint64 RISCV::rd_sstatus() {
 120:src/../h/../h/riscv.hpp ****     uint64 volatile value;
 121:src/../h/../h/riscv.hpp ****     __asm__ volatile ("csrr %0, sstatus" : "=r"(value));
 122:src/../h/../h/riscv.hpp ****     return value;
 123:src/../h/../h/riscv.hpp **** }
 124:src/../h/../h/riscv.hpp **** 
 125:src/../h/../h/riscv.hpp **** inline void RISCV::wr_sstatus(uint64 value) {
 126:src/../h/../h/riscv.hpp ****     __asm__ volatile ("csrw sstatus, %0" : : "r"(value));
 127:src/../h/../h/riscv.hpp **** }
 128:src/../h/../h/riscv.hpp **** 
 129:src/../h/../h/riscv.hpp **** inline void RISCV::clear_sip(uint64 mask) {
 130:src/../h/../h/riscv.hpp ****     __asm__ volatile("csrc sip, %0" : : "r"(mask));
 131:src/../h/../h/riscv.hpp **** }
 132:src/../h/../h/riscv.hpp **** 
 133:src/../h/../h/riscv.hpp **** inline void RISCV::set_sip(uint64 mask) {
 134:src/../h/../h/riscv.hpp ****     __asm__ volatile("csrs sip, %0" : : "r"(mask));
GAS LISTING /tmp/ccvK7vaS.s 			page 7


 135:src/../h/../h/riscv.hpp **** }
 136:src/../h/../h/riscv.hpp **** 
 137:src/../h/../h/riscv.hpp **** inline void RISCV::mask_status(uint64 mask) {
 138:src/../h/../h/riscv.hpp ****     __asm__ volatile("csrc sstatus, %0" : : "r"(mask));
 139:src/../h/../h/riscv.hpp **** };
 140:src/../h/../h/riscv.hpp **** 
 141:src/../h/../h/riscv.hpp **** inline void RISCV::set_status(uint64 mask) {
 142:src/../h/../h/riscv.hpp ****     __asm__ volatile("csrs sstatus, %0" : : "r"(mask));
 154              		.loc 2 142 5
 155              		.loc 2 142 55 is_stmt 0
 156 00d4 93072000 		li	a5,2
 157              	#APP
 158              	# 142 "src/../h/../h/riscv.hpp" 1
 143              	}
 159              		csrs sstatus, a5
 160              	# 0 "" 2
 161              	.LVL13:
 162              	#NO_APP
 163              	.LBE14:
 164              	.LBE13:
  44:src/main.cpp  **** 
  45:src/main.cpp  ****     thread_create(&consoleThread, handleNewChars, nullptr);
 165              		.loc 1 45 5 is_stmt 1
 166              		.loc 1 45 18 is_stmt 0
 167 00dc 13060000 		li	a2,0
 168 00e0 97050000 		lla	a1,_Z14handleNewCharsPv
 168      93850500 
 169 00e8 17050000 		lla	a0,.LANCHOR0+8
 169      13050500 
 170 00f0 97000000 		call	_Z13thread_createPP3TCBPFvPvES2_@plt
 170      E7800000 
 171              	.LVL14:
  46:src/main.cpp  **** 
  47:src/main.cpp  ****     thread_create(&userMainThread, userWrapper, nullptr);
 172              		.loc 1 47 5 is_stmt 1
 173              		.loc 1 47 18 is_stmt 0
 174 00f8 13060000 		li	a2,0
 175 00fc 97050000 		lla	a1,_Z11userWrapperPv
 175      93850500 
 176 0104 17050000 		lla	a0,.LANCHOR0+16
 176      13050500 
 177 010c 97000000 		call	_Z13thread_createPP3TCBPFvPvES2_@plt
 177      E7800000 
 178              	.LVL15:
 179              	.L11:
  48:src/main.cpp  **** 
  49:src/main.cpp  ****      while (!userMainThread->isFinished()) thread_dispatch();
 180              		.loc 1 49 6 is_stmt 1 discriminator 2
 181              		.loc 1 49 13 discriminator 2
 182              		.loc 1 49 40 is_stmt 0 discriminator 2
 183 0114 97070000 		ld	a5,.LANCHOR0+16
 183      83B70700 
 184              	.LVL16:
 185              	.LBB15:
 186              	.LBB16:
 187              		.file 3 "src/../h/thread.hpp"
   1:src/../h/thread.hpp **** //
GAS LISTING /tmp/ccvK7vaS.s 			page 8


   2:src/../h/thread.hpp **** // Created by os on 4/9/24.
   3:src/../h/thread.hpp **** //
   4:src/../h/thread.hpp **** 
   5:src/../h/thread.hpp **** #ifndef PROJECT_BASE_THREAD_HPP
   6:src/../h/thread.hpp **** #define PROJECT_BASE_THREAD_HPP
   7:src/../h/thread.hpp **** 
   8:src/../h/thread.hpp **** #include "../lib/hw.h"
   9:src/../h/thread.hpp **** #include "../h/Memoryallocator.hpp"
  10:src/../h/thread.hpp **** #include "../h/riscv.hpp"
  11:src/../h/thread.hpp **** #include "../h/syscall_c.hpp"
  12:src/../h/thread.hpp **** 
  13:src/../h/thread.hpp **** //extern void thread_dispatch();
  14:src/../h/thread.hpp **** 
  15:src/../h/thread.hpp **** using routine_ptr = void(*)(void *);
  16:src/../h/thread.hpp **** 
  17:src/../h/thread.hpp **** // _thread je wrapper ove klase
  18:src/../h/thread.hpp **** class TCB final {
  19:src/../h/thread.hpp **** 
  20:src/../h/thread.hpp ****     friend class RISCV;
  21:src/../h/thread.hpp ****     friend class Sem;
  22:src/../h/thread.hpp ****     friend class Scheduler;
  23:src/../h/thread.hpp **** 
  24:src/../h/thread.hpp **** public:
  25:src/../h/thread.hpp **** 
  26:src/../h/thread.hpp ****     static TCB* running; // current thread
  27:src/../h/thread.hpp **** 
  28:src/../h/thread.hpp ****     enum state {
  29:src/../h/thread.hpp ****         RUNNABLE,
  30:src/../h/thread.hpp ****         SLEEPING,
  31:src/../h/thread.hpp ****         CREATED,
  32:src/../h/thread.hpp ****         FINISHED,
  33:src/../h/thread.hpp ****         BLOCKED
  34:src/../h/thread.hpp ****     };
  35:src/../h/thread.hpp ****     struct Context {
  36:src/../h/thread.hpp ****         // nadogradi kasnije
  37:src/../h/thread.hpp ****         uint64 pc;
  38:src/../h/thread.hpp ****         uint64 sp;
  39:src/../h/thread.hpp ****         uint64 sstatus;
  40:src/../h/thread.hpp ****         uint64 sepc;
  41:src/../h/thread.hpp ****     };
  42:src/../h/thread.hpp **** 
  43:src/../h/thread.hpp ****     static int _threadCreate(TCB** handle, routine_ptr routine, void* args, void* stack_space); // 
  44:src/../h/thread.hpp **** 
  45:src/../h/thread.hpp ****     static void yield(TCB*, TCB*);
  46:src/../h/thread.hpp **** 
  47:src/../h/thread.hpp ****     static void dispatch();
  48:src/../h/thread.hpp **** 
  49:src/../h/thread.hpp ****     time_t getTimeSlice() const {return time_slice;}
  50:src/../h/thread.hpp **** 
  51:src/../h/thread.hpp ****     static bool isRunnable();
  52:src/../h/thread.hpp **** 
  53:src/../h/thread.hpp ****     bool isFinished() {return current_state == state::FINISHED;}
 188              		.loc 3 53 24 is_stmt 1 discriminator 2
 189              		.loc 3 53 31 is_stmt 0 discriminator 2
 190 011c 03A78706 		lw	a4,104(a5)
 191              	.LVL17:
 192              	.LBE16:
GAS LISTING /tmp/ccvK7vaS.s 			page 9


 193              	.LBE15:
 194              		.loc 1 49 13 discriminator 2
 195 0120 93073000 		li	a5,3
 196 0124 6308F700 		beq	a4,a5,.L10
 197              		.loc 1 49 44 is_stmt 1 discriminator 1
 198              		.loc 1 49 59 is_stmt 0 discriminator 1
 199 0128 97000000 		call	_Z15thread_dispatchv@plt
 199      E7800000 
 200              	.LVL18:
 201              		.loc 1 49 6 discriminator 1
 202 0130 6FF05FFE 		j	.L11
 203              	.L10:
  50:src/main.cpp  ****      while (!myConsole::no_work_for_con()) thread_dispatch();
 204              		.loc 1 50 6 is_stmt 1 discriminator 2
 205              		.loc 1 50 13 discriminator 2
 206              		.loc 1 50 40 is_stmt 0 discriminator 2
 207 0134 97000000 		call	_ZN9myConsole15no_work_for_conEv@plt
 207      E7800000 
 208              	.LVL19:
 209              		.loc 1 50 13 discriminator 2
 210 013c 63180500 		bnez	a0,.L12
 211              		.loc 1 50 44 is_stmt 1 discriminator 1
 212              		.loc 1 50 59 is_stmt 0 discriminator 1
 213 0140 97000000 		call	_Z15thread_dispatchv@plt
 213      E7800000 
 214              	.LVL20:
 215              		.loc 1 50 6 discriminator 1
 216 0148 6FF0DFFE 		j	.L10
 217              	.L12:
  51:src/main.cpp  **** 
  52:src/main.cpp  ****      return 0;
 218              		.loc 1 52 6 is_stmt 1
  53:src/main.cpp  **** }
 219              		.loc 1 53 1 is_stmt 0
 220 014c 13050000 		li	a0,0
 221 0150 83308101 		ld	ra,24(sp)
 222              		.cfi_restore 1
 223 0154 03340101 		ld	s0,16(sp)
 224              		.cfi_restore 8
 225              		.cfi_def_cfa 2, 32
 226 0158 83348100 		ld	s1,8(sp)
 227              		.cfi_restore 9
 228 015c 13010102 		addi	sp,sp,32
 229              		.cfi_def_cfa_offset 0
 230 0160 67800000 		jr	ra
 231              		.cfi_endproc
 232              	.LFE35:
 234              		.globl	userMainThread
 235              		.globl	consoleThread
 236              		.globl	mainThread
 237              		.bss
 238              		.align	3
 239              		.set	.LANCHOR0,. + 0
 242              	mainThread:
 243 0000 00000000 		.zero	8
 243      00000000 
 246              	consoleThread:
GAS LISTING /tmp/ccvK7vaS.s 			page 10


 247 0008 00000000 		.zero	8
 247      00000000 
 250              	userMainThread:
 251 0010 00000000 		.zero	8
 251      00000000 
 252              		.text
 253              	.Letext0:
 254              		.file 4 "src/../h/../lib/hw.h"
 255              		.file 5 "src/../h/Memoryallocator.hpp"
 256              		.file 6 "src/../h/../h/syscall_c.hpp"
 257              		.file 7 "src/../h/semaphore.hpp"
 258              		.file 8 "src/../h/List.hpp"
 259              		.file 9 "src/../h/BoundedBuffer.hpp"
 260              		.file 10 "src/../h/Console.hpp"
GAS LISTING /tmp/ccvK7vaS.s 			page 11


DEFINED SYMBOLS
                            *ABS*:0000000000000000 main.cpp
     /tmp/ccvK7vaS.s:9      .text:0000000000000000 _Z14handleNewCharsPv
     /tmp/ccvK7vaS.s:13     .text:0000000000000000 .L0 
     /tmp/ccvK7vaS.s:15     .text:0000000000000000 .L0 
     /tmp/ccvK7vaS.s:16     .text:0000000000000004 .L0 
     /tmp/ccvK7vaS.s:19     .text:000000000000000c .L0 
     /tmp/ccvK7vaS.s:20     .text:000000000000000c .L0 
     /tmp/ccvK7vaS.s:22     .text:0000000000000010 .L0 
     /tmp/ccvK7vaS.s:29     .text:0000000000000014 .L0 
     /tmp/ccvK7vaS.s:30     .text:0000000000000014 .L0 
     /tmp/ccvK7vaS.s:33     .text:000000000000001c .L0 
     /tmp/ccvK7vaS.s:36     .text:0000000000000028 .L0 
     /tmp/ccvK7vaS.s:43     .text:000000000000002c .L0 
     /tmp/ccvK7vaS.s:44     .text:000000000000002c .L0 
     /tmp/ccvK7vaS.s:45     .text:000000000000002c .L0 
     /tmp/ccvK7vaS.s:46     .text:000000000000002c .L0 
     /tmp/ccvK7vaS.s:50     .text:000000000000003c .L0 
     /tmp/ccvK7vaS.s:53     .text:0000000000000044 .L0 
     /tmp/ccvK7vaS.s:54     .text:0000000000000044 .L0 
     /tmp/ccvK7vaS.s:58     .text:000000000000004c .L0 
     /tmp/ccvK7vaS.s:59     .text:000000000000004c .L0 
     /tmp/ccvK7vaS.s:60     .text:0000000000000050 .L0 
     /tmp/ccvK7vaS.s:66     .text:0000000000000050 _Z11userWrapperPv
     /tmp/ccvK7vaS.s:69     .text:0000000000000050 .L0 
     /tmp/ccvK7vaS.s:71     .text:0000000000000050 .L0 
     /tmp/ccvK7vaS.s:72     .text:0000000000000054 .L0 
     /tmp/ccvK7vaS.s:75     .text:000000000000005c .L0 
     /tmp/ccvK7vaS.s:76     .text:000000000000005c .L0 
     /tmp/ccvK7vaS.s:78     .text:0000000000000060 .L0 
     /tmp/ccvK7vaS.s:80     .text:0000000000000060 .L0 
     /tmp/ccvK7vaS.s:81     .text:0000000000000060 .L0 
     /tmp/ccvK7vaS.s:84     .text:0000000000000068 .L0 
     /tmp/ccvK7vaS.s:85     .text:000000000000006c .L0 
     /tmp/ccvK7vaS.s:87     .text:0000000000000070 .L0 
     /tmp/ccvK7vaS.s:88     .text:0000000000000070 .L0 
     /tmp/ccvK7vaS.s:90     .text:0000000000000074 .L0 
     /tmp/ccvK7vaS.s:92     .text:0000000000000078 .L0 
     /tmp/ccvK7vaS.s:98     .text:0000000000000078 main
     /tmp/ccvK7vaS.s:101    .text:0000000000000078 .L0 
     /tmp/ccvK7vaS.s:102    .text:0000000000000078 .L0 
     /tmp/ccvK7vaS.s:103    .text:000000000000007c .L0 
     /tmp/ccvK7vaS.s:107    .text:0000000000000088 .L0 
     /tmp/ccvK7vaS.s:108    .text:0000000000000088 .L0 
     /tmp/ccvK7vaS.s:109    .text:0000000000000088 .L0 
     /tmp/ccvK7vaS.s:111    .text:000000000000008c .L0 
     /tmp/ccvK7vaS.s:113    .text:000000000000008c .L0 
     /tmp/ccvK7vaS.s:114    .text:000000000000008c .L0 
     /tmp/ccvK7vaS.s:120    .text:0000000000000094 .L0 
src/../h/../h/riscv.hpp:96     .text:0000000000000094 .L0 
     /tmp/ccvK7vaS.s:130    .text:0000000000000098 .L0 
     /tmp/ccvK7vaS.s:131    .text:0000000000000098 .L0 
     /tmp/ccvK7vaS.s:134    .text:00000000000000a0 .L0 
     /tmp/ccvK7vaS.s:135    .text:00000000000000a0 .L0 
     /tmp/ccvK7vaS.s:138    .text:00000000000000a8 .L0 
     /tmp/ccvK7vaS.s:139    .text:00000000000000a8 .L0 
     /tmp/ccvK7vaS.s:146    .text:00000000000000c4 .L0 
GAS LISTING /tmp/ccvK7vaS.s 			page 12


     /tmp/ccvK7vaS.s:147    .text:00000000000000c4 .L0 
     /tmp/ccvK7vaS.s:154    .text:00000000000000d4 .L0 
     /tmp/ccvK7vaS.s:155    .text:00000000000000d4 .L0 
     /tmp/ccvK7vaS.s:156    .text:00000000000000d4 .L0 
     /tmp/ccvK7vaS.s:166    .text:00000000000000dc .L0 
     /tmp/ccvK7vaS.s:167    .text:00000000000000dc .L0 
     /tmp/ccvK7vaS.s:173    .text:00000000000000f8 .L0 
     /tmp/ccvK7vaS.s:174    .text:00000000000000f8 .L0 
     /tmp/ccvK7vaS.s:181    .text:0000000000000114 .L0 
     /tmp/ccvK7vaS.s:182    .text:0000000000000114 .L0 
     /tmp/ccvK7vaS.s:183    .text:0000000000000114 .L0 
     /tmp/ccvK7vaS.s:189    .text:000000000000011c .L0 
     /tmp/ccvK7vaS.s:190    .text:000000000000011c .L0 
     /tmp/ccvK7vaS.s:195    .text:0000000000000120 .L0 
     /tmp/ccvK7vaS.s:198    .text:0000000000000128 .L0 
     /tmp/ccvK7vaS.s:199    .text:0000000000000128 .L0 
     /tmp/ccvK7vaS.s:202    .text:0000000000000130 .L0 
     /tmp/ccvK7vaS.s:205    .text:0000000000000134 .L0 
     /tmp/ccvK7vaS.s:206    .text:0000000000000134 .L0 
     /tmp/ccvK7vaS.s:207    .text:0000000000000134 .L0 
     /tmp/ccvK7vaS.s:210    .text:000000000000013c .L0 
     /tmp/ccvK7vaS.s:212    .text:0000000000000140 .L0 
     /tmp/ccvK7vaS.s:213    .text:0000000000000140 .L0 
     /tmp/ccvK7vaS.s:216    .text:0000000000000148 .L0 
     /tmp/ccvK7vaS.s:219    .text:000000000000014c .L0 
     /tmp/ccvK7vaS.s:220    .text:000000000000014c .L0 
     /tmp/ccvK7vaS.s:222    .text:0000000000000154 .L0 
     /tmp/ccvK7vaS.s:224    .text:0000000000000158 .L0 
     /tmp/ccvK7vaS.s:225    .text:0000000000000158 .L0 
     /tmp/ccvK7vaS.s:227    .text:000000000000015c .L0 
     /tmp/ccvK7vaS.s:229    .text:0000000000000160 .L0 
     /tmp/ccvK7vaS.s:231    .text:0000000000000164 .L0 
     /tmp/ccvK7vaS.s:250    .bss:0000000000000010 userMainThread
     /tmp/ccvK7vaS.s:246    .bss:0000000000000008 consoleThread
     /tmp/ccvK7vaS.s:242    .bss:0000000000000000 mainThread
     /tmp/ccvK7vaS.s:239    .bss:0000000000000000 .LANCHOR0
     /tmp/ccvK7vaS.s:261    .text:0000000000000164 .L0 
     /tmp/ccvK7vaS.s:33     .text:000000000000001c .L0 
     /tmp/ccvK7vaS.s:46     .text:000000000000002c .L0 
     /tmp/ccvK7vaS.s:114    .text:000000000000008c .L0 
     /tmp/ccvK7vaS.s:139    .text:00000000000000a8 .L0 
     /tmp/ccvK7vaS.s:148    .text:00000000000000c8 .L0 
     /tmp/ccvK7vaS.s:168    .text:00000000000000e0 .L0 
     /tmp/ccvK7vaS.s:169    .text:00000000000000e8 .L0 
     /tmp/ccvK7vaS.s:175    .text:00000000000000fc .L0 
     /tmp/ccvK7vaS.s:176    .text:0000000000000104 .L0 
     /tmp/ccvK7vaS.s:183    .text:0000000000000114 .L0 
     /tmp/ccvK7vaS.s:38     .text:000000000000002c .L2
     /tmp/ccvK7vaS.s:25     .text:0000000000000014 .L6
     /tmp/ccvK7vaS.s:203    .text:0000000000000134 .L10
     /tmp/ccvK7vaS.s:179    .text:0000000000000114 .L11
     /tmp/ccvK7vaS.s:217    .text:000000000000014c .L12
     /tmp/ccvK7vaS.s:2074   .debug_abbrev:0000000000000000 .Ldebug_abbrev0
     /tmp/ccvK7vaS.s:3689   .debug_str:0000000000000b12 .LASF225
     /tmp/ccvK7vaS.s:3431   .debug_str:0000000000000397 .LASF226
     /tmp/ccvK7vaS.s:3445   .debug_str:0000000000000402 .LASF227
     /tmp/ccvK7vaS.s:5      .text:0000000000000000 .Ltext0
GAS LISTING /tmp/ccvK7vaS.s 			page 13


     /tmp/ccvK7vaS.s:253    .text:0000000000000164 .Letext0
     /tmp/ccvK7vaS.s:3309   .debug_line:0000000000000000 .Ldebug_line0
     /tmp/ccvK7vaS.s:3471   .debug_str:00000000000004b2 .LASF0
     /tmp/ccvK7vaS.s:3499   .debug_str:0000000000000575 .LASF1
     /tmp/ccvK7vaS.s:3621   .debug_str:00000000000008f9 .LASF2
     /tmp/ccvK7vaS.s:3631   .debug_str:0000000000000978 .LASF4
     /tmp/ccvK7vaS.s:3481   .debug_str:0000000000000504 .LASF3
     /tmp/ccvK7vaS.s:3323   .debug_str:0000000000000041 .LASF5
     /tmp/ccvK7vaS.s:3585   .debug_str:000000000000080b .LASF6
     /tmp/ccvK7vaS.s:3575   .debug_str:00000000000007a9 .LASF7
     /tmp/ccvK7vaS.s:3487   .debug_str:000000000000052c .LASF8
     /tmp/ccvK7vaS.s:3439   .debug_str:00000000000003c5 .LASF9
     /tmp/ccvK7vaS.s:3451   .debug_str:0000000000000435 .LASF10
     /tmp/ccvK7vaS.s:3369   .debug_str:00000000000001bd .LASF11
     /tmp/ccvK7vaS.s:3427   .debug_str:0000000000000379 .LASF12
     /tmp/ccvK7vaS.s:3385   .debug_str:0000000000000221 .LASF13
     /tmp/ccvK7vaS.s:3367   .debug_str:00000000000001ad .LASF14
     /tmp/ccvK7vaS.s:3665   .debug_str:0000000000000a7c .LASF15
     /tmp/ccvK7vaS.s:3417   .debug_str:0000000000000308 .LASF16
     /tmp/ccvK7vaS.s:3651   .debug_str:0000000000000a09 .LASF17
     /tmp/ccvK7vaS.s:3573   .debug_str:0000000000000799 .LASF21
     /tmp/ccvK7vaS.s:3363   .debug_str:0000000000000198 .LASF89
     /tmp/ccvK7vaS.s:3371   .debug_str:00000000000001cc .LASF18
     /tmp/ccvK7vaS.s:3341   .debug_str:00000000000000de .LASF19
     /tmp/ccvK7vaS.s:3497   .debug_str:0000000000000570 .LASF20
     /tmp/ccvK7vaS.s:3339   .debug_str:00000000000000c5 .LASF22
     /tmp/ccvK7vaS.s:3649   .debug_str:00000000000009ee .LASF23
     /tmp/ccvK7vaS.s:3747   .debug_str:0000000000000d72 .LASF228
     /tmp/ccvK7vaS.s:3763   .debug_str:0000000000000dd0 .LASF229
     /tmp/ccvK7vaS.s:3681   .debug_str:0000000000000aec .LASF24
     /tmp/ccvK7vaS.s:3335   .debug_str:00000000000000ad .LASF25
     /tmp/ccvK7vaS.s:3477   .debug_str:00000000000004e5 .LASF26
     /tmp/ccvK7vaS.s:3627   .debug_str:0000000000000931 .LASF28
     /tmp/ccvK7vaS.s:3723   .debug_str:0000000000000ce2 .LASF93
     /tmp/ccvK7vaS.s:3415   .debug_str:00000000000002f9 .LASF45
     /tmp/ccvK7vaS.s:3541   .debug_str:00000000000006c0 .LASF47
     /tmp/ccvK7vaS.s:3535   .debug_str:0000000000000680 .LASF41
     /tmp/ccvK7vaS.s:3325   .debug_str:0000000000000048 .LASF43
     /tmp/ccvK7vaS.s:3673   .debug_str:0000000000000aaf .LASF27
     /tmp/ccvK7vaS.s:3537   .debug_str:000000000000068a .LASF29
     /tmp/ccvK7vaS.s:3595   .debug_str:0000000000000850 .LASF30
     /tmp/ccvK7vaS.s:3757   .debug_str:0000000000000daf .LASF31
     /tmp/ccvK7vaS.s:3319   .debug_str:0000000000000028 .LASF82
     /tmp/ccvK7vaS.s:3601   .debug_str:0000000000000873 .LASF32
     /tmp/ccvK7vaS.s:3397   .debug_str:000000000000027e .LASF33
     /tmp/ccvK7vaS.s:3615   .debug_str:00000000000008af .LASF35
     /tmp/ccvK7vaS.s:3405   .debug_str:00000000000002a4 .LASF34
     /tmp/ccvK7vaS.s:3623   .debug_str:0000000000000907 .LASF36
     /tmp/ccvK7vaS.s:3353   .debug_str:000000000000014a .LASF37
     /tmp/ccvK7vaS.s:3711   .debug_str:0000000000000c5d .LASF38
     /tmp/ccvK7vaS.s:3449   .debug_str:000000000000042c .LASF39
     /tmp/ccvK7vaS.s:3759   .debug_str:0000000000000db5 .LASF40
     /tmp/ccvK7vaS.s:3715   .debug_str:0000000000000c8a .LASF42
     /tmp/ccvK7vaS.s:3675   .debug_str:0000000000000ab8 .LASF44
     /tmp/ccvK7vaS.s:3613   .debug_str:00000000000008a5 .LASF46
     /tmp/ccvK7vaS.s:3783   .debug_str:0000000000000e8e .LASF48
     /tmp/ccvK7vaS.s:3671   .debug_str:0000000000000aa5 .LASF49
GAS LISTING /tmp/ccvK7vaS.s 			page 14


     /tmp/ccvK7vaS.s:3583   .debug_str:00000000000007f5 .LASF50
     /tmp/ccvK7vaS.s:3743   .debug_str:0000000000000d56 .LASF51
     /tmp/ccvK7vaS.s:3745   .debug_str:0000000000000d5e .LASF52
     /tmp/ccvK7vaS.s:3641   .debug_str:00000000000009bb .LASF53
     /tmp/ccvK7vaS.s:3781   .debug_str:0000000000000e7a .LASF54
     /tmp/ccvK7vaS.s:3365   .debug_str:00000000000001a4 .LASF55
     /tmp/ccvK7vaS.s:3771   .debug_str:0000000000000e22 .LASF56
     /tmp/ccvK7vaS.s:3511   .debug_str:00000000000005c7 .LASF57
     /tmp/ccvK7vaS.s:3679   .debug_str:0000000000000ad7 .LASF58
     /tmp/ccvK7vaS.s:3599   .debug_str:000000000000086a .LASF59
     /tmp/ccvK7vaS.s:3517   .debug_str:00000000000005fe .LASF60
     /tmp/ccvK7vaS.s:3749   .debug_str:0000000000000d7d .LASF61
     /tmp/ccvK7vaS.s:3579   .debug_str:00000000000007c7 .LASF62
     /tmp/ccvK7vaS.s:3559   .debug_str:0000000000000756 .LASF63
     /tmp/ccvK7vaS.s:3527   .debug_str:0000000000000641 .LASF64
     /tmp/ccvK7vaS.s:3421   .debug_str:000000000000033a .LASF65
     /tmp/ccvK7vaS.s:3659   .debug_str:0000000000000a50 .LASF66
     /tmp/ccvK7vaS.s:3703   .debug_str:0000000000000c36 .LASF67
     /tmp/ccvK7vaS.s:3379   .debug_str:00000000000001f5 .LASF68
     /tmp/ccvK7vaS.s:3755   .debug_str:0000000000000da4 .LASF69
     /tmp/ccvK7vaS.s:3721   .debug_str:0000000000000cca .LASF70
     /tmp/ccvK7vaS.s:3485   .debug_str:0000000000000522 .LASF71
     /tmp/ccvK7vaS.s:3719   .debug_str:0000000000000cb4 .LASF72
     /tmp/ccvK7vaS.s:3699   .debug_str:0000000000000c1a .LASF73
     /tmp/ccvK7vaS.s:3701   .debug_str:0000000000000c22 .LASF74
     /tmp/ccvK7vaS.s:3395   .debug_str:0000000000000272 .LASF75
     /tmp/ccvK7vaS.s:3769   .debug_str:0000000000000e09 .LASF76
     /tmp/ccvK7vaS.s:3605   .debug_str:0000000000000884 .LASF77
     /tmp/ccvK7vaS.s:3515   .debug_str:00000000000005e6 .LASF78
     /tmp/ccvK7vaS.s:3461   .debug_str:000000000000047d .LASF79
     /tmp/ccvK7vaS.s:3411   .debug_str:00000000000002c9 .LASF80
     /tmp/ccvK7vaS.s:3739   .debug_str:0000000000000d43 .LASF81
     /tmp/ccvK7vaS.s:3409   .debug_str:00000000000002c3 .LASF83
     /tmp/ccvK7vaS.s:3489   .debug_str:000000000000053f .LASF84
     /tmp/ccvK7vaS.s:3373   .debug_str:00000000000001d1 .LASF85
     /tmp/ccvK7vaS.s:3593   .debug_str:0000000000000848 .LASF86
     /tmp/ccvK7vaS.s:3351   .debug_str:0000000000000141 .LASF87
     /tmp/ccvK7vaS.s:3521   .debug_str:000000000000061f .LASF88
     /tmp/ccvK7vaS.s:3375   .debug_str:00000000000001da .LASF90
     /tmp/ccvK7vaS.s:3751   .debug_str:0000000000000d86 .LASF91
     /tmp/ccvK7vaS.s:3691   .debug_str:0000000000000bd6 .LASF92
     /tmp/ccvK7vaS.s:3687   .debug_str:0000000000000b0a .LASF94
     /tmp/ccvK7vaS.s:3361   .debug_str:000000000000018a .LASF95
     /tmp/ccvK7vaS.s:3425   .debug_str:0000000000000351 .LASF96
     /tmp/ccvK7vaS.s:3503   .debug_str:000000000000059a .LASF97
     /tmp/ccvK7vaS.s:3507   .debug_str:00000000000005ad .LASF98
     /tmp/ccvK7vaS.s:3401   .debug_str:0000000000000296 .LASF99
     /tmp/ccvK7vaS.s:3377   .debug_str:00000000000001e2 .LASF100
     /tmp/ccvK7vaS.s:3505   .debug_str:00000000000005a0 .LASF101
     /tmp/ccvK7vaS.s:3727   .debug_str:0000000000000cfa .LASF102
     /tmp/ccvK7vaS.s:3707   .debug_str:0000000000000c4a .LASF103
     /tmp/ccvK7vaS.s:3513   .debug_str:00000000000005d0 .LASF104
     /tmp/ccvK7vaS.s:3455   .debug_str:0000000000000452 .LASF105
     /tmp/ccvK7vaS.s:3669   .debug_str:0000000000000a8f .LASF106
     /tmp/ccvK7vaS.s:3525   .debug_str:000000000000063a .LASF107
     /tmp/ccvK7vaS.s:3387   .debug_str:0000000000000231 .LASF108
     /tmp/ccvK7vaS.s:3633   .debug_str:000000000000097f .LASF109
GAS LISTING /tmp/ccvK7vaS.s 			page 15


     /tmp/ccvK7vaS.s:3321   .debug_str:0000000000000035 .LASF110
     /tmp/ccvK7vaS.s:3773   .debug_str:0000000000000e37 .LASF111
     /tmp/ccvK7vaS.s:3447   .debug_str:0000000000000420 .LASF112
     /tmp/ccvK7vaS.s:3317   .debug_str:0000000000000018 .LASF113
     /tmp/ccvK7vaS.s:3565   .debug_str:0000000000000771 .LASF114
     /tmp/ccvK7vaS.s:3643   .debug_str:00000000000009c3 .LASF115
     /tmp/ccvK7vaS.s:3619   .debug_str:00000000000008e8 .LASF116
     /tmp/ccvK7vaS.s:3343   .debug_str:00000000000000e3 .LASF117
     /tmp/ccvK7vaS.s:3625   .debug_str:0000000000000925 .LASF118
     /tmp/ccvK7vaS.s:3491   .debug_str:0000000000000548 .LASF119
     /tmp/ccvK7vaS.s:3407   .debug_str:00000000000002b5 .LASF120
     /tmp/ccvK7vaS.s:3609   .debug_str:0000000000000894 .LASF121
     /tmp/ccvK7vaS.s:3399   .debug_str:000000000000028e .LASF122
     /tmp/ccvK7vaS.s:3567   .debug_str:000000000000077e .LASF123
     /tmp/ccvK7vaS.s:3645   .debug_str:00000000000009cc .LASF124
     /tmp/ccvK7vaS.s:3709   .debug_str:0000000000000c55 .LASF125
     /tmp/ccvK7vaS.s:3543   .debug_str:00000000000006e7 .LASF126
     /tmp/ccvK7vaS.s:3777   .debug_str:0000000000000e4c .LASF230
     /tmp/ccvK7vaS.s:3393   .debug_str:0000000000000264 .LASF155
     /tmp/ccvK7vaS.s:3349   .debug_str:0000000000000119 .LASF157
     /tmp/ccvK7vaS.s:3729   .debug_str:0000000000000d13 .LASF231
     /tmp/ccvK7vaS.s:3331   .debug_str:000000000000008b .LASF232
     /tmp/ccvK7vaS.s:3569   .debug_str:0000000000000783 .LASF127
     /tmp/ccvK7vaS.s:3697   .debug_str:0000000000000c03 .LASF128
     /tmp/ccvK7vaS.s:3761   .debug_str:0000000000000dca .LASF129
     /tmp/ccvK7vaS.s:3403   .debug_str:000000000000029f .LASF130
     /tmp/ccvK7vaS.s:3473   .debug_str:00000000000004bf .LASF131
     /tmp/ccvK7vaS.s:3667   .debug_str:0000000000000a88 .LASF132
     /tmp/ccvK7vaS.s:3589   .debug_str:000000000000081a .LASF133
     /tmp/ccvK7vaS.s:3639   .debug_str:00000000000009b1 .LASF134
     /tmp/ccvK7vaS.s:3479   .debug_str:00000000000004ef .LASF135
     /tmp/ccvK7vaS.s:3571   .debug_str:000000000000078f .LASF136
     /tmp/ccvK7vaS.s:3437   .debug_str:00000000000003ae .LASF137
     /tmp/ccvK7vaS.s:3737   .debug_str:0000000000000d3b .LASF138
     /tmp/ccvK7vaS.s:3359   .debug_str:0000000000000176 .LASF139
     /tmp/ccvK7vaS.s:3563   .debug_str:000000000000076c .LASF140
     /tmp/ccvK7vaS.s:3523   .debug_str:0000000000000627 .LASF141
     /tmp/ccvK7vaS.s:3457   .debug_str:000000000000045d .LASF142
     /tmp/ccvK7vaS.s:3357   .debug_str:0000000000000162 .LASF143
     /tmp/ccvK7vaS.s:3441   .debug_str:00000000000003d5 .LASF144
     /tmp/ccvK7vaS.s:3661   .debug_str:0000000000000a63 .LASF145
     /tmp/ccvK7vaS.s:3611   .debug_str:000000000000089f .LASF146
     /tmp/ccvK7vaS.s:3509   .debug_str:00000000000005c2 .LASF147
     /tmp/ccvK7vaS.s:3519   .debug_str:0000000000000613 .LASF165
     /tmp/ccvK7vaS.s:3469   .debug_str:00000000000004ac .LASF148
     /tmp/ccvK7vaS.s:3423   .debug_str:0000000000000341 .LASF149
     /tmp/ccvK7vaS.s:3767   .debug_str:0000000000000e01 .LASF150
     /tmp/ccvK7vaS.s:3635   .debug_str:0000000000000984 .LASF151
     /tmp/ccvK7vaS.s:3463   .debug_str:0000000000000488 .LASF152
     /tmp/ccvK7vaS.s:3587   .debug_str:0000000000000812 .LASF153
     /tmp/ccvK7vaS.s:3311   .debug_str:0000000000000000 .LASF154
     /tmp/ccvK7vaS.s:3775   .debug_str:0000000000000e44 .LASF156
     /tmp/ccvK7vaS.s:3555   .debug_str:000000000000072a .LASF158
     /tmp/ccvK7vaS.s:3577   .debug_str:00000000000007bc .LASF233
     /tmp/ccvK7vaS.s:3557   .debug_str:000000000000073e .LASF234
     /tmp/ccvK7vaS.s:3483   .debug_str:0000000000000516 .LASF159
     /tmp/ccvK7vaS.s:3607   .debug_str:000000000000088f .LASF160
GAS LISTING /tmp/ccvK7vaS.s 			page 16


     /tmp/ccvK7vaS.s:3547   .debug_str:00000000000006fa .LASF161
     /tmp/ccvK7vaS.s:3741   .debug_str:0000000000000d4c .LASF162
     /tmp/ccvK7vaS.s:3545   .debug_str:00000000000006f5 .LASF163
     /tmp/ccvK7vaS.s:3653   .debug_str:0000000000000a1f .LASF164
     /tmp/ccvK7vaS.s:3413   .debug_str:00000000000002e1 .LASF166
     /tmp/ccvK7vaS.s:3475   .debug_str:00000000000004d0 .LASF181
     /tmp/ccvK7vaS.s:3495   .debug_str:000000000000056b .LASF167
     /tmp/ccvK7vaS.s:3765   .debug_str:0000000000000deb .LASF168
     /tmp/ccvK7vaS.s:3753   .debug_str:0000000000000d8e .LASF169
     /tmp/ccvK7vaS.s:3391   .debug_str:000000000000025f .LASF235
     /tmp/ccvK7vaS.s:3685   .debug_str:0000000000000b05 .LASF170
     /tmp/ccvK7vaS.s:3553   .debug_str:0000000000000725 .LASF171
     /tmp/ccvK7vaS.s:3313   .debug_str:000000000000000b .LASF172
     /tmp/ccvK7vaS.s:3315   .debug_str:0000000000000011 .LASF173
     /tmp/ccvK7vaS.s:3591   .debug_str:000000000000082d .LASF174
     /tmp/ccvK7vaS.s:3683   .debug_str:0000000000000afa .LASF175
     /tmp/ccvK7vaS.s:3383   .debug_str:0000000000000213 .LASF176
     /tmp/ccvK7vaS.s:3549   .debug_str:0000000000000702 .LASF177
     /tmp/ccvK7vaS.s:3429   .debug_str:0000000000000388 .LASF178
     /tmp/ccvK7vaS.s:3493   .debug_str:0000000000000554 .LASF179
     /tmp/ccvK7vaS.s:3581   .debug_str:00000000000007dc .LASF180
     /tmp/ccvK7vaS.s:3655   .debug_str:0000000000000a32 .LASF182
     /tmp/ccvK7vaS.s:3381   .debug_str:000000000000020d .LASF183
     /tmp/ccvK7vaS.s:3617   .debug_str:00000000000008cc .LASF184
     /tmp/ccvK7vaS.s:3657   .debug_str:0000000000000a4b .LASF185
     /tmp/ccvK7vaS.s:3637   .debug_str:0000000000000996 .LASF186
     /tmp/ccvK7vaS.s:3713   .debug_str:0000000000000c73 .LASF187
     /tmp/ccvK7vaS.s:3459   .debug_str:0000000000000465 .LASF188
     /tmp/ccvK7vaS.s:3333   .debug_str:000000000000009d .LASF189
     /tmp/ccvK7vaS.s:3529   .debug_str:0000000000000654 .LASF190
     /tmp/ccvK7vaS.s:3695   .debug_str:0000000000000bfc .LASF191
     /tmp/ccvK7vaS.s:3677   .debug_str:0000000000000ad2 .LASF192
     /tmp/ccvK7vaS.s:3337   .debug_str:00000000000000bb .LASF193
     /tmp/ccvK7vaS.s:3531   .debug_str:0000000000000663 .LASF194
     /tmp/ccvK7vaS.s:3693   .debug_str:0000000000000bdb .LASF195
     /tmp/ccvK7vaS.s:3501   .debug_str:0000000000000588 .LASF196
     /tmp/ccvK7vaS.s:3629   .debug_str:0000000000000963 .LASF197
     /tmp/ccvK7vaS.s:3467   .debug_str:00000000000004a0 .LASF198
     /tmp/ccvK7vaS.s:3329   .debug_str:000000000000007e .LASF199
     /tmp/ccvK7vaS.s:3453   .debug_str:0000000000000443 .LASF200
     /tmp/ccvK7vaS.s:3345   .debug_str:00000000000000ee .LASF201
     /tmp/ccvK7vaS.s:3733   .debug_str:0000000000000d2b .LASF202
     /tmp/ccvK7vaS.s:3419   .debug_str:000000000000031e .LASF203
     /tmp/ccvK7vaS.s:3663   .debug_str:0000000000000a70 .LASF204
     /tmp/ccvK7vaS.s:3389   .debug_str:0000000000000242 .LASF205
     /tmp/ccvK7vaS.s:3603   .debug_str:0000000000000878 .LASF206
     /tmp/ccvK7vaS.s:3717   .debug_str:0000000000000c97 .LASF207
     /tmp/ccvK7vaS.s:3779   .debug_str:0000000000000e6f .LASF208
     /tmp/ccvK7vaS.s:3647   .debug_str:00000000000009d2 .LASF209
     /tmp/ccvK7vaS.s:3347   .debug_str:000000000000010e .LASF210
     /tmp/ccvK7vaS.s:3355   .debug_str:0000000000000154 .LASF211
     /tmp/ccvK7vaS.s:3561   .debug_str:000000000000075d .LASF212
     /tmp/ccvK7vaS.s:3435   .debug_str:00000000000003a9 .LASF213
     /tmp/ccvK7vaS.s:99     .text:0000000000000078 .LFB35
     /tmp/ccvK7vaS.s:232    .text:0000000000000164 .LFE35
     /tmp/ccvK7vaS.s:116    .text:0000000000000094 .LBB11
     /tmp/ccvK7vaS.s:128    .text:0000000000000098 .LBE11
GAS LISTING /tmp/ccvK7vaS.s 			page 17


     /tmp/ccvK7vaS.s:152    .text:00000000000000d4 .LBB13
     /tmp/ccvK7vaS.s:164    .text:00000000000000dc .LBE13
     /tmp/ccvK7vaS.s:3246   .debug_loc:0000000000000000 .LLST3
     /tmp/ccvK7vaS.s:185    .text:000000000000011c .LBB15
     /tmp/ccvK7vaS.s:193    .text:0000000000000120 .LBE15
     /tmp/ccvK7vaS.s:3254   .debug_loc:0000000000000024 .LLST4
     /tmp/ccvK7vaS.s:132    .text:00000000000000a0 .LVL9
     /tmp/ccvK7vaS.s:136    .text:00000000000000a8 .LVL10
     /tmp/ccvK7vaS.s:144    .text:00000000000000c4 .LVL11
     /tmp/ccvK7vaS.s:171    .text:00000000000000f8 .LVL14
     /tmp/ccvK7vaS.s:178    .text:0000000000000114 .LVL15
     /tmp/ccvK7vaS.s:200    .text:0000000000000130 .LVL18
     /tmp/ccvK7vaS.s:208    .text:000000000000013c .LVL19
     /tmp/ccvK7vaS.s:214    .text:0000000000000148 .LVL20
     /tmp/ccvK7vaS.s:3551   .debug_str:0000000000000719 .LASF214
     /tmp/ccvK7vaS.s:3465   .debug_str:000000000000048e .LASF215
     /tmp/ccvK7vaS.s:67     .text:0000000000000050 .LFB34
     /tmp/ccvK7vaS.s:93     .text:0000000000000078 .LFE34
     /tmp/ccvK7vaS.s:3261   .debug_loc:0000000000000047 .LLST2
     /tmp/ccvK7vaS.s:82     .text:0000000000000068 .LVL6
     /tmp/ccvK7vaS.s:3597   .debug_str:000000000000085b .LASF216
     /tmp/ccvK7vaS.s:3327   .debug_str:0000000000000069 .LASF217
     /tmp/ccvK7vaS.s:10     .text:0000000000000000 .LFB33
     /tmp/ccvK7vaS.s:61     .text:0000000000000050 .LFE33
     /tmp/ccvK7vaS.s:3275   .debug_loc:0000000000000080 .LLST0
     /tmp/ccvK7vaS.s:27     .text:0000000000000014 .LBB9
     /tmp/ccvK7vaS.s:39     .text:000000000000002c .LBE9
     /tmp/ccvK7vaS.s:3289   .debug_loc:00000000000000b9 .LLST1
     /tmp/ccvK7vaS.s:31     .text:000000000000001c .LVL2
     /tmp/ccvK7vaS.s:55     .text:000000000000004c .LVL4
     /tmp/ccvK7vaS.s:3433   .debug_str:00000000000003a4 .LASF236
     /tmp/ccvK7vaS.s:3735   .debug_str:0000000000000d36 .LASF218
     /tmp/ccvK7vaS.s:3443   .debug_str:00000000000003e1 .LASF219
     /tmp/ccvK7vaS.s:3725   .debug_str:0000000000000cec .LASF221
     /tmp/ccvK7vaS.s:3539   .debug_str:00000000000006ab .LASF220
     /tmp/ccvK7vaS.s:3731   .debug_str:0000000000000d1b .LASF222
     /tmp/ccvK7vaS.s:3533   .debug_str:0000000000000673 .LASF223
     /tmp/ccvK7vaS.s:3705   .debug_str:0000000000000c41 .LASF224
     /tmp/ccvK7vaS.s:151    .text:00000000000000d4 .LVL12
     /tmp/ccvK7vaS.s:161    .text:00000000000000dc .LVL13
     /tmp/ccvK7vaS.s:184    .text:000000000000011c .LVL16
     /tmp/ccvK7vaS.s:191    .text:0000000000000120 .LVL17
     /tmp/ccvK7vaS.s:70     .text:0000000000000050 .LVL5
     /tmp/ccvK7vaS.s:14     .text:0000000000000000 .LVL0
     /tmp/ccvK7vaS.s:24     .text:0000000000000014 .LVL1
     /tmp/ccvK7vaS.s:37     .text:000000000000002c .LVL3
     /tmp/ccvK7vaS.s:262    .debug_info:0000000000000000 .Ldebug_info0

UNDEFINED SYMBOLS
_ZN9myConsole11output_getcEv
CONSOLE_TX_DATA
CONSOLE_STATUS
_Z15thread_dispatchv
_Z8userMainv
_ZN5RISCV15supervisor_trapEv
_ZN15MemoryAllocator14init_allocatorEv
_ZN9myConsole14init_myconsoleEv
GAS LISTING /tmp/ccvK7vaS.s 			page 18


_Z13thread_createPP3TCBPFvPvES2_
_ZN3TCB7runningE
_ZN9myConsole15no_work_for_conEv
