GAS LISTING /tmp/cclI8ojq.s 			page 1


   1              		.file	"main.cpp"
   2              		.option pic
   3              		.option norelax
   4              		.text
   5              	.Ltext0:
   6              		.align	2
   7              		.globl	_Z7workerAPv
   9              	_Z7workerAPv:
  10              	.LFB30:
  11              		.file 1 "src/main.cpp"
   1:src/main.cpp  **** 
   2:src/main.cpp  **** #include "../h/Memoryallocator.hpp"
   3:src/main.cpp  **** #include "../h/Scheduler.hpp"
   4:src/main.cpp  **** #include "../h/syscall_c.h"
   5:src/main.cpp  **** #include "../lib/console.h"
   6:src/main.cpp  **** #include "../h/thread.hpp"
   7:src/main.cpp  **** #include "../h/riscv.hpp"
   8:src/main.cpp  **** #include "../h/print.hpp"
   9:src/main.cpp  **** 
  10:src/main.cpp  **** 
  11:src/main.cpp  **** void testMemoryAllocator() {
  12:src/main.cpp  **** 
  13:src/main.cpp  ****     void *addr = MemoryAllocator::mem_alloc(1);
  14:src/main.cpp  ****     MemoryAllocator::print();
  15:src/main.cpp  ****     int ret1 = MemoryAllocator::mem_free(addr);
  16:src/main.cpp  ****     MemoryAllocator::print();
  17:src/main.cpp  **** 
  18:src/main.cpp  ****     int ret2 = MemoryAllocator::mem_free(addr);
  19:src/main.cpp  ****     MemoryAllocator::print();
  20:src/main.cpp  **** 
  21:src/main.cpp  ****     if (ret1 == 0) __putc('G');
  22:src/main.cpp  ****     if (ret2 < 0) __putc('G');
  23:src/main.cpp  **** 
  24:src/main.cpp  **** }
  25:src/main.cpp  **** 
  26:src/main.cpp  **** void testCMemory() {
  27:src/main.cpp  ****     MemoryAllocator::print();
  28:src/main.cpp  ****     void* addr = mem_alloc(50);
  29:src/main.cpp  ****     MemoryAllocator::print();
  30:src/main.cpp  ****     mem_free(addr);
  31:src/main.cpp  ****     MemoryAllocator::print();
  32:src/main.cpp  **** }
  33:src/main.cpp  **** 
  34:src/main.cpp  **** sem_t mySem = nullptr;
  35:src/main.cpp  **** 
  36:src/main.cpp  **** void workerA(void * args) {
  12              		.loc 1 36 27
  13              		.cfi_startproc
  14              	.LVL0:
  15 0000 130101FE 		addi	sp,sp,-32
  16              		.cfi_def_cfa_offset 32
  17 0004 233C1100 		sd	ra,24(sp)
  18 0008 23388100 		sd	s0,16(sp)
  19 000c 23349100 		sd	s1,8(sp)
  20 0010 23302101 		sd	s2,0(sp)
  21              		.cfi_offset 1, -8
  22              		.cfi_offset 8, -16
GAS LISTING /tmp/cclI8ojq.s 			page 2


  23              		.cfi_offset 9, -24
  24              		.cfi_offset 18, -32
  25 0014 13040102 		addi	s0,sp,32
  26              		.cfi_def_cfa 8, 0
  37:src/main.cpp  ****     for (int i = 0; i < 3; i++) {
  27              		.loc 1 37 5
  28              	.LVL1:
  29              	.LBB10:
  30              		.loc 1 37 14 is_stmt 0
  31 0018 93040000 		li	s1,0
  32              	.LVL2:
  33              	.L3:
  34              		.loc 1 37 23 is_stmt 1 discriminator 3
  35 001c 93072000 		li	a5,2
  36 0020 63C69704 		bgt	s1,a5,.L5
  38:src/main.cpp  ****         sem_wait(mySem);
  37              		.loc 1 38 9 discriminator 2
  38              		.loc 1 38 17 is_stmt 0 discriminator 2
  39 0024 17090000 		lla	s2,.LANCHOR0
  39      13090900 
  40 002c 03350900 		ld	a0,0(s2)
  41 0030 97000000 		call	_Z8sem_waitP3Sem@plt
  41      E7800000 
  42              	.LVL3:
  39:src/main.cpp  ****         sem_signal(mySem);
  43              		.loc 1 39 9 is_stmt 1 discriminator 2
  44              		.loc 1 39 19 is_stmt 0 discriminator 2
  45 0038 03350900 		ld	a0,0(s2)
  46 003c 97000000 		call	_Z10sem_signalP3Sem@plt
  46      E7800000 
  47              	.LVL4:
  40:src/main.cpp  ****         __putc('A');
  48              		.loc 1 40 9 is_stmt 1 discriminator 2
  49              		.loc 1 40 15 is_stmt 0 discriminator 2
  50 0044 13051004 		li	a0,65
  51 0048 97000000 		call	__putc@plt
  51      E7800000 
  52              	.LVL5:
  41:src/main.cpp  ****         __putc('\n');
  53              		.loc 1 41 9 is_stmt 1 discriminator 2
  54              		.loc 1 41 15 is_stmt 0 discriminator 2
  55 0050 1305A000 		li	a0,10
  56 0054 97000000 		call	__putc@plt
  56      E7800000 
  57              	.LVL6:
  42:src/main.cpp  ****         thread_dispatch();
  58              		.loc 1 42 9 is_stmt 1 discriminator 2
  59              		.loc 1 42 24 is_stmt 0 discriminator 2
  60 005c 97000000 		call	_Z15thread_dispatchv@plt
  60      E7800000 
  61              	.LVL7:
  37:src/main.cpp  ****         sem_wait(mySem);
  62              		.loc 1 37 5 is_stmt 1 discriminator 2
  63 0064 9B841400 		addiw	s1,s1,1
  64              	.LVL8:
  65 0068 6FF05FFB 		j	.L3
  66              	.LVL9:
GAS LISTING /tmp/cclI8ojq.s 			page 3


  67              	.L5:
  68              	.LBE10:
  69              	.LBB11:
  43:src/main.cpp  ****     }
  44:src/main.cpp  ****     for (int  i = 0; i<2; i++) {
  70              		.loc 1 44 15 is_stmt 0
  71 006c 93040000 		li	s1,0
  72              	.LVL10:
  73 0070 6F00C002 		j	.L2
  74              	.LVL11:
  75              	.L7:
  45:src/main.cpp  ****         sem_wait(mySem);
  76              		.loc 1 45 9 is_stmt 1 discriminator 2
  77              		.loc 1 45 17 is_stmt 0 discriminator 2
  78 0074 17050000 		ld	a0,.LANCHOR0
  78      03350500 
  79 007c 97000000 		call	_Z8sem_waitP3Sem@plt
  79      E7800000 
  80              	.LVL12:
  46:src/main.cpp  ****         __putc('A');
  81              		.loc 1 46 9 is_stmt 1 discriminator 2
  82              		.loc 1 46 15 is_stmt 0 discriminator 2
  83 0084 13051004 		li	a0,65
  84 0088 97000000 		call	__putc@plt
  84      E7800000 
  85              	.LVL13:
  47:src/main.cpp  ****         thread_dispatch();
  86              		.loc 1 47 9 is_stmt 1 discriminator 2
  87              		.loc 1 47 24 is_stmt 0 discriminator 2
  88 0090 97000000 		call	_Z15thread_dispatchv@plt
  88      E7800000 
  89              	.LVL14:
  44:src/main.cpp  ****         sem_wait(mySem);
  90              		.loc 1 44 5 is_stmt 1 discriminator 2
  91 0098 9B841400 		addiw	s1,s1,1
  92              	.LVL15:
  93              	.L2:
  44:src/main.cpp  ****         sem_wait(mySem);
  94              		.loc 1 44 23 discriminator 3
  95 009c 93071000 		li	a5,1
  96 00a0 E3DA97FC 		ble	s1,a5,.L7
  97              	.LBE11:
  48:src/main.cpp  ****     }
  49:src/main.cpp  **** 
  50:src/main.cpp  **** }
  98              		.loc 1 50 1 is_stmt 0
  99 00a4 83308101 		ld	ra,24(sp)
 100              		.cfi_restore 1
 101 00a8 03340101 		ld	s0,16(sp)
 102              		.cfi_restore 8
 103              		.cfi_def_cfa 2, 32
 104 00ac 83348100 		ld	s1,8(sp)
 105              		.cfi_restore 9
 106              	.LVL16:
 107 00b0 03390100 		ld	s2,0(sp)
 108              		.cfi_restore 18
 109 00b4 13010102 		addi	sp,sp,32
GAS LISTING /tmp/cclI8ojq.s 			page 4


 110              		.cfi_def_cfa_offset 0
 111 00b8 67800000 		jr	ra
 112              		.cfi_endproc
 113              	.LFE30:
 115              		.align	2
 116              		.globl	_Z7workerBPv
 118              	_Z7workerBPv:
 119              	.LFB31:
  51:src/main.cpp  **** 
  52:src/main.cpp  **** void workerB(void * args) {
 120              		.loc 1 52 27 is_stmt 1
 121              		.cfi_startproc
 122              	.LVL17:
 123 00bc 130101FE 		addi	sp,sp,-32
 124              		.cfi_def_cfa_offset 32
 125 00c0 233C1100 		sd	ra,24(sp)
 126 00c4 23388100 		sd	s0,16(sp)
 127 00c8 23349100 		sd	s1,8(sp)
 128 00cc 23302101 		sd	s2,0(sp)
 129              		.cfi_offset 1, -8
 130              		.cfi_offset 8, -16
 131              		.cfi_offset 9, -24
 132              		.cfi_offset 18, -32
 133 00d0 13040102 		addi	s0,sp,32
 134              		.cfi_def_cfa 8, 0
  53:src/main.cpp  ****     for (int i = 0; i < 5; i++){
 135              		.loc 1 53 5
 136              	.LVL18:
 137              	.LBB12:
 138              		.loc 1 53 14 is_stmt 0
 139 00d4 93040000 		li	s1,0
 140              	.LVL19:
 141              	.L10:
 142              		.loc 1 53 23 is_stmt 1 discriminator 3
 143 00d8 93074000 		li	a5,4
 144 00dc 63C69704 		bgt	s1,a5,.L8
  54:src/main.cpp  ****         sem_wait(mySem);
 145              		.loc 1 54 9 discriminator 2
 146              		.loc 1 54 17 is_stmt 0 discriminator 2
 147 00e0 17090000 		lla	s2,.LANCHOR0
 147      13090900 
 148 00e8 03350900 		ld	a0,0(s2)
 149 00ec 97000000 		call	_Z8sem_waitP3Sem@plt
 149      E7800000 
 150              	.LVL20:
  55:src/main.cpp  ****         sem_signal(mySem);
 151              		.loc 1 55 9 is_stmt 1 discriminator 2
 152              		.loc 1 55 19 is_stmt 0 discriminator 2
 153 00f4 03350900 		ld	a0,0(s2)
 154 00f8 97000000 		call	_Z10sem_signalP3Sem@plt
 154      E7800000 
 155              	.LVL21:
  56:src/main.cpp  ****         __putc('B');
 156              		.loc 1 56 9 is_stmt 1 discriminator 2
 157              		.loc 1 56 15 is_stmt 0 discriminator 2
 158 0100 13052004 		li	a0,66
 159 0104 97000000 		call	__putc@plt
GAS LISTING /tmp/cclI8ojq.s 			page 5


 159      E7800000 
 160              	.LVL22:
  57:src/main.cpp  ****         __putc('\n');
 161              		.loc 1 57 9 is_stmt 1 discriminator 2
 162              		.loc 1 57 15 is_stmt 0 discriminator 2
 163 010c 1305A000 		li	a0,10
 164 0110 97000000 		call	__putc@plt
 164      E7800000 
 165              	.LVL23:
  58:src/main.cpp  ****         thread_dispatch();
 166              		.loc 1 58 9 is_stmt 1 discriminator 2
 167              		.loc 1 58 24 is_stmt 0 discriminator 2
 168 0118 97000000 		call	_Z15thread_dispatchv@plt
 168      E7800000 
 169              	.LVL24:
  53:src/main.cpp  ****         sem_wait(mySem);
 170              		.loc 1 53 5 is_stmt 1 discriminator 2
 171 0120 9B841400 		addiw	s1,s1,1
 172              	.LVL25:
 173 0124 6FF05FFB 		j	.L10
 174              	.LVL26:
 175              	.L8:
 176              	.LBE12:
  59:src/main.cpp  ****     }
  60:src/main.cpp  **** }
 177              		.loc 1 60 1 is_stmt 0
 178 0128 83308101 		ld	ra,24(sp)
 179              		.cfi_restore 1
 180 012c 03340101 		ld	s0,16(sp)
 181              		.cfi_restore 8
 182              		.cfi_def_cfa 2, 32
 183 0130 83348100 		ld	s1,8(sp)
 184              		.cfi_restore 9
 185              	.LVL27:
 186 0134 03390100 		ld	s2,0(sp)
 187              		.cfi_restore 18
 188 0138 13010102 		addi	sp,sp,32
 189              		.cfi_def_cfa_offset 0
 190 013c 67800000 		jr	ra
 191              		.cfi_endproc
 192              	.LFE31:
 194              		.align	2
 195              		.globl	_Z19testMemoryAllocatorv
 197              	_Z19testMemoryAllocatorv:
 198              	.LFB28:
  11:src/main.cpp  **** 
 199              		.loc 1 11 28 is_stmt 1
 200              		.cfi_startproc
 201 0140 130101FE 		addi	sp,sp,-32
 202              		.cfi_def_cfa_offset 32
 203 0144 233C1100 		sd	ra,24(sp)
 204 0148 23388100 		sd	s0,16(sp)
 205 014c 23349100 		sd	s1,8(sp)
 206 0150 23302101 		sd	s2,0(sp)
 207              		.cfi_offset 1, -8
 208              		.cfi_offset 8, -16
 209              		.cfi_offset 9, -24
GAS LISTING /tmp/cclI8ojq.s 			page 6


 210              		.cfi_offset 18, -32
 211 0154 13040102 		addi	s0,sp,32
 212              		.cfi_def_cfa 8, 0
  13:src/main.cpp  ****     MemoryAllocator::print();
 213              		.loc 1 13 5
  13:src/main.cpp  ****     MemoryAllocator::print();
 214              		.loc 1 13 44 is_stmt 0
 215 0158 13051000 		li	a0,1
 216 015c 97000000 		call	_ZN15MemoryAllocator9mem_allocEm@plt
 216      E7800000 
 217              	.LVL28:
 218 0164 93040500 		mv	s1,a0
 219              	.LVL29:
  14:src/main.cpp  ****     int ret1 = MemoryAllocator::mem_free(addr);
 220              		.loc 1 14 5 is_stmt 1
  14:src/main.cpp  ****     int ret1 = MemoryAllocator::mem_free(addr);
 221              		.loc 1 14 27 is_stmt 0
 222 0168 97000000 		call	_ZN15MemoryAllocator5printEv@plt
 222      E7800000 
 223              	.LVL30:
  15:src/main.cpp  ****     MemoryAllocator::print();
 224              		.loc 1 15 5 is_stmt 1
  15:src/main.cpp  ****     MemoryAllocator::print();
 225              		.loc 1 15 41 is_stmt 0
 226 0170 13850400 		mv	a0,s1
 227 0174 97000000 		call	_ZN15MemoryAllocator8mem_freeEPKv@plt
 227      E7800000 
 228              	.LVL31:
 229 017c 13090500 		mv	s2,a0
 230              	.LVL32:
  16:src/main.cpp  **** 
 231              		.loc 1 16 5 is_stmt 1
  16:src/main.cpp  **** 
 232              		.loc 1 16 27 is_stmt 0
 233 0180 97000000 		call	_ZN15MemoryAllocator5printEv@plt
 233      E7800000 
 234              	.LVL33:
  18:src/main.cpp  ****     MemoryAllocator::print();
 235              		.loc 1 18 5 is_stmt 1
  18:src/main.cpp  ****     MemoryAllocator::print();
 236              		.loc 1 18 41 is_stmt 0
 237 0188 13850400 		mv	a0,s1
 238 018c 97000000 		call	_ZN15MemoryAllocator8mem_freeEPKv@plt
 238      E7800000 
 239              	.LVL34:
 240 0194 93040500 		mv	s1,a0
 241              	.LVL35:
  19:src/main.cpp  **** 
 242              		.loc 1 19 5 is_stmt 1
  19:src/main.cpp  **** 
 243              		.loc 1 19 27 is_stmt 0
 244 0198 97000000 		call	_ZN15MemoryAllocator5printEv@plt
 244      E7800000 
 245              	.LVL36:
  21:src/main.cpp  ****     if (ret2 < 0) __putc('G');
 246              		.loc 1 21 5 is_stmt 1
 247 01a0 63000902 		beqz	s2,.L16
GAS LISTING /tmp/cclI8ojq.s 			page 7


 248              	.L13:
  22:src/main.cpp  **** 
 249              		.loc 1 22 5
 250 01a4 63C60402 		bltz	s1,.L17
 251              	.L12:
  24:src/main.cpp  **** 
 252              		.loc 1 24 1 is_stmt 0
 253 01a8 83308101 		ld	ra,24(sp)
 254              		.cfi_remember_state
 255              		.cfi_restore 1
 256 01ac 03340101 		ld	s0,16(sp)
 257              		.cfi_restore 8
 258              		.cfi_def_cfa 2, 32
 259 01b0 83348100 		ld	s1,8(sp)
 260              		.cfi_restore 9
 261              	.LVL37:
 262 01b4 03390100 		ld	s2,0(sp)
 263              		.cfi_restore 18
 264              	.LVL38:
 265 01b8 13010102 		addi	sp,sp,32
 266              		.cfi_def_cfa_offset 0
 267 01bc 67800000 		jr	ra
 268              	.LVL39:
 269              	.L16:
 270              		.cfi_restore_state
  21:src/main.cpp  ****     if (ret2 < 0) __putc('G');
 271              		.loc 1 21 20 is_stmt 1 discriminator 1
  21:src/main.cpp  ****     if (ret2 < 0) __putc('G');
 272              		.loc 1 21 26 is_stmt 0 discriminator 1
 273 01c0 13057004 		li	a0,71
 274 01c4 97000000 		call	__putc@plt
 274      E7800000 
 275              	.LVL40:
 276 01cc 6FF09FFD 		j	.L13
 277              	.L17:
  22:src/main.cpp  **** 
 278              		.loc 1 22 19 is_stmt 1 discriminator 1
  22:src/main.cpp  **** 
 279              		.loc 1 22 25 is_stmt 0 discriminator 1
 280 01d0 13057004 		li	a0,71
 281 01d4 97000000 		call	__putc@plt
 281      E7800000 
 282              	.LVL41:
  24:src/main.cpp  **** 
 283              		.loc 1 24 1 discriminator 1
 284 01dc 6FF0DFFC 		j	.L12
 285              		.cfi_endproc
 286              	.LFE28:
 288              		.align	2
 289              		.globl	_Z11testCMemoryv
 291              	_Z11testCMemoryv:
 292              	.LFB29:
  26:src/main.cpp  ****     MemoryAllocator::print();
 293              		.loc 1 26 20 is_stmt 1
 294              		.cfi_startproc
 295 01e0 130101FE 		addi	sp,sp,-32
 296              		.cfi_def_cfa_offset 32
GAS LISTING /tmp/cclI8ojq.s 			page 8


 297 01e4 233C1100 		sd	ra,24(sp)
 298 01e8 23388100 		sd	s0,16(sp)
 299 01ec 23349100 		sd	s1,8(sp)
 300              		.cfi_offset 1, -8
 301              		.cfi_offset 8, -16
 302              		.cfi_offset 9, -24
 303 01f0 13040102 		addi	s0,sp,32
 304              		.cfi_def_cfa 8, 0
  27:src/main.cpp  ****     void* addr = mem_alloc(50);
 305              		.loc 1 27 5
  27:src/main.cpp  ****     void* addr = mem_alloc(50);
 306              		.loc 1 27 27 is_stmt 0
 307 01f4 97000000 		call	_ZN15MemoryAllocator5printEv@plt
 307      E7800000 
 308              	.LVL42:
  28:src/main.cpp  ****     MemoryAllocator::print();
 309              		.loc 1 28 5 is_stmt 1
  28:src/main.cpp  ****     MemoryAllocator::print();
 310              		.loc 1 28 27 is_stmt 0
 311 01fc 13052003 		li	a0,50
 312 0200 97000000 		call	_Z9mem_allocm@plt
 312      E7800000 
 313              	.LVL43:
 314 0208 93040500 		mv	s1,a0
 315              	.LVL44:
  29:src/main.cpp  ****     mem_free(addr);
 316              		.loc 1 29 5 is_stmt 1
  29:src/main.cpp  ****     mem_free(addr);
 317              		.loc 1 29 27 is_stmt 0
 318 020c 97000000 		call	_ZN15MemoryAllocator5printEv@plt
 318      E7800000 
 319              	.LVL45:
  30:src/main.cpp  ****     MemoryAllocator::print();
 320              		.loc 1 30 5 is_stmt 1
  30:src/main.cpp  ****     MemoryAllocator::print();
 321              		.loc 1 30 13 is_stmt 0
 322 0214 13850400 		mv	a0,s1
 323 0218 97000000 		call	_Z8mem_freePv@plt
 323      E7800000 
 324              	.LVL46:
  31:src/main.cpp  **** }
 325              		.loc 1 31 5 is_stmt 1
  31:src/main.cpp  **** }
 326              		.loc 1 31 27 is_stmt 0
 327 0220 97000000 		call	_ZN15MemoryAllocator5printEv@plt
 327      E7800000 
 328              	.LVL47:
  32:src/main.cpp  **** 
 329              		.loc 1 32 1
 330 0228 83308101 		ld	ra,24(sp)
 331              		.cfi_restore 1
 332 022c 03340101 		ld	s0,16(sp)
 333              		.cfi_restore 8
 334              		.cfi_def_cfa 2, 32
 335 0230 83348100 		ld	s1,8(sp)
 336              		.cfi_restore 9
 337              	.LVL48:
GAS LISTING /tmp/cclI8ojq.s 			page 9


 338 0234 13010102 		addi	sp,sp,32
 339              		.cfi_def_cfa_offset 0
 340 0238 67800000 		jr	ra
 341              		.cfi_endproc
 342              	.LFE29:
 344              		.align	2
 345              		.globl	main
 347              	main:
 348              	.LFB32:
  61:src/main.cpp  **** 
  62:src/main.cpp  **** thread_t threads[3];
  63:src/main.cpp  **** 
  64:src/main.cpp  **** int main() {
 349              		.loc 1 64 12 is_stmt 1
 350              		.cfi_startproc
 351 023c 130101FE 		addi	sp,sp,-32
 352              		.cfi_def_cfa_offset 32
 353 0240 233C1100 		sd	ra,24(sp)
 354 0244 23388100 		sd	s0,16(sp)
 355 0248 23349100 		sd	s1,8(sp)
 356              		.cfi_offset 1, -8
 357              		.cfi_offset 8, -16
 358              		.cfi_offset 9, -24
 359 024c 13040102 		addi	s0,sp,32
 360              		.cfi_def_cfa 8, 0
  65:src/main.cpp  **** 
  66:src/main.cpp  ****     RISCV::wr_stvec((uint64)&RISCV::supervisor_trap);
 361              		.loc 1 66 5
 362              		.loc 1 66 20 is_stmt 0
 363 0250 97070000 		la	a5,_ZN5RISCV15supervisor_trapEv
 363      83B70700 
 364              	.LVL49:
 365              	.LBB13:
 366              	.LBB14:
 367              		.file 2 "src/../h/../h/riscv.hpp"
   1:src/../h/../h/riscv.hpp **** //
   2:src/../h/../h/riscv.hpp **** // Created by os on 4/7/24.
   3:src/../h/../h/riscv.hpp **** //
   4:src/../h/../h/riscv.hpp **** 
   5:src/../h/../h/riscv.hpp **** #ifndef PROJECT_BASE_RISCV_HPP
   6:src/../h/../h/riscv.hpp **** #define PROJECT_BASE_RISCV_HPP
   7:src/../h/../h/riscv.hpp **** 
   8:src/../h/../h/riscv.hpp **** #include "../lib/hw.h"
   9:src/../h/../h/riscv.hpp **** 
  10:src/../h/../h/riscv.hpp **** class RISCV {
  11:src/../h/../h/riscv.hpp **** public:
  12:src/../h/../h/riscv.hpp **** 
  13:src/../h/../h/riscv.hpp ****     enum causes {
  14:src/../h/../h/riscv.hpp ****         SOFTWARE = 0x800000000000001UL,
  15:src/../h/../h/riscv.hpp ****         EXTERNAL = 0x800000000000009UL,
  16:src/../h/../h/riscv.hpp ****         U_ECALL  = 0x000000000000008UL,
  17:src/../h/../h/riscv.hpp ****         S_ECALL  = 0x000000000000009UL
  18:src/../h/../h/riscv.hpp ****     };
  19:src/../h/../h/riscv.hpp **** 
  20:src/../h/../h/riscv.hpp ****     static void supervisor_trap();
  21:src/../h/../h/riscv.hpp ****     static void handle_interrupt();
  22:src/../h/../h/riscv.hpp **** 
GAS LISTING /tmp/cclI8ojq.s 			page 10


  23:src/../h/../h/riscv.hpp ****     static void push_regs();
  24:src/../h/../h/riscv.hpp ****     static void pop_regs();
  25:src/../h/../h/riscv.hpp **** 
  26:src/../h/../h/riscv.hpp ****     static uint64 rd_scause();
  27:src/../h/../h/riscv.hpp ****     static void wr_scause(uint64 value);
  28:src/../h/../h/riscv.hpp **** 
  29:src/../h/../h/riscv.hpp ****     static uint64 rd_sepc();
  30:src/../h/../h/riscv.hpp ****     static void wr_sepc(uint64 value);
  31:src/../h/../h/riscv.hpp **** 
  32:src/../h/../h/riscv.hpp ****     static uint64 rd_stvec();
  33:src/../h/../h/riscv.hpp ****     static void wr_stvec(uint64 value);
  34:src/../h/../h/riscv.hpp **** 
  35:src/../h/../h/riscv.hpp ****     static uint64 rd_stval();
  36:src/../h/../h/riscv.hpp ****     static void wr_stval(uint64 value);
  37:src/../h/../h/riscv.hpp **** 
  38:src/../h/../h/riscv.hpp ****     static uint64 rd_sip();
  39:src/../h/../h/riscv.hpp ****     static void wr_sip(uint64 value);
  40:src/../h/../h/riscv.hpp **** 
  41:src/../h/../h/riscv.hpp ****     static uint64 rd_sstatus();
  42:src/../h/../h/riscv.hpp ****     static void wr_sstatus(uint64 value);
  43:src/../h/../h/riscv.hpp **** 
  44:src/../h/../h/riscv.hpp ****     static inline void mask_sip(uint64 mask) {
  45:src/../h/../h/riscv.hpp ****         __asm__ volatile("csrc sip, %0" : : "r"(mask));
  46:src/../h/../h/riscv.hpp ****     }
  47:src/../h/../h/riscv.hpp **** 
  48:src/../h/../h/riscv.hpp ****     static inline void mask_status(uint64 mask) {
  49:src/../h/../h/riscv.hpp ****         __asm__ volatile("csrc sstatus, %0" : : "r"(mask));
  50:src/../h/../h/riscv.hpp ****     };
  51:src/../h/../h/riscv.hpp **** 
  52:src/../h/../h/riscv.hpp ****     static void popSppSpie();
  53:src/../h/../h/riscv.hpp ****     // pop sstatus.spp and sstatus.spie bits
  54:src/../h/../h/riscv.hpp ****     // must be in cpp !!!
  55:src/../h/../h/riscv.hpp **** 
  56:src/../h/../h/riscv.hpp ****     enum mask_sstatus {
  57:src/../h/../h/riscv.hpp ****         SIE = (1 << 1),
  58:src/../h/../h/riscv.hpp ****         SPIE =(1 << 5),
  59:src/../h/../h/riscv.hpp ****         SSP = (1 << 8)
  60:src/../h/../h/riscv.hpp ****     };
  61:src/../h/../h/riscv.hpp **** 
  62:src/../h/../h/riscv.hpp ****     enum mask_sip_sie {
  63:src/../h/../h/riscv.hpp ****         SS = (1 << 1),
  64:src/../h/../h/riscv.hpp ****         SE = (1 << 9)
  65:src/../h/../h/riscv.hpp ****     };
  66:src/../h/../h/riscv.hpp **** 
  67:src/../h/../h/riscv.hpp **** };
  68:src/../h/../h/riscv.hpp **** 
  69:src/../h/../h/riscv.hpp **** inline uint64 RISCV::rd_scause() {
  70:src/../h/../h/riscv.hpp ****     uint64 volatile value;
  71:src/../h/../h/riscv.hpp ****     __asm__ volatile ("csrr %0, scause" : "=r"(value));
  72:src/../h/../h/riscv.hpp ****     return value;
  73:src/../h/../h/riscv.hpp **** }
  74:src/../h/../h/riscv.hpp **** 
  75:src/../h/../h/riscv.hpp **** inline void RISCV::wr_scause(uint64 value) {
  76:src/../h/../h/riscv.hpp ****     __asm__ volatile ("csrw scause, %0" : : "r"(value));
  77:src/../h/../h/riscv.hpp **** }
  78:src/../h/../h/riscv.hpp **** 
  79:src/../h/../h/riscv.hpp **** inline uint64 RISCV::rd_sepc() {
GAS LISTING /tmp/cclI8ojq.s 			page 11


  80:src/../h/../h/riscv.hpp ****     uint64 volatile value;
  81:src/../h/../h/riscv.hpp ****     __asm__ volatile ("csrr %0, sepc" : "=r"(value));
  82:src/../h/../h/riscv.hpp ****     return value;
  83:src/../h/../h/riscv.hpp **** }
  84:src/../h/../h/riscv.hpp **** 
  85:src/../h/../h/riscv.hpp **** inline void RISCV::wr_sepc(uint64 value) {
  86:src/../h/../h/riscv.hpp ****     __asm__ volatile ("csrw sepc, %0" : : "r"(value));
  87:src/../h/../h/riscv.hpp **** }
  88:src/../h/../h/riscv.hpp **** 
  89:src/../h/../h/riscv.hpp **** inline uint64 RISCV::rd_stvec() {
  90:src/../h/../h/riscv.hpp ****     uint64 volatile value;
  91:src/../h/../h/riscv.hpp ****     __asm__ volatile ("csrr %0, stvec" : "=r"(value));
  92:src/../h/../h/riscv.hpp ****     return value;
  93:src/../h/../h/riscv.hpp **** }
  94:src/../h/../h/riscv.hpp **** 
  95:src/../h/../h/riscv.hpp **** inline void RISCV::wr_stvec(uint64 value) {
  96:src/../h/../h/riscv.hpp ****     __asm__ volatile ("csrw stvec, %0" : : "r"(value));
 368              		.loc 2 96 5 is_stmt 1
 369              		.loc 2 96 55 is_stmt 0
 370              	#APP
 371              	# 96 "src/../h/../h/riscv.hpp" 1
  97              	}
 372              		csrw stvec, a5
 373              	# 0 "" 2
 374              	.LVL50:
 375              	#NO_APP
 376              	.LBE14:
 377              	.LBE13:
  67:src/main.cpp  **** 
  68:src/main.cpp  ****     //RISCV::mask_status(RISCV::SIE);
  69:src/main.cpp  **** 
  70:src/main.cpp  ****     MemoryAllocator::getAllocator();
 378              		.loc 1 70 5 is_stmt 1
 379              		.loc 1 70 34 is_stmt 0
 380 025c 97000000 		call	_ZN15MemoryAllocator12getAllocatorEv@plt
 380      E7800000 
 381              	.LVL51:
  71:src/main.cpp  ****     Scheduler::init_scheduler();
 382              		.loc 1 71 5 is_stmt 1
  72:src/main.cpp  **** 
  73:src/main.cpp  **** //    testMemoryAllocator();
  74:src/main.cpp  **** //    testCMemory();
  75:src/main.cpp  **** 
  76:src/main.cpp  ****     thread_create(&threads[0], nullptr, nullptr); // main
 383              		.loc 1 76 5
 384              		.loc 1 76 18 is_stmt 0
 385 0264 97040000 		lla	s1,.LANCHOR0
 385      93840400 
 386 026c 13060000 		li	a2,0
 387 0270 93050000 		li	a1,0
 388 0274 17050000 		lla	a0,.LANCHOR0+8
 388      13050500 
 389 027c 97000000 		call	_Z13thread_createPP3TCBPFvPvES2_@plt
 389      E7800000 
 390              	.LVL52:
  77:src/main.cpp  **** 
  78:src/main.cpp  ****     //printInteger(r);
GAS LISTING /tmp/cclI8ojq.s 			page 12


  79:src/main.cpp  **** 
  80:src/main.cpp  ****     TCB::running = threads[0];
 391              		.loc 1 80 5 is_stmt 1
 392              		.loc 1 80 29 is_stmt 0
 393 0284 03B78400 		ld	a4,8(s1)
 394              		.loc 1 80 18
 395 0288 97070000 		la	a5,_ZN3TCB7runningE
 395      83B70700 
 396 0290 23B0E700 		sd	a4,0(a5)
  81:src/main.cpp  **** 
  82:src/main.cpp  ****     sem_open(&mySem, 1); // mutex
 397              		.loc 1 82 5 is_stmt 1
 398              		.loc 1 82 13 is_stmt 0
 399 0294 93051000 		li	a1,1
 400 0298 13850400 		mv	a0,s1
 401 029c 97000000 		call	_Z8sem_openPP3Semj@plt
 401      E7800000 
 402              	.LVL53:
  83:src/main.cpp  ****     //printInteger(r);
  84:src/main.cpp  ****     thread_create(&threads[1], &workerA, nullptr);
 403              		.loc 1 84 5 is_stmt 1
 404              		.loc 1 84 18 is_stmt 0
 405 02a4 13060000 		li	a2,0
 406 02a8 97050000 		lla	a1,_Z7workerAPv
 406      93850500 
 407 02b0 17050000 		lla	a0,.LANCHOR0+16
 407      13050500 
 408 02b8 97000000 		call	_Z13thread_createPP3TCBPFvPvES2_@plt
 408      E7800000 
 409              	.LVL54:
  85:src/main.cpp  ****     thread_create(&threads[2], &workerB, nullptr);
 410              		.loc 1 85 5 is_stmt 1
 411              		.loc 1 85 18 is_stmt 0
 412 02c0 13060000 		li	a2,0
 413 02c4 97050000 		lla	a1,_Z7workerBPv
 413      93850500 
 414 02cc 17050000 		lla	a0,.LANCHOR0+24
 414      13050500 
 415 02d4 97000000 		call	_Z13thread_createPP3TCBPFvPvES2_@plt
 415      E7800000 
 416              	.LVL55:
 417 02dc 6F00C000 		j	.L23
 418              	.L21:
  86:src/main.cpp  **** 
  87:src/main.cpp  ****     while (!threads[1]->isFinished() || !threads[2]->isFinished()) thread_dispatch();
 419              		.loc 1 87 68 is_stmt 1 discriminator 3
 420              		.loc 1 87 83 is_stmt 0 discriminator 3
 421 02e0 97000000 		call	_Z15thread_dispatchv@plt
 421      E7800000 
 422              	.LVL56:
 423              	.L23:
 424              		.loc 1 87 5 is_stmt 1 discriminator 8
 425              		.loc 1 87 38 discriminator 8
 426              		.loc 1 87 22 is_stmt 0 discriminator 8
 427 02e8 97070000 		ld	a5,.LANCHOR0+16
 427      83B70700 
 428              	.LVL57:
GAS LISTING /tmp/cclI8ojq.s 			page 13


 429              	.LBB15:
 430              	.LBB16:
 431              		.file 3 "src/../h/thread.hpp"
   1:src/../h/thread.hpp **** //
   2:src/../h/thread.hpp **** // Created by os on 4/9/24.
   3:src/../h/thread.hpp **** //
   4:src/../h/thread.hpp **** 
   5:src/../h/thread.hpp **** #ifndef PROJECT_BASE_THREAD_HPP
   6:src/../h/thread.hpp **** #define PROJECT_BASE_THREAD_HPP
   7:src/../h/thread.hpp **** 
   8:src/../h/thread.hpp **** #include "../lib/hw.h"
   9:src/../h/thread.hpp **** #include "../h/Memoryallocator.hpp"
  10:src/../h/thread.hpp **** #include "../h/riscv.hpp"
  11:src/../h/thread.hpp **** 
  12:src/../h/thread.hpp **** using routine_ptr = void(*)(void *);
  13:src/../h/thread.hpp **** 
  14:src/../h/thread.hpp **** // _thread je wrapper ove klase
  15:src/../h/thread.hpp **** class TCB final {
  16:src/../h/thread.hpp **** 
  17:src/../h/thread.hpp ****     friend class RISCV;
  18:src/../h/thread.hpp ****     friend class Sem;
  19:src/../h/thread.hpp **** 
  20:src/../h/thread.hpp **** public:
  21:src/../h/thread.hpp **** 
  22:src/../h/thread.hpp ****     static TCB* running; // current thread
  23:src/../h/thread.hpp **** 
  24:src/../h/thread.hpp ****     enum state {
  25:src/../h/thread.hpp ****         RUNNABLE,
  26:src/../h/thread.hpp ****         SLEEPING,
  27:src/../h/thread.hpp ****         JOINED,
  28:src/../h/thread.hpp ****         FINISHED,
  29:src/../h/thread.hpp ****         BLOCKED
  30:src/../h/thread.hpp ****     };
  31:src/../h/thread.hpp ****     struct Context {
  32:src/../h/thread.hpp ****         // nadogradi kasnije
  33:src/../h/thread.hpp ****         uint64 pc;
  34:src/../h/thread.hpp ****         uint64 sp;
  35:src/../h/thread.hpp ****     };
  36:src/../h/thread.hpp **** 
  37:src/../h/thread.hpp ****     void start();
  38:src/../h/thread.hpp **** 
  39:src/../h/thread.hpp ****     static int _threadCreate(TCB** handle, routine_ptr routine, void* args, void* stack_space); // 
  40:src/../h/thread.hpp **** 
  41:src/../h/thread.hpp ****     static void yield(TCB*, TCB*);
  42:src/../h/thread.hpp **** 
  43:src/../h/thread.hpp ****     static void dispatch();
  44:src/../h/thread.hpp **** 
  45:src/../h/thread.hpp ****     state getState() const {return current_state;}
  46:src/../h/thread.hpp ****     time_t getTimeSlice() const {return time_slice;}
  47:src/../h/thread.hpp **** 
  48:src/../h/thread.hpp ****     static bool isRunnable();
  49:src/../h/thread.hpp **** 
  50:src/../h/thread.hpp ****     bool isFinished() {return current_state == state::FINISHED;}
 432              		.loc 3 50 24 is_stmt 1 discriminator 8
 433              		.loc 3 50 31 is_stmt 0 discriminator 8
 434 02f0 03A78705 		lw	a4,88(a5)
 435              	.LVL58:
GAS LISTING /tmp/cclI8ojq.s 			page 14


 436              	.LBE16:
 437              	.LBE15:
 438              		.loc 1 87 38 discriminator 8
 439 02f4 93073000 		li	a5,3
 440 02f8 E314F7FE 		bne	a4,a5,.L21
 441              		.loc 1 87 51 discriminator 2
 442 02fc 97070000 		ld	a5,.LANCHOR0+24
 442      83B70700 
 443              	.LVL59:
 444              	.LBB17:
 445              	.LBB18:
 446              		.loc 3 50 24 is_stmt 1 discriminator 2
 447              		.loc 3 50 31 is_stmt 0 discriminator 2
 448 0304 03A78705 		lw	a4,88(a5)
 449              	.LVL60:
 450              	.LBE18:
 451              	.LBE17:
 452              		.loc 1 87 38 discriminator 2
 453 0308 93073000 		li	a5,3
 454 030c E31AF7FC 		bne	a4,a5,.L21
  88:src/main.cpp  **** //    if (!threads[0]) __putc('n');
  89:src/main.cpp  **** //    thread_create(&threads[1], workerA, nullptr);
  90:src/main.cpp  **** //    thread_create(&threads[2], workerB, nullptr);
  91:src/main.cpp  **** //    while (!threads[1]->isFinished() || !threads[2]->isFinished()) thread_dispatch();
  92:src/main.cpp  ****     return 0;
 455              		.loc 1 92 5 is_stmt 1
  93:src/main.cpp  **** }
 456              		.loc 1 93 1 is_stmt 0
 457 0310 13050000 		li	a0,0
 458 0314 83308101 		ld	ra,24(sp)
 459              		.cfi_restore 1
 460 0318 03340101 		ld	s0,16(sp)
 461              		.cfi_restore 8
 462              		.cfi_def_cfa 2, 32
 463 031c 83348100 		ld	s1,8(sp)
 464              		.cfi_restore 9
 465 0320 13010102 		addi	sp,sp,32
 466              		.cfi_def_cfa_offset 0
 467 0324 67800000 		jr	ra
 468              		.cfi_endproc
 469              	.LFE32:
 471              		.globl	threads
 472              		.globl	mySem
 473              		.bss
 474              		.align	3
 475              		.set	.LANCHOR0,. + 0
 478              	mySem:
 479 0000 00000000 		.zero	8
 479      00000000 
 482              	threads:
 483 0008 00000000 		.zero	24
 483      00000000 
 483      00000000 
 483      00000000 
 483      00000000 
 484              		.text
 485              	.Letext0:
GAS LISTING /tmp/cclI8ojq.s 			page 15


 486              		.file 4 "src/../h/../lib/hw.h"
 487              		.file 5 "src/../h/Memoryallocator.hpp"
 488              		.file 6 "src/../h/Scheduler.hpp"
 489              		.file 7 "src/../h/semaphore.hpp"
 490              		.file 8 "src/../h/syscall_c.h"
 491              		.file 9 "src/../lib/console.h"
GAS LISTING /tmp/cclI8ojq.s 			page 16


DEFINED SYMBOLS
                            *ABS*:0000000000000000 main.cpp
     /tmp/cclI8ojq.s:9      .text:0000000000000000 _Z7workerAPv
     /tmp/cclI8ojq.s:13     .text:0000000000000000 .L0 
     /tmp/cclI8ojq.s:15     .text:0000000000000000 .L0 
     /tmp/cclI8ojq.s:16     .text:0000000000000004 .L0 
     /tmp/cclI8ojq.s:21     .text:0000000000000014 .L0 
     /tmp/cclI8ojq.s:22     .text:0000000000000014 .L0 
     /tmp/cclI8ojq.s:23     .text:0000000000000014 .L0 
     /tmp/cclI8ojq.s:24     .text:0000000000000014 .L0 
     /tmp/cclI8ojq.s:26     .text:0000000000000018 .L0 
     /tmp/cclI8ojq.s:30     .text:0000000000000018 .L0 
     /tmp/cclI8ojq.s:31     .text:0000000000000018 .L0 
     /tmp/cclI8ojq.s:35     .text:000000000000001c .L0 
     /tmp/cclI8ojq.s:38     .text:0000000000000024 .L0 
     /tmp/cclI8ojq.s:39     .text:0000000000000024 .L0 
     /tmp/cclI8ojq.s:44     .text:0000000000000038 .L0 
     /tmp/cclI8ojq.s:45     .text:0000000000000038 .L0 
     /tmp/cclI8ojq.s:49     .text:0000000000000044 .L0 
     /tmp/cclI8ojq.s:50     .text:0000000000000044 .L0 
     /tmp/cclI8ojq.s:54     .text:0000000000000050 .L0 
     /tmp/cclI8ojq.s:55     .text:0000000000000050 .L0 
     /tmp/cclI8ojq.s:59     .text:000000000000005c .L0 
     /tmp/cclI8ojq.s:60     .text:000000000000005c .L0 
     /tmp/cclI8ojq.s:63     .text:0000000000000064 .L0 
     /tmp/cclI8ojq.s:71     .text:000000000000006c .L0 
     /tmp/cclI8ojq.s:77     .text:0000000000000074 .L0 
     /tmp/cclI8ojq.s:78     .text:0000000000000074 .L0 
     /tmp/cclI8ojq.s:82     .text:0000000000000084 .L0 
     /tmp/cclI8ojq.s:83     .text:0000000000000084 .L0 
     /tmp/cclI8ojq.s:87     .text:0000000000000090 .L0 
     /tmp/cclI8ojq.s:88     .text:0000000000000090 .L0 
     /tmp/cclI8ojq.s:91     .text:0000000000000098 .L0 
     /tmp/cclI8ojq.s:95     .text:000000000000009c .L0 
     /tmp/cclI8ojq.s:99     .text:00000000000000a4 .L0 
     /tmp/cclI8ojq.s:100    .text:00000000000000a8 .L0 
     /tmp/cclI8ojq.s:102    .text:00000000000000ac .L0 
     /tmp/cclI8ojq.s:103    .text:00000000000000ac .L0 
     /tmp/cclI8ojq.s:105    .text:00000000000000b0 .L0 
     /tmp/cclI8ojq.s:108    .text:00000000000000b4 .L0 
     /tmp/cclI8ojq.s:110    .text:00000000000000b8 .L0 
     /tmp/cclI8ojq.s:112    .text:00000000000000bc .L0 
     /tmp/cclI8ojq.s:118    .text:00000000000000bc _Z7workerBPv
     /tmp/cclI8ojq.s:121    .text:00000000000000bc .L0 
     /tmp/cclI8ojq.s:123    .text:00000000000000bc .L0 
     /tmp/cclI8ojq.s:124    .text:00000000000000c0 .L0 
     /tmp/cclI8ojq.s:129    .text:00000000000000d0 .L0 
     /tmp/cclI8ojq.s:130    .text:00000000000000d0 .L0 
     /tmp/cclI8ojq.s:131    .text:00000000000000d0 .L0 
     /tmp/cclI8ojq.s:132    .text:00000000000000d0 .L0 
     /tmp/cclI8ojq.s:134    .text:00000000000000d4 .L0 
     /tmp/cclI8ojq.s:138    .text:00000000000000d4 .L0 
     /tmp/cclI8ojq.s:139    .text:00000000000000d4 .L0 
     /tmp/cclI8ojq.s:143    .text:00000000000000d8 .L0 
     /tmp/cclI8ojq.s:146    .text:00000000000000e0 .L0 
     /tmp/cclI8ojq.s:147    .text:00000000000000e0 .L0 
     /tmp/cclI8ojq.s:152    .text:00000000000000f4 .L0 
GAS LISTING /tmp/cclI8ojq.s 			page 17


     /tmp/cclI8ojq.s:153    .text:00000000000000f4 .L0 
     /tmp/cclI8ojq.s:157    .text:0000000000000100 .L0 
     /tmp/cclI8ojq.s:158    .text:0000000000000100 .L0 
     /tmp/cclI8ojq.s:162    .text:000000000000010c .L0 
     /tmp/cclI8ojq.s:163    .text:000000000000010c .L0 
     /tmp/cclI8ojq.s:167    .text:0000000000000118 .L0 
     /tmp/cclI8ojq.s:168    .text:0000000000000118 .L0 
     /tmp/cclI8ojq.s:171    .text:0000000000000120 .L0 
     /tmp/cclI8ojq.s:178    .text:0000000000000128 .L0 
     /tmp/cclI8ojq.s:179    .text:000000000000012c .L0 
     /tmp/cclI8ojq.s:181    .text:0000000000000130 .L0 
     /tmp/cclI8ojq.s:182    .text:0000000000000130 .L0 
     /tmp/cclI8ojq.s:184    .text:0000000000000134 .L0 
     /tmp/cclI8ojq.s:187    .text:0000000000000138 .L0 
     /tmp/cclI8ojq.s:189    .text:000000000000013c .L0 
     /tmp/cclI8ojq.s:191    .text:0000000000000140 .L0 
     /tmp/cclI8ojq.s:197    .text:0000000000000140 _Z19testMemoryAllocatorv
     /tmp/cclI8ojq.s:200    .text:0000000000000140 .L0 
     /tmp/cclI8ojq.s:201    .text:0000000000000140 .L0 
     /tmp/cclI8ojq.s:202    .text:0000000000000144 .L0 
     /tmp/cclI8ojq.s:207    .text:0000000000000154 .L0 
     /tmp/cclI8ojq.s:208    .text:0000000000000154 .L0 
     /tmp/cclI8ojq.s:209    .text:0000000000000154 .L0 
     /tmp/cclI8ojq.s:210    .text:0000000000000154 .L0 
     /tmp/cclI8ojq.s:212    .text:0000000000000158 .L0 
     /tmp/cclI8ojq.s:214    .text:0000000000000158 .L0 
     /tmp/cclI8ojq.s:215    .text:0000000000000158 .L0 
     /tmp/cclI8ojq.s:221    .text:0000000000000168 .L0 
     /tmp/cclI8ojq.s:222    .text:0000000000000168 .L0 
     /tmp/cclI8ojq.s:225    .text:0000000000000170 .L0 
     /tmp/cclI8ojq.s:226    .text:0000000000000170 .L0 
     /tmp/cclI8ojq.s:232    .text:0000000000000180 .L0 
     /tmp/cclI8ojq.s:233    .text:0000000000000180 .L0 
     /tmp/cclI8ojq.s:236    .text:0000000000000188 .L0 
     /tmp/cclI8ojq.s:237    .text:0000000000000188 .L0 
     /tmp/cclI8ojq.s:243    .text:0000000000000198 .L0 
     /tmp/cclI8ojq.s:244    .text:0000000000000198 .L0 
     /tmp/cclI8ojq.s:247    .text:00000000000001a0 .L0 
     /tmp/cclI8ojq.s:250    .text:00000000000001a4 .L0 
     /tmp/cclI8ojq.s:253    .text:00000000000001a8 .L0 
     /tmp/cclI8ojq.s:254    .text:00000000000001ac .L0 
     /tmp/cclI8ojq.s:255    .text:00000000000001ac .L0 
     /tmp/cclI8ojq.s:257    .text:00000000000001b0 .L0 
     /tmp/cclI8ojq.s:258    .text:00000000000001b0 .L0 
     /tmp/cclI8ojq.s:260    .text:00000000000001b4 .L0 
     /tmp/cclI8ojq.s:263    .text:00000000000001b8 .L0 
     /tmp/cclI8ojq.s:266    .text:00000000000001bc .L0 
     /tmp/cclI8ojq.s:270    .text:00000000000001c0 .L0 
     /tmp/cclI8ojq.s:272    .text:00000000000001c0 .L0 
     /tmp/cclI8ojq.s:273    .text:00000000000001c0 .L0 
     /tmp/cclI8ojq.s:279    .text:00000000000001d0 .L0 
     /tmp/cclI8ojq.s:280    .text:00000000000001d0 .L0 
     /tmp/cclI8ojq.s:284    .text:00000000000001dc .L0 
     /tmp/cclI8ojq.s:285    .text:00000000000001e0 .L0 
     /tmp/cclI8ojq.s:291    .text:00000000000001e0 _Z11testCMemoryv
     /tmp/cclI8ojq.s:294    .text:00000000000001e0 .L0 
     /tmp/cclI8ojq.s:295    .text:00000000000001e0 .L0 
GAS LISTING /tmp/cclI8ojq.s 			page 18


     /tmp/cclI8ojq.s:296    .text:00000000000001e4 .L0 
     /tmp/cclI8ojq.s:300    .text:00000000000001f0 .L0 
     /tmp/cclI8ojq.s:301    .text:00000000000001f0 .L0 
     /tmp/cclI8ojq.s:302    .text:00000000000001f0 .L0 
     /tmp/cclI8ojq.s:304    .text:00000000000001f4 .L0 
     /tmp/cclI8ojq.s:306    .text:00000000000001f4 .L0 
     /tmp/cclI8ojq.s:307    .text:00000000000001f4 .L0 
     /tmp/cclI8ojq.s:310    .text:00000000000001fc .L0 
     /tmp/cclI8ojq.s:311    .text:00000000000001fc .L0 
     /tmp/cclI8ojq.s:317    .text:000000000000020c .L0 
     /tmp/cclI8ojq.s:318    .text:000000000000020c .L0 
     /tmp/cclI8ojq.s:321    .text:0000000000000214 .L0 
     /tmp/cclI8ojq.s:322    .text:0000000000000214 .L0 
     /tmp/cclI8ojq.s:326    .text:0000000000000220 .L0 
     /tmp/cclI8ojq.s:327    .text:0000000000000220 .L0 
     /tmp/cclI8ojq.s:330    .text:0000000000000228 .L0 
     /tmp/cclI8ojq.s:331    .text:000000000000022c .L0 
     /tmp/cclI8ojq.s:333    .text:0000000000000230 .L0 
     /tmp/cclI8ojq.s:334    .text:0000000000000230 .L0 
     /tmp/cclI8ojq.s:336    .text:0000000000000234 .L0 
     /tmp/cclI8ojq.s:339    .text:0000000000000238 .L0 
     /tmp/cclI8ojq.s:341    .text:000000000000023c .L0 
     /tmp/cclI8ojq.s:347    .text:000000000000023c main
     /tmp/cclI8ojq.s:350    .text:000000000000023c .L0 
     /tmp/cclI8ojq.s:351    .text:000000000000023c .L0 
     /tmp/cclI8ojq.s:352    .text:0000000000000240 .L0 
     /tmp/cclI8ojq.s:356    .text:000000000000024c .L0 
     /tmp/cclI8ojq.s:357    .text:000000000000024c .L0 
     /tmp/cclI8ojq.s:358    .text:000000000000024c .L0 
     /tmp/cclI8ojq.s:360    .text:0000000000000250 .L0 
     /tmp/cclI8ojq.s:362    .text:0000000000000250 .L0 
     /tmp/cclI8ojq.s:363    .text:0000000000000250 .L0 
     /tmp/cclI8ojq.s:369    .text:0000000000000258 .L0 
src/../h/../h/riscv.hpp:96     .text:0000000000000258 .L0 
     /tmp/cclI8ojq.s:379    .text:000000000000025c .L0 
     /tmp/cclI8ojq.s:380    .text:000000000000025c .L0 
     /tmp/cclI8ojq.s:383    .text:0000000000000264 .L0 
     /tmp/cclI8ojq.s:384    .text:0000000000000264 .L0 
     /tmp/cclI8ojq.s:385    .text:0000000000000264 .L0 
     /tmp/cclI8ojq.s:392    .text:0000000000000284 .L0 
     /tmp/cclI8ojq.s:393    .text:0000000000000284 .L0 
     /tmp/cclI8ojq.s:395    .text:0000000000000288 .L0 
     /tmp/cclI8ojq.s:398    .text:0000000000000294 .L0 
     /tmp/cclI8ojq.s:399    .text:0000000000000294 .L0 
     /tmp/cclI8ojq.s:404    .text:00000000000002a4 .L0 
     /tmp/cclI8ojq.s:405    .text:00000000000002a4 .L0 
     /tmp/cclI8ojq.s:411    .text:00000000000002c0 .L0 
     /tmp/cclI8ojq.s:412    .text:00000000000002c0 .L0 
     /tmp/cclI8ojq.s:420    .text:00000000000002e0 .L0 
     /tmp/cclI8ojq.s:421    .text:00000000000002e0 .L0 
     /tmp/cclI8ojq.s:425    .text:00000000000002e8 .L0 
     /tmp/cclI8ojq.s:426    .text:00000000000002e8 .L0 
     /tmp/cclI8ojq.s:427    .text:00000000000002e8 .L0 
     /tmp/cclI8ojq.s:433    .text:00000000000002f0 .L0 
     /tmp/cclI8ojq.s:434    .text:00000000000002f0 .L0 
     /tmp/cclI8ojq.s:439    .text:00000000000002f4 .L0 
     /tmp/cclI8ojq.s:442    .text:00000000000002fc .L0 
GAS LISTING /tmp/cclI8ojq.s 			page 19


     /tmp/cclI8ojq.s:447    .text:0000000000000304 .L0 
     /tmp/cclI8ojq.s:448    .text:0000000000000304 .L0 
     /tmp/cclI8ojq.s:453    .text:0000000000000308 .L0 
     /tmp/cclI8ojq.s:456    .text:0000000000000310 .L0 
     /tmp/cclI8ojq.s:457    .text:0000000000000310 .L0 
     /tmp/cclI8ojq.s:459    .text:0000000000000318 .L0 
     /tmp/cclI8ojq.s:461    .text:000000000000031c .L0 
     /tmp/cclI8ojq.s:462    .text:000000000000031c .L0 
     /tmp/cclI8ojq.s:464    .text:0000000000000320 .L0 
     /tmp/cclI8ojq.s:466    .text:0000000000000324 .L0 
     /tmp/cclI8ojq.s:468    .text:0000000000000328 .L0 
     /tmp/cclI8ojq.s:482    .bss:0000000000000008 threads
     /tmp/cclI8ojq.s:478    .bss:0000000000000000 mySem
     /tmp/cclI8ojq.s:475    .bss:0000000000000000 .LANCHOR0
     /tmp/cclI8ojq.s:492    .text:0000000000000328 .L0 
     /tmp/cclI8ojq.s:39     .text:0000000000000024 .L0 
     /tmp/cclI8ojq.s:78     .text:0000000000000074 .L0 
     /tmp/cclI8ojq.s:147    .text:00000000000000e0 .L0 
     /tmp/cclI8ojq.s:363    .text:0000000000000250 .L0 
     /tmp/cclI8ojq.s:385    .text:0000000000000264 .L0 
     /tmp/cclI8ojq.s:388    .text:0000000000000274 .L0 
     /tmp/cclI8ojq.s:395    .text:0000000000000288 .L0 
     /tmp/cclI8ojq.s:406    .text:00000000000002a8 .L0 
     /tmp/cclI8ojq.s:407    .text:00000000000002b0 .L0 
     /tmp/cclI8ojq.s:413    .text:00000000000002c4 .L0 
     /tmp/cclI8ojq.s:414    .text:00000000000002cc .L0 
     /tmp/cclI8ojq.s:427    .text:00000000000002e8 .L0 
     /tmp/cclI8ojq.s:442    .text:00000000000002fc .L0 
     /tmp/cclI8ojq.s:67     .text:000000000000006c .L5
     /tmp/cclI8ojq.s:33     .text:000000000000001c .L3
     /tmp/cclI8ojq.s:93     .text:000000000000009c .L2
     /tmp/cclI8ojq.s:75     .text:0000000000000074 .L7
     /tmp/cclI8ojq.s:175    .text:0000000000000128 .L8
     /tmp/cclI8ojq.s:141    .text:00000000000000d8 .L10
     /tmp/cclI8ojq.s:269    .text:00000000000001c0 .L16
     /tmp/cclI8ojq.s:277    .text:00000000000001d0 .L17
     /tmp/cclI8ojq.s:248    .text:00000000000001a4 .L13
     /tmp/cclI8ojq.s:251    .text:00000000000001a8 .L12
     /tmp/cclI8ojq.s:423    .text:00000000000002e8 .L23
     /tmp/cclI8ojq.s:418    .text:00000000000002e0 .L21
     /tmp/cclI8ojq.s:2263   .debug_abbrev:0000000000000000 .Ldebug_abbrev0
     /tmp/cclI8ojq.s:3886   .debug_str:0000000000000971 .LASF202
     /tmp/cclI8ojq.s:3650   .debug_str:00000000000002c8 .LASF203
     /tmp/cclI8ojq.s:3664   .debug_str:000000000000031f .LASF204
     /tmp/cclI8ojq.s:5      .text:0000000000000000 .Ltext0
     /tmp/cclI8ojq.s:485    .text:0000000000000328 .Letext0
     /tmp/cclI8ojq.s:3546   .debug_line:0000000000000000 .Ldebug_line0
     /tmp/cclI8ojq.s:3690   .debug_str:00000000000003f2 .LASF0
     /tmp/cclI8ojq.s:3718   .debug_str:0000000000000497 .LASF1
     /tmp/cclI8ojq.s:3826   .debug_str:00000000000007b7 .LASF2
     /tmp/cclI8ojq.s:3834   .debug_str:0000000000000821 .LASF4
     /tmp/cclI8ojq.s:3698   .debug_str:000000000000041e .LASF3
     /tmp/cclI8ojq.s:3554   .debug_str:000000000000003a .LASF5
     /tmp/cclI8ojq.s:3798   .debug_str:00000000000006d7 .LASF6
     /tmp/cclI8ojq.s:3788   .debug_str:0000000000000687 .LASF7
     /tmp/cclI8ojq.s:3706   .debug_str:000000000000045d .LASF8
     /tmp/cclI8ojq.s:3658   .debug_str:00000000000002e9 .LASF9
GAS LISTING /tmp/cclI8ojq.s 			page 20


     /tmp/cclI8ojq.s:3672   .debug_str:000000000000036a .LASF10
     /tmp/cclI8ojq.s:3596   .debug_str:0000000000000158 .LASF11
     /tmp/cclI8ojq.s:3648   .debug_str:00000000000002b9 .LASF12
     /tmp/cclI8ojq.s:3610   .debug_str:00000000000001ae .LASF13
     /tmp/cclI8ojq.s:3594   .debug_str:0000000000000148 .LASF14
     /tmp/cclI8ojq.s:3864   .debug_str:00000000000008e3 .LASF15
     /tmp/cclI8ojq.s:3638   .debug_str:000000000000025f .LASF16
     /tmp/cclI8ojq.s:3854   .debug_str:000000000000088a .LASF17
     /tmp/cclI8ojq.s:3784   .debug_str:0000000000000652 .LASF21
     /tmp/cclI8ojq.s:3586   .debug_str:0000000000000115 .LASF82
     /tmp/cclI8ojq.s:3598   .debug_str:0000000000000167 .LASF18
     /tmp/cclI8ojq.s:3566   .debug_str:00000000000000a3 .LASF19
     /tmp/cclI8ojq.s:3716   .debug_str:0000000000000492 .LASF20
     /tmp/cclI8ojq.s:3564   .debug_str:000000000000008a .LASF22
     /tmp/cclI8ojq.s:3852   .debug_str:000000000000086f .LASF23
     /tmp/cclI8ojq.s:3928   .debug_str:0000000000000b4d .LASF94
     /tmp/cclI8ojq.s:3942   .debug_str:0000000000000ba3 .LASF96
     /tmp/cclI8ojq.s:3880   .debug_str:0000000000000948 .LASF24
     /tmp/cclI8ojq.s:3562   .debug_str:000000000000007c .LASF25
     /tmp/cclI8ojq.s:3696   .debug_str:0000000000000414 .LASF46
     /tmp/cclI8ojq.s:3832   .debug_str:00000000000007ef .LASF48
     /tmp/cclI8ojq.s:3910   .debug_str:0000000000000ad0 .LASF84
     /tmp/cclI8ojq.s:3750   .debug_str:0000000000000568 .LASF42
     /tmp/cclI8ojq.s:3786   .debug_str:0000000000000662 .LASF44
     /tmp/cclI8ojq.s:3754   .debug_str:0000000000000589 .LASF26
     /tmp/cclI8ojq.s:3556   .debug_str:0000000000000041 .LASF27
     /tmp/cclI8ojq.s:3874   .debug_str:000000000000091f .LASF28
     /tmp/cclI8ojq.s:3800   .debug_str:00000000000006de .LASF29
     /tmp/cclI8ojq.s:3548   .debug_str:0000000000000000 .LASF32
     /tmp/cclI8ojq.s:3576   .debug_str:00000000000000d2 .LASF34
     /tmp/cclI8ojq.s:3806   .debug_str:0000000000000729 .LASF30
     /tmp/cclI8ojq.s:3934   .debug_str:0000000000000b6c .LASF31
     /tmp/cclI8ojq.s:3622   .debug_str:00000000000001fb .LASF33
     /tmp/cclI8ojq.s:3820   .debug_str:000000000000077c .LASF35
     /tmp/cclI8ojq.s:3630   .debug_str:0000000000000222 .LASF36
     /tmp/cclI8ojq.s:3828   .debug_str:00000000000007c5 .LASF37
     /tmp/cclI8ojq.s:3580   .debug_str:00000000000000f8 .LASF38
     /tmp/cclI8ojq.s:3904   .debug_str:0000000000000a99 .LASF39
     /tmp/cclI8ojq.s:3670   .debug_str:0000000000000361 .LASF40
     /tmp/cclI8ojq.s:3938   .debug_str:0000000000000b88 .LASF41
     /tmp/cclI8ojq.s:3818   .debug_str:0000000000000772 .LASF43
     /tmp/cclI8ojq.s:3968   .debug_str:0000000000000c9b .LASF45
     /tmp/cclI8ojq.s:3870   .debug_str:000000000000090c .LASF47
     /tmp/cclI8ojq.s:3796   .debug_str:00000000000006c1 .LASF49
     /tmp/cclI8ojq.s:3924   .debug_str:0000000000000b31 .LASF50
     /tmp/cclI8ojq.s:3926   .debug_str:0000000000000b39 .LASF51
     /tmp/cclI8ojq.s:3844   .debug_str:0000000000000850 .LASF52
     /tmp/cclI8ojq.s:3966   .debug_str:0000000000000c87 .LASF53
     /tmp/cclI8ojq.s:3588   .debug_str:0000000000000121 .LASF54
     /tmp/cclI8ojq.s:3958   .debug_str:0000000000000c39 .LASF55
     /tmp/cclI8ojq.s:3730   .debug_str:00000000000004e3 .LASF56
     /tmp/cclI8ojq.s:3878   .debug_str:0000000000000933 .LASF57
     /tmp/cclI8ojq.s:3808   .debug_str:0000000000000734 .LASF58
     /tmp/cclI8ojq.s:3736   .debug_str:000000000000050b .LASF59
     /tmp/cclI8ojq.s:3930   .debug_str:0000000000000b58 .LASF60
     /tmp/cclI8ojq.s:3794   .debug_str:00000000000006ac .LASF61
     /tmp/cclI8ojq.s:3770   .debug_str:000000000000060e .LASF62
GAS LISTING /tmp/cclI8ojq.s 			page 21


     /tmp/cclI8ojq.s:3748   .debug_str:0000000000000555 .LASF63
     /tmp/cclI8ojq.s:3642   .debug_str:000000000000027a .LASF64
     /tmp/cclI8ojq.s:3858   .debug_str:00000000000008b1 .LASF65
     /tmp/cclI8ojq.s:3894   .debug_str:0000000000000a58 .LASF66
     /tmp/cclI8ojq.s:3606   .debug_str:0000000000000190 .LASF67
     /tmp/cclI8ojq.s:3932   .debug_str:0000000000000b61 .LASF68
     /tmp/cclI8ojq.s:3908   .debug_str:0000000000000ab8 .LASF69
     /tmp/cclI8ojq.s:3850   .debug_str:0000000000000866 .LASF70
     /tmp/cclI8ojq.s:3916   .debug_str:0000000000000afb .LASF71
     /tmp/cclI8ojq.s:3620   .debug_str:00000000000001ef .LASF72
     /tmp/cclI8ojq.s:3956   .debug_str:0000000000000c20 .LASF73
     /tmp/cclI8ojq.s:3680   .debug_str:00000000000003a3 .LASF74
     /tmp/cclI8ojq.s:3636   .debug_str:0000000000000247 .LASF75
     /tmp/cclI8ojq.s:3700   .debug_str:0000000000000430 .LASF76
     /tmp/cclI8ojq.s:3634   .debug_str:0000000000000241 .LASF205
     /tmp/cclI8ojq.s:3708   .debug_str:0000000000000470 .LASF77
     /tmp/cclI8ojq.s:3600   .debug_str:000000000000016c .LASF78
     /tmp/cclI8ojq.s:3888   .debug_str:0000000000000a35 .LASF79
     /tmp/cclI8ojq.s:3578   .debug_str:00000000000000ef .LASF80
     /tmp/cclI8ojq.s:3742   .debug_str:0000000000000533 .LASF81
     /tmp/cclI8ojq.s:3602   .debug_str:0000000000000175 .LASF83
     /tmp/cclI8ojq.s:3884   .debug_str:0000000000000969 .LASF85
     /tmp/cclI8ojq.s:3950   .debug_str:0000000000000bfe .LASF86
     /tmp/cclI8ojq.s:3922   .debug_str:0000000000000b21 .LASF87
     /tmp/cclI8ojq.s:3584   .debug_str:0000000000000107 .LASF88
     /tmp/cclI8ojq.s:3646   .debug_str:0000000000000291 .LASF89
     /tmp/cclI8ojq.s:3720   .debug_str:00000000000004aa .LASF90
     /tmp/cclI8ojq.s:3726   .debug_str:00000000000004c9 .LASF91
     /tmp/cclI8ojq.s:3626   .debug_str:0000000000000213 .LASF92
     /tmp/cclI8ojq.s:3604   .debug_str:000000000000017d .LASF93
     /tmp/cclI8ojq.s:3842   .debug_str:0000000000000847 .LASF95
     /tmp/cclI8ojq.s:3812   .debug_str:000000000000074d .LASF97
     /tmp/cclI8ojq.s:3724   .debug_str:00000000000004bc .LASF98
     /tmp/cclI8ojq.s:3912   .debug_str:0000000000000ada .LASF99
     /tmp/cclI8ojq.s:3898   .debug_str:0000000000000a74 .LASF100
     /tmp/cclI8ojq.s:3732   .debug_str:00000000000004ec .LASF101
     /tmp/cclI8ojq.s:3876   .debug_str:0000000000000928 .LASF102
     /tmp/cclI8ojq.s:3868   .debug_str:00000000000008f6 .LASF103
     /tmp/cclI8ojq.s:3746   .debug_str:000000000000054e .LASF104
     /tmp/cclI8ojq.s:3612   .debug_str:00000000000001be .LASF105
     /tmp/cclI8ojq.s:3836   .debug_str:0000000000000828 .LASF106
     /tmp/cclI8ojq.s:3552   .debug_str:000000000000002e .LASF107
     /tmp/cclI8ojq.s:3960   .debug_str:0000000000000c4e .LASF108
     /tmp/cclI8ojq.s:3668   .debug_str:0000000000000355 .LASF109
     /tmp/cclI8ojq.s:3692   .debug_str:00000000000003ff .LASF110
     /tmp/cclI8ojq.s:3774   .debug_str:000000000000061a .LASF111
     /tmp/cclI8ojq.s:3734   .debug_str:0000000000000502 .LASF112
     /tmp/cclI8ojq.s:3822   .debug_str:0000000000000799 .LASF113
     /tmp/cclI8ojq.s:3568   .debug_str:00000000000000a8 .LASF114
     /tmp/cclI8ojq.s:3830   .debug_str:00000000000007e3 .LASF115
     /tmp/cclI8ojq.s:3614   .debug_str:00000000000001cf .LASF116
     /tmp/cclI8ojq.s:3632   .debug_str:0000000000000233 .LASF117
     /tmp/cclI8ojq.s:3814   .debug_str:0000000000000761 .LASF118
     /tmp/cclI8ojq.s:3624   .debug_str:000000000000020b .LASF119
     /tmp/cclI8ojq.s:3776   .debug_str:0000000000000627 .LASF120
     /tmp/cclI8ojq.s:3848   .debug_str:0000000000000860 .LASF121
     /tmp/cclI8ojq.s:3900   .debug_str:0000000000000a7f .LASF122
GAS LISTING /tmp/cclI8ojq.s 			page 22


     /tmp/cclI8ojq.s:3760   .debug_str:00000000000005cb .LASF123
     /tmp/cclI8ojq.s:3872   .debug_str:0000000000000916 .LASF124
     /tmp/cclI8ojq.s:3962   .debug_str:0000000000000c5b .LASF137
     /tmp/cclI8ojq.s:3618   .debug_str:00000000000001e1 .LASF131
     /tmp/cclI8ojq.s:3550   .debug_str:0000000000000006 .LASF133
     /tmp/cclI8ojq.s:3914   .debug_str:0000000000000af3 .LASF206
     /tmp/cclI8ojq.s:3560   .debug_str:000000000000006a .LASF207
     /tmp/cclI8ojq.s:3782   .debug_str:0000000000000646 .LASF125
     /tmp/cclI8ojq.s:3892   .debug_str:0000000000000a41 .LASF126
     /tmp/cclI8ojq.s:3640   .debug_str:0000000000000275 .LASF127
     /tmp/cclI8ojq.s:3572   .debug_str:00000000000000bd .LASF128
     /tmp/cclI8ojq.s:3656   .debug_str:00000000000002df .LASF129
     /tmp/cclI8ojq.s:3616   .debug_str:00000000000001dc .LASF132
     /tmp/cclI8ojq.s:3712   .debug_str:0000000000000488 .LASF130
     /tmp/cclI8ojq.s:3686   .debug_str:00000000000003c7 .LASF134
     /tmp/cclI8ojq.s:3710   .debug_str:0000000000000479 .LASF135
     /tmp/cclI8ojq.s:3944   .debug_str:0000000000000bbe .LASF136
     /tmp/cclI8ojq.s:3952   .debug_str:0000000000000c04 .LASF208
     /tmp/cclI8ojq.s:3666   .debug_str:000000000000033d .LASF138
     /tmp/cclI8ojq.s:3714   .debug_str:000000000000048d .LASF139
     /tmp/cclI8ojq.s:3804   .debug_str:0000000000000714 .LASF140
     /tmp/cclI8ojq.s:3628   .debug_str:000000000000021c .LASF141
     /tmp/cclI8ojq.s:3936   .debug_str:0000000000000b72 .LASF142
     /tmp/cclI8ojq.s:3766   .debug_str:00000000000005ed .LASF143
     /tmp/cclI8ojq.s:3756   .debug_str:0000000000000593 .LASF144
     /tmp/cclI8ojq.s:3902   .debug_str:0000000000000a87 .LASF145
     /tmp/cclI8ojq.s:3682   .debug_str:00000000000003ae .LASF146
     /tmp/cclI8ojq.s:3590   .debug_str:000000000000012a .LASF147
     /tmp/cclI8ojq.s:3946   .debug_str:0000000000000bde .LASF148
     /tmp/cclI8ojq.s:3764   .debug_str:00000000000005e8 .LASF149
     /tmp/cclI8ojq.s:3660   .debug_str:00000000000002f9 .LASF150
     /tmp/cclI8ojq.s:3940   .debug_str:0000000000000b9d .LASF151
     /tmp/cclI8ojq.s:3890   .debug_str:0000000000000a3c .LASF152
     /tmp/cclI8ojq.s:3762   .debug_str:00000000000005d9 .LASF153
     /tmp/cclI8ojq.s:3866   .debug_str:00000000000008ef .LASF154
     /tmp/cclI8ojq.s:3860   .debug_str:00000000000008c4 .LASF155
     /tmp/cclI8ojq.s:3570   .debug_str:00000000000000b3 .LASF156
     /tmp/cclI8ojq.s:3752   .debug_str:0000000000000575 .LASF157
     /tmp/cclI8ojq.s:3918   .debug_str:0000000000000b10 .LASF158
     /tmp/cclI8ojq.s:3674   .debug_str:0000000000000378 .LASF159
     /tmp/cclI8ojq.s:3772   .debug_str:0000000000000615 .LASF160
     /tmp/cclI8ojq.s:3744   .debug_str:000000000000053b .LASF161
     /tmp/cclI8ojq.s:3704   .debug_str:0000000000000455 .LASF162
     /tmp/cclI8ojq.s:3802   .debug_str:0000000000000700 .LASF163
     /tmp/cclI8ojq.s:3688   .debug_str:00000000000003e6 .LASF164
     /tmp/cclI8ojq.s:3574   .debug_str:00000000000000c5 .LASF165
     /tmp/cclI8ojq.s:3738   .debug_str:0000000000000520 .LASF209
     /tmp/cclI8ojq.s:3778   .debug_str:000000000000062c .LASF166
     /tmp/cclI8ojq.s:3644   .debug_str:0000000000000281 .LASF167
     /tmp/cclI8ojq.s:3954   .debug_str:0000000000000c18 .LASF168
     /tmp/cclI8ojq.s:3838   .debug_str:000000000000082d .LASF169
     /tmp/cclI8ojq.s:3684   .debug_str:00000000000003c1 .LASF170
     /tmp/cclI8ojq.s:3592   .debug_str:000000000000013f .LASF171
     /tmp/cclI8ojq.s:3728   .debug_str:00000000000004de .LASF172
     /tmp/cclI8ojq.s:3816   .debug_str:000000000000076c .LASF173
     /tmp/cclI8ojq.s:3920   .debug_str:0000000000000b18 .LASF174
     /tmp/cclI8ojq.s:3608   .debug_str:00000000000001a8 .LASF175
GAS LISTING /tmp/cclI8ojq.s 			page 23


     /tmp/cclI8ojq.s:3840   .debug_str:000000000000083f .LASF176
     /tmp/cclI8ojq.s:3654   .debug_str:00000000000002da .LASF177
     /tmp/cclI8ojq.s:348    .text:000000000000023c .LFB32
     /tmp/cclI8ojq.s:469    .text:0000000000000328 .LFE32
     /tmp/cclI8ojq.s:365    .text:0000000000000258 .LBB13
     /tmp/cclI8ojq.s:377    .text:000000000000025c .LBE13
     /tmp/cclI8ojq.s:429    .text:00000000000002f0 .LBB15
     /tmp/cclI8ojq.s:437    .text:00000000000002f4 .LBE15
     /tmp/cclI8ojq.s:3416   .debug_loc:0000000000000000 .LLST9
     /tmp/cclI8ojq.s:444    .text:0000000000000304 .LBB17
     /tmp/cclI8ojq.s:451    .text:0000000000000308 .LBE17
     /tmp/cclI8ojq.s:3423   .debug_loc:0000000000000023 .LLST10
     /tmp/cclI8ojq.s:381    .text:0000000000000264 .LVL51
     /tmp/cclI8ojq.s:390    .text:0000000000000284 .LVL52
     /tmp/cclI8ojq.s:402    .text:00000000000002a4 .LVL53
     /tmp/cclI8ojq.s:409    .text:00000000000002c0 .LVL54
     /tmp/cclI8ojq.s:416    .text:00000000000002dc .LVL55
     /tmp/cclI8ojq.s:422    .text:00000000000002e8 .LVL56
     /tmp/cclI8ojq.s:3846   .debug_str:0000000000000858 .LASF178
     /tmp/cclI8ojq.s:3824   .debug_str:00000000000007aa .LASF179
     /tmp/cclI8ojq.s:119    .text:00000000000000bc .LFB31
     /tmp/cclI8ojq.s:192    .text:0000000000000140 .LFE31
     /tmp/cclI8ojq.s:3430   .debug_loc:0000000000000046 .LLST3
     /tmp/cclI8ojq.s:137    .text:00000000000000d4 .LBB12
     /tmp/cclI8ojq.s:176    .text:0000000000000128 .LBE12
     /tmp/cclI8ojq.s:3444   .debug_loc:000000000000007f .LLST4
     /tmp/cclI8ojq.s:150    .text:00000000000000f4 .LVL20
     /tmp/cclI8ojq.s:155    .text:0000000000000100 .LVL21
     /tmp/cclI8ojq.s:160    .text:000000000000010c .LVL22
     /tmp/cclI8ojq.s:165    .text:0000000000000118 .LVL23
     /tmp/cclI8ojq.s:169    .text:0000000000000120 .LVL24
     /tmp/cclI8ojq.s:3558   .debug_str:0000000000000062 .LASF180
     /tmp/cclI8ojq.s:3790   .debug_str:000000000000069a .LASF181
     /tmp/cclI8ojq.s:10     .text:0000000000000000 .LFB30
     /tmp/cclI8ojq.s:113    .text:00000000000000bc .LFE30
     /tmp/cclI8ojq.s:3460   .debug_loc:00000000000000c9 .LLST0
     /tmp/cclI8ojq.s:29     .text:0000000000000018 .LBB10
     /tmp/cclI8ojq.s:68     .text:000000000000006c .LBE10
     /tmp/cclI8ojq.s:3474   .debug_loc:0000000000000102 .LLST1
     /tmp/cclI8ojq.s:42     .text:0000000000000038 .LVL3
     /tmp/cclI8ojq.s:47     .text:0000000000000044 .LVL4
     /tmp/cclI8ojq.s:52     .text:0000000000000050 .LVL5
     /tmp/cclI8ojq.s:57     .text:000000000000005c .LVL6
     /tmp/cclI8ojq.s:61     .text:0000000000000064 .LVL7
     /tmp/cclI8ojq.s:69     .text:000000000000006c .LBB11
     /tmp/cclI8ojq.s:97     .text:00000000000000a4 .LBE11
     /tmp/cclI8ojq.s:3490   .debug_loc:000000000000014c .LLST2
     /tmp/cclI8ojq.s:80     .text:0000000000000084 .LVL12
     /tmp/cclI8ojq.s:85     .text:0000000000000090 .LVL13
     /tmp/cclI8ojq.s:89     .text:0000000000000098 .LVL14
     /tmp/cclI8ojq.s:3722   .debug_str:00000000000004b0 .LASF182
     /tmp/cclI8ojq.s:3856   .debug_str:00000000000008a0 .LASF183
     /tmp/cclI8ojq.s:292    .text:00000000000001e0 .LFB29
     /tmp/cclI8ojq.s:342    .text:000000000000023c .LFE29
     /tmp/cclI8ojq.s:3582   .debug_str:0000000000000102 .LASF184
     /tmp/cclI8ojq.s:3497   .debug_loc:000000000000016f .LLST8
     /tmp/cclI8ojq.s:308    .text:00000000000001fc .LVL42
GAS LISTING /tmp/cclI8ojq.s 			page 24


     /tmp/cclI8ojq.s:313    .text:0000000000000208 .LVL43
     /tmp/cclI8ojq.s:319    .text:0000000000000214 .LVL45
     /tmp/cclI8ojq.s:324    .text:0000000000000220 .LVL46
     /tmp/cclI8ojq.s:328    .text:0000000000000228 .LVL47
     /tmp/cclI8ojq.s:3768   .debug_str:00000000000005fa .LASF185
     /tmp/cclI8ojq.s:3702   .debug_str:000000000000043c .LASF186
     /tmp/cclI8ojq.s:198    .text:0000000000000140 .LFB28
     /tmp/cclI8ojq.s:286    .text:00000000000001e0 .LFE28
     /tmp/cclI8ojq.s:3504   .debug_loc:0000000000000192 .LLST5
     /tmp/cclI8ojq.s:3792   .debug_str:00000000000006a7 .LASF187
     /tmp/cclI8ojq.s:3511   .debug_loc:00000000000001b5 .LLST6
     /tmp/cclI8ojq.s:3694   .debug_str:000000000000040f .LASF188
     /tmp/cclI8ojq.s:3522   .debug_loc:00000000000001eb .LLST7
     /tmp/cclI8ojq.s:217    .text:0000000000000164 .LVL28
     /tmp/cclI8ojq.s:223    .text:0000000000000170 .LVL30
     /tmp/cclI8ojq.s:228    .text:000000000000017c .LVL31
     /tmp/cclI8ojq.s:234    .text:0000000000000188 .LVL33
     /tmp/cclI8ojq.s:239    .text:0000000000000194 .LVL34
     /tmp/cclI8ojq.s:245    .text:00000000000001a0 .LVL36
     /tmp/cclI8ojq.s:275    .text:00000000000001cc .LVL40
     /tmp/cclI8ojq.s:282    .text:00000000000001dc .LVL41
     /tmp/cclI8ojq.s:3652   .debug_str:00000000000002d5 .LASF210
     /tmp/cclI8ojq.s:3662   .debug_str:00000000000002fe .LASF189
     /tmp/cclI8ojq.s:3862   .debug_str:00000000000008d5 .LASF191
     /tmp/cclI8ojq.s:3882   .debug_str:0000000000000956 .LASF190
     /tmp/cclI8ojq.s:3906   .debug_str:0000000000000aaf .LASF192
     /tmp/cclI8ojq.s:3758   .debug_str:00000000000005b6 .LASF193
     /tmp/cclI8ojq.s:3810   .debug_str:000000000000073d .LASF194
     /tmp/cclI8ojq.s:3896   .debug_str:0000000000000a63 .LASF195
     /tmp/cclI8ojq.s:3964   .debug_str:0000000000000c7e .LASF196
     /tmp/cclI8ojq.s:3780   .debug_str:0000000000000632 .LASF197
     /tmp/cclI8ojq.s:3678   .debug_str:0000000000000398 .LASF198
     /tmp/cclI8ojq.s:3740   .debug_str:000000000000052c .LASF199
     /tmp/cclI8ojq.s:3676   .debug_str:000000000000038a .LASF200
     /tmp/cclI8ojq.s:3948   .debug_str:0000000000000bf0 .LASF201
     /tmp/cclI8ojq.s:428    .text:00000000000002f0 .LVL57
     /tmp/cclI8ojq.s:435    .text:00000000000002f4 .LVL58
     /tmp/cclI8ojq.s:443    .text:0000000000000304 .LVL59
     /tmp/cclI8ojq.s:449    .text:0000000000000308 .LVL60
     /tmp/cclI8ojq.s:122    .text:00000000000000bc .LVL17
     /tmp/cclI8ojq.s:140    .text:00000000000000d8 .LVL19
     /tmp/cclI8ojq.s:136    .text:00000000000000d4 .LVL18
     /tmp/cclI8ojq.s:172    .text:0000000000000124 .LVL25
     /tmp/cclI8ojq.s:174    .text:0000000000000128 .LVL26
     /tmp/cclI8ojq.s:185    .text:0000000000000134 .LVL27
     /tmp/cclI8ojq.s:14     .text:0000000000000000 .LVL0
     /tmp/cclI8ojq.s:32     .text:000000000000001c .LVL2
     /tmp/cclI8ojq.s:28     .text:0000000000000018 .LVL1
     /tmp/cclI8ojq.s:64     .text:0000000000000068 .LVL8
     /tmp/cclI8ojq.s:66     .text:000000000000006c .LVL9
     /tmp/cclI8ojq.s:72     .text:0000000000000070 .LVL10
     /tmp/cclI8ojq.s:74     .text:0000000000000074 .LVL11
     /tmp/cclI8ojq.s:106    .text:00000000000000b0 .LVL16
     /tmp/cclI8ojq.s:315    .text:000000000000020c .LVL44
     /tmp/cclI8ojq.s:337    .text:0000000000000234 .LVL48
     /tmp/cclI8ojq.s:219    .text:0000000000000168 .LVL29
     /tmp/cclI8ojq.s:241    .text:0000000000000198 .LVL35
GAS LISTING /tmp/cclI8ojq.s 			page 25


     /tmp/cclI8ojq.s:230    .text:0000000000000180 .LVL32
     /tmp/cclI8ojq.s:264    .text:00000000000001b8 .LVL38
     /tmp/cclI8ojq.s:268    .text:00000000000001c0 .LVL39
     /tmp/cclI8ojq.s:261    .text:00000000000001b4 .LVL37
     /tmp/cclI8ojq.s:493    .debug_info:0000000000000000 .Ldebug_info0

UNDEFINED SYMBOLS
_Z8sem_waitP3Sem
_Z10sem_signalP3Sem
__putc
_Z15thread_dispatchv
_ZN15MemoryAllocator9mem_allocEm
_ZN15MemoryAllocator5printEv
_ZN15MemoryAllocator8mem_freeEPKv
_Z9mem_allocm
_Z8mem_freePv
_ZN5RISCV15supervisor_trapEv
_ZN15MemoryAllocator12getAllocatorEv
_Z13thread_createPP3TCBPFvPvES2_
_ZN3TCB7runningE
_Z8sem_openPP3Semj
