GAS LISTING /tmp/ccduLtWP.s 			page 1


   1              		.file	"main.cpp"
   2              		.option pic
   3              		.option norelax
   4              		.text
   5              	.Ltext0:
   6              		.align	2
   7              		.globl	_Z14handleNewCharsPv
   9              	_Z14handleNewCharsPv:
  10              	.LFB37:
  11              		.file 1 "src/main.cpp"
   1:src/main.cpp  **** 
   2:src/main.cpp  **** #include "../h/Memoryallocator.hpp"
   3:src/main.cpp  **** #include "../h/Scheduler.hpp"
   4:src/main.cpp  **** #include "../h/Console.hpp"
   5:src/main.cpp  **** #include "../lib/console.h"
   6:src/main.cpp  **** #include "../h/print.hpp"
   7:src/main.cpp  **** 
   8:src/main.cpp  **** void testMemoryAllocator() {
   9:src/main.cpp  **** 
  10:src/main.cpp  ****     void *addr = MemoryAllocator::mem_alloc(1);
  11:src/main.cpp  ****     MemoryAllocator::print();
  12:src/main.cpp  ****     int ret1 = MemoryAllocator::mem_free(addr);
  13:src/main.cpp  ****     MemoryAllocator::print();
  14:src/main.cpp  **** 
  15:src/main.cpp  ****     int ret2 = MemoryAllocator::mem_free(addr);
  16:src/main.cpp  ****     MemoryAllocator::print();
  17:src/main.cpp  **** 
  18:src/main.cpp  ****     if (ret1 == 0) __putc('G');
  19:src/main.cpp  ****     if (ret2 < 0) __putc('G');
  20:src/main.cpp  **** 
  21:src/main.cpp  **** }
  22:src/main.cpp  **** 
  23:src/main.cpp  **** void testCMemory() {
  24:src/main.cpp  ****     MemoryAllocator::print();
  25:src/main.cpp  ****     void* addr = mem_alloc(50);
  26:src/main.cpp  ****     MemoryAllocator::print();
  27:src/main.cpp  ****     mem_free(addr);
  28:src/main.cpp  ****     MemoryAllocator::print();
  29:src/main.cpp  **** }
  30:src/main.cpp  **** 
  31:src/main.cpp  **** void testConsole(void *args) {
  32:src/main.cpp  ****     while (true) {
  33:src/main.cpp  ****         char c1 = getc();
  34:src/main.cpp  ****         char c2 = getc();
  35:src/main.cpp  ****         char c3 = getc();
  36:src/main.cpp  ****         putc(c1);
  37:src/main.cpp  ****         putc(c2);
  38:src/main.cpp  ****         putc(c3);
  39:src/main.cpp  ****     }
  40:src/main.cpp  **** }
  41:src/main.cpp  **** 
  42:src/main.cpp  **** void handleNewChars(void * args) {
  12              		.loc 1 42 34
  13              		.cfi_startproc
  14              	.LVL0:
  15 0000 130101FF 		addi	sp,sp,-16
  16              		.cfi_def_cfa_offset 16
GAS LISTING /tmp/ccduLtWP.s 			page 2


  17 0004 23341100 		sd	ra,8(sp)
  18 0008 23308100 		sd	s0,0(sp)
  19              		.cfi_offset 1, -8
  20              		.cfi_offset 8, -16
  21 000c 13040101 		addi	s0,sp,16
  22              		.cfi_def_cfa 8, 0
  23 0010 6F00C000 		j	.L2
  24              	.LVL1:
  25              	.L3:
  26              	.LBB8:
  43:src/main.cpp  **** 
  44:src/main.cpp  ****     while (true) {
  45:src/main.cpp  ****         while (*(char *) CONSOLE_STATUS & CONSOLE_TX_STATUS_BIT) {
  46:src/main.cpp  ****             // console controller is ready for new char
  47:src/main.cpp  ****             char c = myConsole::output_getc();
  48:src/main.cpp  ****             if (c == '\r') continue;
  49:src/main.cpp  ****             *(char *) CONSOLE_TX_DATA = c;
  50:src/main.cpp  ****             // pop from output buffer and wr to TX DATA
  51:src/main.cpp  ****         }
  52:src/main.cpp  **** 
  53:src/main.cpp  ****         // no more work to do, move on
  54:src/main.cpp  ****         thread_dispatch();
  27              		.loc 1 54 9
  28              		.loc 1 54 24 is_stmt 0
  29 0014 97000000 		call	_Z15thread_dispatchv@plt
  29      E7800000 
  30              	.LVL2:
  31              	.LBE8:
  44:src/main.cpp  ****         while (*(char *) CONSOLE_STATUS & CONSOLE_TX_STATUS_BIT) {
  32              		.loc 1 44 5 is_stmt 1
  33              	.L2:
  44:src/main.cpp  ****         while (*(char *) CONSOLE_STATUS & CONSOLE_TX_STATUS_BIT) {
  34              		.loc 1 44 5
  35              	.LBB10:
  45:src/main.cpp  ****             // console controller is ready for new char
  36              		.loc 1 45 9
  45:src/main.cpp  ****             // console controller is ready for new char
  37              		.loc 1 45 43
  45:src/main.cpp  ****             // console controller is ready for new char
  38              		.loc 1 45 16 is_stmt 0
  39 001c 97070000 		la	a5,CONSOLE_STATUS
  39      83B70700 
  40 0024 83B70700 		ld	a5,0(a5)
  41 0028 83C70700 		lbu	a5,0(a5)
  45:src/main.cpp  ****             // console controller is ready for new char
  42              		.loc 1 45 43
  43 002c 93F70702 		andi	a5,a5,32
  44 0030 E38207FE 		beqz	a5,.L3
  45              	.LBB9:
  47:src/main.cpp  ****             if (c == '\r') continue;
  46              		.loc 1 47 13 is_stmt 1
  47:src/main.cpp  ****             if (c == '\r') continue;
  47              		.loc 1 47 44 is_stmt 0
  48 0034 97000000 		call	_ZN9myConsole11output_getcEv@plt
  48      E7800000 
  49              	.LVL3:
  48:src/main.cpp  ****             *(char *) CONSOLE_TX_DATA = c;
GAS LISTING /tmp/ccduLtWP.s 			page 3


  50              		.loc 1 48 13 is_stmt 1
  51 003c 9307D000 		li	a5,13
  52 0040 E30EF5FC 		beq	a0,a5,.L2
  49:src/main.cpp  ****             // pop from output buffer and wr to TX DATA
  53              		.loc 1 49 13
  54 0044 97070000 		la	a5,CONSOLE_TX_DATA
  54      83B70700 
  55 004c 83B70700 		ld	a5,0(a5)
  49:src/main.cpp  ****             // pop from output buffer and wr to TX DATA
  56              		.loc 1 49 39 is_stmt 0
  57 0050 2380A700 		sb	a0,0(a5)
  58 0054 6FF09FFC 		j	.L2
  59              	.LBE9:
  60              	.LBE10:
  61              		.cfi_endproc
  62              	.LFE37:
  64              		.align	2
  65              		.globl	_Z11userWrapperPv
  67              	_Z11userWrapperPv:
  68              	.LFB42:
  55:src/main.cpp  ****     }
  56:src/main.cpp  **** }
  57:src/main.cpp  **** 
  58:src/main.cpp  **** void testTimedWait(void* args) {
  59:src/main.cpp  **** 
  60:src/main.cpp  **** }
  61:src/main.cpp  **** 
  62:src/main.cpp  **** sem_t mySem;
  63:src/main.cpp  **** 
  64:src/main.cpp  **** void semWaiter(void* ) {
  65:src/main.cpp  ****     sem_wait(mySem);
  66:src/main.cpp  **** }
  67:src/main.cpp  **** 
  68:src/main.cpp  **** 
  69:src/main.cpp  **** thread_t mythreads[10];
  70:src/main.cpp  **** 
  71:src/main.cpp  **** void runningForever(void* args) {
  72:src/main.cpp  **** 
  73:src/main.cpp  ****     //char * arg = (char*)args;
  74:src/main.cpp  **** 
  75:src/main.cpp  ****     while (!mythreads[2] -> isFinished()) {
  76:src/main.cpp  ****         putc('a');
  77:src/main.cpp  ****     }
  78:src/main.cpp  **** }
  79:src/main.cpp  **** 
  80:src/main.cpp  **** 
  81:src/main.cpp  **** void timedWaiter(void *) {
  82:src/main.cpp  ****     int result = sem_timedwait(mySem, 1);
  83:src/main.cpp  ****     if (result == Sem::TIMEOUT) putc('t');
  84:src/main.cpp  ****     thread_exit();
  85:src/main.cpp  **** }
  86:src/main.cpp  **** 
  87:src/main.cpp  **** thread_t mainThread;
  88:src/main.cpp  **** thread_t consoleThread;
  89:src/main.cpp  **** thread_t userMainThread;
  90:src/main.cpp  **** 
  91:src/main.cpp  **** 
GAS LISTING /tmp/ccduLtWP.s 			page 4


  92:src/main.cpp  **** extern void userMain();
  93:src/main.cpp  **** 
  94:src/main.cpp  **** void userWrapper(void* args) {
  69              		.loc 1 94 30 is_stmt 1
  70              		.cfi_startproc
  71              	.LVL4:
  72 0058 130101FF 		addi	sp,sp,-16
  73              		.cfi_def_cfa_offset 16
  74 005c 23341100 		sd	ra,8(sp)
  75 0060 23308100 		sd	s0,0(sp)
  76              		.cfi_offset 1, -8
  77              		.cfi_offset 8, -16
  78 0064 13040101 		addi	s0,sp,16
  79              		.cfi_def_cfa 8, 0
  95:src/main.cpp  ****     userMain();
  80              		.loc 1 95 5
  81              		.loc 1 95 13 is_stmt 0
  82 0068 97000000 		call	_Z8userMainv@plt
  82      E7800000 
  83              	.LVL5:
  96:src/main.cpp  **** }
  84              		.loc 1 96 1
  85 0070 83308100 		ld	ra,8(sp)
  86              		.cfi_restore 1
  87 0074 03340100 		ld	s0,0(sp)
  88              		.cfi_restore 8
  89              		.cfi_def_cfa 2, 16
  90 0078 13010101 		addi	sp,sp,16
  91              		.cfi_def_cfa_offset 0
  92 007c 67800000 		jr	ra
  93              		.cfi_endproc
  94              	.LFE42:
  96              		.align	2
  97              		.globl	_Z19testMemoryAllocatorv
  99              	_Z19testMemoryAllocatorv:
 100              	.LFB34:
   8:src/main.cpp  **** 
 101              		.loc 1 8 28 is_stmt 1
 102              		.cfi_startproc
 103 0080 130101FE 		addi	sp,sp,-32
 104              		.cfi_def_cfa_offset 32
 105 0084 233C1100 		sd	ra,24(sp)
 106 0088 23388100 		sd	s0,16(sp)
 107 008c 23349100 		sd	s1,8(sp)
 108 0090 23302101 		sd	s2,0(sp)
 109              		.cfi_offset 1, -8
 110              		.cfi_offset 8, -16
 111              		.cfi_offset 9, -24
 112              		.cfi_offset 18, -32
 113 0094 13040102 		addi	s0,sp,32
 114              		.cfi_def_cfa 8, 0
  10:src/main.cpp  ****     MemoryAllocator::print();
 115              		.loc 1 10 5
  10:src/main.cpp  ****     MemoryAllocator::print();
 116              		.loc 1 10 44 is_stmt 0
 117 0098 13051000 		li	a0,1
 118 009c 97000000 		call	_ZN15MemoryAllocator9mem_allocEm@plt
GAS LISTING /tmp/ccduLtWP.s 			page 5


 118      E7800000 
 119              	.LVL6:
 120 00a4 93040500 		mv	s1,a0
 121              	.LVL7:
  11:src/main.cpp  ****     int ret1 = MemoryAllocator::mem_free(addr);
 122              		.loc 1 11 5 is_stmt 1
  11:src/main.cpp  ****     int ret1 = MemoryAllocator::mem_free(addr);
 123              		.loc 1 11 27 is_stmt 0
 124 00a8 97000000 		call	_ZN15MemoryAllocator5printEv@plt
 124      E7800000 
 125              	.LVL8:
  12:src/main.cpp  ****     MemoryAllocator::print();
 126              		.loc 1 12 5 is_stmt 1
  12:src/main.cpp  ****     MemoryAllocator::print();
 127              		.loc 1 12 41 is_stmt 0
 128 00b0 13850400 		mv	a0,s1
 129 00b4 97000000 		call	_ZN15MemoryAllocator8mem_freeEPv@plt
 129      E7800000 
 130              	.LVL9:
 131 00bc 13090500 		mv	s2,a0
 132              	.LVL10:
  13:src/main.cpp  **** 
 133              		.loc 1 13 5 is_stmt 1
  13:src/main.cpp  **** 
 134              		.loc 1 13 27 is_stmt 0
 135 00c0 97000000 		call	_ZN15MemoryAllocator5printEv@plt
 135      E7800000 
 136              	.LVL11:
  15:src/main.cpp  ****     MemoryAllocator::print();
 137              		.loc 1 15 5 is_stmt 1
  15:src/main.cpp  ****     MemoryAllocator::print();
 138              		.loc 1 15 41 is_stmt 0
 139 00c8 13850400 		mv	a0,s1
 140 00cc 97000000 		call	_ZN15MemoryAllocator8mem_freeEPv@plt
 140      E7800000 
 141              	.LVL12:
 142 00d4 93040500 		mv	s1,a0
 143              	.LVL13:
  16:src/main.cpp  **** 
 144              		.loc 1 16 5 is_stmt 1
  16:src/main.cpp  **** 
 145              		.loc 1 16 27 is_stmt 0
 146 00d8 97000000 		call	_ZN15MemoryAllocator5printEv@plt
 146      E7800000 
 147              	.LVL14:
  18:src/main.cpp  ****     if (ret2 < 0) __putc('G');
 148              		.loc 1 18 5 is_stmt 1
 149 00e0 63000902 		beqz	s2,.L12
 150              	.L9:
  19:src/main.cpp  **** 
 151              		.loc 1 19 5
 152 00e4 63C60402 		bltz	s1,.L13
 153              	.L8:
  21:src/main.cpp  **** 
 154              		.loc 1 21 1 is_stmt 0
 155 00e8 83308101 		ld	ra,24(sp)
 156              		.cfi_remember_state
GAS LISTING /tmp/ccduLtWP.s 			page 6


 157              		.cfi_restore 1
 158 00ec 03340101 		ld	s0,16(sp)
 159              		.cfi_restore 8
 160              		.cfi_def_cfa 2, 32
 161 00f0 83348100 		ld	s1,8(sp)
 162              		.cfi_restore 9
 163              	.LVL15:
 164 00f4 03390100 		ld	s2,0(sp)
 165              		.cfi_restore 18
 166              	.LVL16:
 167 00f8 13010102 		addi	sp,sp,32
 168              		.cfi_def_cfa_offset 0
 169 00fc 67800000 		jr	ra
 170              	.LVL17:
 171              	.L12:
 172              		.cfi_restore_state
  18:src/main.cpp  ****     if (ret2 < 0) __putc('G');
 173              		.loc 1 18 20 is_stmt 1 discriminator 1
  18:src/main.cpp  ****     if (ret2 < 0) __putc('G');
 174              		.loc 1 18 26 is_stmt 0 discriminator 1
 175 0100 13057004 		li	a0,71
 176 0104 97000000 		call	__putc@plt
 176      E7800000 
 177              	.LVL18:
 178 010c 6FF09FFD 		j	.L9
 179              	.L13:
  19:src/main.cpp  **** 
 180              		.loc 1 19 19 is_stmt 1 discriminator 1
  19:src/main.cpp  **** 
 181              		.loc 1 19 25 is_stmt 0 discriminator 1
 182 0110 13057004 		li	a0,71
 183 0114 97000000 		call	__putc@plt
 183      E7800000 
 184              	.LVL19:
  21:src/main.cpp  **** 
 185              		.loc 1 21 1 discriminator 1
 186 011c 6FF0DFFC 		j	.L8
 187              		.cfi_endproc
 188              	.LFE34:
 190              		.align	2
 191              		.globl	_Z11testCMemoryv
 193              	_Z11testCMemoryv:
 194              	.LFB35:
  23:src/main.cpp  ****     MemoryAllocator::print();
 195              		.loc 1 23 20 is_stmt 1
 196              		.cfi_startproc
 197 0120 130101FE 		addi	sp,sp,-32
 198              		.cfi_def_cfa_offset 32
 199 0124 233C1100 		sd	ra,24(sp)
 200 0128 23388100 		sd	s0,16(sp)
 201 012c 23349100 		sd	s1,8(sp)
 202              		.cfi_offset 1, -8
 203              		.cfi_offset 8, -16
 204              		.cfi_offset 9, -24
 205 0130 13040102 		addi	s0,sp,32
 206              		.cfi_def_cfa 8, 0
  24:src/main.cpp  ****     void* addr = mem_alloc(50);
GAS LISTING /tmp/ccduLtWP.s 			page 7


 207              		.loc 1 24 5
  24:src/main.cpp  ****     void* addr = mem_alloc(50);
 208              		.loc 1 24 27 is_stmt 0
 209 0134 97000000 		call	_ZN15MemoryAllocator5printEv@plt
 209      E7800000 
 210              	.LVL20:
  25:src/main.cpp  ****     MemoryAllocator::print();
 211              		.loc 1 25 5 is_stmt 1
  25:src/main.cpp  ****     MemoryAllocator::print();
 212              		.loc 1 25 27 is_stmt 0
 213 013c 13052003 		li	a0,50
 214 0140 97000000 		call	_Z9mem_allocm@plt
 214      E7800000 
 215              	.LVL21:
 216 0148 93040500 		mv	s1,a0
 217              	.LVL22:
  26:src/main.cpp  ****     mem_free(addr);
 218              		.loc 1 26 5 is_stmt 1
  26:src/main.cpp  ****     mem_free(addr);
 219              		.loc 1 26 27 is_stmt 0
 220 014c 97000000 		call	_ZN15MemoryAllocator5printEv@plt
 220      E7800000 
 221              	.LVL23:
  27:src/main.cpp  ****     MemoryAllocator::print();
 222              		.loc 1 27 5 is_stmt 1
  27:src/main.cpp  ****     MemoryAllocator::print();
 223              		.loc 1 27 13 is_stmt 0
 224 0154 13850400 		mv	a0,s1
 225 0158 97000000 		call	_Z8mem_freePv@plt
 225      E7800000 
 226              	.LVL24:
  28:src/main.cpp  **** }
 227              		.loc 1 28 5 is_stmt 1
  28:src/main.cpp  **** }
 228              		.loc 1 28 27 is_stmt 0
 229 0160 97000000 		call	_ZN15MemoryAllocator5printEv@plt
 229      E7800000 
 230              	.LVL25:
  29:src/main.cpp  **** 
 231              		.loc 1 29 1
 232 0168 83308101 		ld	ra,24(sp)
 233              		.cfi_restore 1
 234 016c 03340101 		ld	s0,16(sp)
 235              		.cfi_restore 8
 236              		.cfi_def_cfa 2, 32
 237 0170 83348100 		ld	s1,8(sp)
 238              		.cfi_restore 9
 239              	.LVL26:
 240 0174 13010102 		addi	sp,sp,32
 241              		.cfi_def_cfa_offset 0
 242 0178 67800000 		jr	ra
 243              		.cfi_endproc
 244              	.LFE35:
 246              		.align	2
 247              		.globl	_Z11testConsolePv
 249              	_Z11testConsolePv:
 250              	.LFB36:
GAS LISTING /tmp/ccduLtWP.s 			page 8


  31:src/main.cpp  ****     while (true) {
 251              		.loc 1 31 30 is_stmt 1
 252              		.cfi_startproc
 253              	.LVL27:
 254 017c 130101FD 		addi	sp,sp,-48
 255              		.cfi_def_cfa_offset 48
 256 0180 23341102 		sd	ra,40(sp)
 257 0184 23308102 		sd	s0,32(sp)
 258 0188 233C9100 		sd	s1,24(sp)
 259 018c 23382101 		sd	s2,16(sp)
 260 0190 23343101 		sd	s3,8(sp)
 261              		.cfi_offset 1, -8
 262              		.cfi_offset 8, -16
 263              		.cfi_offset 9, -24
 264              		.cfi_offset 18, -32
 265              		.cfi_offset 19, -40
 266 0194 13040103 		addi	s0,sp,48
 267              		.cfi_def_cfa 8, 0
 268              	.LVL28:
 269              	.L17:
  32:src/main.cpp  ****         char c1 = getc();
 270              		.loc 1 32 5 discriminator 1
 271              	.LBB11:
  33:src/main.cpp  ****         char c2 = getc();
 272              		.loc 1 33 9 discriminator 1
  33:src/main.cpp  ****         char c2 = getc();
 273              		.loc 1 33 23 is_stmt 0 discriminator 1
 274 0198 97000000 		call	_Z4getcv@plt
 274      E7800000 
 275              	.LVL29:
 276 01a0 93090500 		mv	s3,a0
 277              	.LVL30:
  34:src/main.cpp  ****         char c3 = getc();
 278              		.loc 1 34 9 is_stmt 1 discriminator 1
  34:src/main.cpp  ****         char c3 = getc();
 279              		.loc 1 34 23 is_stmt 0 discriminator 1
 280 01a4 97000000 		call	_Z4getcv@plt
 280      E7800000 
 281              	.LVL31:
 282 01ac 13090500 		mv	s2,a0
 283              	.LVL32:
  35:src/main.cpp  ****         putc(c1);
 284              		.loc 1 35 9 is_stmt 1 discriminator 1
  35:src/main.cpp  ****         putc(c1);
 285              		.loc 1 35 23 is_stmt 0 discriminator 1
 286 01b0 97000000 		call	_Z4getcv@plt
 286      E7800000 
 287              	.LVL33:
 288 01b8 93040500 		mv	s1,a0
 289              	.LVL34:
  36:src/main.cpp  ****         putc(c2);
 290              		.loc 1 36 9 is_stmt 1 discriminator 1
  36:src/main.cpp  ****         putc(c2);
 291              		.loc 1 36 13 is_stmt 0 discriminator 1
 292 01bc 13850900 		mv	a0,s3
 293 01c0 97000000 		call	_Z4putcc@plt
 293      E7800000 
GAS LISTING /tmp/ccduLtWP.s 			page 9


 294              	.LVL35:
  37:src/main.cpp  ****         putc(c3);
 295              		.loc 1 37 9 is_stmt 1 discriminator 1
  37:src/main.cpp  ****         putc(c3);
 296              		.loc 1 37 13 is_stmt 0 discriminator 1
 297 01c8 13050900 		mv	a0,s2
 298 01cc 97000000 		call	_Z4putcc@plt
 298      E7800000 
 299              	.LVL36:
  38:src/main.cpp  ****     }
 300              		.loc 1 38 9 is_stmt 1 discriminator 1
  38:src/main.cpp  ****     }
 301              		.loc 1 38 13 is_stmt 0 discriminator 1
 302 01d4 13850400 		mv	a0,s1
 303 01d8 97000000 		call	_Z4putcc@plt
 303      E7800000 
 304              	.LVL37:
 305              	.LBE11:
  32:src/main.cpp  ****         char c1 = getc();
 306              		.loc 1 32 5 is_stmt 1 discriminator 1
 307 01e0 6FF09FFB 		j	.L17
 308              		.cfi_endproc
 309              	.LFE36:
 311              		.align	2
 312              		.globl	_Z13testTimedWaitPv
 314              	_Z13testTimedWaitPv:
 315              	.LFB38:
  58:src/main.cpp  **** 
 316              		.loc 1 58 32
 317              		.cfi_startproc
 318              	.LVL38:
 319 01e4 130101FF 		addi	sp,sp,-16
 320              		.cfi_def_cfa_offset 16
 321 01e8 23348100 		sd	s0,8(sp)
 322              		.cfi_offset 8, -8
 323 01ec 13040101 		addi	s0,sp,16
 324              		.cfi_def_cfa 8, 0
  60:src/main.cpp  **** 
 325              		.loc 1 60 1 is_stmt 0
 326 01f0 03348100 		ld	s0,8(sp)
 327              		.cfi_restore 8
 328              		.cfi_def_cfa 2, 16
 329 01f4 13010101 		addi	sp,sp,16
 330              		.cfi_def_cfa_offset 0
 331 01f8 67800000 		jr	ra
 332              		.cfi_endproc
 333              	.LFE38:
 335              		.align	2
 336              		.globl	_Z9semWaiterPv
 338              	_Z9semWaiterPv:
 339              	.LFB39:
  64:src/main.cpp  ****     sem_wait(mySem);
 340              		.loc 1 64 24 is_stmt 1
 341              		.cfi_startproc
 342 01fc 130101FF 		addi	sp,sp,-16
 343              		.cfi_def_cfa_offset 16
 344 0200 23341100 		sd	ra,8(sp)
GAS LISTING /tmp/ccduLtWP.s 			page 10


 345 0204 23308100 		sd	s0,0(sp)
 346              		.cfi_offset 1, -8
 347              		.cfi_offset 8, -16
 348 0208 13040101 		addi	s0,sp,16
 349              		.cfi_def_cfa 8, 0
  65:src/main.cpp  **** }
 350              		.loc 1 65 5
  65:src/main.cpp  **** }
 351              		.loc 1 65 13 is_stmt 0
 352 020c 17050000 		ld	a0,.LANCHOR0
 352      03350500 
 353 0214 97000000 		call	_Z8sem_waitP3Sem@plt
 353      E7800000 
 354              	.LVL39:
  66:src/main.cpp  **** 
 355              		.loc 1 66 1
 356 021c 83308100 		ld	ra,8(sp)
 357              		.cfi_restore 1
 358 0220 03340100 		ld	s0,0(sp)
 359              		.cfi_restore 8
 360              		.cfi_def_cfa 2, 16
 361 0224 13010101 		addi	sp,sp,16
 362              		.cfi_def_cfa_offset 0
 363 0228 67800000 		jr	ra
 364              		.cfi_endproc
 365              	.LFE39:
 367              		.align	2
 368              		.globl	_Z14runningForeverPv
 370              	_Z14runningForeverPv:
 371              	.LFB40:
  71:src/main.cpp  **** 
 372              		.loc 1 71 33 is_stmt 1
 373              		.cfi_startproc
 374              	.LVL40:
  75:src/main.cpp  ****         putc('a');
 375              		.loc 1 75 5
  75:src/main.cpp  ****         putc('a');
 376              		.loc 1 75 12
 377              	.LBB12:
 378              	.LBB13:
 379              		.file 2 "src/../h/thread.hpp"
   1:src/../h/thread.hpp **** //
   2:src/../h/thread.hpp **** // Created by os on 4/9/24.
   3:src/../h/thread.hpp **** //
   4:src/../h/thread.hpp **** 
   5:src/../h/thread.hpp **** #ifndef PROJECT_BASE_THREAD_HPP
   6:src/../h/thread.hpp **** #define PROJECT_BASE_THREAD_HPP
   7:src/../h/thread.hpp **** 
   8:src/../h/thread.hpp **** #include "../lib/hw.h"
   9:src/../h/thread.hpp **** #include "../h/Memoryallocator.hpp"
  10:src/../h/thread.hpp **** #include "../h/riscv.hpp"
  11:src/../h/thread.hpp **** #include "../h/syscall_c.h"
  12:src/../h/thread.hpp **** 
  13:src/../h/thread.hpp **** //extern void thread_dispatch();
  14:src/../h/thread.hpp **** 
  15:src/../h/thread.hpp **** using routine_ptr = void(*)(void *);
  16:src/../h/thread.hpp **** 
GAS LISTING /tmp/ccduLtWP.s 			page 11


  17:src/../h/thread.hpp **** // _thread je wrapper ove klase
  18:src/../h/thread.hpp **** class TCB final {
  19:src/../h/thread.hpp **** 
  20:src/../h/thread.hpp ****     friend class RISCV;
  21:src/../h/thread.hpp ****     friend class Sem;
  22:src/../h/thread.hpp ****     friend class Scheduler;
  23:src/../h/thread.hpp **** 
  24:src/../h/thread.hpp **** public:
  25:src/../h/thread.hpp **** 
  26:src/../h/thread.hpp ****     static TCB* running; // current thread
  27:src/../h/thread.hpp **** 
  28:src/../h/thread.hpp ****     enum state {
  29:src/../h/thread.hpp ****         RUNNABLE,
  30:src/../h/thread.hpp ****         SLEEPING,
  31:src/../h/thread.hpp ****         CREATED,
  32:src/../h/thread.hpp ****         FINISHED,
  33:src/../h/thread.hpp ****         BLOCKED
  34:src/../h/thread.hpp ****     };
  35:src/../h/thread.hpp ****     struct Context {
  36:src/../h/thread.hpp ****         // nadogradi kasnije
  37:src/../h/thread.hpp ****         uint64 pc;
  38:src/../h/thread.hpp ****         uint64 sp;
  39:src/../h/thread.hpp ****         uint64 sstatus;
  40:src/../h/thread.hpp ****         uint64 sepc;
  41:src/../h/thread.hpp ****     };
  42:src/../h/thread.hpp **** 
  43:src/../h/thread.hpp ****     static int _threadCreate(TCB** handle, routine_ptr routine, void* args, void* stack_space); // 
  44:src/../h/thread.hpp **** 
  45:src/../h/thread.hpp ****     static void yield(TCB*, TCB*);
  46:src/../h/thread.hpp **** 
  47:src/../h/thread.hpp ****     static void dispatch();
  48:src/../h/thread.hpp **** 
  49:src/../h/thread.hpp ****     state getState() const {return current_state;}
  50:src/../h/thread.hpp ****     time_t getTimeSlice() const {return time_slice;}
  51:src/../h/thread.hpp **** 
  52:src/../h/thread.hpp ****     static bool isRunnable();
  53:src/../h/thread.hpp **** 
  54:src/../h/thread.hpp ****     static bool isFinished() {return TCB::running->current_state == state::FINISHED;}
 380              		.loc 2 54 31
 381              		.loc 2 54 52 is_stmt 0
 382 022c 97070000 		la	a5,_ZN3TCB7runningE
 382      83B70700 
 383 0234 83B70700 		ld	a5,0(a5)
 384 0238 03A78706 		lw	a4,104(a5)
 385              	.LBE13:
 386              	.LBE12:
  75:src/main.cpp  ****         putc('a');
 387              		.loc 1 75 12
 388 023c 93073000 		li	a5,3
 389 0240 6304F704 		beq	a4,a5,.L31
  71:src/main.cpp  **** 
 390              		.loc 1 71 33
 391 0244 130101FF 		addi	sp,sp,-16
 392              		.cfi_def_cfa_offset 16
 393 0248 23341100 		sd	ra,8(sp)
 394 024c 23308100 		sd	s0,0(sp)
 395              		.cfi_offset 1, -8
GAS LISTING /tmp/ccduLtWP.s 			page 12


 396              		.cfi_offset 8, -16
 397 0250 13040101 		addi	s0,sp,16
 398              		.cfi_def_cfa 8, 0
 399              	.LVL41:
 400              	.L27:
  76:src/main.cpp  ****     }
 401              		.loc 1 76 9 is_stmt 1
  76:src/main.cpp  ****     }
 402              		.loc 1 76 13 is_stmt 0
 403 0254 13051006 		li	a0,97
 404 0258 97000000 		call	_Z4putcc@plt
 404      E7800000 
 405              	.LVL42:
  75:src/main.cpp  ****         putc('a');
 406              		.loc 1 75 5 is_stmt 1
  75:src/main.cpp  ****         putc('a');
 407              		.loc 1 75 12
 408              	.LBB15:
 409              	.LBB14:
 410              		.loc 2 54 31
 411              		.loc 2 54 52 is_stmt 0
 412 0260 97070000 		la	a5,_ZN3TCB7runningE
 412      83B70700 
 413 0268 83B70700 		ld	a5,0(a5)
 414 026c 03A78706 		lw	a4,104(a5)
 415              	.LBE14:
 416              	.LBE15:
  75:src/main.cpp  ****         putc('a');
 417              		.loc 1 75 12
 418 0270 93073000 		li	a5,3
 419 0274 E310F7FE 		bne	a4,a5,.L27
  78:src/main.cpp  **** 
 420              		.loc 1 78 1
 421 0278 83308100 		ld	ra,8(sp)
 422              		.cfi_restore 1
 423 027c 03340100 		ld	s0,0(sp)
 424              		.cfi_restore 8
 425              		.cfi_def_cfa 2, 16
 426 0280 13010101 		addi	sp,sp,16
 427              		.cfi_def_cfa_offset 0
 428 0284 67800000 		jr	ra
 429              	.LVL43:
 430              	.L31:
 431 0288 67800000 		ret
 432              		.cfi_endproc
 433              	.LFE40:
 435              		.align	2
 436              		.globl	_Z11timedWaiterPv
 438              	_Z11timedWaiterPv:
 439              	.LFB41:
  81:src/main.cpp  ****     int result = sem_timedwait(mySem, 1);
 440              		.loc 1 81 26 is_stmt 1
 441              		.cfi_startproc
 442 028c 130101FF 		addi	sp,sp,-16
 443              		.cfi_def_cfa_offset 16
 444 0290 23341100 		sd	ra,8(sp)
 445 0294 23308100 		sd	s0,0(sp)
GAS LISTING /tmp/ccduLtWP.s 			page 13


 446              		.cfi_offset 1, -8
 447              		.cfi_offset 8, -16
 448 0298 13040101 		addi	s0,sp,16
 449              		.cfi_def_cfa 8, 0
  82:src/main.cpp  ****     if (result == Sem::TIMEOUT) putc('t');
 450              		.loc 1 82 5
  82:src/main.cpp  ****     if (result == Sem::TIMEOUT) putc('t');
 451              		.loc 1 82 31 is_stmt 0
 452 029c 93051000 		li	a1,1
 453 02a0 17050000 		ld	a0,.LANCHOR0
 453      03350500 
 454 02a8 97000000 		call	_Z13sem_timedwaitP3Semm@plt
 454      E7800000 
 455              	.LVL44:
  83:src/main.cpp  ****     thread_exit();
 456              		.loc 1 83 5 is_stmt 1
 457 02b0 9307E0FF 		li	a5,-2
 458 02b4 630EF500 		beq	a0,a5,.L35
 459              	.LVL45:
 460              	.L33:
  84:src/main.cpp  **** }
 461              		.loc 1 84 5
  84:src/main.cpp  **** }
 462              		.loc 1 84 16 is_stmt 0
 463 02b8 97000000 		call	_Z11thread_exitv@plt
 463      E7800000 
 464              	.LVL46:
  85:src/main.cpp  **** 
 465              		.loc 1 85 1
 466 02c0 83308100 		ld	ra,8(sp)
 467              		.cfi_remember_state
 468              		.cfi_restore 1
 469 02c4 03340100 		ld	s0,0(sp)
 470              		.cfi_restore 8
 471              		.cfi_def_cfa 2, 16
 472 02c8 13010101 		addi	sp,sp,16
 473              		.cfi_def_cfa_offset 0
 474 02cc 67800000 		jr	ra
 475              	.LVL47:
 476              	.L35:
 477              		.cfi_restore_state
  83:src/main.cpp  ****     thread_exit();
 478              		.loc 1 83 33 is_stmt 1 discriminator 1
  83:src/main.cpp  ****     thread_exit();
 479              		.loc 1 83 37 is_stmt 0 discriminator 1
 480 02d0 13054007 		li	a0,116
 481              	.LVL48:
 482 02d4 97000000 		call	_Z4putcc@plt
 482      E7800000 
 483              	.LVL49:
 484 02dc 6FF0DFFD 		j	.L33
 485              		.cfi_endproc
 486              	.LFE41:
 488              		.align	2
 489              		.globl	main
 491              	main:
 492              	.LFB43:
GAS LISTING /tmp/ccduLtWP.s 			page 14


  97:src/main.cpp  **** 
  98:src/main.cpp  **** int main() {
 493              		.loc 1 98 12 is_stmt 1
 494              		.cfi_startproc
 495 02e0 130101FF 		addi	sp,sp,-16
 496              		.cfi_def_cfa_offset 16
 497 02e4 23341100 		sd	ra,8(sp)
 498 02e8 23308100 		sd	s0,0(sp)
 499              		.cfi_offset 1, -8
 500              		.cfi_offset 8, -16
 501 02ec 13040101 		addi	s0,sp,16
 502              		.cfi_def_cfa 8, 0
  99:src/main.cpp  **** 
 100:src/main.cpp  ****     RISCV::wr_stvec((uint64)&RISCV::supervisor_trap);
 503              		.loc 1 100 5
 504              		.loc 1 100 20 is_stmt 0
 505 02f0 97070000 		la	a5,_ZN5RISCV15supervisor_trapEv
 505      83B70700 
 506              	.LVL50:
 507              	.LBB16:
 508              	.LBB17:
 509              		.file 3 "src/../h/../h/riscv.hpp"
   1:src/../h/../h/riscv.hpp **** //
   2:src/../h/../h/riscv.hpp **** // Created by os on 4/7/24.
   3:src/../h/../h/riscv.hpp **** //
   4:src/../h/../h/riscv.hpp **** 
   5:src/../h/../h/riscv.hpp **** #ifndef PROJECT_BASE_RISCV_HPP
   6:src/../h/../h/riscv.hpp **** #define PROJECT_BASE_RISCV_HPP
   7:src/../h/../h/riscv.hpp **** 
   8:src/../h/../h/riscv.hpp **** #include "../lib/hw.h"
   9:src/../h/../h/riscv.hpp **** 
  10:src/../h/../h/riscv.hpp **** class RISCV {
  11:src/../h/../h/riscv.hpp **** public:
  12:src/../h/../h/riscv.hpp **** 
  13:src/../h/../h/riscv.hpp ****     enum causes {
  14:src/../h/../h/riscv.hpp ****         SOFTWARE = 0x8000000000000001UL,
  15:src/../h/../h/riscv.hpp ****         EXTERNAL = 0x8000000000000009UL,
  16:src/../h/../h/riscv.hpp ****         U_ECALL  = 0x0000000000000008UL,
  17:src/../h/../h/riscv.hpp ****         S_ECALL  = 0x0000000000000009UL
  18:src/../h/../h/riscv.hpp ****     };
  19:src/../h/../h/riscv.hpp **** 
  20:src/../h/../h/riscv.hpp ****     static void supervisor_trap();
  21:src/../h/../h/riscv.hpp ****     static void handle_interrupt();
  22:src/../h/../h/riscv.hpp **** 
  23:src/../h/../h/riscv.hpp ****     static void push_regs();
  24:src/../h/../h/riscv.hpp ****     static void pop_regs();
  25:src/../h/../h/riscv.hpp **** 
  26:src/../h/../h/riscv.hpp ****     static uint64 rd_scause();
  27:src/../h/../h/riscv.hpp ****     static void wr_scause(uint64 value);
  28:src/../h/../h/riscv.hpp **** 
  29:src/../h/../h/riscv.hpp ****     static uint64 rd_sepc();
  30:src/../h/../h/riscv.hpp ****     static void wr_sepc(uint64 value);
  31:src/../h/../h/riscv.hpp **** 
  32:src/../h/../h/riscv.hpp ****     static uint64 rd_stvec();
  33:src/../h/../h/riscv.hpp ****     static void wr_stvec(uint64 value);
  34:src/../h/../h/riscv.hpp **** 
  35:src/../h/../h/riscv.hpp ****     static uint64 rd_stval();
GAS LISTING /tmp/ccduLtWP.s 			page 15


  36:src/../h/../h/riscv.hpp ****     static void wr_stval(uint64 value);
  37:src/../h/../h/riscv.hpp **** 
  38:src/../h/../h/riscv.hpp ****     static uint64 rd_sip();
  39:src/../h/../h/riscv.hpp ****     static void wr_sip(uint64 value);
  40:src/../h/../h/riscv.hpp **** 
  41:src/../h/../h/riscv.hpp ****     static uint64 rd_sstatus();
  42:src/../h/../h/riscv.hpp ****     static void wr_sstatus(uint64 value);
  43:src/../h/../h/riscv.hpp **** 
  44:src/../h/../h/riscv.hpp ****     static inline void clear_sip(uint64 mask) {
  45:src/../h/../h/riscv.hpp ****         __asm__ volatile("csrc sip, %0" : : "r"(mask));
  46:src/../h/../h/riscv.hpp ****     }
  47:src/../h/../h/riscv.hpp **** 
  48:src/../h/../h/riscv.hpp ****     static inline void set_sip(uint64 mask) {
  49:src/../h/../h/riscv.hpp ****         __asm__ volatile("csrs sip, %0" : : "r"(mask));
  50:src/../h/../h/riscv.hpp ****     }
  51:src/../h/../h/riscv.hpp **** 
  52:src/../h/../h/riscv.hpp **** 
  53:src/../h/../h/riscv.hpp ****     static inline void mask_status(uint64 mask) {
  54:src/../h/../h/riscv.hpp ****         __asm__ volatile("csrc sstatus, %0" : : "r"(mask));
  55:src/../h/../h/riscv.hpp ****     };
  56:src/../h/../h/riscv.hpp **** 
  57:src/../h/../h/riscv.hpp ****     static inline void set_status(uint64 mask) {
  58:src/../h/../h/riscv.hpp ****         __asm__ volatile("csrs sstatus, %0" : : "r"(mask));
  59:src/../h/../h/riscv.hpp ****     }
  60:src/../h/../h/riscv.hpp **** 
  61:src/../h/../h/riscv.hpp ****     static void popSppSpie();
  62:src/../h/../h/riscv.hpp ****     // pop sstatus.spp and sstatus.spie bits
  63:src/../h/../h/riscv.hpp ****     // must be in cpp !!!
  64:src/../h/../h/riscv.hpp **** 
  65:src/../h/../h/riscv.hpp ****     enum mask_sstatus {
  66:src/../h/../h/riscv.hpp ****         SIE = (1 << 1),
  67:src/../h/../h/riscv.hpp ****         SPIE =(1 << 5),
  68:src/../h/../h/riscv.hpp ****         SPP = (1 << 8)
  69:src/../h/../h/riscv.hpp ****     };
  70:src/../h/../h/riscv.hpp **** 
  71:src/../h/../h/riscv.hpp ****     enum mask_sip_sie {
  72:src/../h/../h/riscv.hpp ****         SS = (1 << 1),
  73:src/../h/../h/riscv.hpp ****         SE = (1 << 9)
  74:src/../h/../h/riscv.hpp ****     };
  75:src/../h/../h/riscv.hpp **** 
  76:src/../h/../h/riscv.hpp **** };
  77:src/../h/../h/riscv.hpp **** 
  78:src/../h/../h/riscv.hpp **** inline uint64 RISCV::rd_scause() {
  79:src/../h/../h/riscv.hpp ****     uint64 volatile value;
  80:src/../h/../h/riscv.hpp ****     __asm__ volatile ("csrr %0, scause" : "=r"(value));
  81:src/../h/../h/riscv.hpp ****     return value;
  82:src/../h/../h/riscv.hpp **** }
  83:src/../h/../h/riscv.hpp **** 
  84:src/../h/../h/riscv.hpp **** inline void RISCV::wr_scause(uint64 value) {
  85:src/../h/../h/riscv.hpp ****     __asm__ volatile ("csrw scause, %0" : : "r"(value));
  86:src/../h/../h/riscv.hpp **** }
  87:src/../h/../h/riscv.hpp **** 
  88:src/../h/../h/riscv.hpp **** inline uint64 RISCV::rd_sepc() {
  89:src/../h/../h/riscv.hpp ****     uint64 volatile value;
  90:src/../h/../h/riscv.hpp ****     __asm__ volatile ("csrr %0, sepc" : "=r"(value));
  91:src/../h/../h/riscv.hpp ****     return value;
  92:src/../h/../h/riscv.hpp **** }
GAS LISTING /tmp/ccduLtWP.s 			page 16


  93:src/../h/../h/riscv.hpp **** 
  94:src/../h/../h/riscv.hpp **** inline void RISCV::wr_sepc(uint64 value) {
  95:src/../h/../h/riscv.hpp ****     __asm__ volatile ("csrw sepc, %0" : : "r"(value));
  96:src/../h/../h/riscv.hpp **** }
  97:src/../h/../h/riscv.hpp **** 
  98:src/../h/../h/riscv.hpp **** inline uint64 RISCV::rd_stvec() {
  99:src/../h/../h/riscv.hpp ****     uint64 volatile value;
 100:src/../h/../h/riscv.hpp ****     __asm__ volatile ("csrr %0, stvec" : "=r"(value));
 101:src/../h/../h/riscv.hpp ****     return value;
 102:src/../h/../h/riscv.hpp **** }
 103:src/../h/../h/riscv.hpp **** 
 104:src/../h/../h/riscv.hpp **** inline void RISCV::wr_stvec(uint64 value) {
 105:src/../h/../h/riscv.hpp ****     __asm__ volatile ("csrw stvec, %0" : : "r"(value));
 510              		.loc 3 105 5 is_stmt 1
 511              		.loc 3 105 55 is_stmt 0
 512              	#APP
 513              	# 105 "src/../h/../h/riscv.hpp" 1
 106              	}
 514              		csrw stvec, a5
 515              	# 0 "" 2
 516              	.LVL51:
 517              	#NO_APP
 518              	.LBE17:
 519              	.LBE16:
 101:src/main.cpp  ****     MemoryAllocator::getAllocator();
 520              		.loc 1 101 5 is_stmt 1
 521              		.loc 1 101 34 is_stmt 0
 522 02fc 97000000 		call	_ZN15MemoryAllocator12getAllocatorEv@plt
 522      E7800000 
 523              	.LVL52:
 102:src/main.cpp  ****     Scheduler::init_scheduler();
 524              		.loc 1 102 5 is_stmt 1
 525              		.loc 1 102 30 is_stmt 0
 526 0304 97000000 		call	_ZN9Scheduler14init_schedulerEv@plt
 526      E7800000 
 527              	.LVL53:
 103:src/main.cpp  ****     myConsole::init();
 528              		.loc 1 103 5 is_stmt 1
 529              		.loc 1 103 20 is_stmt 0
 530 030c 97000000 		call	_ZN9myConsole4initEv@plt
 530      E7800000 
 531              	.LVL54:
 104:src/main.cpp  **** 
 105:src/main.cpp  **** //    testMemoryAllocator();
 106:src/main.cpp  **** //    testCMemory();
 107:src/main.cpp  **** 
 108:src/main.cpp  ****     thread_create(&mainThread, nullptr, nullptr); // main
 532              		.loc 1 108 5 is_stmt 1
 533              		.loc 1 108 18 is_stmt 0
 534 0314 13060000 		li	a2,0
 535 0318 93050000 		li	a1,0
 536 031c 17050000 		lla	a0,.LANCHOR0+8
 536      13050500 
 537 0324 97000000 		call	_Z13thread_createPP3TCBPFvPvES2_@plt
 537      E7800000 
 538              	.LVL55:
 109:src/main.cpp  **** 
GAS LISTING /tmp/ccduLtWP.s 			page 17


 110:src/main.cpp  ****     TCB::running = mainThread;
 539              		.loc 1 110 5 is_stmt 1
 540              		.loc 1 110 18 is_stmt 0
 541 032c 97070000 		la	a5,_ZN3TCB7runningE
 541      83B70700 
 542 0334 17070000 		ld	a4,.LANCHOR0+8
 542      03370700 
 543 033c 23B0E700 		sd	a4,0(a5)
 111:src/main.cpp  **** 
 112:src/main.cpp  ****     RISCV::set_status(RISCV::SIE); // interrupts enabled
 544              		.loc 1 112 5 is_stmt 1
 545              	.LVL56:
 546              	.LBB18:
 547              	.LBB19:
  58:src/../h/../h/riscv.hpp ****     }
 548              		.loc 3 58 9
  58:src/../h/../h/riscv.hpp ****     }
 549              		.loc 3 58 59 is_stmt 0
 550 0340 93072000 		li	a5,2
 551              	#APP
 552              	# 58 "src/../h/../h/riscv.hpp" 1
 553              		csrs sstatus, a5
 554              	# 0 "" 2
 555              	.LVL57:
 556              	#NO_APP
 557              	.LBE19:
 558              	.LBE18:
 113:src/main.cpp  **** 
 114:src/main.cpp  ****     thread_create(&consoleThread, handleNewChars, nullptr);
 559              		.loc 1 114 5 is_stmt 1
 560              		.loc 1 114 18 is_stmt 0
 561 0348 13060000 		li	a2,0
 562 034c 97050000 		lla	a1,_Z14handleNewCharsPv
 562      93850500 
 563 0354 17050000 		lla	a0,.LANCHOR0+16
 563      13050500 
 564 035c 97000000 		call	_Z13thread_createPP3TCBPFvPvES2_@plt
 564      E7800000 
 565              	.LVL58:
 115:src/main.cpp  **** 
 116:src/main.cpp  **** //    thread_create(&mythreads[0], runningForever, (void *)('b'));
 117:src/main.cpp  **** //    thread_create(&mythreads[1], runningForever, (void *)('a'));
 118:src/main.cpp  **** //    thread_create(&mythreads[3], runningForever, (void *)('b'));
 119:src/main.cpp  **** //    thread_create(&mythreads[4], semWaiter, (void *)('a'));
 120:src/main.cpp  **** //    thread_create(&mythreads[5], semWaiter, (void *)('b'));
 121:src/main.cpp  **** //
 122:src/main.cpp  **** //    thread_create(&mythreads[2], timedWaiter, nullptr);
 123:src/main.cpp  **** 
 124:src/main.cpp  ****     thread_create(&userMainThread, userWrapper, nullptr);
 566              		.loc 1 124 5 is_stmt 1
 567              		.loc 1 124 18 is_stmt 0
 568 0364 13060000 		li	a2,0
 569 0368 97050000 		lla	a1,_Z11userWrapperPv
 569      93850500 
 570 0370 17050000 		lla	a0,.LANCHOR0+24
 570      13050500 
 571 0378 97000000 		call	_Z13thread_createPP3TCBPFvPvES2_@plt
GAS LISTING /tmp/ccduLtWP.s 			page 18


 571      E7800000 
 572              	.LVL59:
 573              	.L37:
 125:src/main.cpp  **** 
 126:src/main.cpp  **** //    sem_open(&mySem, 1); // mutex
 127:src/main.cpp  **** 
 128:src/main.cpp  ****      while (true) thread_dispatch();
 574              		.loc 1 128 6 is_stmt 1 discriminator 1
 575              		.loc 1 128 19 discriminator 1
 576              		.loc 1 128 34 is_stmt 0 discriminator 1
 577 0380 97000000 		call	_Z15thread_dispatchv@plt
 577      E7800000 
 578              	.LVL60:
 579              		.loc 1 128 6 is_stmt 1 discriminator 1
 580 0388 6FF09FFF 		j	.L37
 581              		.cfi_endproc
 582              	.LFE43:
 584              		.globl	userMainThread
 585              		.globl	consoleThread
 586              		.globl	mainThread
 587              		.globl	mythreads
 588              		.globl	mySem
 589              		.bss
 590              		.align	3
 591              		.set	.LANCHOR0,. + 0
 594              	mySem:
 595 0000 00000000 		.zero	8
 595      00000000 
 598              	mainThread:
 599 0008 00000000 		.zero	8
 599      00000000 
 602              	consoleThread:
 603 0010 00000000 		.zero	8
 603      00000000 
 606              	userMainThread:
 607 0018 00000000 		.zero	8
 607      00000000 
 610              	mythreads:
 611 0020 00000000 		.zero	80
 611      00000000 
 611      00000000 
 611      00000000 
 611      00000000 
 612              		.text
 613              	.Letext0:
 614              		.file 4 "src/../h/../lib/hw.h"
 615              		.file 5 "src/../h/Memoryallocator.hpp"
 616              		.file 6 "src/../h/../h/syscall_c.h"
 617              		.file 7 "src/../h/semaphore.hpp"
 618              		.file 8 "src/../h/Scheduler.hpp"
 619              		.file 9 "src/../h/List.hpp"
 620              		.file 10 "src/../h/BoundedBuffer.hpp"
 621              		.file 11 "src/../h/Console.hpp"
 622              		.file 12 "src/../lib/console.h"
GAS LISTING /tmp/ccduLtWP.s 			page 19


DEFINED SYMBOLS
                            *ABS*:0000000000000000 main.cpp
     /tmp/ccduLtWP.s:9      .text:0000000000000000 _Z14handleNewCharsPv
     /tmp/ccduLtWP.s:13     .text:0000000000000000 .L0 
     /tmp/ccduLtWP.s:15     .text:0000000000000000 .L0 
     /tmp/ccduLtWP.s:16     .text:0000000000000004 .L0 
     /tmp/ccduLtWP.s:19     .text:000000000000000c .L0 
     /tmp/ccduLtWP.s:20     .text:000000000000000c .L0 
     /tmp/ccduLtWP.s:22     .text:0000000000000010 .L0 
     /tmp/ccduLtWP.s:28     .text:0000000000000014 .L0 
     /tmp/ccduLtWP.s:29     .text:0000000000000014 .L0 
     /tmp/ccduLtWP.s:34     .text:000000000000001c .L0 
     /tmp/ccduLtWP.s:36     .text:000000000000001c .L0 
     /tmp/ccduLtWP.s:37     .text:000000000000001c .L0 
     /tmp/ccduLtWP.s:38     .text:000000000000001c .L0 
     /tmp/ccduLtWP.s:39     .text:000000000000001c .L0 
     /tmp/ccduLtWP.s:43     .text:000000000000002c .L0 
     /tmp/ccduLtWP.s:47     .text:0000000000000034 .L0 
     /tmp/ccduLtWP.s:48     .text:0000000000000034 .L0 
     /tmp/ccduLtWP.s:51     .text:000000000000003c .L0 
     /tmp/ccduLtWP.s:54     .text:0000000000000044 .L0 
     /tmp/ccduLtWP.s:57     .text:0000000000000050 .L0 
     /tmp/ccduLtWP.s:61     .text:0000000000000058 .L0 
     /tmp/ccduLtWP.s:67     .text:0000000000000058 _Z11userWrapperPv
     /tmp/ccduLtWP.s:70     .text:0000000000000058 .L0 
     /tmp/ccduLtWP.s:72     .text:0000000000000058 .L0 
     /tmp/ccduLtWP.s:73     .text:000000000000005c .L0 
     /tmp/ccduLtWP.s:76     .text:0000000000000064 .L0 
     /tmp/ccduLtWP.s:77     .text:0000000000000064 .L0 
     /tmp/ccduLtWP.s:79     .text:0000000000000068 .L0 
     /tmp/ccduLtWP.s:81     .text:0000000000000068 .L0 
     /tmp/ccduLtWP.s:82     .text:0000000000000068 .L0 
     /tmp/ccduLtWP.s:85     .text:0000000000000070 .L0 
     /tmp/ccduLtWP.s:86     .text:0000000000000074 .L0 
     /tmp/ccduLtWP.s:88     .text:0000000000000078 .L0 
     /tmp/ccduLtWP.s:89     .text:0000000000000078 .L0 
     /tmp/ccduLtWP.s:91     .text:000000000000007c .L0 
     /tmp/ccduLtWP.s:93     .text:0000000000000080 .L0 
     /tmp/ccduLtWP.s:99     .text:0000000000000080 _Z19testMemoryAllocatorv
     /tmp/ccduLtWP.s:102    .text:0000000000000080 .L0 
     /tmp/ccduLtWP.s:103    .text:0000000000000080 .L0 
     /tmp/ccduLtWP.s:104    .text:0000000000000084 .L0 
     /tmp/ccduLtWP.s:109    .text:0000000000000094 .L0 
     /tmp/ccduLtWP.s:110    .text:0000000000000094 .L0 
     /tmp/ccduLtWP.s:111    .text:0000000000000094 .L0 
     /tmp/ccduLtWP.s:112    .text:0000000000000094 .L0 
     /tmp/ccduLtWP.s:114    .text:0000000000000098 .L0 
     /tmp/ccduLtWP.s:116    .text:0000000000000098 .L0 
     /tmp/ccduLtWP.s:117    .text:0000000000000098 .L0 
     /tmp/ccduLtWP.s:123    .text:00000000000000a8 .L0 
     /tmp/ccduLtWP.s:124    .text:00000000000000a8 .L0 
     /tmp/ccduLtWP.s:127    .text:00000000000000b0 .L0 
     /tmp/ccduLtWP.s:128    .text:00000000000000b0 .L0 
     /tmp/ccduLtWP.s:134    .text:00000000000000c0 .L0 
     /tmp/ccduLtWP.s:135    .text:00000000000000c0 .L0 
     /tmp/ccduLtWP.s:138    .text:00000000000000c8 .L0 
     /tmp/ccduLtWP.s:139    .text:00000000000000c8 .L0 
GAS LISTING /tmp/ccduLtWP.s 			page 20


     /tmp/ccduLtWP.s:145    .text:00000000000000d8 .L0 
     /tmp/ccduLtWP.s:146    .text:00000000000000d8 .L0 
     /tmp/ccduLtWP.s:149    .text:00000000000000e0 .L0 
     /tmp/ccduLtWP.s:152    .text:00000000000000e4 .L0 
     /tmp/ccduLtWP.s:155    .text:00000000000000e8 .L0 
     /tmp/ccduLtWP.s:156    .text:00000000000000ec .L0 
     /tmp/ccduLtWP.s:157    .text:00000000000000ec .L0 
     /tmp/ccduLtWP.s:159    .text:00000000000000f0 .L0 
     /tmp/ccduLtWP.s:160    .text:00000000000000f0 .L0 
     /tmp/ccduLtWP.s:162    .text:00000000000000f4 .L0 
     /tmp/ccduLtWP.s:165    .text:00000000000000f8 .L0 
     /tmp/ccduLtWP.s:168    .text:00000000000000fc .L0 
     /tmp/ccduLtWP.s:172    .text:0000000000000100 .L0 
     /tmp/ccduLtWP.s:174    .text:0000000000000100 .L0 
     /tmp/ccduLtWP.s:175    .text:0000000000000100 .L0 
     /tmp/ccduLtWP.s:181    .text:0000000000000110 .L0 
     /tmp/ccduLtWP.s:182    .text:0000000000000110 .L0 
     /tmp/ccduLtWP.s:186    .text:000000000000011c .L0 
     /tmp/ccduLtWP.s:187    .text:0000000000000120 .L0 
     /tmp/ccduLtWP.s:193    .text:0000000000000120 _Z11testCMemoryv
     /tmp/ccduLtWP.s:196    .text:0000000000000120 .L0 
     /tmp/ccduLtWP.s:197    .text:0000000000000120 .L0 
     /tmp/ccduLtWP.s:198    .text:0000000000000124 .L0 
     /tmp/ccduLtWP.s:202    .text:0000000000000130 .L0 
     /tmp/ccduLtWP.s:203    .text:0000000000000130 .L0 
     /tmp/ccduLtWP.s:204    .text:0000000000000130 .L0 
     /tmp/ccduLtWP.s:206    .text:0000000000000134 .L0 
     /tmp/ccduLtWP.s:208    .text:0000000000000134 .L0 
     /tmp/ccduLtWP.s:209    .text:0000000000000134 .L0 
     /tmp/ccduLtWP.s:212    .text:000000000000013c .L0 
     /tmp/ccduLtWP.s:213    .text:000000000000013c .L0 
     /tmp/ccduLtWP.s:219    .text:000000000000014c .L0 
     /tmp/ccduLtWP.s:220    .text:000000000000014c .L0 
     /tmp/ccduLtWP.s:223    .text:0000000000000154 .L0 
     /tmp/ccduLtWP.s:224    .text:0000000000000154 .L0 
     /tmp/ccduLtWP.s:228    .text:0000000000000160 .L0 
     /tmp/ccduLtWP.s:229    .text:0000000000000160 .L0 
     /tmp/ccduLtWP.s:232    .text:0000000000000168 .L0 
     /tmp/ccduLtWP.s:233    .text:000000000000016c .L0 
     /tmp/ccduLtWP.s:235    .text:0000000000000170 .L0 
     /tmp/ccduLtWP.s:236    .text:0000000000000170 .L0 
     /tmp/ccduLtWP.s:238    .text:0000000000000174 .L0 
     /tmp/ccduLtWP.s:241    .text:0000000000000178 .L0 
     /tmp/ccduLtWP.s:243    .text:000000000000017c .L0 
     /tmp/ccduLtWP.s:249    .text:000000000000017c _Z11testConsolePv
     /tmp/ccduLtWP.s:252    .text:000000000000017c .L0 
     /tmp/ccduLtWP.s:254    .text:000000000000017c .L0 
     /tmp/ccduLtWP.s:255    .text:0000000000000180 .L0 
     /tmp/ccduLtWP.s:261    .text:0000000000000194 .L0 
     /tmp/ccduLtWP.s:262    .text:0000000000000194 .L0 
     /tmp/ccduLtWP.s:263    .text:0000000000000194 .L0 
     /tmp/ccduLtWP.s:264    .text:0000000000000194 .L0 
     /tmp/ccduLtWP.s:265    .text:0000000000000194 .L0 
     /tmp/ccduLtWP.s:267    .text:0000000000000198 .L0 
     /tmp/ccduLtWP.s:272    .text:0000000000000198 .L0 
     /tmp/ccduLtWP.s:273    .text:0000000000000198 .L0 
     /tmp/ccduLtWP.s:274    .text:0000000000000198 .L0 
GAS LISTING /tmp/ccduLtWP.s 			page 21


     /tmp/ccduLtWP.s:279    .text:00000000000001a4 .L0 
     /tmp/ccduLtWP.s:280    .text:00000000000001a4 .L0 
     /tmp/ccduLtWP.s:285    .text:00000000000001b0 .L0 
     /tmp/ccduLtWP.s:286    .text:00000000000001b0 .L0 
     /tmp/ccduLtWP.s:291    .text:00000000000001bc .L0 
     /tmp/ccduLtWP.s:292    .text:00000000000001bc .L0 
     /tmp/ccduLtWP.s:296    .text:00000000000001c8 .L0 
     /tmp/ccduLtWP.s:297    .text:00000000000001c8 .L0 
     /tmp/ccduLtWP.s:301    .text:00000000000001d4 .L0 
     /tmp/ccduLtWP.s:302    .text:00000000000001d4 .L0 
     /tmp/ccduLtWP.s:307    .text:00000000000001e0 .L0 
     /tmp/ccduLtWP.s:308    .text:00000000000001e4 .L0 
     /tmp/ccduLtWP.s:314    .text:00000000000001e4 _Z13testTimedWaitPv
     /tmp/ccduLtWP.s:317    .text:00000000000001e4 .L0 
     /tmp/ccduLtWP.s:319    .text:00000000000001e4 .L0 
     /tmp/ccduLtWP.s:320    .text:00000000000001e8 .L0 
     /tmp/ccduLtWP.s:322    .text:00000000000001ec .L0 
     /tmp/ccduLtWP.s:324    .text:00000000000001f0 .L0 
     /tmp/ccduLtWP.s:326    .text:00000000000001f0 .L0 
     /tmp/ccduLtWP.s:327    .text:00000000000001f4 .L0 
     /tmp/ccduLtWP.s:328    .text:00000000000001f4 .L0 
     /tmp/ccduLtWP.s:330    .text:00000000000001f8 .L0 
     /tmp/ccduLtWP.s:332    .text:00000000000001fc .L0 
     /tmp/ccduLtWP.s:338    .text:00000000000001fc _Z9semWaiterPv
     /tmp/ccduLtWP.s:341    .text:00000000000001fc .L0 
     /tmp/ccduLtWP.s:342    .text:00000000000001fc .L0 
     /tmp/ccduLtWP.s:343    .text:0000000000000200 .L0 
     /tmp/ccduLtWP.s:346    .text:0000000000000208 .L0 
     /tmp/ccduLtWP.s:347    .text:0000000000000208 .L0 
     /tmp/ccduLtWP.s:349    .text:000000000000020c .L0 
     /tmp/ccduLtWP.s:351    .text:000000000000020c .L0 
     /tmp/ccduLtWP.s:352    .text:000000000000020c .L0 
     /tmp/ccduLtWP.s:356    .text:000000000000021c .L0 
     /tmp/ccduLtWP.s:357    .text:0000000000000220 .L0 
     /tmp/ccduLtWP.s:359    .text:0000000000000224 .L0 
     /tmp/ccduLtWP.s:360    .text:0000000000000224 .L0 
     /tmp/ccduLtWP.s:362    .text:0000000000000228 .L0 
     /tmp/ccduLtWP.s:364    .text:000000000000022c .L0 
     /tmp/ccduLtWP.s:370    .text:000000000000022c _Z14runningForeverPv
     /tmp/ccduLtWP.s:373    .text:000000000000022c .L0 
     /tmp/ccduLtWP.s:375    .text:000000000000022c .L0 
     /tmp/ccduLtWP.s:376    .text:000000000000022c .L0 
     /tmp/ccduLtWP.s:380    .text:000000000000022c .L0 
     /tmp/ccduLtWP.s:381    .text:000000000000022c .L0 
     /tmp/ccduLtWP.s:382    .text:000000000000022c .L0 
     /tmp/ccduLtWP.s:388    .text:000000000000023c .L0 
     /tmp/ccduLtWP.s:391    .text:0000000000000244 .L0 
     /tmp/ccduLtWP.s:392    .text:0000000000000248 .L0 
     /tmp/ccduLtWP.s:395    .text:0000000000000250 .L0 
     /tmp/ccduLtWP.s:396    .text:0000000000000250 .L0 
     /tmp/ccduLtWP.s:398    .text:0000000000000254 .L0 
     /tmp/ccduLtWP.s:402    .text:0000000000000254 .L0 
     /tmp/ccduLtWP.s:403    .text:0000000000000254 .L0 
     /tmp/ccduLtWP.s:407    .text:0000000000000260 .L0 
     /tmp/ccduLtWP.s:410    .text:0000000000000260 .L0 
     /tmp/ccduLtWP.s:411    .text:0000000000000260 .L0 
     /tmp/ccduLtWP.s:412    .text:0000000000000260 .L0 
GAS LISTING /tmp/ccduLtWP.s 			page 22


     /tmp/ccduLtWP.s:418    .text:0000000000000270 .L0 
     /tmp/ccduLtWP.s:421    .text:0000000000000278 .L0 
     /tmp/ccduLtWP.s:422    .text:000000000000027c .L0 
     /tmp/ccduLtWP.s:424    .text:0000000000000280 .L0 
     /tmp/ccduLtWP.s:425    .text:0000000000000280 .L0 
     /tmp/ccduLtWP.s:427    .text:0000000000000284 .L0 
     /tmp/ccduLtWP.s:432    .text:000000000000028c .L0 
     /tmp/ccduLtWP.s:438    .text:000000000000028c _Z11timedWaiterPv
     /tmp/ccduLtWP.s:441    .text:000000000000028c .L0 
     /tmp/ccduLtWP.s:442    .text:000000000000028c .L0 
     /tmp/ccduLtWP.s:443    .text:0000000000000290 .L0 
     /tmp/ccduLtWP.s:446    .text:0000000000000298 .L0 
     /tmp/ccduLtWP.s:447    .text:0000000000000298 .L0 
     /tmp/ccduLtWP.s:449    .text:000000000000029c .L0 
     /tmp/ccduLtWP.s:451    .text:000000000000029c .L0 
     /tmp/ccduLtWP.s:452    .text:000000000000029c .L0 
     /tmp/ccduLtWP.s:457    .text:00000000000002b0 .L0 
     /tmp/ccduLtWP.s:462    .text:00000000000002b8 .L0 
     /tmp/ccduLtWP.s:463    .text:00000000000002b8 .L0 
     /tmp/ccduLtWP.s:466    .text:00000000000002c0 .L0 
     /tmp/ccduLtWP.s:467    .text:00000000000002c4 .L0 
     /tmp/ccduLtWP.s:468    .text:00000000000002c4 .L0 
     /tmp/ccduLtWP.s:470    .text:00000000000002c8 .L0 
     /tmp/ccduLtWP.s:471    .text:00000000000002c8 .L0 
     /tmp/ccduLtWP.s:473    .text:00000000000002cc .L0 
     /tmp/ccduLtWP.s:477    .text:00000000000002d0 .L0 
     /tmp/ccduLtWP.s:479    .text:00000000000002d0 .L0 
     /tmp/ccduLtWP.s:480    .text:00000000000002d0 .L0 
     /tmp/ccduLtWP.s:485    .text:00000000000002e0 .L0 
     /tmp/ccduLtWP.s:491    .text:00000000000002e0 main
     /tmp/ccduLtWP.s:494    .text:00000000000002e0 .L0 
     /tmp/ccduLtWP.s:495    .text:00000000000002e0 .L0 
     /tmp/ccduLtWP.s:496    .text:00000000000002e4 .L0 
     /tmp/ccduLtWP.s:499    .text:00000000000002ec .L0 
     /tmp/ccduLtWP.s:500    .text:00000000000002ec .L0 
     /tmp/ccduLtWP.s:502    .text:00000000000002f0 .L0 
     /tmp/ccduLtWP.s:504    .text:00000000000002f0 .L0 
     /tmp/ccduLtWP.s:505    .text:00000000000002f0 .L0 
     /tmp/ccduLtWP.s:511    .text:00000000000002f8 .L0 
src/../h/../h/riscv.hpp:105    .text:00000000000002f8 .L0 
     /tmp/ccduLtWP.s:521    .text:00000000000002fc .L0 
     /tmp/ccduLtWP.s:522    .text:00000000000002fc .L0 
     /tmp/ccduLtWP.s:525    .text:0000000000000304 .L0 
     /tmp/ccduLtWP.s:526    .text:0000000000000304 .L0 
     /tmp/ccduLtWP.s:529    .text:000000000000030c .L0 
     /tmp/ccduLtWP.s:530    .text:000000000000030c .L0 
     /tmp/ccduLtWP.s:533    .text:0000000000000314 .L0 
     /tmp/ccduLtWP.s:534    .text:0000000000000314 .L0 
     /tmp/ccduLtWP.s:540    .text:000000000000032c .L0 
     /tmp/ccduLtWP.s:541    .text:000000000000032c .L0 
     /tmp/ccduLtWP.s:548    .text:0000000000000340 .L0 
     /tmp/ccduLtWP.s:549    .text:0000000000000340 .L0 
     /tmp/ccduLtWP.s:550    .text:0000000000000340 .L0 
     /tmp/ccduLtWP.s:560    .text:0000000000000348 .L0 
     /tmp/ccduLtWP.s:561    .text:0000000000000348 .L0 
     /tmp/ccduLtWP.s:567    .text:0000000000000364 .L0 
     /tmp/ccduLtWP.s:568    .text:0000000000000364 .L0 
GAS LISTING /tmp/ccduLtWP.s 			page 23


     /tmp/ccduLtWP.s:575    .text:0000000000000380 .L0 
     /tmp/ccduLtWP.s:576    .text:0000000000000380 .L0 
     /tmp/ccduLtWP.s:577    .text:0000000000000380 .L0 
     /tmp/ccduLtWP.s:580    .text:0000000000000388 .L0 
     /tmp/ccduLtWP.s:581    .text:000000000000038c .L0 
     /tmp/ccduLtWP.s:606    .bss:0000000000000018 userMainThread
     /tmp/ccduLtWP.s:602    .bss:0000000000000010 consoleThread
     /tmp/ccduLtWP.s:598    .bss:0000000000000008 mainThread
     /tmp/ccduLtWP.s:610    .bss:0000000000000020 mythreads
     /tmp/ccduLtWP.s:594    .bss:0000000000000000 mySem
     /tmp/ccduLtWP.s:591    .bss:0000000000000000 .LANCHOR0
     /tmp/ccduLtWP.s:623    .text:000000000000038c .L0 
     /tmp/ccduLtWP.s:39     .text:000000000000001c .L0 
     /tmp/ccduLtWP.s:54     .text:0000000000000044 .L0 
     /tmp/ccduLtWP.s:352    .text:000000000000020c .L0 
     /tmp/ccduLtWP.s:382    .text:000000000000022c .L0 
     /tmp/ccduLtWP.s:412    .text:0000000000000260 .L0 
     /tmp/ccduLtWP.s:453    .text:00000000000002a0 .L0 
     /tmp/ccduLtWP.s:505    .text:00000000000002f0 .L0 
     /tmp/ccduLtWP.s:536    .text:000000000000031c .L0 
     /tmp/ccduLtWP.s:541    .text:000000000000032c .L0 
     /tmp/ccduLtWP.s:542    .text:0000000000000334 .L0 
     /tmp/ccduLtWP.s:562    .text:000000000000034c .L0 
     /tmp/ccduLtWP.s:563    .text:0000000000000354 .L0 
     /tmp/ccduLtWP.s:569    .text:0000000000000368 .L0 
     /tmp/ccduLtWP.s:570    .text:0000000000000370 .L0 
     /tmp/ccduLtWP.s:33     .text:000000000000001c .L2
     /tmp/ccduLtWP.s:25     .text:0000000000000014 .L3
     /tmp/ccduLtWP.s:171    .text:0000000000000100 .L12
     /tmp/ccduLtWP.s:179    .text:0000000000000110 .L13
     /tmp/ccduLtWP.s:150    .text:00000000000000e4 .L9
     /tmp/ccduLtWP.s:153    .text:00000000000000e8 .L8
     /tmp/ccduLtWP.s:269    .text:0000000000000198 .L17
     /tmp/ccduLtWP.s:430    .text:0000000000000288 .L31
     /tmp/ccduLtWP.s:400    .text:0000000000000254 .L27
     /tmp/ccduLtWP.s:476    .text:00000000000002d0 .L35
     /tmp/ccduLtWP.s:460    .text:00000000000002b8 .L33
     /tmp/ccduLtWP.s:573    .text:0000000000000380 .L37
     /tmp/ccduLtWP.s:3042   .debug_abbrev:0000000000000000 .Ldebug_abbrev0
     /tmp/ccduLtWP.s:4956   .debug_str:0000000000000d69 .LASF291
     /tmp/ccduLtWP.s:4642   .debug_str:000000000000047a .LASF292
     /tmp/ccduLtWP.s:4660   .debug_str:000000000000050d .LASF293
     /tmp/ccduLtWP.s:5      .text:0000000000000000 .Ltext0
     /tmp/ccduLtWP.s:613    .text:000000000000038c .Letext0
     /tmp/ccduLtWP.s:4486   .debug_line:0000000000000000 .Ldebug_line0
     /tmp/ccduLtWP.s:4694   .debug_str:000000000000060e .LASF0
     /tmp/ccduLtWP.s:4736   .debug_str:0000000000000723 .LASF1
     /tmp/ccduLtWP.s:4878   .debug_str:0000000000000b29 .LASF2
     /tmp/ccduLtWP.s:4888   .debug_str:0000000000000ba8 .LASF4
     /tmp/ccduLtWP.s:4710   .debug_str:0000000000000676 .LASF3
     /tmp/ccduLtWP.s:4502   .debug_str:0000000000000045 .LASF5
     /tmp/ccduLtWP.s:4840   .debug_str:0000000000000a3e .LASF6
     /tmp/ccduLtWP.s:4826   .debug_str:00000000000009be .LASF7
     /tmp/ccduLtWP.s:4720   .debug_str:00000000000006c1 .LASF8
     /tmp/ccduLtWP.s:4654   .debug_str:00000000000004d0 .LASF9
     /tmp/ccduLtWP.s:4670   .debug_str:0000000000000565 .LASF10
     /tmp/ccduLtWP.s:4564   .debug_str:0000000000000218 .LASF11
GAS LISTING /tmp/ccduLtWP.s 			page 24


     /tmp/ccduLtWP.s:4638   .debug_str:000000000000045f .LASF12
     /tmp/ccduLtWP.s:4584   .debug_str:00000000000002ae .LASF13
     /tmp/ccduLtWP.s:4562   .debug_str:0000000000000208 .LASF14
     /tmp/ccduLtWP.s:4926   .debug_str:0000000000000cb9 .LASF15
     /tmp/ccduLtWP.s:4624   .debug_str:00000000000003ca .LASF16
     /tmp/ccduLtWP.s:4912   .debug_str:0000000000000c46 .LASF17
     /tmp/ccduLtWP.s:4820   .debug_str:000000000000097c .LASF21
     /tmp/ccduLtWP.s:4556   .debug_str:00000000000001de .LASF89
     /tmp/ccduLtWP.s:4566   .debug_str:0000000000000227 .LASF18
     /tmp/ccduLtWP.s:4522   .debug_str:00000000000000ec .LASF19
     /tmp/ccduLtWP.s:4734   .debug_str:000000000000071e .LASF20
     /tmp/ccduLtWP.s:4518   .debug_str:00000000000000c7 .LASF22
     /tmp/ccduLtWP.s:4910   .debug_str:0000000000000c2b .LASF23
     /tmp/ccduLtWP.s:5024   .debug_str:0000000000001017 .LASF101
     /tmp/ccduLtWP.s:5048   .debug_str:00000000000010a4 .LASF103
     /tmp/ccduLtWP.s:4946   .debug_str:0000000000000d31 .LASF24
     /tmp/ccduLtWP.s:4514   .debug_str:00000000000000af .LASF25
     /tmp/ccduLtWP.s:4708   .debug_str:000000000000066c .LASF47
     /tmp/ccduLtWP.s:4884   .debug_str:0000000000000b61 .LASF49
     /tmp/ccduLtWP.s:4996   .debug_str:0000000000000f6a .LASF93
     /tmp/ccduLtWP.s:4776   .debug_str:0000000000000835 .LASF43
     /tmp/ccduLtWP.s:4822   .debug_str:000000000000098c .LASF45
     /tmp/ccduLtWP.s:4780   .debug_str:000000000000084f .LASF26
     /tmp/ccduLtWP.s:4504   .debug_str:000000000000004c .LASF27
     /tmp/ccduLtWP.s:4936   .debug_str:0000000000000cf5 .LASF28
     /tmp/ccduLtWP.s:4782   .debug_str:0000000000000859 .LASF29
     /tmp/ccduLtWP.s:4496   .debug_str:0000000000000026 .LASF33
     /tmp/ccduLtWP.s:4538   .debug_str:0000000000000130 .LASF35
     /tmp/ccduLtWP.s:4850   .debug_str:0000000000000a83 .LASF30
     /tmp/ccduLtWP.s:5038   .debug_str:0000000000001064 .LASF31
     /tmp/ccduLtWP.s:4498   .debug_str:000000000000002c .LASF82
     /tmp/ccduLtWP.s:4856   .debug_str:0000000000000a9d .LASF32
     /tmp/ccduLtWP.s:4600   .debug_str:0000000000000328 .LASF34
     /tmp/ccduLtWP.s:4872   .debug_str:0000000000000adf .LASF36
     /tmp/ccduLtWP.s:4608   .debug_str:000000000000034e .LASF37
     /tmp/ccduLtWP.s:4880   .debug_str:0000000000000b37 .LASF38
     /tmp/ccduLtWP.s:4544   .debug_str:000000000000017e .LASF39
     /tmp/ccduLtWP.s:4984   .debug_str:0000000000000edd .LASF40
     /tmp/ccduLtWP.s:4668   .debug_str:000000000000055c .LASF41
     /tmp/ccduLtWP.s:5042   .debug_str:0000000000001080 .LASF42
     /tmp/ccduLtWP.s:4870   .debug_str:0000000000000ad5 .LASF44
     /tmp/ccduLtWP.s:5082   .debug_str:00000000000011e6 .LASF46
     /tmp/ccduLtWP.s:4934   .debug_str:0000000000000ceb .LASF48
     /tmp/ccduLtWP.s:4838   .debug_str:0000000000000a28 .LASF50
     /tmp/ccduLtWP.s:5020   .debug_str:0000000000000ffb .LASF51
     /tmp/ccduLtWP.s:5022   .debug_str:0000000000001003 .LASF52
     /tmp/ccduLtWP.s:4898   .debug_str:0000000000000bea .LASF53
     /tmp/ccduLtWP.s:5080   .debug_str:00000000000011d2 .LASF54
     /tmp/ccduLtWP.s:4558   .debug_str:00000000000001ea .LASF55
     /tmp/ccduLtWP.s:5066   .debug_str:0000000000001159 .LASF56
     /tmp/ccduLtWP.s:4748   .debug_str:000000000000076f .LASF57
     /tmp/ccduLtWP.s:4942   .debug_str:0000000000000d0e .LASF58
     /tmp/ccduLtWP.s:4854   .debug_str:0000000000000a94 .LASF59
     /tmp/ccduLtWP.s:4756   .debug_str:00000000000007b8 .LASF60
     /tmp/ccduLtWP.s:5026   .debug_str:0000000000001022 .LASF61
     /tmp/ccduLtWP.s:4834   .debug_str:00000000000009fa .LASF62
     /tmp/ccduLtWP.s:4804   .debug_str:000000000000091a .LASF63
GAS LISTING /tmp/ccduLtWP.s 			page 25


     /tmp/ccduLtWP.s:4768   .debug_str:0000000000000802 .LASF64
     /tmp/ccduLtWP.s:4630   .debug_str:0000000000000404 .LASF65
     /tmp/ccduLtWP.s:4920   .debug_str:0000000000000c8d .LASF66
     /tmp/ccduLtWP.s:4972   .debug_str:0000000000000e84 .LASF67
     /tmp/ccduLtWP.s:4578   .debug_str:0000000000000282 .LASF68
     /tmp/ccduLtWP.s:5036   .debug_str:0000000000001059 .LASF69
     /tmp/ccduLtWP.s:4994   .debug_str:0000000000000f52 .LASF70
     /tmp/ccduLtWP.s:4718   .debug_str:00000000000006b7 .LASF71
     /tmp/ccduLtWP.s:4992   .debug_str:0000000000000f3c .LASF72
     /tmp/ccduLtWP.s:4968   .debug_str:0000000000000e68 .LASF73
     /tmp/ccduLtWP.s:4970   .debug_str:0000000000000e70 .LASF74
     /tmp/ccduLtWP.s:4594   .debug_str:00000000000002ff .LASF75
     /tmp/ccduLtWP.s:5064   .debug_str:0000000000001140 .LASF76
     /tmp/ccduLtWP.s:4862   .debug_str:0000000000000ab4 .LASF77
     /tmp/ccduLtWP.s:4754   .debug_str:00000000000007a0 .LASF78
     /tmp/ccduLtWP.s:4680   .debug_str:00000000000005ae .LASF79
     /tmp/ccduLtWP.s:4614   .debug_str:0000000000000373 .LASF80
     /tmp/ccduLtWP.s:5014   .debug_str:0000000000000fd4 .LASF81
     /tmp/ccduLtWP.s:4612   .debug_str:000000000000036d .LASF83
     /tmp/ccduLtWP.s:4722   .debug_str:00000000000006d4 .LASF84
     /tmp/ccduLtWP.s:4572   .debug_str:000000000000025e .LASF85
     /tmp/ccduLtWP.s:4848   .debug_str:0000000000000a7b .LASF86
     /tmp/ccduLtWP.s:4542   .debug_str:0000000000000175 .LASF87
     /tmp/ccduLtWP.s:4762   .debug_str:00000000000007e0 .LASF88
     /tmp/ccduLtWP.s:4574   .debug_str:0000000000000267 .LASF90
     /tmp/ccduLtWP.s:5028   .debug_str:000000000000102b .LASF91
     /tmp/ccduLtWP.s:4958   .debug_str:0000000000000e2d .LASF92
     /tmp/ccduLtWP.s:4952   .debug_str:0000000000000d4f .LASF94
     /tmp/ccduLtWP.s:4554   .debug_str:00000000000001d0 .LASF95
     /tmp/ccduLtWP.s:4636   .debug_str:0000000000000437 .LASF96
     /tmp/ccduLtWP.s:4738   .debug_str:0000000000000736 .LASF97
     /tmp/ccduLtWP.s:4744   .debug_str:0000000000000755 .LASF98
     /tmp/ccduLtWP.s:4604   .debug_str:0000000000000340 .LASF99
     /tmp/ccduLtWP.s:4576   .debug_str:000000000000026f .LASF100
     /tmp/ccduLtWP.s:4896   .debug_str:0000000000000be1 .LASF102
     /tmp/ccduLtWP.s:4908   .debug_str:0000000000000c17 .LASF104
     /tmp/ccduLtWP.s:4742   .debug_str:0000000000000748 .LASF105
     /tmp/ccduLtWP.s:5000   .debug_str:0000000000000f82 .LASF106
     /tmp/ccduLtWP.s:4976   .debug_str:0000000000000ea4 .LASF107
     /tmp/ccduLtWP.s:4752   .debug_str:000000000000078a .LASF108
     /tmp/ccduLtWP.s:4938   .debug_str:0000000000000cfe .LASF109
     /tmp/ccduLtWP.s:4932   .debug_str:0000000000000cd5 .LASF110
     /tmp/ccduLtWP.s:4766   .debug_str:00000000000007fb .LASF111
     /tmp/ccduLtWP.s:4586   .debug_str:00000000000002be .LASF112
     /tmp/ccduLtWP.s:4890   .debug_str:0000000000000baf .LASF113
     /tmp/ccduLtWP.s:4500   .debug_str:0000000000000039 .LASF114
     /tmp/ccduLtWP.s:5068   .debug_str:000000000000116e .LASF115
     /tmp/ccduLtWP.s:4664   .debug_str:0000000000000533 .LASF116
     /tmp/ccduLtWP.s:4696   .debug_str:000000000000061b .LASF117
     /tmp/ccduLtWP.s:4812   .debug_str:000000000000094d .LASF118
     /tmp/ccduLtWP.s:4900   .debug_str:0000000000000bf2 .LASF119
     /tmp/ccduLtWP.s:4876   .debug_str:0000000000000b18 .LASF120
     /tmp/ccduLtWP.s:4524   .debug_str:00000000000000f1 .LASF121
     /tmp/ccduLtWP.s:4882   .debug_str:0000000000000b55 .LASF122
     /tmp/ccduLtWP.s:4724   .debug_str:00000000000006dd .LASF123
     /tmp/ccduLtWP.s:4610   .debug_str:000000000000035f .LASF124
     /tmp/ccduLtWP.s:4866   .debug_str:0000000000000ac4 .LASF125
GAS LISTING /tmp/ccduLtWP.s 			page 26


     /tmp/ccduLtWP.s:4602   .debug_str:0000000000000338 .LASF126
     /tmp/ccduLtWP.s:4814   .debug_str:000000000000095a .LASF127
     /tmp/ccduLtWP.s:4906   .debug_str:0000000000000c11 .LASF128
     /tmp/ccduLtWP.s:4980   .debug_str:0000000000000ec3 .LASF129
     /tmp/ccduLtWP.s:4786   .debug_str:000000000000088f .LASF130
     /tmp/ccduLtWP.s:5074   .debug_str:0000000000001198 .LASF173
     /tmp/ccduLtWP.s:4592   .debug_str:00000000000002f1 .LASF164
     /tmp/ccduLtWP.s:4540   .debug_str:000000000000014d .LASF166
     /tmp/ccduLtWP.s:5002   .debug_str:0000000000000f9b .LASF187
     /tmp/ccduLtWP.s:4508   .debug_str:000000000000007a .LASF189
     /tmp/ccduLtWP.s:4818   .debug_str:0000000000000970 .LASF131
     /tmp/ccduLtWP.s:4962   .debug_str:0000000000000e39 .LASF132
     /tmp/ccduLtWP.s:5046   .debug_str:000000000000109e .LASF133
     /tmp/ccduLtWP.s:4852   .debug_str:0000000000000a8e .LASF134
     /tmp/ccduLtWP.s:4532   .debug_str:0000000000000113 .LASF135
     /tmp/ccduLtWP.s:5030   .debug_str:0000000000001033 .LASF136
     /tmp/ccduLtWP.s:4626   .debug_str:00000000000003e0 .LASF137
     /tmp/ccduLtWP.s:4662   .debug_str:000000000000052b .LASF138
     /tmp/ccduLtWP.s:4606   .debug_str:0000000000000349 .LASF139
     /tmp/ccduLtWP.s:4700   .debug_str:0000000000000630 .LASF140
     /tmp/ccduLtWP.s:4930   .debug_str:0000000000000cce .LASF141
     /tmp/ccduLtWP.s:4844   .debug_str:0000000000000a4d .LASF142
     /tmp/ccduLtWP.s:4964   .debug_str:0000000000000e50 .LASF143
     /tmp/ccduLtWP.s:4800   .debug_str:00000000000008df .LASF144
     /tmp/ccduLtWP.s:4526   .debug_str:00000000000000fc .LASF145
     /tmp/ccduLtWP.s:4644   .debug_str:0000000000000487 .LASF146
     /tmp/ccduLtWP.s:5012   .debug_str:0000000000000fcc .LASF147
     /tmp/ccduLtWP.s:4552   .debug_str:00000000000001bc .LASF148
     /tmp/ccduLtWP.s:4808   .debug_str:0000000000000930 .LASF149
     /tmp/ccduLtWP.s:4764   .debug_str:00000000000007e8 .LASF150
     /tmp/ccduLtWP.s:4676   .debug_str:000000000000058e .LASF151
     /tmp/ccduLtWP.s:4548   .debug_str:0000000000000196 .LASF152
     /tmp/ccduLtWP.s:4656   .debug_str:00000000000004e0 .LASF153
     /tmp/ccduLtWP.s:4922   .debug_str:0000000000000ca0 .LASF154
     /tmp/ccduLtWP.s:4868   .debug_str:0000000000000acf .LASF155
     /tmp/ccduLtWP.s:4746   .debug_str:000000000000076a .LASF156
     /tmp/ccduLtWP.s:4758   .debug_str:00000000000007cd .LASF198
     /tmp/ccduLtWP.s:4692   .debug_str:0000000000000608 .LASF157
     /tmp/ccduLtWP.s:4632   .debug_str:000000000000040b .LASF158
     /tmp/ccduLtWP.s:5060   .debug_str:0000000000001129 .LASF159
     /tmp/ccduLtWP.s:4892   .debug_str:0000000000000bb4 .LASF160
     /tmp/ccduLtWP.s:4684   .debug_str:00000000000005cc .LASF161
     /tmp/ccduLtWP.s:4842   .debug_str:0000000000000a45 .LASF162
     /tmp/ccduLtWP.s:4488   .debug_str:0000000000000000 .LASF163
     /tmp/ccduLtWP.s:4534   .debug_str:000000000000011e .LASF165
     /tmp/ccduLtWP.s:4512   .debug_str:000000000000009c .LASF167
     /tmp/ccduLtWP.s:4712   .debug_str:0000000000000688 .LASF294
     /tmp/ccduLtWP.s:5070   .debug_str:000000000000117b .LASF295
     /tmp/ccduLtWP.s:4714   .debug_str:0000000000000692 .LASF168
     /tmp/ccduLtWP.s:4864   .debug_str:0000000000000abf .LASF169
     /tmp/ccduLtWP.s:4652   .debug_str:00000000000004c6 .LASF170
     /tmp/ccduLtWP.s:4728   .debug_str:00000000000006f3 .LASF171
     /tmp/ccduLtWP.s:5050   .debug_str:00000000000010bf .LASF172
     /tmp/ccduLtWP.s:5058   .debug_str:0000000000001115 .LASF296
     /tmp/ccduLtWP.s:4688   .debug_str:00000000000005e4 .LASF174
     /tmp/ccduLtWP.s:4732   .debug_str:0000000000000719 .LASF175
     /tmp/ccduLtWP.s:4618   .debug_str:0000000000000391 .LASF176
GAS LISTING /tmp/ccduLtWP.s 			page 27


     /tmp/ccduLtWP.s:4580   .debug_str:000000000000029a .LASF177
     /tmp/ccduLtWP.s:5040   .debug_str:000000000000106a .LASF178
     /tmp/ccduLtWP.s:4798   .debug_str:00000000000008d2 .LASF179
     /tmp/ccduLtWP.s:4570   .debug_str:000000000000023b .LASF180
     /tmp/ccduLtWP.s:4982   .debug_str:0000000000000ecb .LASF181
     /tmp/ccduLtWP.s:4682   .debug_str:00000000000005b9 .LASF182
     /tmp/ccduLtWP.s:4560   .debug_str:00000000000001f3 .LASF183
     /tmp/ccduLtWP.s:4640   .debug_str:000000000000046e .LASF184
     /tmp/ccduLtWP.s:4666   .debug_str:000000000000053f .LASF185
     /tmp/ccduLtWP.s:5052   .debug_str:00000000000010df .LASF186
     /tmp/ccduLtWP.s:4528   .debug_str:0000000000000106 .LASF188
     /tmp/ccduLtWP.s:4810   .debug_str:0000000000000935 .LASF190
     /tmp/ccduLtWP.s:5034   .debug_str:0000000000001054 .LASF191
     /tmp/ccduLtWP.s:4902   .debug_str:0000000000000bfb .LASF192
     /tmp/ccduLtWP.s:5078   .debug_str:00000000000011c6 .LASF193
     /tmp/ccduLtWP.s:4790   .debug_str:00000000000008a2 .LASF194
     /tmp/ccduLtWP.s:5016   .debug_str:0000000000000fdd .LASF195
     /tmp/ccduLtWP.s:4788   .debug_str:000000000000089d .LASF196
     /tmp/ccduLtWP.s:4914   .debug_str:0000000000000c5c .LASF197
     /tmp/ccduLtWP.s:4620   .debug_str:00000000000003a6 .LASF199
     /tmp/ccduLtWP.s:4706   .debug_str:0000000000000657 .LASF213
     /tmp/ccduLtWP.s:5056   .debug_str:00000000000010ff .LASF200
     /tmp/ccduLtWP.s:5032   .debug_str:000000000000103e .LASF201
     /tmp/ccduLtWP.s:4590   .debug_str:00000000000002ec .LASF297
     /tmp/ccduLtWP.s:4950   .debug_str:0000000000000d4a .LASF202
     /tmp/ccduLtWP.s:4796   .debug_str:00000000000008cd .LASF203
     /tmp/ccduLtWP.s:4492   .debug_str:0000000000000019 .LASF204
     /tmp/ccduLtWP.s:4494   .debug_str:000000000000001f .LASF205
     /tmp/ccduLtWP.s:4846   .debug_str:0000000000000a60 .LASF206
     /tmp/ccduLtWP.s:4948   .debug_str:0000000000000d3f .LASF207
     /tmp/ccduLtWP.s:4582   .debug_str:00000000000002a0 .LASF208
     /tmp/ccduLtWP.s:4792   .debug_str:00000000000008aa .LASF209
     /tmp/ccduLtWP.s:4966   .debug_str:0000000000000e59 .LASF210
     /tmp/ccduLtWP.s:4730   .debug_str:0000000000000702 .LASF211
     /tmp/ccduLtWP.s:4836   .debug_str:0000000000000a0f .LASF212
     /tmp/ccduLtWP.s:4916   .debug_str:0000000000000c6f .LASF214
     /tmp/ccduLtWP.s:4874   .debug_str:0000000000000afc .LASF215
     /tmp/ccduLtWP.s:4918   .debug_str:0000000000000c88 .LASF216
     /tmp/ccduLtWP.s:4894   .debug_str:0000000000000bc6 .LASF217
     /tmp/ccduLtWP.s:4986   .debug_str:0000000000000ef3 .LASF218
     /tmp/ccduLtWP.s:4678   .debug_str:0000000000000596 .LASF219
     /tmp/ccduLtWP.s:4510   .debug_str:000000000000008c .LASF220
     /tmp/ccduLtWP.s:4770   .debug_str:0000000000000815 .LASF221
     /tmp/ccduLtWP.s:4616   .debug_str:000000000000038b .LASF222
     /tmp/ccduLtWP.s:4960   .debug_str:0000000000000e32 .LASF223
     /tmp/ccduLtWP.s:4940   .debug_str:0000000000000d09 .LASF224
     /tmp/ccduLtWP.s:4516   .debug_str:00000000000000bd .LASF225
     /tmp/ccduLtWP.s:4954   .debug_str:0000000000000d57 .LASF226
     /tmp/ccduLtWP.s:4886   .debug_str:0000000000000b93 .LASF227
     /tmp/ccduLtWP.s:4690   .debug_str:00000000000005fc .LASF228
     /tmp/ccduLtWP.s:4506   .debug_str:000000000000006d .LASF229
     /tmp/ccduLtWP.s:4530   .debug_str:000000000000010e .LASF230
     /tmp/ccduLtWP.s:4988   .debug_str:0000000000000f0a .LASF231
     /tmp/ccduLtWP.s:5006   .debug_str:0000000000000fb3 .LASF232
     /tmp/ccduLtWP.s:4628   .debug_str:00000000000003e8 .LASF233
     /tmp/ccduLtWP.s:4924   .debug_str:0000000000000cad .LASF234
     /tmp/ccduLtWP.s:4588   .debug_str:00000000000002cf .LASF235
GAS LISTING /tmp/ccduLtWP.s 			page 28


     /tmp/ccduLtWP.s:4858   .debug_str:0000000000000aa2 .LASF236
     /tmp/ccduLtWP.s:4990   .debug_str:0000000000000f1f .LASF237
     /tmp/ccduLtWP.s:5076   .debug_str:00000000000011bb .LASF238
     /tmp/ccduLtWP.s:4634   .debug_str:000000000000041b .LASF239
     /tmp/ccduLtWP.s:4824   .debug_str:00000000000009b1 .LASF240
     /tmp/ccduLtWP.s:4830   .debug_str:00000000000009e0 .LASF241
     /tmp/ccduLtWP.s:4802   .debug_str:00000000000008f3 .LASF242
     /tmp/ccduLtWP.s:4860   .debug_str:0000000000000aae .LASF243
     /tmp/ccduLtWP.s:4672   .debug_str:0000000000000573 .LASF244
     /tmp/ccduLtWP.s:4536   .debug_str:0000000000000125 .LASF245
     /tmp/ccduLtWP.s:4546   .debug_str:0000000000000188 .LASF246
     /tmp/ccduLtWP.s:4806   .debug_str:0000000000000921 .LASF247
     /tmp/ccduLtWP.s:4648   .debug_str:00000000000004ac .LASF248
     /tmp/ccduLtWP.s:492    .text:00000000000002e0 .LFB43
     /tmp/ccduLtWP.s:582    .text:000000000000038c .LFE43
     /tmp/ccduLtWP.s:507    .text:00000000000002f8 .LBB16
     /tmp/ccduLtWP.s:519    .text:00000000000002fc .LBE16
     /tmp/ccduLtWP.s:546    .text:0000000000000340 .LBB18
     /tmp/ccduLtWP.s:558    .text:0000000000000348 .LBE18
     /tmp/ccduLtWP.s:4350   .debug_loc:0000000000000000 .LLST9
     /tmp/ccduLtWP.s:523    .text:0000000000000304 .LVL52
     /tmp/ccduLtWP.s:527    .text:000000000000030c .LVL53
     /tmp/ccduLtWP.s:531    .text:0000000000000314 .LVL54
     /tmp/ccduLtWP.s:538    .text:000000000000032c .LVL55
     /tmp/ccduLtWP.s:565    .text:0000000000000364 .LVL58
     /tmp/ccduLtWP.s:572    .text:0000000000000380 .LVL59
     /tmp/ccduLtWP.s:578    .text:0000000000000388 .LVL60
     /tmp/ccduLtWP.s:4794   .debug_str:00000000000008c1 .LASF249
     /tmp/ccduLtWP.s:4686   .debug_str:00000000000005d2 .LASF250
     /tmp/ccduLtWP.s:68     .text:0000000000000058 .LFB42
     /tmp/ccduLtWP.s:94     .text:0000000000000080 .LFE42
     /tmp/ccduLtWP.s:4358   .debug_loc:0000000000000024 .LLST1
     /tmp/ccduLtWP.s:83     .text:0000000000000070 .LVL5
     /tmp/ccduLtWP.s:4622   .debug_str:00000000000003be .LASF251
     /tmp/ccduLtWP.s:4750   .debug_str:0000000000000778 .LASF252
     /tmp/ccduLtWP.s:439    .text:000000000000028c .LFB41
     /tmp/ccduLtWP.s:486    .text:00000000000002e0 .LFE41
     /tmp/ccduLtWP.s:5072   .debug_str:0000000000001191 .LASF253
     /tmp/ccduLtWP.s:4372   .debug_loc:000000000000005d .LLST8
     /tmp/ccduLtWP.s:455    .text:00000000000002b0 .LVL44
     /tmp/ccduLtWP.s:464    .text:00000000000002c0 .LVL46
     /tmp/ccduLtWP.s:483    .text:00000000000002dc .LVL49
     /tmp/ccduLtWP.s:4568   .debug_str:000000000000022c .LASF254
     /tmp/ccduLtWP.s:4974   .debug_str:0000000000000e8f .LASF255
     /tmp/ccduLtWP.s:371    .text:000000000000022c .LFB40
     /tmp/ccduLtWP.s:433    .text:000000000000028c .LFE40
     /tmp/ccduLtWP.s:4383   .debug_loc:0000000000000093 .LLST7
     /tmp/ccduLtWP.s:377    .text:000000000000022c .LBB12
     /tmp/ccduLtWP.s:4478   .debug_ranges:0000000000000000 .Ldebug_ranges0
     /tmp/ccduLtWP.s:405    .text:0000000000000260 .LVL42
     /tmp/ccduLtWP.s:4726   .debug_str:00000000000006e9 .LASF256
     /tmp/ccduLtWP.s:4828   .debug_str:00000000000009d1 .LASF257
     /tmp/ccduLtWP.s:339    .text:00000000000001fc .LFB39
     /tmp/ccduLtWP.s:365    .text:000000000000022c .LFE39
     /tmp/ccduLtWP.s:354    .text:000000000000021c .LVL39
     /tmp/ccduLtWP.s:4944   .debug_str:0000000000000d23 .LASF258
     /tmp/ccduLtWP.s:5018   .debug_str:0000000000000fe7 .LASF259
GAS LISTING /tmp/ccduLtWP.s 			page 29


     /tmp/ccduLtWP.s:315    .text:00000000000001e4 .LFB38
     /tmp/ccduLtWP.s:333    .text:00000000000001fc .LFE38
     /tmp/ccduLtWP.s:5062   .debug_str:0000000000001131 .LASF260
     /tmp/ccduLtWP.s:4650   .debug_str:00000000000004b1 .LASF261
     /tmp/ccduLtWP.s:10     .text:0000000000000000 .LFB37
     /tmp/ccduLtWP.s:62     .text:0000000000000058 .LFE37
     /tmp/ccduLtWP.s:4401   .debug_loc:00000000000000df .LLST0
     /tmp/ccduLtWP.s:45     .text:0000000000000034 .LBB9
     /tmp/ccduLtWP.s:59     .text:0000000000000058 .LBE9
     /tmp/ccduLtWP.s:49     .text:000000000000003c .LVL3
     /tmp/ccduLtWP.s:30     .text:000000000000001c .LVL2
     /tmp/ccduLtWP.s:4520   .debug_str:00000000000000e0 .LASF262
     /tmp/ccduLtWP.s:4550   .debug_str:00000000000001aa .LASF263
     /tmp/ccduLtWP.s:250    .text:000000000000017c .LFB36
     /tmp/ccduLtWP.s:309    .text:00000000000001e4 .LFE36
     /tmp/ccduLtWP.s:4415   .debug_loc:0000000000000118 .LLST6
     /tmp/ccduLtWP.s:271    .text:0000000000000198 .LBB11
     /tmp/ccduLtWP.s:305    .text:00000000000001e0 .LBE11
     /tmp/ccduLtWP.s:275    .text:00000000000001a0 .LVL29
     /tmp/ccduLtWP.s:281    .text:00000000000001ac .LVL31
     /tmp/ccduLtWP.s:287    .text:00000000000001b8 .LVL33
     /tmp/ccduLtWP.s:294    .text:00000000000001c8 .LVL35
     /tmp/ccduLtWP.s:299    .text:00000000000001d4 .LVL36
     /tmp/ccduLtWP.s:304    .text:00000000000001e0 .LVL37
     /tmp/ccduLtWP.s:4740   .debug_str:000000000000073c .LASF264
     /tmp/ccduLtWP.s:4816   .debug_str:000000000000095f .LASF265
     /tmp/ccduLtWP.s:194    .text:0000000000000120 .LFB35
     /tmp/ccduLtWP.s:244    .text:000000000000017c .LFE35
     /tmp/ccduLtWP.s:4598   .debug_str:0000000000000323 .LASF266
     /tmp/ccduLtWP.s:4429   .debug_loc:0000000000000151 .LLST5
     /tmp/ccduLtWP.s:210    .text:000000000000013c .LVL20
     /tmp/ccduLtWP.s:215    .text:0000000000000148 .LVL21
     /tmp/ccduLtWP.s:221    .text:0000000000000154 .LVL23
     /tmp/ccduLtWP.s:226    .text:0000000000000160 .LVL24
     /tmp/ccduLtWP.s:230    .text:0000000000000168 .LVL25
     /tmp/ccduLtWP.s:4978   .debug_str:0000000000000eaf .LASF267
     /tmp/ccduLtWP.s:4716   .debug_str:000000000000069e .LASF268
     /tmp/ccduLtWP.s:100    .text:0000000000000080 .LFB34
     /tmp/ccduLtWP.s:188    .text:0000000000000120 .LFE34
     /tmp/ccduLtWP.s:4436   .debug_loc:0000000000000174 .LLST2
     /tmp/ccduLtWP.s:4832   .debug_str:00000000000009f5 .LASF269
     /tmp/ccduLtWP.s:4443   .debug_loc:0000000000000197 .LLST3
     /tmp/ccduLtWP.s:4698   .debug_str:000000000000062b .LASF270
     /tmp/ccduLtWP.s:4454   .debug_loc:00000000000001cd .LLST4
     /tmp/ccduLtWP.s:119    .text:00000000000000a4 .LVL6
     /tmp/ccduLtWP.s:125    .text:00000000000000b0 .LVL8
     /tmp/ccduLtWP.s:130    .text:00000000000000bc .LVL9
     /tmp/ccduLtWP.s:136    .text:00000000000000c8 .LVL11
     /tmp/ccduLtWP.s:141    .text:00000000000000d4 .LVL12
     /tmp/ccduLtWP.s:147    .text:00000000000000e0 .LVL14
     /tmp/ccduLtWP.s:177    .text:000000000000010c .LVL18
     /tmp/ccduLtWP.s:184    .text:000000000000011c .LVL19
     /tmp/ccduLtWP.s:5008   .debug_str:0000000000000fbe .LASF271
     /tmp/ccduLtWP.s:4658   .debug_str:00000000000004ec .LASF272
     /tmp/ccduLtWP.s:4998   .debug_str:0000000000000f74 .LASF274
     /tmp/ccduLtWP.s:4784   .debug_str:000000000000087a .LASF273
     /tmp/ccduLtWP.s:5004   .debug_str:0000000000000fa3 .LASF275
GAS LISTING /tmp/ccduLtWP.s 			page 30


     /tmp/ccduLtWP.s:4778   .debug_str:0000000000000842 .LASF276
     /tmp/ccduLtWP.s:5044   .debug_str:0000000000001095 .LASF277
     /tmp/ccduLtWP.s:4596   .debug_str:000000000000030b .LASF278
     /tmp/ccduLtWP.s:4490   .debug_str:000000000000000b .LASF279
     /tmp/ccduLtWP.s:4704   .debug_str:0000000000000646 .LASF280
     /tmp/ccduLtWP.s:4772   .debug_str:0000000000000824 .LASF281
     /tmp/ccduLtWP.s:4928   .debug_str:0000000000000cc5 .LASF282
     /tmp/ccduLtWP.s:4774   .debug_str:0000000000000830 .LASF283
     /tmp/ccduLtWP.s:4674   .debug_str:000000000000057d .LASF284
     /tmp/ccduLtWP.s:4904   .debug_str:0000000000000c08 .LASF285
     /tmp/ccduLtWP.s:5010   .debug_str:0000000000000fc3 .LASF286
     /tmp/ccduLtWP.s:4702   .debug_str:0000000000000641 .LASF287
     /tmp/ccduLtWP.s:4646   .debug_str:000000000000049e .LASF288
     /tmp/ccduLtWP.s:5054   .debug_str:00000000000010f1 .LASF289
     /tmp/ccduLtWP.s:4760   .debug_str:00000000000007d9 .LASF290
     /tmp/ccduLtWP.s:545    .text:0000000000000340 .LVL56
     /tmp/ccduLtWP.s:555    .text:0000000000000348 .LVL57
     /tmp/ccduLtWP.s:71     .text:0000000000000058 .LVL4
     /tmp/ccduLtWP.s:459    .text:00000000000002b8 .LVL45
     /tmp/ccduLtWP.s:475    .text:00000000000002d0 .LVL47
     /tmp/ccduLtWP.s:481    .text:00000000000002d4 .LVL48
     /tmp/ccduLtWP.s:374    .text:000000000000022c .LVL40
     /tmp/ccduLtWP.s:399    .text:0000000000000254 .LVL41
     /tmp/ccduLtWP.s:429    .text:0000000000000288 .LVL43
     /tmp/ccduLtWP.s:14     .text:0000000000000000 .LVL0
     /tmp/ccduLtWP.s:24     .text:0000000000000014 .LVL1
     /tmp/ccduLtWP.s:253    .text:000000000000017c .LVL27
     /tmp/ccduLtWP.s:268    .text:0000000000000198 .LVL28
     /tmp/ccduLtWP.s:217    .text:000000000000014c .LVL22
     /tmp/ccduLtWP.s:239    .text:0000000000000174 .LVL26
     /tmp/ccduLtWP.s:121    .text:00000000000000a8 .LVL7
     /tmp/ccduLtWP.s:143    .text:00000000000000d8 .LVL13
     /tmp/ccduLtWP.s:132    .text:00000000000000c0 .LVL10
     /tmp/ccduLtWP.s:166    .text:00000000000000f8 .LVL16
     /tmp/ccduLtWP.s:170    .text:0000000000000100 .LVL17
     /tmp/ccduLtWP.s:163    .text:00000000000000f4 .LVL15
     /tmp/ccduLtWP.s:624    .debug_info:0000000000000000 .Ldebug_info0
     /tmp/ccduLtWP.s:386    .text:000000000000023c .LBE12
     /tmp/ccduLtWP.s:408    .text:0000000000000260 .LBB15
     /tmp/ccduLtWP.s:416    .text:0000000000000270 .LBE15

UNDEFINED SYMBOLS
_Z15thread_dispatchv
CONSOLE_STATUS
_ZN9myConsole11output_getcEv
CONSOLE_TX_DATA
_Z8userMainv
_ZN15MemoryAllocator9mem_allocEm
_ZN15MemoryAllocator5printEv
_ZN15MemoryAllocator8mem_freeEPv
__putc
_Z9mem_allocm
_Z8mem_freePv
_Z4getcv
_Z4putcc
_Z8sem_waitP3Sem
_ZN3TCB7runningE
GAS LISTING /tmp/ccduLtWP.s 			page 31


_Z13sem_timedwaitP3Semm
_Z11thread_exitv
_ZN5RISCV15supervisor_trapEv
_ZN15MemoryAllocator12getAllocatorEv
_ZN9Scheduler14init_schedulerEv
_ZN9myConsole4initEv
_Z13thread_createPP3TCBPFvPvES2_
