GAS LISTING /tmp/ccpuE7Yi.s 			page 1


   1              		.file	"main.cpp"
   2              		.option pic
   3              		.option norelax
   4              		.text
   5              	.Ltext0:
   6              		.align	2
   7              		.globl	_Z19testMemoryAllocatorv
   9              	_Z19testMemoryAllocatorv:
  10              	.LFB17:
  11              		.file 1 "src/main.cpp"
   1:src/main.cpp  **** 
   2:src/main.cpp  **** #include "../h/Memoryallocator.hpp"
   3:src/main.cpp  **** #include "../h/syscall_c.h"
   4:src/main.cpp  **** #include "../lib/console.h"
   5:src/main.cpp  **** #include "../h/thread.hpp"
   6:src/main.cpp  **** #include "../h/riscv.hpp"
   7:src/main.cpp  **** 
   8:src/main.cpp  **** 
   9:src/main.cpp  **** void testMemoryAllocator() {
  12              		.loc 1 9 28
  13              		.cfi_startproc
  14 0000 130101FE 		addi	sp,sp,-32
  15              		.cfi_def_cfa_offset 32
  16 0004 233C1100 		sd	ra,24(sp)
  17 0008 23388100 		sd	s0,16(sp)
  18 000c 23349100 		sd	s1,8(sp)
  19 0010 23302101 		sd	s2,0(sp)
  20              		.cfi_offset 1, -8
  21              		.cfi_offset 8, -16
  22              		.cfi_offset 9, -24
  23              		.cfi_offset 18, -32
  24 0014 13040102 		addi	s0,sp,32
  25              		.cfi_def_cfa 8, 0
  10:src/main.cpp  **** 
  11:src/main.cpp  ****     void *addr = MemoryAllocator::mem_alloc(1);
  26              		.loc 1 11 5
  27              		.loc 1 11 44 is_stmt 0
  28 0018 13051000 		li	a0,1
  29 001c 97000000 		call	_ZN15MemoryAllocator9mem_allocEm@plt
  29      E7800000 
  30              	.LVL0:
  31 0024 93040500 		mv	s1,a0
  32              	.LVL1:
  12:src/main.cpp  ****     MemoryAllocator::print();
  33              		.loc 1 12 5 is_stmt 1
  34              		.loc 1 12 27 is_stmt 0
  35 0028 97000000 		call	_ZN15MemoryAllocator5printEv@plt
  35      E7800000 
  36              	.LVL2:
  13:src/main.cpp  ****     int ret1 = MemoryAllocator::mem_free(addr);
  37              		.loc 1 13 5 is_stmt 1
  38              		.loc 1 13 41 is_stmt 0
  39 0030 13850400 		mv	a0,s1
  40 0034 97000000 		call	_ZN15MemoryAllocator8mem_freeEPKv@plt
  40      E7800000 
  41              	.LVL3:
  42 003c 13090500 		mv	s2,a0
GAS LISTING /tmp/ccpuE7Yi.s 			page 2


  43              	.LVL4:
  14:src/main.cpp  ****     MemoryAllocator::print();
  44              		.loc 1 14 5 is_stmt 1
  45              		.loc 1 14 27 is_stmt 0
  46 0040 97000000 		call	_ZN15MemoryAllocator5printEv@plt
  46      E7800000 
  47              	.LVL5:
  15:src/main.cpp  **** 
  16:src/main.cpp  ****     int ret2 = MemoryAllocator::mem_free(addr);
  48              		.loc 1 16 5 is_stmt 1
  49              		.loc 1 16 41 is_stmt 0
  50 0048 13850400 		mv	a0,s1
  51 004c 97000000 		call	_ZN15MemoryAllocator8mem_freeEPKv@plt
  51      E7800000 
  52              	.LVL6:
  53 0054 93040500 		mv	s1,a0
  54              	.LVL7:
  17:src/main.cpp  ****     MemoryAllocator::print();
  55              		.loc 1 17 5 is_stmt 1
  56              		.loc 1 17 27 is_stmt 0
  57 0058 97000000 		call	_ZN15MemoryAllocator5printEv@plt
  57      E7800000 
  58              	.LVL8:
  18:src/main.cpp  **** 
  19:src/main.cpp  ****     if (ret1 == 0) __putc('G');
  59              		.loc 1 19 5 is_stmt 1
  60 0060 63000902 		beqz	s2,.L5
  61              	.L2:
  20:src/main.cpp  ****     if (ret2 < 0) __putc('G');
  62              		.loc 1 20 5
  63 0064 63C60402 		bltz	s1,.L6
  64              	.L1:
  21:src/main.cpp  **** 
  22:src/main.cpp  **** }
  65              		.loc 1 22 1 is_stmt 0
  66 0068 83308101 		ld	ra,24(sp)
  67              		.cfi_remember_state
  68              		.cfi_restore 1
  69 006c 03340101 		ld	s0,16(sp)
  70              		.cfi_restore 8
  71              		.cfi_def_cfa 2, 32
  72 0070 83348100 		ld	s1,8(sp)
  73              		.cfi_restore 9
  74              	.LVL9:
  75 0074 03390100 		ld	s2,0(sp)
  76              		.cfi_restore 18
  77              	.LVL10:
  78 0078 13010102 		addi	sp,sp,32
  79              		.cfi_def_cfa_offset 0
  80 007c 67800000 		jr	ra
  81              	.LVL11:
  82              	.L5:
  83              		.cfi_restore_state
  19:src/main.cpp  ****     if (ret2 < 0) __putc('G');
  84              		.loc 1 19 20 is_stmt 1 discriminator 1
  19:src/main.cpp  ****     if (ret2 < 0) __putc('G');
  85              		.loc 1 19 26 is_stmt 0 discriminator 1
GAS LISTING /tmp/ccpuE7Yi.s 			page 3


  86 0080 13057004 		li	a0,71
  87 0084 97000000 		call	__putc@plt
  87      E7800000 
  88              	.LVL12:
  89 008c 6FF09FFD 		j	.L2
  90              	.L6:
  20:src/main.cpp  ****     if (ret2 < 0) __putc('G');
  91              		.loc 1 20 19 is_stmt 1 discriminator 1
  20:src/main.cpp  ****     if (ret2 < 0) __putc('G');
  92              		.loc 1 20 25 is_stmt 0 discriminator 1
  93 0090 13057004 		li	a0,71
  94 0094 97000000 		call	__putc@plt
  94      E7800000 
  95              	.LVL13:
  96              		.loc 1 22 1 discriminator 1
  97 009c 6FF0DFFC 		j	.L1
  98              		.cfi_endproc
  99              	.LFE17:
 101              		.align	2
 102              		.globl	_Z11testCMemoryv
 104              	_Z11testCMemoryv:
 105              	.LFB18:
  23:src/main.cpp  **** 
  24:src/main.cpp  **** void testCMemory() {
 106              		.loc 1 24 20 is_stmt 1
 107              		.cfi_startproc
 108 00a0 130101FE 		addi	sp,sp,-32
 109              		.cfi_def_cfa_offset 32
 110 00a4 233C1100 		sd	ra,24(sp)
 111 00a8 23388100 		sd	s0,16(sp)
 112 00ac 23349100 		sd	s1,8(sp)
 113              		.cfi_offset 1, -8
 114              		.cfi_offset 8, -16
 115              		.cfi_offset 9, -24
 116 00b0 13040102 		addi	s0,sp,32
 117              		.cfi_def_cfa 8, 0
  25:src/main.cpp  ****     MemoryAllocator::print();
 118              		.loc 1 25 5
 119              		.loc 1 25 27 is_stmt 0
 120 00b4 97000000 		call	_ZN15MemoryAllocator5printEv@plt
 120      E7800000 
 121              	.LVL14:
  26:src/main.cpp  ****     void* addr = mem_alloc(50);
 122              		.loc 1 26 5 is_stmt 1
 123              		.loc 1 26 27 is_stmt 0
 124 00bc 13052003 		li	a0,50
 125 00c0 97000000 		call	_Z9mem_allocm@plt
 125      E7800000 
 126              	.LVL15:
 127 00c8 93040500 		mv	s1,a0
 128              	.LVL16:
  27:src/main.cpp  ****     MemoryAllocator::print();
 129              		.loc 1 27 5 is_stmt 1
 130              		.loc 1 27 27 is_stmt 0
 131 00cc 97000000 		call	_ZN15MemoryAllocator5printEv@plt
 131      E7800000 
 132              	.LVL17:
GAS LISTING /tmp/ccpuE7Yi.s 			page 4


  28:src/main.cpp  ****     mem_free(addr);
 133              		.loc 1 28 5 is_stmt 1
 134              		.loc 1 28 13 is_stmt 0
 135 00d4 13850400 		mv	a0,s1
 136 00d8 97000000 		call	_Z8mem_freePv@plt
 136      E7800000 
 137              	.LVL18:
  29:src/main.cpp  ****     MemoryAllocator::print();
 138              		.loc 1 29 5 is_stmt 1
 139              		.loc 1 29 27 is_stmt 0
 140 00e0 97000000 		call	_ZN15MemoryAllocator5printEv@plt
 140      E7800000 
 141              	.LVL19:
  30:src/main.cpp  **** }
 142              		.loc 1 30 1
 143 00e8 83308101 		ld	ra,24(sp)
 144              		.cfi_restore 1
 145 00ec 03340101 		ld	s0,16(sp)
 146              		.cfi_restore 8
 147              		.cfi_def_cfa 2, 32
 148 00f0 83348100 		ld	s1,8(sp)
 149              		.cfi_restore 9
 150              	.LVL20:
 151 00f4 13010102 		addi	sp,sp,32
 152              		.cfi_def_cfa_offset 0
 153 00f8 67800000 		jr	ra
 154              		.cfi_endproc
 155              	.LFE18:
 157              		.align	2
 158              		.globl	main
 160              	main:
 161              	.LFB19:
  31:src/main.cpp  **** 
  32:src/main.cpp  **** int main() {
 162              		.loc 1 32 12 is_stmt 1
 163              		.cfi_startproc
 164 00fc 130101FF 		addi	sp,sp,-16
 165              		.cfi_def_cfa_offset 16
 166 0100 23341100 		sd	ra,8(sp)
 167 0104 23308100 		sd	s0,0(sp)
 168              		.cfi_offset 1, -8
 169              		.cfi_offset 8, -16
 170 0108 13040101 		addi	s0,sp,16
 171              		.cfi_def_cfa 8, 0
  33:src/main.cpp  **** 
  34:src/main.cpp  ****     RISCV::wr_stvec((uint64)&RISCV::handle_interrupt);
 172              		.loc 1 34 5
 173              		.loc 1 34 20 is_stmt 0
 174 010c 97070000 		la	a5,_ZN5RISCV16handle_interruptEv
 174      83B70700 
 175              	.LVL21:
 176              	.LBB4:
 177              	.LBB5:
 178              		.file 2 "src/../h/../h/riscv.hpp"
   1:src/../h/../h/riscv.hpp **** //
   2:src/../h/../h/riscv.hpp **** // Created by os on 4/7/24.
   3:src/../h/../h/riscv.hpp **** //
GAS LISTING /tmp/ccpuE7Yi.s 			page 5


   4:src/../h/../h/riscv.hpp **** 
   5:src/../h/../h/riscv.hpp **** #ifndef PROJECT_BASE_RISCV_HPP
   6:src/../h/../h/riscv.hpp **** #define PROJECT_BASE_RISCV_HPP
   7:src/../h/../h/riscv.hpp **** 
   8:src/../h/../h/riscv.hpp **** #include "../lib/hw.h"
   9:src/../h/../h/riscv.hpp **** 
  10:src/../h/../h/riscv.hpp **** class RISCV {
  11:src/../h/../h/riscv.hpp **** public:
  12:src/../h/../h/riscv.hpp **** 
  13:src/../h/../h/riscv.hpp ****     enum causes {
  14:src/../h/../h/riscv.hpp ****         SOFTWARE = 0x800000000000001UL,
  15:src/../h/../h/riscv.hpp ****         EXTERNAL = 0x800000000000009UL,
  16:src/../h/../h/riscv.hpp ****         U_ECALL  = 0x000000000000008UL,
  17:src/../h/../h/riscv.hpp ****         S_ECALL  = 0x000000000000009UL
  18:src/../h/../h/riscv.hpp ****     };
  19:src/../h/../h/riscv.hpp **** 
  20:src/../h/../h/riscv.hpp ****     static void supervisor_trap();
  21:src/../h/../h/riscv.hpp **** 
  22:src/../h/../h/riscv.hpp ****     static void push_regs();
  23:src/../h/../h/riscv.hpp ****     static void pop_regs();
  24:src/../h/../h/riscv.hpp **** 
  25:src/../h/../h/riscv.hpp ****     static void handle_interrupt();
  26:src/../h/../h/riscv.hpp ****     static void handle_trap();
  27:src/../h/../h/riscv.hpp **** 
  28:src/../h/../h/riscv.hpp ****     static uint64 rd_scause();
  29:src/../h/../h/riscv.hpp ****     static void wr_scause(uint64 scause);
  30:src/../h/../h/riscv.hpp **** 
  31:src/../h/../h/riscv.hpp ****     static uint64 rd_sepc();
  32:src/../h/../h/riscv.hpp ****     static void wr_sepc(uint64 sepc);
  33:src/../h/../h/riscv.hpp **** 
  34:src/../h/../h/riscv.hpp ****     static uint64 rd_stvec();
  35:src/../h/../h/riscv.hpp ****     static void wr_stvec(uint64 stvec);
  36:src/../h/../h/riscv.hpp **** 
  37:src/../h/../h/riscv.hpp ****     static uint64 rd_stval();
  38:src/../h/../h/riscv.hpp ****     static void wr_stval(uint64 stval);
  39:src/../h/../h/riscv.hpp **** 
  40:src/../h/../h/riscv.hpp ****     static uint64 rd_sip();
  41:src/../h/../h/riscv.hpp ****     static void wr_sip(uint64 sip);
  42:src/../h/../h/riscv.hpp **** 
  43:src/../h/../h/riscv.hpp ****     static uint64 rd_sstatus();
  44:src/../h/../h/riscv.hpp ****     static void wr_sstatus(uint64 sstatus);
  45:src/../h/../h/riscv.hpp **** 
  46:src/../h/../h/riscv.hpp ****     static inline void mask_sip(uint64 mask) {
  47:src/../h/../h/riscv.hpp ****         __asm__ volatile("csrc sip, %0" : : "r"(mask));
  48:src/../h/../h/riscv.hpp ****     }
  49:src/../h/../h/riscv.hpp **** 
  50:src/../h/../h/riscv.hpp ****     static void popSppSpie();
  51:src/../h/../h/riscv.hpp ****     // pop sstatus.spp and sstatus.spie bits
  52:src/../h/../h/riscv.hpp ****     // must be in cpp !!!
  53:src/../h/../h/riscv.hpp **** 
  54:src/../h/../h/riscv.hpp ****     enum mask_sstatus {
  55:src/../h/../h/riscv.hpp ****         SIE = (1 << 1),
  56:src/../h/../h/riscv.hpp ****         SPIE =(1 << 5),
  57:src/../h/../h/riscv.hpp ****         SSP = (1 << 8)
  58:src/../h/../h/riscv.hpp ****     };
  59:src/../h/../h/riscv.hpp **** 
  60:src/../h/../h/riscv.hpp ****     enum mask_sip_sie {
GAS LISTING /tmp/ccpuE7Yi.s 			page 6


  61:src/../h/../h/riscv.hpp ****         SS = (1 << 1),
  62:src/../h/../h/riscv.hpp ****         SE = (1 << 9)
  63:src/../h/../h/riscv.hpp ****     };
  64:src/../h/../h/riscv.hpp **** 
  65:src/../h/../h/riscv.hpp **** };
  66:src/../h/../h/riscv.hpp **** 
  67:src/../h/../h/riscv.hpp **** inline uint64 RISCV::rd_scause() {
  68:src/../h/../h/riscv.hpp ****     uint64 volatile value;
  69:src/../h/../h/riscv.hpp ****     __asm__ volatile ("csrr %0, scause" : "=r"(value));
  70:src/../h/../h/riscv.hpp ****     return value;
  71:src/../h/../h/riscv.hpp **** }
  72:src/../h/../h/riscv.hpp **** 
  73:src/../h/../h/riscv.hpp **** inline void RISCV::wr_scause(uint64 value) {
  74:src/../h/../h/riscv.hpp ****     __asm__ volatile ("csrw scause, %0" : : "r"(value));
  75:src/../h/../h/riscv.hpp **** }
  76:src/../h/../h/riscv.hpp **** 
  77:src/../h/../h/riscv.hpp **** inline uint64 RISCV::rd_sepc() {
  78:src/../h/../h/riscv.hpp ****     uint64 volatile value;
  79:src/../h/../h/riscv.hpp ****     __asm__ volatile ("csrr %0, sepc" : "=r"(value));
  80:src/../h/../h/riscv.hpp ****     return value;
  81:src/../h/../h/riscv.hpp **** }
  82:src/../h/../h/riscv.hpp **** 
  83:src/../h/../h/riscv.hpp **** inline void RISCV::wr_sepc(uint64 value) {
  84:src/../h/../h/riscv.hpp ****     __asm__ volatile ("csrw sepc, %0" : : "r"(value));
  85:src/../h/../h/riscv.hpp **** }
  86:src/../h/../h/riscv.hpp **** 
  87:src/../h/../h/riscv.hpp **** inline uint64 RISCV::rd_stvec() {
  88:src/../h/../h/riscv.hpp ****     uint64 volatile value;
  89:src/../h/../h/riscv.hpp ****     __asm__ volatile ("csrr %0, stvec" : "=r"(value));
  90:src/../h/../h/riscv.hpp ****     return value;
  91:src/../h/../h/riscv.hpp **** }
  92:src/../h/../h/riscv.hpp **** 
  93:src/../h/../h/riscv.hpp **** inline void RISCV::wr_stvec(uint64 value) {
  94:src/../h/../h/riscv.hpp ****     __asm__ volatile ("csrw stvec, %0" : : "r"(value));
 179              		.loc 2 94 5 is_stmt 1
 180              		.loc 2 94 55 is_stmt 0
 181              	#APP
 182              	# 94 "src/../h/../h/riscv.hpp" 1
  95              	}
 183              		csrw stvec, a5
 184              	# 0 "" 2
 185              	.LVL22:
 186              	#NO_APP
 187              	.LBE5:
 188              	.LBE4:
  35:src/main.cpp  ****     // ecall jumps to addres in stvec reg
  36:src/main.cpp  **** 
  37:src/main.cpp  ****     MemoryAllocator::getAllocator();
 189              		.loc 1 37 5 is_stmt 1
 190              		.loc 1 37 34 is_stmt 0
 191 0118 97000000 		call	_ZN15MemoryAllocator12getAllocatorEv@plt
 191      E7800000 
 192              	.LVL23:
  38:src/main.cpp  **** 
  39:src/main.cpp  ****     // testMemoryAllocator();
  40:src/main.cpp  ****     testCMemory();
 193              		.loc 1 40 5 is_stmt 1
GAS LISTING /tmp/ccpuE7Yi.s 			page 7


 194              		.loc 1 40 16 is_stmt 0
 195 0120 97000000 		call	_Z11testCMemoryv
 195      E7800000 
 196              	.LVL24:
  41:src/main.cpp  **** 
  42:src/main.cpp  ****     return 0;
 197              		.loc 1 42 5 is_stmt 1
  43:src/main.cpp  **** }
 198              		.loc 1 43 1 is_stmt 0
 199 0128 13050000 		li	a0,0
 200 012c 83308100 		ld	ra,8(sp)
 201              		.cfi_restore 1
 202 0130 03340100 		ld	s0,0(sp)
 203              		.cfi_restore 8
 204              		.cfi_def_cfa 2, 16
 205 0134 13010101 		addi	sp,sp,16
 206              		.cfi_def_cfa_offset 0
 207 0138 67800000 		jr	ra
 208              		.cfi_endproc
 209              	.LFE19:
 211              	.Letext0:
 212              		.file 3 "src/../h/../lib/hw.h"
 213              		.file 4 "src/../h/Memoryallocator.hpp"
 214              		.file 5 "src/../h/syscall_c.h"
 215              		.file 6 "src/../lib/console.h"
GAS LISTING /tmp/ccpuE7Yi.s 			page 8

