GAS LISTING /tmp/cctQL7SK.s 			page 1


   1              		.file	"MemoryAllocator.cpp"
   2              		.option pic
   3              		.option norelax
   4              		.text
   5              	.Ltext0:
   6              		.align	2
   7              		.globl	_ZN15MemoryAllocator9mem_allocEm
   9              	_ZN15MemoryAllocator9mem_allocEm:
  10              	.LFB1:
  11              		.file 1 "src/MemoryAllocator.cpp"
   1:src/MemoryAllocator.cpp **** 
   2:src/MemoryAllocator.cpp **** #include "../h/Memoryallocator.hpp"
   3:src/MemoryAllocator.cpp **** #include "../lib/console.h"
   4:src/MemoryAllocator.cpp **** 
   5:src/MemoryAllocator.cpp **** MemoryAllocator* MemoryAllocator::allocator = nullptr;
   6:src/MemoryAllocator.cpp **** MemoryAllocator::MemoryBlock* MemoryAllocator::free_mem_head = nullptr;
   7:src/MemoryAllocator.cpp **** MemoryAllocator::MemoryBlock* MemoryAllocator::used_mem_head = nullptr;
   8:src/MemoryAllocator.cpp **** 
   9:src/MemoryAllocator.cpp **** MemoryAllocator* MemoryAllocator::getAllocator() {
  10:src/MemoryAllocator.cpp **** 
  11:src/MemoryAllocator.cpp ****     if (!allocator) {
  12:src/MemoryAllocator.cpp ****         free_mem_head = (MemoryBlock*)HEAP_START_ADDR;
  13:src/MemoryAllocator.cpp ****         free_mem_head->next = nullptr;
  14:src/MemoryAllocator.cpp ****         free_mem_head->prev = nullptr;
  15:src/MemoryAllocator.cpp ****         free_mem_head->size = (size_t)HEAP_END_ADDR - (size_t)HEAP_START_ADDR + 1;
  16:src/MemoryAllocator.cpp ****         allocator = (MemoryAllocator*)MemoryAllocator::mem_alloc((sizeof(MemoryAllocator) + mem_h_s
  17:src/MemoryAllocator.cpp ****     }
  18:src/MemoryAllocator.cpp ****     return allocator;
  19:src/MemoryAllocator.cpp **** }
  20:src/MemoryAllocator.cpp **** 
  21:src/MemoryAllocator.cpp **** void* MemoryAllocator::mem_alloc(size_t size) {
  12              		.loc 1 21 47
  13              		.cfi_startproc
  14              	.LVL0:
  15 0000 130101FF 		addi	sp,sp,-16
  16              		.cfi_def_cfa_offset 16
  17 0004 23348100 		sd	s0,8(sp)
  18              		.cfi_offset 8, -8
  19 0008 13040101 		addi	s0,sp,16
  20              		.cfi_def_cfa 8, 0
  22:src/MemoryAllocator.cpp **** 
  23:src/MemoryAllocator.cpp ****     //size je broj blokova koje zelimo zauzeti
  24:src/MemoryAllocator.cpp ****     if (size <= 0) return nullptr;
  21              		.loc 1 24 5
  22 000c 63080510 		beqz	a0,.L17
  25:src/MemoryAllocator.cpp **** 
  26:src/MemoryAllocator.cpp ****     MemoryBlock* curr = nullptr;
  23              		.loc 1 26 5
  24              	.LVL1:
  27:src/MemoryAllocator.cpp ****     size_t byte_size = size * MEM_BLOCK_SIZE;
  25              		.loc 1 27 5
  26              		.loc 1 27 12 is_stmt 0
  27 0010 93176500 		slli	a5,a0,6
  28              	.LVL2:
  28:src/MemoryAllocator.cpp **** 
  29:src/MemoryAllocator.cpp ****     for (curr = free_mem_head; curr; curr = curr -> next) {
  29              		.loc 1 29 5 is_stmt 1
GAS LISTING /tmp/cctQL7SK.s 			page 2


  30              	.LBB2:
  31              		.loc 1 29 15 is_stmt 0
  32 0014 17050000 		ld	a0,.LANCHOR0
  32      03350500 
  33              	.LVL3:
  34 001c 6F008002 		j	.L16
  35              	.L21:
  36              	.LBB3:
  37              	.LBB4:
  38              	.LBB5:
  30:src/MemoryAllocator.cpp **** 
  31:src/MemoryAllocator.cpp ****         if (curr->size >= byte_size) {
  32:src/MemoryAllocator.cpp **** 
  33:src/MemoryAllocator.cpp ****             if (curr->size - byte_size < sizeof(MemoryBlock)) {
  34:src/MemoryAllocator.cpp ****                 if (curr->next) curr->next->prev = curr->prev;
  39              		.loc 1 34 17 is_stmt 1
  40              		.loc 1 34 27 is_stmt 0
  41 0020 03370500 		ld	a4,0(a0)
  42              		.loc 1 34 17
  43 0024 63060700 		beqz	a4,.L5
  44              		.loc 1 34 33 is_stmt 1 discriminator 1
  45              		.loc 1 34 58 is_stmt 0 discriminator 1
  46 0028 83368500 		ld	a3,8(a0)
  47              		.loc 1 34 50 discriminator 1
  48 002c 2334D700 		sd	a3,8(a4)
  49              	.L5:
  35:src/MemoryAllocator.cpp ****                 if (curr->prev) curr->prev->next = curr->next;
  50              		.loc 1 35 17 is_stmt 1
  51              		.loc 1 35 27 is_stmt 0
  52 0030 03378500 		ld	a4,8(a0)
  53              		.loc 1 35 17
  54 0034 63000708 		beqz	a4,.L6
  55              		.loc 1 35 33 is_stmt 1 discriminator 1
  56              		.loc 1 35 58 is_stmt 0 discriminator 1
  57 0038 83360500 		ld	a3,0(a0)
  58              		.loc 1 35 50 discriminator 1
  59 003c 2330D700 		sd	a3,0(a4)
  60              	.L3:
  61              	.LBE5:
  62              	.LBE4:
  63              	.LBE3:
  29:src/MemoryAllocator.cpp **** 
  64              		.loc 1 29 5 is_stmt 1 discriminator 2
  29:src/MemoryAllocator.cpp **** 
  65              		.loc 1 29 43 is_stmt 0 discriminator 2
  66 0040 03350500 		ld	a0,0(a0)
  67              	.LVL4:
  68              	.L16:
  29:src/MemoryAllocator.cpp **** 
  69              		.loc 1 29 32 is_stmt 1 discriminator 1
  70 0044 630C050A 		beqz	a0,.L1
  71              	.LBE2:
  31:src/MemoryAllocator.cpp **** 
  72              		.loc 1 31 9
  73              	.LBB14:
  74              	.LBB12:
  31:src/MemoryAllocator.cpp **** 
GAS LISTING /tmp/cctQL7SK.s 			page 3


  75              		.loc 1 31 19 is_stmt 0
  76 0048 03370501 		ld	a4,16(a0)
  31:src/MemoryAllocator.cpp **** 
  77              		.loc 1 31 9
  78 004c E36AF7FE 		bltu	a4,a5,.L3
  79              	.LBB10:
  33:src/MemoryAllocator.cpp ****                 if (curr->next) curr->next->prev = curr->prev;
  80              		.loc 1 33 13 is_stmt 1
  81              	.LBB8:
  33:src/MemoryAllocator.cpp ****                 if (curr->next) curr->next->prev = curr->prev;
  82              		.loc 1 33 28 is_stmt 0
  83 0050 3307F740 		sub	a4,a4,a5
  33:src/MemoryAllocator.cpp ****                 if (curr->next) curr->next->prev = curr->prev;
  84              		.loc 1 33 13
  85 0054 93067001 		li	a3,23
  86 0058 E3F4E6FC 		bleu	a4,a3,.L21
  87              	.LBB6:
  36:src/MemoryAllocator.cpp ****                 else free_mem_head = curr->next;
  37:src/MemoryAllocator.cpp ****                 // first free seg
  38:src/MemoryAllocator.cpp ****                 continue;
  39:src/MemoryAllocator.cpp ****             } else {
  40:src/MemoryAllocator.cpp ****                 // allocate
  41:src/MemoryAllocator.cpp ****                 auto *remaining = (MemoryBlock *) ((char *) curr + byte_size);
  88              		.loc 1 41 17 is_stmt 1
  89              		.loc 1 41 23 is_stmt 0
  90 005c 3307F500 		add	a4,a0,a5
  91              	.LVL5:
  42:src/MemoryAllocator.cpp ****                 remaining->next = curr->next;
  92              		.loc 1 42 17 is_stmt 1
  93              		.loc 1 42 41 is_stmt 0
  94 0060 83360500 		ld	a3,0(a0)
  95              		.loc 1 42 33
  96 0064 2330D700 		sd	a3,0(a4)
  43:src/MemoryAllocator.cpp ****                 remaining->prev = curr->prev;
  97              		.loc 1 43 17 is_stmt 1
  98              		.loc 1 43 41 is_stmt 0
  99 0068 83368500 		ld	a3,8(a0)
 100              		.loc 1 43 33
 101 006c 2334D700 		sd	a3,8(a4)
  44:src/MemoryAllocator.cpp ****                 remaining->size = curr->size - byte_size;
 102              		.loc 1 44 17 is_stmt 1
 103              		.loc 1 44 41 is_stmt 0
 104 0070 83360501 		ld	a3,16(a0)
 105              		.loc 1 44 46
 106 0074 B386F640 		sub	a3,a3,a5
 107              		.loc 1 44 33
 108 0078 2338D700 		sd	a3,16(a4)
  45:src/MemoryAllocator.cpp ****                 // update pointers of next
  46:src/MemoryAllocator.cpp ****                 if (curr->next) curr->next->prev = remaining;
 109              		.loc 1 46 17 is_stmt 1
 110              		.loc 1 46 27 is_stmt 0
 111 007c 83360500 		ld	a3,0(a0)
 112              		.loc 1 46 17
 113 0080 63840600 		beqz	a3,.L8
 114              		.loc 1 46 33 is_stmt 1 discriminator 1
 115              		.loc 1 46 50 is_stmt 0 discriminator 1
 116 0084 23B4E600 		sd	a4,8(a3)
GAS LISTING /tmp/cctQL7SK.s 			page 4


 117              	.L8:
  47:src/MemoryAllocator.cpp ****                 if (curr->prev) curr->prev->next = remaining;
 118              		.loc 1 47 17 is_stmt 1
 119              		.loc 1 47 27 is_stmt 0
 120 0088 83368500 		ld	a3,8(a0)
 121              		.loc 1 47 17
 122 008c 638C0602 		beqz	a3,.L9
 123              		.loc 1 47 33 is_stmt 1 discriminator 1
 124              		.loc 1 47 50 is_stmt 0 discriminator 1
 125 0090 23B0E600 		sd	a4,0(a3)
 126              	.L10:
 127              	.LBE6:
 128              	.LBE8:
  48:src/MemoryAllocator.cpp ****                 else free_mem_head = remaining;
  49:src/MemoryAllocator.cpp ****             }
  50:src/MemoryAllocator.cpp **** 
  51:src/MemoryAllocator.cpp ****             // update used list
  52:src/MemoryAllocator.cpp ****             MemoryBlock* prev;
 129              		.loc 1 52 13 is_stmt 1
  53:src/MemoryAllocator.cpp ****             if (curr < used_mem_head || used_mem_head == 0) prev = 0;
 130              		.loc 1 53 13
 131              		.loc 1 53 22 is_stmt 0
 132 0094 17070000 		ld	a4,.LANCHOR0+8
 132      03370700 
 133              	.LVL6:
 134              		.loc 1 53 13
 135 009c 636AE502 		bgtu	a4,a0,.L18
 136              		.loc 1 53 38 discriminator 2
 137 00a0 63040706 		beqz	a4,.L19
 138              	.L12:
 139              	.LVL7:
  54:src/MemoryAllocator.cpp ****             else for (prev = used_mem_head; prev->next != 0; prev = prev->next);
 140              		.loc 1 54 56 is_stmt 1 discriminator 3
 141 00a4 93060700 		mv	a3,a4
 142              		.loc 1 54 51 is_stmt 0 discriminator 3
 143 00a8 03370700 		ld	a4,0(a4)
 144              	.LVL8:
 145              		.loc 1 54 56 discriminator 3
 146 00ac E31C07FE 		bnez	a4,.L12
 147 00b0 6F004002 		j	.L11
 148              	.LVL9:
 149              	.L6:
 150              	.LBB9:
  36:src/MemoryAllocator.cpp ****                 // first free seg
 151              		.loc 1 36 22 is_stmt 1
  36:src/MemoryAllocator.cpp ****                 // first free seg
 152              		.loc 1 36 44 is_stmt 0
 153 00b4 03370500 		ld	a4,0(a0)
  36:src/MemoryAllocator.cpp ****                 // first free seg
 154              		.loc 1 36 36
 155 00b8 97060000 		sd	a4,.LANCHOR0,a3
 155      23B0E600 
  38:src/MemoryAllocator.cpp ****             } else {
 156              		.loc 1 38 17 is_stmt 1
 157 00c0 6FF01FF8 		j	.L3
 158              	.LVL10:
 159              	.L9:
GAS LISTING /tmp/cctQL7SK.s 			page 5


 160              	.LBB7:
  48:src/MemoryAllocator.cpp ****             }
 161              		.loc 1 48 22
  48:src/MemoryAllocator.cpp ****             }
 162              		.loc 1 48 36 is_stmt 0
 163 00c4 97060000 		sd	a4,.LANCHOR0,a3
 163      23B0E600 
 164 00cc 6FF09FFC 		j	.L10
 165              	.LVL11:
 166              	.L18:
 167              	.LBE7:
 168              	.LBE9:
  53:src/MemoryAllocator.cpp ****             else for (prev = used_mem_head; prev->next != 0; prev = prev->next);
 169              		.loc 1 53 66
 170 00d0 93060000 		li	a3,0
 171              	.L11:
 172              	.LVL12:
  55:src/MemoryAllocator.cpp **** 
  56:src/MemoryAllocator.cpp ****             curr->size = byte_size;
 173              		.loc 1 56 13 is_stmt 1
 174              		.loc 1 56 24 is_stmt 0
 175 00d4 2338F500 		sd	a5,16(a0)
  57:src/MemoryAllocator.cpp ****             curr->prev = prev;
 176              		.loc 1 57 13 is_stmt 1
 177              		.loc 1 57 24 is_stmt 0
 178 00d8 2334D500 		sd	a3,8(a0)
  58:src/MemoryAllocator.cpp ****             if (prev) {
 179              		.loc 1 58 13 is_stmt 1
 180 00dc 638A0602 		beqz	a3,.L13
  59:src/MemoryAllocator.cpp ****                 curr->next = prev->next;
 181              		.loc 1 59 17
 182              		.loc 1 59 36 is_stmt 0
 183 00e0 83B70600 		ld	a5,0(a3)
 184              	.LVL13:
 185              		.loc 1 59 28
 186 00e4 2330F500 		sd	a5,0(a0)
  60:src/MemoryAllocator.cpp ****                 prev->next = curr;
 187              		.loc 1 60 17 is_stmt 1
 188              		.loc 1 60 28 is_stmt 0
 189 00e8 23B0A600 		sd	a0,0(a3)
 190              	.LVL14:
 191              	.L14:
  61:src/MemoryAllocator.cpp ****             }
  62:src/MemoryAllocator.cpp ****             else used_mem_head = curr;
  63:src/MemoryAllocator.cpp ****             if (curr->next) curr->next->prev = curr;
 192              		.loc 1 63 13 is_stmt 1
 193              		.loc 1 63 23 is_stmt 0
 194 00ec 83370500 		ld	a5,0(a0)
 195              		.loc 1 63 13
 196 00f0 63840700 		beqz	a5,.L15
 197              		.loc 1 63 29 is_stmt 1 discriminator 1
 198              		.loc 1 63 46 is_stmt 0 discriminator 1
 199 00f4 23B4A700 		sd	a0,8(a5)
 200              	.L15:
  64:src/MemoryAllocator.cpp ****             return (void*)((char*)curr + sizeof(MemoryBlock));
 201              		.loc 1 64 13 is_stmt 1
 202              		.loc 1 64 61 is_stmt 0
GAS LISTING /tmp/cctQL7SK.s 			page 6


 203 00f8 13058501 		addi	a0,a0,24
 204              	.LVL15:
 205              	.L1:
 206              	.LBE10:
 207              	.LBE12:
 208              	.LBE14:
  65:src/MemoryAllocator.cpp **** 
  66:src/MemoryAllocator.cpp ****         }
  67:src/MemoryAllocator.cpp ****     }
  68:src/MemoryAllocator.cpp **** 
  69:src/MemoryAllocator.cpp ****     // free memory not found :(
  70:src/MemoryAllocator.cpp ****     return nullptr;
  71:src/MemoryAllocator.cpp **** }
 209              		.loc 1 71 1
 210 00fc 03348100 		ld	s0,8(sp)
 211              		.cfi_remember_state
 212              		.cfi_restore 8
 213              		.cfi_def_cfa 2, 16
 214 0100 13010101 		addi	sp,sp,16
 215              		.cfi_def_cfa_offset 0
 216 0104 67800000 		jr	ra
 217              	.LVL16:
 218              	.L19:
 219              		.cfi_restore_state
 220              	.LBB15:
 221              	.LBB13:
 222              	.LBB11:
  53:src/MemoryAllocator.cpp ****             else for (prev = used_mem_head; prev->next != 0; prev = prev->next);
 223              		.loc 1 53 66
 224 0108 93060700 		mv	a3,a4
 225 010c 6FF09FFC 		j	.L11
 226              	.LVL17:
 227              	.L13:
  62:src/MemoryAllocator.cpp ****             if (curr->next) curr->next->prev = curr;
 228              		.loc 1 62 18 is_stmt 1
  62:src/MemoryAllocator.cpp ****             if (curr->next) curr->next->prev = curr;
 229              		.loc 1 62 32 is_stmt 0
 230 0110 97070000 		sd	a0,.LANCHOR0+8,a5
 230      23B0A700 
 231              	.LVL18:
 232 0118 6FF05FFD 		j	.L14
 233              	.LVL19:
 234              	.L17:
 235              	.LBE11:
 236              	.LBE13:
 237              	.LBE15:
  24:src/MemoryAllocator.cpp **** 
 238              		.loc 1 24 27
 239 011c 13050000 		li	a0,0
 240              	.LVL20:
 241 0120 6FF0DFFD 		j	.L1
 242              		.cfi_endproc
 243              	.LFE1:
 245              		.align	2
 246              		.globl	_ZN15MemoryAllocator12getAllocatorEv
 248              	_ZN15MemoryAllocator12getAllocatorEv:
 249              	.LFB0:
GAS LISTING /tmp/cctQL7SK.s 			page 7


   9:src/MemoryAllocator.cpp **** 
 250              		.loc 1 9 50 is_stmt 1
 251              		.cfi_startproc
  11:src/MemoryAllocator.cpp ****         free_mem_head = (MemoryBlock*)HEAP_START_ADDR;
 252              		.loc 1 11 5
  11:src/MemoryAllocator.cpp ****         free_mem_head = (MemoryBlock*)HEAP_START_ADDR;
 253              		.loc 1 11 9 is_stmt 0
 254 0124 97070000 		ld	a5,.LANCHOR0+16
 254      83B70700 
  11:src/MemoryAllocator.cpp ****         free_mem_head = (MemoryBlock*)HEAP_START_ADDR;
 255              		.loc 1 11 5
 256 012c 63880700 		beqz	a5,.L28
  18:src/MemoryAllocator.cpp **** }
 257              		.loc 1 18 5 is_stmt 1
  19:src/MemoryAllocator.cpp **** 
 258              		.loc 1 19 1 is_stmt 0
 259 0130 17050000 		ld	a0,.LANCHOR0+16
 259      03350500 
 260 0138 67800000 		ret
 261              	.L28:
   9:src/MemoryAllocator.cpp **** 
 262              		.loc 1 9 50
 263 013c 130101FE 		addi	sp,sp,-32
 264              		.cfi_def_cfa_offset 32
 265 0140 233C1100 		sd	ra,24(sp)
 266 0144 23388100 		sd	s0,16(sp)
 267 0148 23349100 		sd	s1,8(sp)
 268              		.cfi_offset 1, -8
 269              		.cfi_offset 8, -16
 270              		.cfi_offset 9, -24
 271 014c 13040102 		addi	s0,sp,32
 272              		.cfi_def_cfa 8, 0
  12:src/MemoryAllocator.cpp ****         free_mem_head->next = nullptr;
 273              		.loc 1 12 9 is_stmt 1
  12:src/MemoryAllocator.cpp ****         free_mem_head->next = nullptr;
 274              		.loc 1 12 23 is_stmt 0
 275 0150 97060000 		la	a3,HEAP_START_ADDR
 275      83B60600 
 276 0158 83B70600 		ld	a5,0(a3)
 277 015c 97040000 		lla	s1,.LANCHOR0
 277      93840400 
 278 0164 23B0F400 		sd	a5,0(s1)
  13:src/MemoryAllocator.cpp ****         free_mem_head->prev = nullptr;
 279              		.loc 1 13 9 is_stmt 1
  13:src/MemoryAllocator.cpp ****         free_mem_head->prev = nullptr;
 280              		.loc 1 13 29 is_stmt 0
 281 0168 23B00700 		sd	zero,0(a5)
  14:src/MemoryAllocator.cpp ****         free_mem_head->size = (size_t)HEAP_END_ADDR - (size_t)HEAP_START_ADDR + 1;
 282              		.loc 1 14 9 is_stmt 1
  14:src/MemoryAllocator.cpp ****         free_mem_head->size = (size_t)HEAP_END_ADDR - (size_t)HEAP_START_ADDR + 1;
 283              		.loc 1 14 24 is_stmt 0
 284 016c 03B70400 		ld	a4,0(s1)
  14:src/MemoryAllocator.cpp ****         free_mem_head->size = (size_t)HEAP_END_ADDR - (size_t)HEAP_START_ADDR + 1;
 285              		.loc 1 14 29
 286 0170 23340700 		sd	zero,8(a4)
  15:src/MemoryAllocator.cpp ****         allocator = (MemoryAllocator*)MemoryAllocator::mem_alloc((sizeof(MemoryAllocator) + mem_h_s
 287              		.loc 1 15 9 is_stmt 1
GAS LISTING /tmp/cctQL7SK.s 			page 8


  15:src/MemoryAllocator.cpp ****         allocator = (MemoryAllocator*)MemoryAllocator::mem_alloc((sizeof(MemoryAllocator) + mem_h_s
 288              		.loc 1 15 53 is_stmt 0
 289 0174 97070000 		la	a5,HEAP_END_ADDR
 289      83B70700 
 290 017c 83B70700 		ld	a5,0(a5)
 291 0180 83B60600 		ld	a3,0(a3)
 292 0184 B387D740 		sub	a5,a5,a3
  15:src/MemoryAllocator.cpp ****         allocator = (MemoryAllocator*)MemoryAllocator::mem_alloc((sizeof(MemoryAllocator) + mem_h_s
 293              		.loc 1 15 79
 294 0188 93871700 		addi	a5,a5,1
  15:src/MemoryAllocator.cpp ****         allocator = (MemoryAllocator*)MemoryAllocator::mem_alloc((sizeof(MemoryAllocator) + mem_h_s
 295              		.loc 1 15 29
 296 018c 2338F700 		sd	a5,16(a4)
  16:src/MemoryAllocator.cpp ****     }
 297              		.loc 1 16 9 is_stmt 1
  16:src/MemoryAllocator.cpp ****     }
 298              		.loc 1 16 65 is_stmt 0
 299 0190 13051000 		li	a0,1
 300 0194 97000000 		call	_ZN15MemoryAllocator9mem_allocEm
 300      E7800000 
 301              	.LVL21:
  16:src/MemoryAllocator.cpp ****     }
 302              		.loc 1 16 19
 303 019c 23B8A400 		sd	a0,16(s1)
  18:src/MemoryAllocator.cpp **** }
 304              		.loc 1 18 5 is_stmt 1
  19:src/MemoryAllocator.cpp **** 
 305              		.loc 1 19 1 is_stmt 0
 306 01a0 17050000 		ld	a0,.LANCHOR0+16
 306      03350500 
 307 01a8 83308101 		ld	ra,24(sp)
 308              		.cfi_restore 1
 309 01ac 03340101 		ld	s0,16(sp)
 310              		.cfi_restore 8
 311              		.cfi_def_cfa 2, 32
 312 01b0 83348100 		ld	s1,8(sp)
 313              		.cfi_restore 9
 314 01b4 13010102 		addi	sp,sp,32
 315              		.cfi_def_cfa_offset 0
 316 01b8 67800000 		jr	ra
 317              		.cfi_endproc
 318              	.LFE0:
 320              		.align	2
 321              		.globl	_ZN15MemoryAllocator9tryToJoinEPNS_11MemoryBlockE
 323              	_ZN15MemoryAllocator9tryToJoinEPNS_11MemoryBlockE:
 324              	.LFB3:
  72:src/MemoryAllocator.cpp **** 
  73:src/MemoryAllocator.cpp **** int MemoryAllocator::mem_free(const void* addr) {
  74:src/MemoryAllocator.cpp ****     if (!addr || addr > HEAP_END_ADDR || addr < HEAP_START_ADDR) return -1; // error
  75:src/MemoryAllocator.cpp **** 
  76:src/MemoryAllocator.cpp ****     auto* block = (MemoryBlock*)((char*)addr - sizeof(MemoryBlock));
  77:src/MemoryAllocator.cpp ****     MemoryBlock* tmp = used_mem_head;
  78:src/MemoryAllocator.cpp **** 
  79:src/MemoryAllocator.cpp ****     for (; tmp && block > tmp; tmp = tmp->next);
  80:src/MemoryAllocator.cpp ****     if (block != tmp || !tmp) return -1;
  81:src/MemoryAllocator.cpp **** 
  82:src/MemoryAllocator.cpp ****     // used mem
GAS LISTING /tmp/cctQL7SK.s 			page 9


  83:src/MemoryAllocator.cpp ****     if (tmp->prev) tmp->prev->next = tmp->next;
  84:src/MemoryAllocator.cpp ****     else used_mem_head = tmp->next;
  85:src/MemoryAllocator.cpp ****     if (tmp->next) tmp->next->prev = tmp->prev;
  86:src/MemoryAllocator.cpp **** 
  87:src/MemoryAllocator.cpp ****     // free mem
  88:src/MemoryAllocator.cpp ****     if (!free_mem_head || (char*)block < (char*)free_mem_head) tmp = nullptr;
  89:src/MemoryAllocator.cpp ****     else for (tmp = free_mem_head; tmp->next != 0 && (char*)block > (char*)(tmp->next); tmp = tmp->
  90:src/MemoryAllocator.cpp **** 
  91:src/MemoryAllocator.cpp ****     // tmp == previous
  92:src/MemoryAllocator.cpp **** 
  93:src/MemoryAllocator.cpp ****     if (tmp == nullptr) {
  94:src/MemoryAllocator.cpp ****         block -> prev = tmp;
  95:src/MemoryAllocator.cpp ****         if (free_mem_head) {
  96:src/MemoryAllocator.cpp ****             free_mem_head->prev = block;
  97:src/MemoryAllocator.cpp ****             block->next = free_mem_head;
  98:src/MemoryAllocator.cpp ****             tryToJoin(block);
  99:src/MemoryAllocator.cpp ****         }
 100:src/MemoryAllocator.cpp ****         else block -> next = nullptr;
 101:src/MemoryAllocator.cpp ****         free_mem_head = block;
 102:src/MemoryAllocator.cpp ****         tryToJoin(free_mem_head);
 103:src/MemoryAllocator.cpp **** 
 104:src/MemoryAllocator.cpp ****     } else {
 105:src/MemoryAllocator.cpp ****         block->next = tmp->next;
 106:src/MemoryAllocator.cpp ****         block->prev = tmp;
 107:src/MemoryAllocator.cpp ****         tmp->next = block;
 108:src/MemoryAllocator.cpp ****         if (block->next) block->next->prev = block;
 109:src/MemoryAllocator.cpp ****         tryToJoin(block);
 110:src/MemoryAllocator.cpp ****         tryToJoin(tmp);
 111:src/MemoryAllocator.cpp ****     }
 112:src/MemoryAllocator.cpp ****     return 0;
 113:src/MemoryAllocator.cpp **** }
 114:src/MemoryAllocator.cpp **** 
 115:src/MemoryAllocator.cpp **** // try to join with next free segment
 116:src/MemoryAllocator.cpp **** 
 117:src/MemoryAllocator.cpp **** int MemoryAllocator::tryToJoin(MemoryAllocator::MemoryBlock *curr) {
 325              		.loc 1 117 68 is_stmt 1
 326              		.cfi_startproc
 327              	.LVL22:
 328 01bc 130101FF 		addi	sp,sp,-16
 329              		.cfi_def_cfa_offset 16
 330 01c0 23348100 		sd	s0,8(sp)
 331              		.cfi_offset 8, -8
 332 01c4 13040101 		addi	s0,sp,16
 333              		.cfi_def_cfa 8, 0
 118:src/MemoryAllocator.cpp ****     if (!curr) return 0;
 334              		.loc 1 118 5
 335 01c8 63060504 		beqz	a0,.L32
 119:src/MemoryAllocator.cpp ****     if (curr->next && (char*)curr + curr->size == (char*)curr->next) {
 336              		.loc 1 119 5
 337              		.loc 1 119 15 is_stmt 0
 338 01cc 83370500 		ld	a5,0(a0)
 339              		.loc 1 119 5
 340 01d0 63860704 		beqz	a5,.L33
 341              		.loc 1 119 43 discriminator 1
 342 01d4 03370501 		ld	a4,16(a0)
 343              		.loc 1 119 35 discriminator 1
 344 01d8 B306E500 		add	a3,a0,a4
GAS LISTING /tmp/cctQL7SK.s 			page 10


 345              		.loc 1 119 20 discriminator 1
 346 01dc 638AD700 		beq	a5,a3,.L36
 120:src/MemoryAllocator.cpp ****         curr->size += curr->next->size;
 121:src/MemoryAllocator.cpp ****         curr->next = curr->next->next;
 122:src/MemoryAllocator.cpp ****         if (curr->next) curr->next->prev = curr;
 123:src/MemoryAllocator.cpp ****         return 1; // success status
 124:src/MemoryAllocator.cpp ****     }
 125:src/MemoryAllocator.cpp ****     return 0;
 347              		.loc 1 125 12
 348 01e0 13050000 		li	a0,0
 349              	.LVL23:
 350              	.L30:
 126:src/MemoryAllocator.cpp **** }
 351              		.loc 1 126 1
 352 01e4 03348100 		ld	s0,8(sp)
 353              		.cfi_remember_state
 354              		.cfi_restore 8
 355              		.cfi_def_cfa 2, 16
 356 01e8 13010101 		addi	sp,sp,16
 357              		.cfi_def_cfa_offset 0
 358 01ec 67800000 		jr	ra
 359              	.LVL24:
 360              	.L36:
 361              		.cfi_restore_state
 120:src/MemoryAllocator.cpp ****         curr->size += curr->next->size;
 362              		.loc 1 120 9 is_stmt 1
 120:src/MemoryAllocator.cpp ****         curr->size += curr->next->size;
 363              		.loc 1 120 35 is_stmt 0
 364 01f0 83B60701 		ld	a3,16(a5)
 120:src/MemoryAllocator.cpp ****         curr->size += curr->next->size;
 365              		.loc 1 120 20
 366 01f4 3307D700 		add	a4,a4,a3
 367 01f8 2338E500 		sd	a4,16(a0)
 121:src/MemoryAllocator.cpp ****         if (curr->next) curr->next->prev = curr;
 368              		.loc 1 121 9 is_stmt 1
 121:src/MemoryAllocator.cpp ****         if (curr->next) curr->next->prev = curr;
 369              		.loc 1 121 34 is_stmt 0
 370 01fc 83B70700 		ld	a5,0(a5)
 121:src/MemoryAllocator.cpp ****         if (curr->next) curr->next->prev = curr;
 371              		.loc 1 121 20
 372 0200 2330F500 		sd	a5,0(a0)
 122:src/MemoryAllocator.cpp ****         return 1; // success status
 373              		.loc 1 122 9 is_stmt 1
 374 0204 63840700 		beqz	a5,.L31
 122:src/MemoryAllocator.cpp ****         return 1; // success status
 375              		.loc 1 122 25 discriminator 1
 122:src/MemoryAllocator.cpp ****         return 1; // success status
 376              		.loc 1 122 42 is_stmt 0 discriminator 1
 377 0208 23B4A700 		sd	a0,8(a5)
 378              	.L31:
 123:src/MemoryAllocator.cpp ****     }
 379              		.loc 1 123 9 is_stmt 1
 123:src/MemoryAllocator.cpp ****     }
 380              		.loc 1 123 16 is_stmt 0
 381 020c 13051000 		li	a0,1
 382              	.LVL25:
 383 0210 6FF05FFD 		j	.L30
GAS LISTING /tmp/cctQL7SK.s 			page 11


 384              	.LVL26:
 385              	.L32:
 118:src/MemoryAllocator.cpp ****     if (curr->next && (char*)curr + curr->size == (char*)curr->next) {
 386              		.loc 1 118 23
 387 0214 13050000 		li	a0,0
 388              	.LVL27:
 389 0218 6FF0DFFC 		j	.L30
 390              	.LVL28:
 391              	.L33:
 125:src/MemoryAllocator.cpp **** }
 392              		.loc 1 125 12
 393 021c 13050000 		li	a0,0
 394              	.LVL29:
 395 0220 6FF05FFC 		j	.L30
 396              		.cfi_endproc
 397              	.LFE3:
 399              		.align	2
 400              		.globl	_ZN15MemoryAllocator8mem_freeEPKv
 402              	_ZN15MemoryAllocator8mem_freeEPKv:
 403              	.LFB2:
  73:src/MemoryAllocator.cpp ****     if (!addr || addr > HEAP_END_ADDR || addr < HEAP_START_ADDR) return -1; // error
 404              		.loc 1 73 49 is_stmt 1
 405              		.cfi_startproc
 406              	.LVL30:
  74:src/MemoryAllocator.cpp **** 
 407              		.loc 1 74 5
 408 0224 630A0514 		beqz	a0,.L51
  74:src/MemoryAllocator.cpp **** 
 409              		.loc 1 74 23 is_stmt 0 discriminator 2
 410 0228 97070000 		la	a5,HEAP_END_ADDR
 410      83B70700 
 411 0230 83B70700 		ld	a5,0(a5)
  74:src/MemoryAllocator.cpp **** 
 412              		.loc 1 74 15 discriminator 2
 413 0234 63E6A714 		bltu	a5,a0,.L52
  74:src/MemoryAllocator.cpp **** 
 414              		.loc 1 74 47 discriminator 4
 415 0238 97070000 		la	a5,HEAP_START_ADDR
 415      83B70700 
 416 0240 83B70700 		ld	a5,0(a5)
  74:src/MemoryAllocator.cpp **** 
 417              		.loc 1 74 39 discriminator 4
 418 0244 6362F514 		bgtu	a5,a0,.L53
  73:src/MemoryAllocator.cpp ****     if (!addr || addr > HEAP_END_ADDR || addr < HEAP_START_ADDR) return -1; // error
 419              		.loc 1 73 49
 420 0248 130101FE 		addi	sp,sp,-32
 421              		.cfi_def_cfa_offset 32
 422 024c 233C1100 		sd	ra,24(sp)
 423 0250 23388100 		sd	s0,16(sp)
 424 0254 23349100 		sd	s1,8(sp)
 425 0258 23302101 		sd	s2,0(sp)
 426              		.cfi_offset 1, -8
 427              		.cfi_offset 8, -16
 428              		.cfi_offset 9, -24
 429              		.cfi_offset 18, -32
 430 025c 13040102 		addi	s0,sp,32
 431              		.cfi_def_cfa 8, 0
GAS LISTING /tmp/cctQL7SK.s 			page 12


  76:src/MemoryAllocator.cpp ****     MemoryBlock* tmp = used_mem_head;
 432              		.loc 1 76 5 is_stmt 1
  76:src/MemoryAllocator.cpp ****     MemoryBlock* tmp = used_mem_head;
 433              		.loc 1 76 11 is_stmt 0
 434 0260 930485FE 		addi	s1,a0,-24
 435              	.LVL31:
  77:src/MemoryAllocator.cpp **** 
 436              		.loc 1 77 5 is_stmt 1
  77:src/MemoryAllocator.cpp **** 
 437              		.loc 1 77 18 is_stmt 0
 438 0264 97070000 		ld	a5,.LANCHOR0+8
 438      83B70700 
 439              	.LVL32:
 440              	.L40:
  79:src/MemoryAllocator.cpp ****     if (block != tmp || !tmp) return -1;
 441              		.loc 1 79 5 is_stmt 1 discriminator 3
  79:src/MemoryAllocator.cpp ****     if (block != tmp || !tmp) return -1;
 442              		.loc 1 79 16 discriminator 3
 443 026c 63880700 		beqz	a5,.L39
  79:src/MemoryAllocator.cpp ****     if (block != tmp || !tmp) return -1;
 444              		.loc 1 79 16 is_stmt 0 discriminator 1
 445 0270 63F69700 		bgeu	a5,s1,.L39
  79:src/MemoryAllocator.cpp ****     if (block != tmp || !tmp) return -1;
 446              		.loc 1 79 5 is_stmt 1 discriminator 2
  79:src/MemoryAllocator.cpp ****     if (block != tmp || !tmp) return -1;
 447              		.loc 1 79 36 is_stmt 0 discriminator 2
 448 0274 83B70700 		ld	a5,0(a5)
 449              	.LVL33:
  79:src/MemoryAllocator.cpp ****     if (block != tmp || !tmp) return -1;
 450              		.loc 1 79 5 discriminator 2
 451 0278 6FF05FFF 		j	.L40
 452              	.L39:
  80:src/MemoryAllocator.cpp **** 
 453              		.loc 1 80 5 is_stmt 1
 454 027c 639A9710 		bne	a5,s1,.L54
  80:src/MemoryAllocator.cpp **** 
 455              		.loc 1 80 22 is_stmt 0 discriminator 2
 456 0280 638C0710 		beqz	a5,.L55
  83:src/MemoryAllocator.cpp ****     else used_mem_head = tmp->next;
 457              		.loc 1 83 5 is_stmt 1
  83:src/MemoryAllocator.cpp ****     else used_mem_head = tmp->next;
 458              		.loc 1 83 14 is_stmt 0
 459 0284 03B78700 		ld	a4,8(a5)
  83:src/MemoryAllocator.cpp ****     else used_mem_head = tmp->next;
 460              		.loc 1 83 5
 461 0288 630C0706 		beqz	a4,.L41
  83:src/MemoryAllocator.cpp ****     else used_mem_head = tmp->next;
 462              		.loc 1 83 20 is_stmt 1 discriminator 1
  83:src/MemoryAllocator.cpp ****     else used_mem_head = tmp->next;
 463              		.loc 1 83 43 is_stmt 0 discriminator 1
 464 028c 83B60700 		ld	a3,0(a5)
  83:src/MemoryAllocator.cpp ****     else used_mem_head = tmp->next;
 465              		.loc 1 83 36 discriminator 1
 466 0290 2330D700 		sd	a3,0(a4)
 467              	.L42:
  85:src/MemoryAllocator.cpp **** 
 468              		.loc 1 85 5 is_stmt 1
GAS LISTING /tmp/cctQL7SK.s 			page 13


  85:src/MemoryAllocator.cpp **** 
 469              		.loc 1 85 14 is_stmt 0
 470 0294 03B70700 		ld	a4,0(a5)
  85:src/MemoryAllocator.cpp **** 
 471              		.loc 1 85 5
 472 0298 63060700 		beqz	a4,.L43
  85:src/MemoryAllocator.cpp **** 
 473              		.loc 1 85 20 is_stmt 1 discriminator 1
  85:src/MemoryAllocator.cpp **** 
 474              		.loc 1 85 43 is_stmt 0 discriminator 1
 475 029c 83B78700 		ld	a5,8(a5)
 476              	.LVL34:
  85:src/MemoryAllocator.cpp **** 
 477              		.loc 1 85 36 discriminator 1
 478 02a0 2334F700 		sd	a5,8(a4)
 479              	.L43:
  88:src/MemoryAllocator.cpp ****     else for (tmp = free_mem_head; tmp->next != 0 && (char*)block > (char*)(tmp->next); tmp = tmp->
 480              		.loc 1 88 5 is_stmt 1
  88:src/MemoryAllocator.cpp ****     else for (tmp = free_mem_head; tmp->next != 0 && (char*)block > (char*)(tmp->next); tmp = tmp->
 481              		.loc 1 88 9 is_stmt 0
 482 02a4 97070000 		ld	a5,.LANCHOR0
 482      83B70700 
  88:src/MemoryAllocator.cpp ****     else for (tmp = free_mem_head; tmp->next != 0 && (char*)block > (char*)(tmp->next); tmp = tmp->
 483              		.loc 1 88 5
 484 02ac 63880706 		beqz	a5,.L44
  88:src/MemoryAllocator.cpp ****     else for (tmp = free_mem_head; tmp->next != 0 && (char*)block > (char*)(tmp->next); tmp = tmp->
 485              		.loc 1 88 24 discriminator 2
 486 02b0 63E4F406 		bgtu	a5,s1,.L56
 487              	.L46:
 488              	.LVL35:
  89:src/MemoryAllocator.cpp **** 
 489              		.loc 1 89 51 is_stmt 1 discriminator 4
 490 02b4 13890700 		mv	s2,a5
  89:src/MemoryAllocator.cpp **** 
 491              		.loc 1 89 41 is_stmt 0 discriminator 4
 492 02b8 83B70700 		ld	a5,0(a5)
 493              	.LVL36:
  89:src/MemoryAllocator.cpp **** 
 494              		.loc 1 89 51 discriminator 4
 495 02bc 63840700 		beqz	a5,.L45
  89:src/MemoryAllocator.cpp **** 
 496              		.loc 1 89 51 discriminator 2
 497 02c0 E3EA97FE 		bltu	a5,s1,.L46
 498              	.L45:
  93:src/MemoryAllocator.cpp ****         block -> prev = tmp;
 499              		.loc 1 93 5 is_stmt 1
 500 02c4 63060904 		beqz	s2,.L61
 105:src/MemoryAllocator.cpp ****         block->prev = tmp;
 501              		.loc 1 105 9
 105:src/MemoryAllocator.cpp ****         block->prev = tmp;
 502              		.loc 1 105 21 is_stmt 0
 503 02c8 2334F5FE 		sd	a5,-24(a0)
 106:src/MemoryAllocator.cpp ****         tmp->next = block;
 504              		.loc 1 106 9 is_stmt 1
 106:src/MemoryAllocator.cpp ****         tmp->next = block;
 505              		.loc 1 106 21 is_stmt 0
 506 02cc 233825FF 		sd	s2,-16(a0)
GAS LISTING /tmp/cctQL7SK.s 			page 14


 107:src/MemoryAllocator.cpp ****         if (block->next) block->next->prev = block;
 507              		.loc 1 107 9 is_stmt 1
 107:src/MemoryAllocator.cpp ****         if (block->next) block->next->prev = block;
 508              		.loc 1 107 19 is_stmt 0
 509 02d0 23309900 		sd	s1,0(s2)
 108:src/MemoryAllocator.cpp ****         tryToJoin(block);
 510              		.loc 1 108 9 is_stmt 1
 108:src/MemoryAllocator.cpp ****         tryToJoin(block);
 511              		.loc 1 108 20 is_stmt 0
 512 02d4 833785FE 		ld	a5,-24(a0)
 108:src/MemoryAllocator.cpp ****         tryToJoin(block);
 513              		.loc 1 108 9
 514 02d8 63840700 		beqz	a5,.L50
 108:src/MemoryAllocator.cpp ****         tryToJoin(block);
 515              		.loc 1 108 26 is_stmt 1 discriminator 1
 108:src/MemoryAllocator.cpp ****         tryToJoin(block);
 516              		.loc 1 108 44 is_stmt 0 discriminator 1
 517 02dc 23B49700 		sd	s1,8(a5)
 518              	.L50:
 109:src/MemoryAllocator.cpp ****         tryToJoin(tmp);
 519              		.loc 1 109 9 is_stmt 1
 109:src/MemoryAllocator.cpp ****         tryToJoin(tmp);
 520              		.loc 1 109 18 is_stmt 0
 521 02e0 13850400 		mv	a0,s1
 522              	.LVL37:
 523 02e4 97000000 		call	_ZN15MemoryAllocator9tryToJoinEPNS_11MemoryBlockE
 523      E7800000 
 524              	.LVL38:
 110:src/MemoryAllocator.cpp ****     }
 525              		.loc 1 110 9 is_stmt 1
 110:src/MemoryAllocator.cpp ****     }
 526              		.loc 1 110 18 is_stmt 0
 527 02ec 13050900 		mv	a0,s2
 528 02f0 97000000 		call	_ZN15MemoryAllocator9tryToJoinEPNS_11MemoryBlockE
 528      E7800000 
 529              	.LVL39:
 112:src/MemoryAllocator.cpp **** }
 530              		.loc 1 112 12
 531 02f8 13050000 		li	a0,0
 532 02fc 6F00C005 		j	.L38
 533              	.LVL40:
 534              	.L41:
  84:src/MemoryAllocator.cpp ****     if (tmp->next) tmp->next->prev = tmp->prev;
 535              		.loc 1 84 10 is_stmt 1
  84:src/MemoryAllocator.cpp ****     if (tmp->next) tmp->next->prev = tmp->prev;
 536              		.loc 1 84 31 is_stmt 0
 537 0300 03B70700 		ld	a4,0(a5)
  84:src/MemoryAllocator.cpp ****     if (tmp->next) tmp->next->prev = tmp->prev;
 538              		.loc 1 84 24
 539 0304 97060000 		sd	a4,.LANCHOR0+8,a3
 539      23B0E600 
 540 030c 6FF09FF8 		j	.L42
 541              	.LVL41:
 542              	.L61:
 543 0310 93070900 		mv	a5,s2
 544 0314 6F008000 		j	.L44
 545              	.LVL42:
GAS LISTING /tmp/cctQL7SK.s 			page 15


 546              	.L56:
  88:src/MemoryAllocator.cpp ****     else for (tmp = free_mem_head; tmp->next != 0 && (char*)block > (char*)(tmp->next); tmp = tmp->
 547              		.loc 1 88 68
 548 0318 93070000 		li	a5,0
 549              	.L44:
  94:src/MemoryAllocator.cpp ****         if (free_mem_head) {
 550              		.loc 1 94 9 is_stmt 1
  94:src/MemoryAllocator.cpp ****         if (free_mem_head) {
 551              		.loc 1 94 23 is_stmt 0
 552 031c 2338F5FE 		sd	a5,-16(a0)
  95:src/MemoryAllocator.cpp ****             free_mem_head->prev = block;
 553              		.loc 1 95 9 is_stmt 1
  95:src/MemoryAllocator.cpp ****             free_mem_head->prev = block;
 554              		.loc 1 95 26 is_stmt 0
 555 0320 97070000 		ld	a5,.LANCHOR0
 555      83B70700 
  95:src/MemoryAllocator.cpp ****             free_mem_head->prev = block;
 556              		.loc 1 95 9
 557 0328 63840704 		beqz	a5,.L48
  96:src/MemoryAllocator.cpp ****             block->next = free_mem_head;
 558              		.loc 1 96 13 is_stmt 1
  96:src/MemoryAllocator.cpp ****             block->next = free_mem_head;
 559              		.loc 1 96 33 is_stmt 0
 560 032c 23B49700 		sd	s1,8(a5)
  97:src/MemoryAllocator.cpp ****             tryToJoin(block);
 561              		.loc 1 97 13 is_stmt 1
  97:src/MemoryAllocator.cpp ****             tryToJoin(block);
 562              		.loc 1 97 25 is_stmt 0
 563 0330 2334F5FE 		sd	a5,-24(a0)
  98:src/MemoryAllocator.cpp ****         }
 564              		.loc 1 98 13 is_stmt 1
  98:src/MemoryAllocator.cpp ****         }
 565              		.loc 1 98 22 is_stmt 0
 566 0334 13850400 		mv	a0,s1
 567              	.LVL43:
 568 0338 97000000 		call	_ZN15MemoryAllocator9tryToJoinEPNS_11MemoryBlockE
 568      E7800000 
 569              	.LVL44:
 570              	.L49:
 101:src/MemoryAllocator.cpp ****         tryToJoin(free_mem_head);
 571              		.loc 1 101 9 is_stmt 1
 101:src/MemoryAllocator.cpp ****         tryToJoin(free_mem_head);
 572              		.loc 1 101 23 is_stmt 0
 573 0340 97070000 		sd	s1,.LANCHOR0,a5
 573      23B09700 
 102:src/MemoryAllocator.cpp **** 
 574              		.loc 1 102 9 is_stmt 1
 102:src/MemoryAllocator.cpp **** 
 575              		.loc 1 102 18 is_stmt 0
 576 0348 13850400 		mv	a0,s1
 577 034c 97000000 		call	_ZN15MemoryAllocator9tryToJoinEPNS_11MemoryBlockE
 577      E7800000 
 578              	.LVL45:
 112:src/MemoryAllocator.cpp **** }
 579              		.loc 1 112 12
 580 0354 13050000 		li	a0,0
 581              	.L38:
GAS LISTING /tmp/cctQL7SK.s 			page 16


 113:src/MemoryAllocator.cpp **** 
 582              		.loc 1 113 1
 583 0358 83308101 		ld	ra,24(sp)
 584              		.cfi_remember_state
 585              		.cfi_restore 1
 586 035c 03340101 		ld	s0,16(sp)
 587              		.cfi_restore 8
 588              		.cfi_def_cfa 2, 32
 589 0360 83348100 		ld	s1,8(sp)
 590              		.cfi_restore 9
 591              	.LVL46:
 592 0364 03390100 		ld	s2,0(sp)
 593              		.cfi_restore 18
 594 0368 13010102 		addi	sp,sp,32
 595              		.cfi_def_cfa_offset 0
 596 036c 67800000 		jr	ra
 597              	.LVL47:
 598              	.L48:
 599              		.cfi_restore_state
 100:src/MemoryAllocator.cpp ****         free_mem_head = block;
 600              		.loc 1 100 14 is_stmt 1
 100:src/MemoryAllocator.cpp ****         free_mem_head = block;
 601              		.loc 1 100 28 is_stmt 0
 602 0370 233405FE 		sd	zero,-24(a0)
 603 0374 6FF0DFFC 		j	.L49
 604              	.LVL48:
 605              	.L51:
 606              		.cfi_def_cfa_register 2
 607              		.cfi_restore 1
 608              		.cfi_restore 8
 609              		.cfi_restore 9
 610              		.cfi_restore 18
  74:src/MemoryAllocator.cpp **** 
 611              		.loc 1 74 74
 612 0378 1305F0FF 		li	a0,-1
 613              	.LVL49:
 614 037c 67800000 		ret
 615              	.LVL50:
 616              	.L52:
 617 0380 1305F0FF 		li	a0,-1
 618              	.LVL51:
 619 0384 67800000 		ret
 620              	.LVL52:
 621              	.L53:
 622 0388 1305F0FF 		li	a0,-1
 623              	.LVL53:
 113:src/MemoryAllocator.cpp **** 
 624              		.loc 1 113 1
 625 038c 67800000 		ret
 626              	.LVL54:
 627              	.L54:
 628              		.cfi_def_cfa_register 8
 629              		.cfi_offset 1, -8
 630              		.cfi_offset 8, -16
 631              		.cfi_offset 9, -24
 632              		.cfi_offset 18, -32
  80:src/MemoryAllocator.cpp **** 
GAS LISTING /tmp/cctQL7SK.s 			page 17


 633              		.loc 1 80 39
 634 0390 1305F0FF 		li	a0,-1
 635              	.LVL55:
 636 0394 6FF05FFC 		j	.L38
 637              	.LVL56:
 638              	.L55:
 639 0398 1305F0FF 		li	a0,-1
 640              	.LVL57:
 641 039c 6FF0DFFB 		j	.L38
 642              		.cfi_endproc
 643              	.LFE2:
 645              		.align	2
 646              		.globl	_ZN15MemoryAllocator5printEv
 648              	_ZN15MemoryAllocator5printEv:
 649              	.LFB4:
 127:src/MemoryAllocator.cpp **** 
 128:src/MemoryAllocator.cpp **** extern void printInteger(uint64);
 129:src/MemoryAllocator.cpp **** 
 130:src/MemoryAllocator.cpp **** void MemoryAllocator::print() {
 650              		.loc 1 130 31 is_stmt 1
 651              		.cfi_startproc
 652 03a0 130101FE 		addi	sp,sp,-32
 653              		.cfi_def_cfa_offset 32
 654 03a4 233C1100 		sd	ra,24(sp)
 655 03a8 23388100 		sd	s0,16(sp)
 656 03ac 23349100 		sd	s1,8(sp)
 657              		.cfi_offset 1, -8
 658              		.cfi_offset 8, -16
 659              		.cfi_offset 9, -24
 660 03b0 13040102 		addi	s0,sp,32
 661              		.cfi_def_cfa 8, 0
 131:src/MemoryAllocator.cpp **** 
 132:src/MemoryAllocator.cpp ****     for (MemoryBlock* b = free_mem_head; b != nullptr; b = b->next) {
 662              		.loc 1 132 5
 663              	.LBB16:
 664              		.loc 1 132 23 is_stmt 0
 665 03b4 97040000 		ld	s1,.LANCHOR0
 665      83B40400 
 666              	.LVL58:
 667              	.L64:
 668              		.loc 1 132 44 is_stmt 1 discriminator 3
 669 03bc 638E0402 		beqz	s1,.L63
 133:src/MemoryAllocator.cpp ****         __putc('f');
 670              		.loc 1 133 9 discriminator 2
 671              		.loc 1 133 15 is_stmt 0 discriminator 2
 672 03c0 13056006 		li	a0,102
 673 03c4 97000000 		call	__putc@plt
 673      E7800000 
 674              	.LVL59:
 134:src/MemoryAllocator.cpp ****         __putc('\n');
 675              		.loc 1 134 9 is_stmt 1 discriminator 2
 676              		.loc 1 134 15 is_stmt 0 discriminator 2
 677 03cc 1305A000 		li	a0,10
 678 03d0 97000000 		call	__putc@plt
 678      E7800000 
 679              	.LVL60:
 135:src/MemoryAllocator.cpp ****         printInteger(b->size);
GAS LISTING /tmp/cctQL7SK.s 			page 18


 680              		.loc 1 135 9 is_stmt 1 discriminator 2
 681              		.loc 1 135 21 is_stmt 0 discriminator 2
 682 03d8 03B50401 		ld	a0,16(s1)
 683 03dc 97000000 		call	_Z12printIntegerm@plt
 683      E7800000 
 684              	.LVL61:
 136:src/MemoryAllocator.cpp ****         __putc('\n');
 685              		.loc 1 136 9 is_stmt 1 discriminator 2
 686              		.loc 1 136 15 is_stmt 0 discriminator 2
 687 03e4 1305A000 		li	a0,10
 688 03e8 97000000 		call	__putc@plt
 688      E7800000 
 689              	.LVL62:
 132:src/MemoryAllocator.cpp ****         __putc('f');
 690              		.loc 1 132 5 is_stmt 1 discriminator 2
 132:src/MemoryAllocator.cpp ****         __putc('f');
 691              		.loc 1 132 58 is_stmt 0 discriminator 2
 692 03f0 83B40400 		ld	s1,0(s1)
 693              	.LVL63:
 132:src/MemoryAllocator.cpp ****         __putc('f');
 694              		.loc 1 132 5 discriminator 2
 695 03f4 6FF09FFC 		j	.L64
 696              	.L63:
 697              	.LBE16:
 137:src/MemoryAllocator.cpp ****     }
 138:src/MemoryAllocator.cpp **** 
 139:src/MemoryAllocator.cpp ****     if (!used_mem_head) __putc('x');
 698              		.loc 1 139 5 is_stmt 1
 699              		.loc 1 139 9 is_stmt 0
 700 03f8 97070000 		ld	a5,.LANCHOR0+8
 700      83B70700 
 701              		.loc 1 139 5
 702 0400 63840704 		beqz	a5,.L69
 703              	.L65:
 140:src/MemoryAllocator.cpp **** 
 141:src/MemoryAllocator.cpp ****     for (MemoryBlock* b = used_mem_head; b != nullptr; b = b->next) {
 704              		.loc 1 141 5 is_stmt 1
 705              	.LBB17:
 706              		.loc 1 141 23 is_stmt 0
 707 0404 97040000 		ld	s1,.LANCHOR0+8
 707      83B40400 
 708              	.LVL64:
 709              	.L67:
 710              		.loc 1 141 44 is_stmt 1 discriminator 3
 711 040c 63860404 		beqz	s1,.L66
 142:src/MemoryAllocator.cpp ****         __putc('u');
 712              		.loc 1 142 9 discriminator 2
 713              		.loc 1 142 15 is_stmt 0 discriminator 2
 714 0410 13055007 		li	a0,117
 715 0414 97000000 		call	__putc@plt
 715      E7800000 
 716              	.LVL65:
 143:src/MemoryAllocator.cpp ****         __putc('\n');
 717              		.loc 1 143 9 is_stmt 1 discriminator 2
 718              		.loc 1 143 15 is_stmt 0 discriminator 2
 719 041c 1305A000 		li	a0,10
 720 0420 97000000 		call	__putc@plt
GAS LISTING /tmp/cctQL7SK.s 			page 19


 720      E7800000 
 721              	.LVL66:
 144:src/MemoryAllocator.cpp ****         printInteger(b->size);
 722              		.loc 1 144 9 is_stmt 1 discriminator 2
 723              		.loc 1 144 21 is_stmt 0 discriminator 2
 724 0428 03B50401 		ld	a0,16(s1)
 725 042c 97000000 		call	_Z12printIntegerm@plt
 725      E7800000 
 726              	.LVL67:
 145:src/MemoryAllocator.cpp ****         __putc('\n');
 727              		.loc 1 145 9 is_stmt 1 discriminator 2
 728              		.loc 1 145 15 is_stmt 0 discriminator 2
 729 0434 1305A000 		li	a0,10
 730 0438 97000000 		call	__putc@plt
 730      E7800000 
 731              	.LVL68:
 141:src/MemoryAllocator.cpp ****         __putc('u');
 732              		.loc 1 141 5 is_stmt 1 discriminator 2
 141:src/MemoryAllocator.cpp ****         __putc('u');
 733              		.loc 1 141 58 is_stmt 0 discriminator 2
 734 0440 83B40400 		ld	s1,0(s1)
 735              	.LVL69:
 141:src/MemoryAllocator.cpp ****         __putc('u');
 736              		.loc 1 141 5 discriminator 2
 737 0444 6FF09FFC 		j	.L67
 738              	.LVL70:
 739              	.L69:
 740              	.LBE17:
 139:src/MemoryAllocator.cpp **** 
 741              		.loc 1 139 25 is_stmt 1 discriminator 1
 139:src/MemoryAllocator.cpp **** 
 742              		.loc 1 139 31 is_stmt 0 discriminator 1
 743 0448 13058007 		li	a0,120
 744 044c 97000000 		call	__putc@plt
 744      E7800000 
 745              	.LVL71:
 746 0454 6FF01FFB 		j	.L65
 747              	.LVL72:
 748              	.L66:
 146:src/MemoryAllocator.cpp ****     }
 147:src/MemoryAllocator.cpp **** 
 148:src/MemoryAllocator.cpp ****     __putc('\n');
 749              		.loc 1 148 5 is_stmt 1
 750              		.loc 1 148 11 is_stmt 0
 751 0458 1305A000 		li	a0,10
 752 045c 97000000 		call	__putc@plt
 752      E7800000 
 753              	.LVL73:
 149:src/MemoryAllocator.cpp **** }
 754              		.loc 1 149 1
 755 0464 83308101 		ld	ra,24(sp)
 756              		.cfi_restore 1
 757 0468 03340101 		ld	s0,16(sp)
 758              		.cfi_restore 8
 759              		.cfi_def_cfa 2, 32
 760 046c 83348100 		ld	s1,8(sp)
 761              		.cfi_restore 9
GAS LISTING /tmp/cctQL7SK.s 			page 20


 762              	.LVL74:
 763 0470 13010102 		addi	sp,sp,32
 764              		.cfi_def_cfa_offset 0
 765 0474 67800000 		jr	ra
 766              		.cfi_endproc
 767              	.LFE4:
 769              		.globl	_ZN15MemoryAllocator13used_mem_headE
 770              		.globl	_ZN15MemoryAllocator13free_mem_headE
 771              		.globl	_ZN15MemoryAllocator9allocatorE
 772              		.bss
 773              		.align	3
 774              		.set	.LANCHOR0,. + 0
 777              	_ZN15MemoryAllocator13free_mem_headE:
 778 0000 00000000 		.zero	8
 778      00000000 
 781              	_ZN15MemoryAllocator13used_mem_headE:
 782 0008 00000000 		.zero	8
 782      00000000 
 785              	_ZN15MemoryAllocator9allocatorE:
 786 0010 00000000 		.zero	8
 786      00000000 
 787              		.text
 788              	.Letext0:
 789              		.file 2 "src/../h/../lib/hw.h"
 790              		.file 3 "src/../h/Memoryallocator.hpp"
 791              		.file 4 "src/../lib/console.h"
GAS LISTING /tmp/cctQL7SK.s 			page 21


DEFINED SYMBOLS
                            *ABS*:0000000000000000 MemoryAllocator.cpp
     /tmp/cctQL7SK.s:9      .text:0000000000000000 _ZN15MemoryAllocator9mem_allocEm
     /tmp/cctQL7SK.s:13     .text:0000000000000000 .L0 
     /tmp/cctQL7SK.s:15     .text:0000000000000000 .L0 
     /tmp/cctQL7SK.s:16     .text:0000000000000004 .L0 
     /tmp/cctQL7SK.s:18     .text:0000000000000008 .L0 
     /tmp/cctQL7SK.s:20     .text:000000000000000c .L0 
     /tmp/cctQL7SK.s:22     .text:000000000000000c .L0 
     /tmp/cctQL7SK.s:25     .text:0000000000000010 .L0 
     /tmp/cctQL7SK.s:26     .text:0000000000000010 .L0 
     /tmp/cctQL7SK.s:27     .text:0000000000000010 .L0 
     /tmp/cctQL7SK.s:31     .text:0000000000000014 .L0 
     /tmp/cctQL7SK.s:32     .text:0000000000000014 .L0 
     /tmp/cctQL7SK.s:40     .text:0000000000000020 .L0 
     /tmp/cctQL7SK.s:41     .text:0000000000000020 .L0 
     /tmp/cctQL7SK.s:43     .text:0000000000000024 .L0 
     /tmp/cctQL7SK.s:45     .text:0000000000000028 .L0 
     /tmp/cctQL7SK.s:46     .text:0000000000000028 .L0 
     /tmp/cctQL7SK.s:48     .text:000000000000002c .L0 
     /tmp/cctQL7SK.s:51     .text:0000000000000030 .L0 
     /tmp/cctQL7SK.s:52     .text:0000000000000030 .L0 
     /tmp/cctQL7SK.s:54     .text:0000000000000034 .L0 
     /tmp/cctQL7SK.s:56     .text:0000000000000038 .L0 
     /tmp/cctQL7SK.s:57     .text:0000000000000038 .L0 
     /tmp/cctQL7SK.s:59     .text:000000000000003c .L0 
     /tmp/cctQL7SK.s:65     .text:0000000000000040 .L0 
     /tmp/cctQL7SK.s:66     .text:0000000000000040 .L0 
     /tmp/cctQL7SK.s:70     .text:0000000000000044 .L0 
     /tmp/cctQL7SK.s:75     .text:0000000000000048 .L0 
     /tmp/cctQL7SK.s:76     .text:0000000000000048 .L0 
     /tmp/cctQL7SK.s:78     .text:000000000000004c .L0 
     /tmp/cctQL7SK.s:82     .text:0000000000000050 .L0 
     /tmp/cctQL7SK.s:83     .text:0000000000000050 .L0 
     /tmp/cctQL7SK.s:85     .text:0000000000000054 .L0 
     /tmp/cctQL7SK.s:89     .text:000000000000005c .L0 
     /tmp/cctQL7SK.s:90     .text:000000000000005c .L0 
     /tmp/cctQL7SK.s:93     .text:0000000000000060 .L0 
     /tmp/cctQL7SK.s:94     .text:0000000000000060 .L0 
     /tmp/cctQL7SK.s:96     .text:0000000000000064 .L0 
     /tmp/cctQL7SK.s:98     .text:0000000000000068 .L0 
     /tmp/cctQL7SK.s:99     .text:0000000000000068 .L0 
     /tmp/cctQL7SK.s:101    .text:000000000000006c .L0 
     /tmp/cctQL7SK.s:103    .text:0000000000000070 .L0 
     /tmp/cctQL7SK.s:104    .text:0000000000000070 .L0 
     /tmp/cctQL7SK.s:106    .text:0000000000000074 .L0 
     /tmp/cctQL7SK.s:108    .text:0000000000000078 .L0 
     /tmp/cctQL7SK.s:110    .text:000000000000007c .L0 
     /tmp/cctQL7SK.s:111    .text:000000000000007c .L0 
     /tmp/cctQL7SK.s:113    .text:0000000000000080 .L0 
     /tmp/cctQL7SK.s:115    .text:0000000000000084 .L0 
     /tmp/cctQL7SK.s:116    .text:0000000000000084 .L0 
     /tmp/cctQL7SK.s:119    .text:0000000000000088 .L0 
     /tmp/cctQL7SK.s:120    .text:0000000000000088 .L0 
     /tmp/cctQL7SK.s:122    .text:000000000000008c .L0 
     /tmp/cctQL7SK.s:124    .text:0000000000000090 .L0 
     /tmp/cctQL7SK.s:125    .text:0000000000000090 .L0 
GAS LISTING /tmp/cctQL7SK.s 			page 22


     /tmp/cctQL7SK.s:130    .text:0000000000000094 .L0 
     /tmp/cctQL7SK.s:131    .text:0000000000000094 .L0 
     /tmp/cctQL7SK.s:132    .text:0000000000000094 .L0 
     /tmp/cctQL7SK.s:135    .text:000000000000009c .L0 
     /tmp/cctQL7SK.s:137    .text:00000000000000a0 .L0 
     /tmp/cctQL7SK.s:141    .text:00000000000000a4 .L0 
     /tmp/cctQL7SK.s:143    .text:00000000000000a8 .L0 
     /tmp/cctQL7SK.s:146    .text:00000000000000ac .L0 
     /tmp/cctQL7SK.s:152    .text:00000000000000b4 .L0 
     /tmp/cctQL7SK.s:153    .text:00000000000000b4 .L0 
     /tmp/cctQL7SK.s:155    .text:00000000000000b8 .L0 
     /tmp/cctQL7SK.s:157    .text:00000000000000c0 .L0 
     /tmp/cctQL7SK.s:162    .text:00000000000000c4 .L0 
     /tmp/cctQL7SK.s:163    .text:00000000000000c4 .L0 
     /tmp/cctQL7SK.s:170    .text:00000000000000d0 .L0 
     /tmp/cctQL7SK.s:174    .text:00000000000000d4 .L0 
     /tmp/cctQL7SK.s:175    .text:00000000000000d4 .L0 
     /tmp/cctQL7SK.s:177    .text:00000000000000d8 .L0 
     /tmp/cctQL7SK.s:178    .text:00000000000000d8 .L0 
     /tmp/cctQL7SK.s:180    .text:00000000000000dc .L0 
     /tmp/cctQL7SK.s:182    .text:00000000000000e0 .L0 
     /tmp/cctQL7SK.s:183    .text:00000000000000e0 .L0 
     /tmp/cctQL7SK.s:186    .text:00000000000000e4 .L0 
     /tmp/cctQL7SK.s:188    .text:00000000000000e8 .L0 
     /tmp/cctQL7SK.s:189    .text:00000000000000e8 .L0 
     /tmp/cctQL7SK.s:193    .text:00000000000000ec .L0 
     /tmp/cctQL7SK.s:194    .text:00000000000000ec .L0 
     /tmp/cctQL7SK.s:196    .text:00000000000000f0 .L0 
     /tmp/cctQL7SK.s:198    .text:00000000000000f4 .L0 
     /tmp/cctQL7SK.s:199    .text:00000000000000f4 .L0 
     /tmp/cctQL7SK.s:202    .text:00000000000000f8 .L0 
     /tmp/cctQL7SK.s:203    .text:00000000000000f8 .L0 
     /tmp/cctQL7SK.s:210    .text:00000000000000fc .L0 
     /tmp/cctQL7SK.s:211    .text:0000000000000100 .L0 
     /tmp/cctQL7SK.s:212    .text:0000000000000100 .L0 
     /tmp/cctQL7SK.s:213    .text:0000000000000100 .L0 
     /tmp/cctQL7SK.s:215    .text:0000000000000104 .L0 
     /tmp/cctQL7SK.s:219    .text:0000000000000108 .L0 
     /tmp/cctQL7SK.s:224    .text:0000000000000108 .L0 
     /tmp/cctQL7SK.s:229    .text:0000000000000110 .L0 
     /tmp/cctQL7SK.s:230    .text:0000000000000110 .L0 
     /tmp/cctQL7SK.s:239    .text:000000000000011c .L0 
     /tmp/cctQL7SK.s:242    .text:0000000000000124 .L0 
     /tmp/cctQL7SK.s:248    .text:0000000000000124 _ZN15MemoryAllocator12getAllocatorEv
     /tmp/cctQL7SK.s:251    .text:0000000000000124 .L0 
     /tmp/cctQL7SK.s:252    .text:0000000000000124 .L0 
     /tmp/cctQL7SK.s:253    .text:0000000000000124 .L0 
     /tmp/cctQL7SK.s:254    .text:0000000000000124 .L0 
     /tmp/cctQL7SK.s:256    .text:000000000000012c .L0 
     /tmp/cctQL7SK.s:258    .text:0000000000000130 .L0 
     /tmp/cctQL7SK.s:259    .text:0000000000000130 .L0 
     /tmp/cctQL7SK.s:263    .text:000000000000013c .L0 
     /tmp/cctQL7SK.s:264    .text:0000000000000140 .L0 
     /tmp/cctQL7SK.s:268    .text:000000000000014c .L0 
     /tmp/cctQL7SK.s:269    .text:000000000000014c .L0 
     /tmp/cctQL7SK.s:270    .text:000000000000014c .L0 
     /tmp/cctQL7SK.s:272    .text:0000000000000150 .L0 
GAS LISTING /tmp/cctQL7SK.s 			page 23


     /tmp/cctQL7SK.s:274    .text:0000000000000150 .L0 
     /tmp/cctQL7SK.s:275    .text:0000000000000150 .L0 
     /tmp/cctQL7SK.s:280    .text:0000000000000168 .L0 
     /tmp/cctQL7SK.s:281    .text:0000000000000168 .L0 
     /tmp/cctQL7SK.s:283    .text:000000000000016c .L0 
     /tmp/cctQL7SK.s:284    .text:000000000000016c .L0 
     /tmp/cctQL7SK.s:286    .text:0000000000000170 .L0 
     /tmp/cctQL7SK.s:288    .text:0000000000000174 .L0 
     /tmp/cctQL7SK.s:289    .text:0000000000000174 .L0 
     /tmp/cctQL7SK.s:294    .text:0000000000000188 .L0 
     /tmp/cctQL7SK.s:296    .text:000000000000018c .L0 
     /tmp/cctQL7SK.s:298    .text:0000000000000190 .L0 
     /tmp/cctQL7SK.s:299    .text:0000000000000190 .L0 
     /tmp/cctQL7SK.s:303    .text:000000000000019c .L0 
     /tmp/cctQL7SK.s:305    .text:00000000000001a0 .L0 
     /tmp/cctQL7SK.s:306    .text:00000000000001a0 .L0 
     /tmp/cctQL7SK.s:308    .text:00000000000001ac .L0 
     /tmp/cctQL7SK.s:310    .text:00000000000001b0 .L0 
     /tmp/cctQL7SK.s:311    .text:00000000000001b0 .L0 
     /tmp/cctQL7SK.s:313    .text:00000000000001b4 .L0 
     /tmp/cctQL7SK.s:315    .text:00000000000001b8 .L0 
     /tmp/cctQL7SK.s:317    .text:00000000000001bc .L0 
     /tmp/cctQL7SK.s:323    .text:00000000000001bc _ZN15MemoryAllocator9tryToJoinEPNS_11MemoryBlockE
     /tmp/cctQL7SK.s:326    .text:00000000000001bc .L0 
     /tmp/cctQL7SK.s:328    .text:00000000000001bc .L0 
     /tmp/cctQL7SK.s:329    .text:00000000000001c0 .L0 
     /tmp/cctQL7SK.s:331    .text:00000000000001c4 .L0 
     /tmp/cctQL7SK.s:333    .text:00000000000001c8 .L0 
     /tmp/cctQL7SK.s:335    .text:00000000000001c8 .L0 
     /tmp/cctQL7SK.s:337    .text:00000000000001cc .L0 
     /tmp/cctQL7SK.s:338    .text:00000000000001cc .L0 
     /tmp/cctQL7SK.s:340    .text:00000000000001d0 .L0 
     /tmp/cctQL7SK.s:342    .text:00000000000001d4 .L0 
     /tmp/cctQL7SK.s:344    .text:00000000000001d8 .L0 
     /tmp/cctQL7SK.s:346    .text:00000000000001dc .L0 
     /tmp/cctQL7SK.s:348    .text:00000000000001e0 .L0 
     /tmp/cctQL7SK.s:352    .text:00000000000001e4 .L0 
     /tmp/cctQL7SK.s:353    .text:00000000000001e8 .L0 
     /tmp/cctQL7SK.s:354    .text:00000000000001e8 .L0 
     /tmp/cctQL7SK.s:355    .text:00000000000001e8 .L0 
     /tmp/cctQL7SK.s:357    .text:00000000000001ec .L0 
     /tmp/cctQL7SK.s:361    .text:00000000000001f0 .L0 
     /tmp/cctQL7SK.s:363    .text:00000000000001f0 .L0 
     /tmp/cctQL7SK.s:364    .text:00000000000001f0 .L0 
     /tmp/cctQL7SK.s:366    .text:00000000000001f4 .L0 
     /tmp/cctQL7SK.s:369    .text:00000000000001fc .L0 
     /tmp/cctQL7SK.s:370    .text:00000000000001fc .L0 
     /tmp/cctQL7SK.s:372    .text:0000000000000200 .L0 
     /tmp/cctQL7SK.s:374    .text:0000000000000204 .L0 
     /tmp/cctQL7SK.s:376    .text:0000000000000208 .L0 
     /tmp/cctQL7SK.s:377    .text:0000000000000208 .L0 
     /tmp/cctQL7SK.s:380    .text:000000000000020c .L0 
     /tmp/cctQL7SK.s:381    .text:000000000000020c .L0 
     /tmp/cctQL7SK.s:387    .text:0000000000000214 .L0 
     /tmp/cctQL7SK.s:393    .text:000000000000021c .L0 
     /tmp/cctQL7SK.s:396    .text:0000000000000224 .L0 
     /tmp/cctQL7SK.s:402    .text:0000000000000224 _ZN15MemoryAllocator8mem_freeEPKv
GAS LISTING /tmp/cctQL7SK.s 			page 24


     /tmp/cctQL7SK.s:405    .text:0000000000000224 .L0 
     /tmp/cctQL7SK.s:407    .text:0000000000000224 .L0 
     /tmp/cctQL7SK.s:408    .text:0000000000000224 .L0 
     /tmp/cctQL7SK.s:410    .text:0000000000000228 .L0 
     /tmp/cctQL7SK.s:413    .text:0000000000000234 .L0 
     /tmp/cctQL7SK.s:415    .text:0000000000000238 .L0 
     /tmp/cctQL7SK.s:418    .text:0000000000000244 .L0 
     /tmp/cctQL7SK.s:420    .text:0000000000000248 .L0 
     /tmp/cctQL7SK.s:421    .text:000000000000024c .L0 
     /tmp/cctQL7SK.s:426    .text:000000000000025c .L0 
     /tmp/cctQL7SK.s:427    .text:000000000000025c .L0 
     /tmp/cctQL7SK.s:428    .text:000000000000025c .L0 
     /tmp/cctQL7SK.s:429    .text:000000000000025c .L0 
     /tmp/cctQL7SK.s:431    .text:0000000000000260 .L0 
     /tmp/cctQL7SK.s:433    .text:0000000000000260 .L0 
     /tmp/cctQL7SK.s:434    .text:0000000000000260 .L0 
     /tmp/cctQL7SK.s:437    .text:0000000000000264 .L0 
     /tmp/cctQL7SK.s:438    .text:0000000000000264 .L0 
     /tmp/cctQL7SK.s:442    .text:000000000000026c .L0 
     /tmp/cctQL7SK.s:443    .text:000000000000026c .L0 
     /tmp/cctQL7SK.s:445    .text:0000000000000270 .L0 
     /tmp/cctQL7SK.s:447    .text:0000000000000274 .L0 
     /tmp/cctQL7SK.s:448    .text:0000000000000274 .L0 
     /tmp/cctQL7SK.s:451    .text:0000000000000278 .L0 
     /tmp/cctQL7SK.s:454    .text:000000000000027c .L0 
     /tmp/cctQL7SK.s:456    .text:0000000000000280 .L0 
     /tmp/cctQL7SK.s:458    .text:0000000000000284 .L0 
     /tmp/cctQL7SK.s:459    .text:0000000000000284 .L0 
     /tmp/cctQL7SK.s:461    .text:0000000000000288 .L0 
     /tmp/cctQL7SK.s:463    .text:000000000000028c .L0 
     /tmp/cctQL7SK.s:464    .text:000000000000028c .L0 
     /tmp/cctQL7SK.s:466    .text:0000000000000290 .L0 
     /tmp/cctQL7SK.s:469    .text:0000000000000294 .L0 
     /tmp/cctQL7SK.s:470    .text:0000000000000294 .L0 
     /tmp/cctQL7SK.s:472    .text:0000000000000298 .L0 
     /tmp/cctQL7SK.s:474    .text:000000000000029c .L0 
     /tmp/cctQL7SK.s:475    .text:000000000000029c .L0 
     /tmp/cctQL7SK.s:478    .text:00000000000002a0 .L0 
     /tmp/cctQL7SK.s:481    .text:00000000000002a4 .L0 
     /tmp/cctQL7SK.s:482    .text:00000000000002a4 .L0 
     /tmp/cctQL7SK.s:484    .text:00000000000002ac .L0 
     /tmp/cctQL7SK.s:486    .text:00000000000002b0 .L0 
     /tmp/cctQL7SK.s:490    .text:00000000000002b4 .L0 
     /tmp/cctQL7SK.s:492    .text:00000000000002b8 .L0 
     /tmp/cctQL7SK.s:495    .text:00000000000002bc .L0 
     /tmp/cctQL7SK.s:497    .text:00000000000002c0 .L0 
     /tmp/cctQL7SK.s:500    .text:00000000000002c4 .L0 
     /tmp/cctQL7SK.s:502    .text:00000000000002c8 .L0 
     /tmp/cctQL7SK.s:503    .text:00000000000002c8 .L0 
     /tmp/cctQL7SK.s:505    .text:00000000000002cc .L0 
     /tmp/cctQL7SK.s:506    .text:00000000000002cc .L0 
     /tmp/cctQL7SK.s:508    .text:00000000000002d0 .L0 
     /tmp/cctQL7SK.s:509    .text:00000000000002d0 .L0 
     /tmp/cctQL7SK.s:511    .text:00000000000002d4 .L0 
     /tmp/cctQL7SK.s:512    .text:00000000000002d4 .L0 
     /tmp/cctQL7SK.s:514    .text:00000000000002d8 .L0 
     /tmp/cctQL7SK.s:516    .text:00000000000002dc .L0 
GAS LISTING /tmp/cctQL7SK.s 			page 25


     /tmp/cctQL7SK.s:517    .text:00000000000002dc .L0 
     /tmp/cctQL7SK.s:520    .text:00000000000002e0 .L0 
     /tmp/cctQL7SK.s:521    .text:00000000000002e0 .L0 
     /tmp/cctQL7SK.s:526    .text:00000000000002ec .L0 
     /tmp/cctQL7SK.s:527    .text:00000000000002ec .L0 
     /tmp/cctQL7SK.s:531    .text:00000000000002f8 .L0 
     /tmp/cctQL7SK.s:536    .text:0000000000000300 .L0 
     /tmp/cctQL7SK.s:537    .text:0000000000000300 .L0 
     /tmp/cctQL7SK.s:539    .text:0000000000000304 .L0 
     /tmp/cctQL7SK.s:548    .text:0000000000000318 .L0 
     /tmp/cctQL7SK.s:551    .text:000000000000031c .L0 
     /tmp/cctQL7SK.s:552    .text:000000000000031c .L0 
     /tmp/cctQL7SK.s:554    .text:0000000000000320 .L0 
     /tmp/cctQL7SK.s:555    .text:0000000000000320 .L0 
     /tmp/cctQL7SK.s:557    .text:0000000000000328 .L0 
     /tmp/cctQL7SK.s:559    .text:000000000000032c .L0 
     /tmp/cctQL7SK.s:560    .text:000000000000032c .L0 
     /tmp/cctQL7SK.s:562    .text:0000000000000330 .L0 
     /tmp/cctQL7SK.s:563    .text:0000000000000330 .L0 
     /tmp/cctQL7SK.s:565    .text:0000000000000334 .L0 
     /tmp/cctQL7SK.s:566    .text:0000000000000334 .L0 
     /tmp/cctQL7SK.s:572    .text:0000000000000340 .L0 
     /tmp/cctQL7SK.s:573    .text:0000000000000340 .L0 
     /tmp/cctQL7SK.s:575    .text:0000000000000348 .L0 
     /tmp/cctQL7SK.s:576    .text:0000000000000348 .L0 
     /tmp/cctQL7SK.s:580    .text:0000000000000354 .L0 
     /tmp/cctQL7SK.s:583    .text:0000000000000358 .L0 
     /tmp/cctQL7SK.s:584    .text:000000000000035c .L0 
     /tmp/cctQL7SK.s:585    .text:000000000000035c .L0 
     /tmp/cctQL7SK.s:587    .text:0000000000000360 .L0 
     /tmp/cctQL7SK.s:588    .text:0000000000000360 .L0 
     /tmp/cctQL7SK.s:590    .text:0000000000000364 .L0 
     /tmp/cctQL7SK.s:593    .text:0000000000000368 .L0 
     /tmp/cctQL7SK.s:595    .text:000000000000036c .L0 
     /tmp/cctQL7SK.s:599    .text:0000000000000370 .L0 
     /tmp/cctQL7SK.s:601    .text:0000000000000370 .L0 
     /tmp/cctQL7SK.s:602    .text:0000000000000370 .L0 
     /tmp/cctQL7SK.s:606    .text:0000000000000378 .L0 
     /tmp/cctQL7SK.s:607    .text:0000000000000378 .L0 
     /tmp/cctQL7SK.s:608    .text:0000000000000378 .L0 
     /tmp/cctQL7SK.s:609    .text:0000000000000378 .L0 
     /tmp/cctQL7SK.s:610    .text:0000000000000378 .L0 
     /tmp/cctQL7SK.s:612    .text:0000000000000378 .L0 
     /tmp/cctQL7SK.s:625    .text:000000000000038c .L0 
     /tmp/cctQL7SK.s:628    .text:0000000000000390 .L0 
     /tmp/cctQL7SK.s:629    .text:0000000000000390 .L0 
     /tmp/cctQL7SK.s:630    .text:0000000000000390 .L0 
     /tmp/cctQL7SK.s:631    .text:0000000000000390 .L0 
     /tmp/cctQL7SK.s:632    .text:0000000000000390 .L0 
     /tmp/cctQL7SK.s:634    .text:0000000000000390 .L0 
     /tmp/cctQL7SK.s:642    .text:00000000000003a0 .L0 
     /tmp/cctQL7SK.s:648    .text:00000000000003a0 _ZN15MemoryAllocator5printEv
     /tmp/cctQL7SK.s:651    .text:00000000000003a0 .L0 
     /tmp/cctQL7SK.s:652    .text:00000000000003a0 .L0 
     /tmp/cctQL7SK.s:653    .text:00000000000003a4 .L0 
     /tmp/cctQL7SK.s:657    .text:00000000000003b0 .L0 
     /tmp/cctQL7SK.s:658    .text:00000000000003b0 .L0 
GAS LISTING /tmp/cctQL7SK.s 			page 26


     /tmp/cctQL7SK.s:659    .text:00000000000003b0 .L0 
     /tmp/cctQL7SK.s:661    .text:00000000000003b4 .L0 
     /tmp/cctQL7SK.s:664    .text:00000000000003b4 .L0 
     /tmp/cctQL7SK.s:665    .text:00000000000003b4 .L0 
     /tmp/cctQL7SK.s:669    .text:00000000000003bc .L0 
     /tmp/cctQL7SK.s:671    .text:00000000000003c0 .L0 
     /tmp/cctQL7SK.s:672    .text:00000000000003c0 .L0 
     /tmp/cctQL7SK.s:676    .text:00000000000003cc .L0 
     /tmp/cctQL7SK.s:677    .text:00000000000003cc .L0 
     /tmp/cctQL7SK.s:681    .text:00000000000003d8 .L0 
     /tmp/cctQL7SK.s:682    .text:00000000000003d8 .L0 
     /tmp/cctQL7SK.s:686    .text:00000000000003e4 .L0 
     /tmp/cctQL7SK.s:687    .text:00000000000003e4 .L0 
     /tmp/cctQL7SK.s:691    .text:00000000000003f0 .L0 
     /tmp/cctQL7SK.s:692    .text:00000000000003f0 .L0 
     /tmp/cctQL7SK.s:695    .text:00000000000003f4 .L0 
     /tmp/cctQL7SK.s:699    .text:00000000000003f8 .L0 
     /tmp/cctQL7SK.s:700    .text:00000000000003f8 .L0 
     /tmp/cctQL7SK.s:702    .text:0000000000000400 .L0 
     /tmp/cctQL7SK.s:706    .text:0000000000000404 .L0 
     /tmp/cctQL7SK.s:707    .text:0000000000000404 .L0 
     /tmp/cctQL7SK.s:711    .text:000000000000040c .L0 
     /tmp/cctQL7SK.s:713    .text:0000000000000410 .L0 
     /tmp/cctQL7SK.s:714    .text:0000000000000410 .L0 
     /tmp/cctQL7SK.s:718    .text:000000000000041c .L0 
     /tmp/cctQL7SK.s:719    .text:000000000000041c .L0 
     /tmp/cctQL7SK.s:723    .text:0000000000000428 .L0 
     /tmp/cctQL7SK.s:724    .text:0000000000000428 .L0 
     /tmp/cctQL7SK.s:728    .text:0000000000000434 .L0 
     /tmp/cctQL7SK.s:729    .text:0000000000000434 .L0 
     /tmp/cctQL7SK.s:733    .text:0000000000000440 .L0 
     /tmp/cctQL7SK.s:734    .text:0000000000000440 .L0 
     /tmp/cctQL7SK.s:737    .text:0000000000000444 .L0 
     /tmp/cctQL7SK.s:742    .text:0000000000000448 .L0 
     /tmp/cctQL7SK.s:743    .text:0000000000000448 .L0 
     /tmp/cctQL7SK.s:750    .text:0000000000000458 .L0 
     /tmp/cctQL7SK.s:751    .text:0000000000000458 .L0 
     /tmp/cctQL7SK.s:755    .text:0000000000000464 .L0 
     /tmp/cctQL7SK.s:756    .text:0000000000000468 .L0 
     /tmp/cctQL7SK.s:758    .text:000000000000046c .L0 
     /tmp/cctQL7SK.s:759    .text:000000000000046c .L0 
     /tmp/cctQL7SK.s:761    .text:0000000000000470 .L0 
     /tmp/cctQL7SK.s:764    .text:0000000000000474 .L0 
     /tmp/cctQL7SK.s:766    .text:0000000000000478 .L0 
     /tmp/cctQL7SK.s:781    .bss:0000000000000008 _ZN15MemoryAllocator13used_mem_headE
     /tmp/cctQL7SK.s:777    .bss:0000000000000000 _ZN15MemoryAllocator13free_mem_headE
     /tmp/cctQL7SK.s:785    .bss:0000000000000010 _ZN15MemoryAllocator9allocatorE
     /tmp/cctQL7SK.s:774    .bss:0000000000000000 .LANCHOR0
     /tmp/cctQL7SK.s:792    .text:0000000000000478 .L0 
     /tmp/cctQL7SK.s:32     .text:0000000000000014 .L0 
     /tmp/cctQL7SK.s:132    .text:0000000000000094 .L0 
     /tmp/cctQL7SK.s:155    .text:00000000000000b8 .L0 
     /tmp/cctQL7SK.s:163    .text:00000000000000c4 .L0 
     /tmp/cctQL7SK.s:230    .text:0000000000000110 .L0 
     /tmp/cctQL7SK.s:254    .text:0000000000000124 .L0 
     /tmp/cctQL7SK.s:259    .text:0000000000000130 .L0 
     /tmp/cctQL7SK.s:275    .text:0000000000000150 .L0 
GAS LISTING /tmp/cctQL7SK.s 			page 27


     /tmp/cctQL7SK.s:277    .text:000000000000015c .L0 
     /tmp/cctQL7SK.s:289    .text:0000000000000174 .L0 
     /tmp/cctQL7SK.s:306    .text:00000000000001a0 .L0 
     /tmp/cctQL7SK.s:410    .text:0000000000000228 .L0 
     /tmp/cctQL7SK.s:415    .text:0000000000000238 .L0 
     /tmp/cctQL7SK.s:438    .text:0000000000000264 .L0 
     /tmp/cctQL7SK.s:482    .text:00000000000002a4 .L0 
     /tmp/cctQL7SK.s:539    .text:0000000000000304 .L0 
     /tmp/cctQL7SK.s:555    .text:0000000000000320 .L0 
     /tmp/cctQL7SK.s:573    .text:0000000000000340 .L0 
     /tmp/cctQL7SK.s:665    .text:00000000000003b4 .L0 
     /tmp/cctQL7SK.s:700    .text:00000000000003f8 .L0 
     /tmp/cctQL7SK.s:707    .text:0000000000000404 .L0 
     /tmp/cctQL7SK.s:234    .text:000000000000011c .L17
     /tmp/cctQL7SK.s:68     .text:0000000000000044 .L16
     /tmp/cctQL7SK.s:49     .text:0000000000000030 .L5
     /tmp/cctQL7SK.s:149    .text:00000000000000b4 .L6
     /tmp/cctQL7SK.s:205    .text:00000000000000fc .L1
     /tmp/cctQL7SK.s:60     .text:0000000000000040 .L3
     /tmp/cctQL7SK.s:35     .text:0000000000000020 .L21
     /tmp/cctQL7SK.s:117    .text:0000000000000088 .L8
     /tmp/cctQL7SK.s:159    .text:00000000000000c4 .L9
     /tmp/cctQL7SK.s:166    .text:00000000000000d0 .L18
     /tmp/cctQL7SK.s:218    .text:0000000000000108 .L19
     /tmp/cctQL7SK.s:138    .text:00000000000000a4 .L12
     /tmp/cctQL7SK.s:171    .text:00000000000000d4 .L11
     /tmp/cctQL7SK.s:126    .text:0000000000000094 .L10
     /tmp/cctQL7SK.s:227    .text:0000000000000110 .L13
     /tmp/cctQL7SK.s:200    .text:00000000000000f8 .L15
     /tmp/cctQL7SK.s:191    .text:00000000000000ec .L14
     /tmp/cctQL7SK.s:261    .text:000000000000013c .L28
     /tmp/cctQL7SK.s:385    .text:0000000000000214 .L32
     /tmp/cctQL7SK.s:391    .text:000000000000021c .L33
     /tmp/cctQL7SK.s:360    .text:00000000000001f0 .L36
     /tmp/cctQL7SK.s:378    .text:000000000000020c .L31
     /tmp/cctQL7SK.s:350    .text:00000000000001e4 .L30
     /tmp/cctQL7SK.s:605    .text:0000000000000378 .L51
     /tmp/cctQL7SK.s:616    .text:0000000000000380 .L52
     /tmp/cctQL7SK.s:621    .text:0000000000000388 .L53
     /tmp/cctQL7SK.s:452    .text:000000000000027c .L39
     /tmp/cctQL7SK.s:440    .text:000000000000026c .L40
     /tmp/cctQL7SK.s:627    .text:0000000000000390 .L54
     /tmp/cctQL7SK.s:638    .text:0000000000000398 .L55
     /tmp/cctQL7SK.s:534    .text:0000000000000300 .L41
     /tmp/cctQL7SK.s:479    .text:00000000000002a4 .L43
     /tmp/cctQL7SK.s:549    .text:000000000000031c .L44
     /tmp/cctQL7SK.s:546    .text:0000000000000318 .L56
     /tmp/cctQL7SK.s:498    .text:00000000000002c4 .L45
     /tmp/cctQL7SK.s:487    .text:00000000000002b4 .L46
     /tmp/cctQL7SK.s:542    .text:0000000000000310 .L61
     /tmp/cctQL7SK.s:518    .text:00000000000002e0 .L50
     /tmp/cctQL7SK.s:581    .text:0000000000000358 .L38
     /tmp/cctQL7SK.s:467    .text:0000000000000294 .L42
     /tmp/cctQL7SK.s:598    .text:0000000000000370 .L48
     /tmp/cctQL7SK.s:570    .text:0000000000000340 .L49
     /tmp/cctQL7SK.s:696    .text:00000000000003f8 .L63
     /tmp/cctQL7SK.s:667    .text:00000000000003bc .L64
GAS LISTING /tmp/cctQL7SK.s 			page 28


     /tmp/cctQL7SK.s:739    .text:0000000000000448 .L69
     /tmp/cctQL7SK.s:748    .text:0000000000000458 .L66
     /tmp/cctQL7SK.s:709    .text:000000000000040c .L67
     /tmp/cctQL7SK.s:703    .text:0000000000000404 .L65
     /tmp/cctQL7SK.s:1410   .debug_abbrev:0000000000000000 .Ldebug_abbrev0
     /tmp/cctQL7SK.s:2477   .debug_str:00000000000001d7 .LASF41
     /tmp/cctQL7SK.s:2501   .debug_str:000000000000037d .LASF42
     /tmp/cctQL7SK.s:2503   .debug_str:0000000000000395 .LASF43
     /tmp/cctQL7SK.s:5      .text:0000000000000000 .Ltext0
     /tmp/cctQL7SK.s:788    .text:0000000000000478 .Letext0
     /tmp/cctQL7SK.s:2421   .debug_line:0000000000000000 .Ldebug_line0
     /tmp/cctQL7SK.s:2485   .debug_str:00000000000002fe .LASF0
     /tmp/cctQL7SK.s:2471   .debug_str:00000000000001ab .LASF1
     /tmp/cctQL7SK.s:2463   .debug_str:000000000000014e .LASF2
     /tmp/cctQL7SK.s:2443   .debug_str:00000000000000b5 .LASF4
     /tmp/cctQL7SK.s:2467   .debug_str:0000000000000167 .LASF3
     /tmp/cctQL7SK.s:2431   .debug_str:0000000000000066 .LASF5
     /tmp/cctQL7SK.s:2425   .debug_str:0000000000000021 .LASF6
     /tmp/cctQL7SK.s:2455   .debug_str:000000000000010b .LASF7
     /tmp/cctQL7SK.s:2495   .debug_str:000000000000034e .LASF8
     /tmp/cctQL7SK.s:2441   .debug_str:00000000000000a7 .LASF9
     /tmp/cctQL7SK.s:2529   .debug_str:0000000000000444 .LASF10
     /tmp/cctQL7SK.s:2459   .debug_str:0000000000000124 .LASF11
     /tmp/cctQL7SK.s:2513   .debug_str:00000000000003ec .LASF12
     /tmp/cctQL7SK.s:2489   .debug_str:000000000000032b .LASF13
     /tmp/cctQL7SK.s:2473   .debug_str:00000000000001be .LASF14
     /tmp/cctQL7SK.s:2449   .debug_str:00000000000000d3 .LASF15
     /tmp/cctQL7SK.s:2497   .debug_str:000000000000035e .LASF16
     /tmp/cctQL7SK.s:2429   .debug_str:0000000000000056 .LASF20
     /tmp/cctQL7SK.s:2493   .debug_str:0000000000000342 .LASF44
     /tmp/cctQL7SK.s:2433   .debug_str:000000000000006d .LASF17
     /tmp/cctQL7SK.s:2527   .debug_str:000000000000043f .LASF18
     /tmp/cctQL7SK.s:2525   .debug_str:000000000000043a .LASF19
     /tmp/cctQL7SK.s:2481   .debug_str:00000000000002c0 .LASF21
     /tmp/cctQL7SK.s:2461   .debug_str:0000000000000133 .LASF22
     /tmp/cctQL7SK.s:2439   .debug_str:000000000000009c .LASF45
     /tmp/cctQL7SK.s:2509   .debug_str:00000000000003c7 .LASF46
     /tmp/cctQL7SK.s:2517   .debug_str:0000000000000406 .LASF23
     /tmp/cctQL7SK.s:2505   .debug_str:00000000000003b3 .LASF24
     /tmp/cctQL7SK.s:2511   .debug_str:00000000000003e2 .LASF47
     /tmp/cctQL7SK.s:2469   .debug_str:0000000000000179 .LASF48
     /tmp/cctQL7SK.s:2523   .debug_str:0000000000000430 .LASF49
     /tmp/cctQL7SK.s:2475   .debug_str:00000000000001ca .LASF50
     /tmp/cctQL7SK.s:2479   .debug_str:000000000000029b .LASF51
     /tmp/cctQL7SK.s:2519   .debug_str:0000000000000414 .LASF25
     /tmp/cctQL7SK.s:2423   .debug_str:0000000000000000 .LASF26
     /tmp/cctQL7SK.s:2499   .debug_str:0000000000000374 .LASF27
     /tmp/cctQL7SK.s:2427   .debug_str:0000000000000034 .LASF28
     /tmp/cctQL7SK.s:2507   .debug_str:00000000000003c1 .LASF52
     /tmp/cctQL7SK.s:2451   .debug_str:00000000000000e9 .LASF53
     /tmp/cctQL7SK.s:2465   .debug_str:000000000000015c .LASF29
     /tmp/cctQL7SK.s:2487   .debug_str:000000000000030b .LASF30
     /tmp/cctQL7SK.s:2435   .debug_str:0000000000000072 .LASF31
     /tmp/cctQL7SK.s:2483   .debug_str:00000000000002d9 .LASF32
     /tmp/cctQL7SK.s:649    .text:00000000000003a0 .LFB4
     /tmp/cctQL7SK.s:767    .text:0000000000000478 .LFE4
     /tmp/cctQL7SK.s:663    .text:00000000000003b4 .LBB16
GAS LISTING /tmp/cctQL7SK.s 			page 29


     /tmp/cctQL7SK.s:697    .text:00000000000003f8 .LBE16
     /tmp/cctQL7SK.s:2029   .debug_loc:0000000000000000 .LLST9
     /tmp/cctQL7SK.s:674    .text:00000000000003cc .LVL59
     /tmp/cctQL7SK.s:679    .text:00000000000003d8 .LVL60
     /tmp/cctQL7SK.s:684    .text:00000000000003e4 .LVL61
     /tmp/cctQL7SK.s:689    .text:00000000000003f0 .LVL62
     /tmp/cctQL7SK.s:705    .text:0000000000000404 .LBB17
     /tmp/cctQL7SK.s:740    .text:0000000000000448 .LBE17
     /tmp/cctQL7SK.s:2040   .debug_loc:0000000000000036 .LLST10
     /tmp/cctQL7SK.s:716    .text:000000000000041c .LVL65
     /tmp/cctQL7SK.s:721    .text:0000000000000428 .LVL66
     /tmp/cctQL7SK.s:726    .text:0000000000000434 .LVL67
     /tmp/cctQL7SK.s:731    .text:0000000000000440 .LVL68
     /tmp/cctQL7SK.s:745    .text:0000000000000454 .LVL71
     /tmp/cctQL7SK.s:753    .text:0000000000000464 .LVL73
     /tmp/cctQL7SK.s:324    .text:00000000000001bc .LFB3
     /tmp/cctQL7SK.s:397    .text:0000000000000224 .LFE3
     /tmp/cctQL7SK.s:2437   .debug_str:0000000000000097 .LASF33
     /tmp/cctQL7SK.s:2051   .debug_loc:000000000000006c .LLST5
     /tmp/cctQL7SK.s:403    .text:0000000000000224 .LFB2
     /tmp/cctQL7SK.s:643    .text:00000000000003a0 .LFE2
     /tmp/cctQL7SK.s:2453   .debug_str:0000000000000106 .LASF34
     /tmp/cctQL7SK.s:2098   .debug_loc:0000000000000120 .LLST6
     /tmp/cctQL7SK.s:2457   .debug_str:000000000000011e .LASF35
     /tmp/cctQL7SK.s:2181   .debug_loc:0000000000000261 .LLST7
     /tmp/cctQL7SK.s:2205   .debug_loc:00000000000002c2 .LLST8
     /tmp/cctQL7SK.s:524    .text:00000000000002ec .LVL38
     /tmp/cctQL7SK.s:529    .text:00000000000002f8 .LVL39
     /tmp/cctQL7SK.s:569    .text:0000000000000340 .LVL44
     /tmp/cctQL7SK.s:578    .text:0000000000000354 .LVL45
     /tmp/cctQL7SK.s:10     .text:0000000000000000 .LFB1
     /tmp/cctQL7SK.s:243    .text:0000000000000124 .LFE1
     /tmp/cctQL7SK.s:2232   .debug_loc:0000000000000344 .LLST0
     /tmp/cctQL7SK.s:2257   .debug_loc:00000000000003a6 .LLST1
     /tmp/cctQL7SK.s:2445   .debug_str:00000000000000bc .LASF36
     /tmp/cctQL7SK.s:2273   .debug_loc:00000000000003f0 .LLST2
     /tmp/cctQL7SK.s:2405   .debug_ranges:0000000000000000 .Ldebug_ranges0
     /tmp/cctQL7SK.s:2303   .debug_loc:0000000000000466 .LLST3
     /tmp/cctQL7SK.s:2515   .debug_str:00000000000003fc .LASF37
     /tmp/cctQL7SK.s:2322   .debug_loc:00000000000004c2 .LLST4
     /tmp/cctQL7SK.s:249    .text:0000000000000124 .LFB0
     /tmp/cctQL7SK.s:318    .text:00000000000001bc .LFE0
     /tmp/cctQL7SK.s:301    .text:000000000000019c .LVL21
     /tmp/cctQL7SK.s:2491   .debug_str:000000000000033b .LASF38
     /tmp/cctQL7SK.s:2521   .debug_str:000000000000041e .LASF39
     /tmp/cctQL7SK.s:2447   .debug_str:00000000000000c6 .LASF40
     /tmp/cctQL7SK.s:666    .text:00000000000003bc .LVL58
     /tmp/cctQL7SK.s:708    .text:000000000000040c .LVL64
     /tmp/cctQL7SK.s:738    .text:0000000000000448 .LVL70
     /tmp/cctQL7SK.s:747    .text:0000000000000458 .LVL72
     /tmp/cctQL7SK.s:762    .text:0000000000000470 .LVL74
     /tmp/cctQL7SK.s:327    .text:00000000000001bc .LVL22
     /tmp/cctQL7SK.s:349    .text:00000000000001e4 .LVL23
     /tmp/cctQL7SK.s:359    .text:00000000000001f0 .LVL24
     /tmp/cctQL7SK.s:382    .text:0000000000000210 .LVL25
     /tmp/cctQL7SK.s:384    .text:0000000000000214 .LVL26
     /tmp/cctQL7SK.s:388    .text:0000000000000218 .LVL27
GAS LISTING /tmp/cctQL7SK.s 			page 30


     /tmp/cctQL7SK.s:390    .text:000000000000021c .LVL28
     /tmp/cctQL7SK.s:394    .text:0000000000000220 .LVL29
     /tmp/cctQL7SK.s:406    .text:0000000000000224 .LVL30
     /tmp/cctQL7SK.s:522    .text:00000000000002e4 .LVL37
     /tmp/cctQL7SK.s:533    .text:0000000000000300 .LVL40
     /tmp/cctQL7SK.s:567    .text:0000000000000338 .LVL43
     /tmp/cctQL7SK.s:591    .text:0000000000000364 .LVL46
     /tmp/cctQL7SK.s:597    .text:0000000000000370 .LVL47
     /tmp/cctQL7SK.s:613    .text:000000000000037c .LVL49
     /tmp/cctQL7SK.s:615    .text:0000000000000380 .LVL50
     /tmp/cctQL7SK.s:618    .text:0000000000000384 .LVL51
     /tmp/cctQL7SK.s:620    .text:0000000000000388 .LVL52
     /tmp/cctQL7SK.s:623    .text:000000000000038c .LVL53
     /tmp/cctQL7SK.s:626    .text:0000000000000390 .LVL54
     /tmp/cctQL7SK.s:635    .text:0000000000000394 .LVL55
     /tmp/cctQL7SK.s:637    .text:0000000000000398 .LVL56
     /tmp/cctQL7SK.s:640    .text:000000000000039c .LVL57
     /tmp/cctQL7SK.s:435    .text:0000000000000264 .LVL31
     /tmp/cctQL7SK.s:604    .text:0000000000000378 .LVL48
     /tmp/cctQL7SK.s:439    .text:000000000000026c .LVL32
     /tmp/cctQL7SK.s:476    .text:00000000000002a0 .LVL34
     /tmp/cctQL7SK.s:488    .text:00000000000002b4 .LVL35
     /tmp/cctQL7SK.s:493    .text:00000000000002bc .LVL36
     /tmp/cctQL7SK.s:541    .text:0000000000000310 .LVL41
     /tmp/cctQL7SK.s:545    .text:0000000000000318 .LVL42
     /tmp/cctQL7SK.s:14     .text:0000000000000000 .LVL0
     /tmp/cctQL7SK.s:33     .text:000000000000001c .LVL3
     /tmp/cctQL7SK.s:233    .text:000000000000011c .LVL19
     /tmp/cctQL7SK.s:240    .text:0000000000000120 .LVL20
     /tmp/cctQL7SK.s:24     .text:0000000000000010 .LVL1
     /tmp/cctQL7SK.s:204    .text:00000000000000fc .LVL15
     /tmp/cctQL7SK.s:217    .text:0000000000000108 .LVL16
     /tmp/cctQL7SK.s:28     .text:0000000000000014 .LVL2
     /tmp/cctQL7SK.s:184    .text:00000000000000e4 .LVL13
     /tmp/cctQL7SK.s:190    .text:00000000000000ec .LVL14
     /tmp/cctQL7SK.s:231    .text:0000000000000118 .LVL18
     /tmp/cctQL7SK.s:139    .text:00000000000000a4 .LVL7
     /tmp/cctQL7SK.s:144    .text:00000000000000ac .LVL8
     /tmp/cctQL7SK.s:148    .text:00000000000000b4 .LVL9
     /tmp/cctQL7SK.s:172    .text:00000000000000d4 .LVL12
     /tmp/cctQL7SK.s:226    .text:0000000000000110 .LVL17
     /tmp/cctQL7SK.s:91     .text:0000000000000060 .LVL5
     /tmp/cctQL7SK.s:133    .text:000000000000009c .LVL6
     /tmp/cctQL7SK.s:158    .text:00000000000000c4 .LVL10
     /tmp/cctQL7SK.s:165    .text:00000000000000d0 .LVL11
     /tmp/cctQL7SK.s:793    .debug_info:0000000000000000 .Ldebug_info0
     /tmp/cctQL7SK.s:37     .text:0000000000000020 .LBB4
     /tmp/cctQL7SK.s:62     .text:0000000000000040 .LBE4
     /tmp/cctQL7SK.s:79     .text:0000000000000050 .LBB10
     /tmp/cctQL7SK.s:206    .text:00000000000000fc .LBE10
     /tmp/cctQL7SK.s:222    .text:0000000000000108 .LBB11
     /tmp/cctQL7SK.s:235    .text:000000000000011c .LBE11
     /tmp/cctQL7SK.s:87     .text:000000000000005c .LBB6
     /tmp/cctQL7SK.s:127    .text:0000000000000094 .LBE6
     /tmp/cctQL7SK.s:160    .text:00000000000000c4 .LBB7
     /tmp/cctQL7SK.s:167    .text:00000000000000d0 .LBE7

GAS LISTING /tmp/cctQL7SK.s 			page 31


UNDEFINED SYMBOLS
HEAP_START_ADDR
HEAP_END_ADDR
__putc
_Z12printIntegerm
