GAS LISTING /tmp/cchaUPP3.s 			page 1


   1              		.file	"MemoryAllocator.cpp"
   2              		.option pic
   3              		.option norelax
   4              		.text
   5              	.Ltext0:
   6              		.align	2
   7              		.globl	_ZN15MemoryAllocator9mem_allocEm
   9              	_ZN15MemoryAllocator9mem_allocEm:
  10              	.LFB1:
  11              		.file 1 "src/MemoryAllocator.cpp"
   1:src/MemoryAllocator.cpp **** 
   2:src/MemoryAllocator.cpp **** #include "../h/Memoryallocator.hpp"
   3:src/MemoryAllocator.cpp **** #include "../lib/console.h"
   4:src/MemoryAllocator.cpp **** 
   5:src/MemoryAllocator.cpp **** MemoryAllocator* MemoryAllocator::allocator = nullptr;
   6:src/MemoryAllocator.cpp **** MemoryAllocator::MemoryBlock* MemoryAllocator::free_mem_head = nullptr;
   7:src/MemoryAllocator.cpp **** MemoryAllocator::MemoryBlock* MemoryAllocator::used_mem_head = nullptr;
   8:src/MemoryAllocator.cpp **** 
   9:src/MemoryAllocator.cpp **** MemoryAllocator* MemoryAllocator::init_allocator() {
  10:src/MemoryAllocator.cpp **** 
  11:src/MemoryAllocator.cpp ****     if (!allocator) {
  12:src/MemoryAllocator.cpp ****         free_mem_head = (MemoryBlock*)HEAP_START_ADDR;
  13:src/MemoryAllocator.cpp ****         free_mem_head->next = nullptr;
  14:src/MemoryAllocator.cpp ****         free_mem_head->prev = nullptr;
  15:src/MemoryAllocator.cpp ****         free_mem_head->size = (size_t)HEAP_END_ADDR - (size_t)HEAP_START_ADDR + 1;
  16:src/MemoryAllocator.cpp ****         allocator = (MemoryAllocator*)MemoryAllocator::mem_alloc((sizeof(MemoryAllocator) + mem_h_s
  17:src/MemoryAllocator.cpp ****     }
  18:src/MemoryAllocator.cpp ****     return allocator;
  19:src/MemoryAllocator.cpp **** }
  20:src/MemoryAllocator.cpp **** 
  21:src/MemoryAllocator.cpp **** void* MemoryAllocator::mem_alloc(size_t size) {
  12              		.loc 1 21 47
  13              		.cfi_startproc
  14              	.LVL0:
  15 0000 130101FF 		addi	sp,sp,-16
  16              		.cfi_def_cfa_offset 16
  17 0004 23348100 		sd	s0,8(sp)
  18              		.cfi_offset 8, -8
  19 0008 13040101 		addi	s0,sp,16
  20              		.cfi_def_cfa 8, 0
  22:src/MemoryAllocator.cpp **** 
  23:src/MemoryAllocator.cpp ****     //size = block number
  24:src/MemoryAllocator.cpp **** 
  25:src/MemoryAllocator.cpp ****     if (size <= 0) return nullptr;
  21              		.loc 1 25 5
  22 000c 63060512 		beqz	a0,.L16
  26:src/MemoryAllocator.cpp **** 
  27:src/MemoryAllocator.cpp ****     MemoryBlock* curr = nullptr;
  23              		.loc 1 27 5
  24              	.LVL1:
  28:src/MemoryAllocator.cpp ****     size_t byte_size = size * MEM_BLOCK_SIZE;
  25              		.loc 1 28 5
  26              		.loc 1 28 12 is_stmt 0
  27 0010 93176500 		slli	a5,a0,6
  28              	.LVL2:
  29:src/MemoryAllocator.cpp **** 
  30:src/MemoryAllocator.cpp ****     for (curr = free_mem_head; curr; curr = curr -> next) {
GAS LISTING /tmp/cchaUPP3.s 			page 2


  29              		.loc 1 30 5 is_stmt 1
  30              	.LBB2:
  31              		.loc 1 30 15 is_stmt 0
  32 0014 17050000 		ld	a0,.LANCHOR0
  32      03350500 
  33              	.LVL3:
  34              	.L15:
  35              		.loc 1 30 32 is_stmt 1 discriminator 1
  36 001c 630E050E 		beqz	a0,.L1
  37              	.LBE2:
  31:src/MemoryAllocator.cpp **** 
  32:src/MemoryAllocator.cpp ****         if (curr->size >= byte_size) {
  38              		.loc 1 32 9
  39              	.LBB11:
  40              	.LBB3:
  41              		.loc 1 32 19 is_stmt 0
  42 0020 03370501 		ld	a4,16(a0)
  43              		.loc 1 32 9
  44 0024 6376F700 		bgeu	a4,a5,.L20
  45              	.LBE3:
  30:src/MemoryAllocator.cpp **** 
  46              		.loc 1 30 5 is_stmt 1 discriminator 2
  30:src/MemoryAllocator.cpp **** 
  47              		.loc 1 30 43 is_stmt 0 discriminator 2
  48 0028 03350500 		ld	a0,0(a0)
  49              	.LVL4:
  30:src/MemoryAllocator.cpp **** 
  50              		.loc 1 30 5 discriminator 2
  51 002c 6FF01FFF 		j	.L15
  52              	.L20:
  53              	.LBB9:
  54              	.LBB4:
  33:src/MemoryAllocator.cpp **** 
  34:src/MemoryAllocator.cpp ****             if (curr->size - byte_size < sizeof(MemoryBlock)) {
  55              		.loc 1 34 13 is_stmt 1
  56              	.LBB5:
  57              		.loc 1 34 28 is_stmt 0
  58 0030 3307F740 		sub	a4,a4,a5
  59              		.loc 1 34 13
  60 0034 93067001 		li	a3,23
  61 0038 63E4E606 		bgtu	a4,a3,.L4
  35:src/MemoryAllocator.cpp ****                 if (curr->next) curr->next->prev = curr->prev;
  62              		.loc 1 35 17 is_stmt 1
  63              		.loc 1 35 27 is_stmt 0
  64 003c 03370500 		ld	a4,0(a0)
  65              		.loc 1 35 17
  66 0040 63060700 		beqz	a4,.L5
  67              		.loc 1 35 33 is_stmt 1 discriminator 1
  68              		.loc 1 35 58 is_stmt 0 discriminator 1
  69 0044 83368500 		ld	a3,8(a0)
  70              		.loc 1 35 50 discriminator 1
  71 0048 2334D700 		sd	a3,8(a4)
  72              	.L5:
  36:src/MemoryAllocator.cpp ****                 if (curr->prev) curr->prev->next = curr->next;
  73              		.loc 1 36 17 is_stmt 1
  74              		.loc 1 36 27 is_stmt 0
  75 004c 03378500 		ld	a4,8(a0)
GAS LISTING /tmp/cchaUPP3.s 			page 3


  76              		.loc 1 36 17
  77 0050 63000704 		beqz	a4,.L6
  78              		.loc 1 36 33 is_stmt 1 discriminator 1
  79              		.loc 1 36 58 is_stmt 0 discriminator 1
  80 0054 83360500 		ld	a3,0(a0)
  81              		.loc 1 36 50 discriminator 1
  82 0058 2330D700 		sd	a3,0(a4)
  83              	.L7:
  84              	.LBE5:
  37:src/MemoryAllocator.cpp ****                 else free_mem_head = curr->next;
  38:src/MemoryAllocator.cpp ****                 // first free seg
  39:src/MemoryAllocator.cpp **** 
  40:src/MemoryAllocator.cpp ****             } else {
  41:src/MemoryAllocator.cpp ****                 // allocate
  42:src/MemoryAllocator.cpp ****                 auto *remaining = (MemoryBlock *) ((char *) curr + byte_size);
  43:src/MemoryAllocator.cpp ****                 remaining->next = curr->next;
  44:src/MemoryAllocator.cpp ****                 remaining->prev = curr->prev;
  45:src/MemoryAllocator.cpp ****                 remaining->size = curr->size - byte_size;
  46:src/MemoryAllocator.cpp ****                 // update pointers of next
  47:src/MemoryAllocator.cpp ****                 if (curr->next) curr->next->prev = remaining;
  48:src/MemoryAllocator.cpp ****                 if (curr->prev) curr->prev->next = remaining;
  49:src/MemoryAllocator.cpp ****                 else free_mem_head = remaining;
  50:src/MemoryAllocator.cpp ****             }
  51:src/MemoryAllocator.cpp **** 
  52:src/MemoryAllocator.cpp ****             // update used list
  53:src/MemoryAllocator.cpp ****             MemoryBlock* prev;
  85              		.loc 1 53 13 is_stmt 1
  54:src/MemoryAllocator.cpp ****             if (curr < used_mem_head || !used_mem_head) prev = nullptr;
  86              		.loc 1 54 13
  87              		.loc 1 54 22 is_stmt 0
  88 005c 17070000 		ld	a4,.LANCHOR0+8
  88      03370700 
  89              		.loc 1 54 13
  90 0064 6362E508 		bgtu	a4,a0,.L17
  91              		.loc 1 54 38 discriminator 2
  92 0068 630E070A 		beqz	a4,.L18
  93              	.L11:
  94              	.LVL5:
  55:src/MemoryAllocator.cpp ****             else for (prev = used_mem_head; prev->next && (char*)curr >= (char *) prev + prev->size
  95              		.loc 1 55 56 is_stmt 1 discriminator 1
  96 006c 93060700 		mv	a3,a4
  97              		.loc 1 55 51 is_stmt 0 discriminator 1
  98 0070 03370700 		ld	a4,0(a4)
  99              	.LVL6:
 100              		.loc 1 55 56 discriminator 1
 101 0074 630C0706 		beqz	a4,.L10
 102              		.loc 1 55 96 discriminator 2
 103 0078 03B60601 		ld	a2,16(a3)
 104              		.loc 1 55 88 discriminator 2
 105 007c 3386C600 		add	a2,a3,a2
 106              		.loc 1 55 56 discriminator 2
 107 0080 6366C506 		bgtu	a2,a0,.L10
  56:src/MemoryAllocator.cpp ****                 // prev addr < addr and prev-next addr > addr + size
  57:src/MemoryAllocator.cpp ****                 if ((char*)prev->next >= (char*)curr + byte_size) break;
 108              		.loc 1 57 17 is_stmt 1
 109              		.loc 1 57 54 is_stmt 0
 110 0084 3306F500 		add	a2,a0,a5
GAS LISTING /tmp/cchaUPP3.s 			page 4


 111              		.loc 1 57 17
 112 0088 E362C7FE 		bltu	a4,a2,.L11
 113 008c 6F000006 		j	.L10
 114              	.LVL7:
 115              	.L6:
 116              	.LBB7:
  37:src/MemoryAllocator.cpp ****                 // first free seg
 117              		.loc 1 37 22 is_stmt 1
  37:src/MemoryAllocator.cpp ****                 // first free seg
 118              		.loc 1 37 44 is_stmt 0
 119 0090 03370500 		ld	a4,0(a0)
  37:src/MemoryAllocator.cpp ****                 // first free seg
 120              		.loc 1 37 36
 121 0094 97060000 		sd	a4,.LANCHOR0,a3
 121      23B0E600 
 122 009c 6FF01FFC 		j	.L7
 123              	.L4:
 124              	.LBB6:
  42:src/MemoryAllocator.cpp ****                 remaining->next = curr->next;
 125              		.loc 1 42 17 is_stmt 1
  42:src/MemoryAllocator.cpp ****                 remaining->next = curr->next;
 126              		.loc 1 42 23 is_stmt 0
 127 00a0 3307F500 		add	a4,a0,a5
 128              	.LVL8:
  43:src/MemoryAllocator.cpp ****                 remaining->prev = curr->prev;
 129              		.loc 1 43 17 is_stmt 1
  43:src/MemoryAllocator.cpp ****                 remaining->prev = curr->prev;
 130              		.loc 1 43 41 is_stmt 0
 131 00a4 83360500 		ld	a3,0(a0)
  43:src/MemoryAllocator.cpp ****                 remaining->prev = curr->prev;
 132              		.loc 1 43 33
 133 00a8 2330D700 		sd	a3,0(a4)
  44:src/MemoryAllocator.cpp ****                 remaining->size = curr->size - byte_size;
 134              		.loc 1 44 17 is_stmt 1
  44:src/MemoryAllocator.cpp ****                 remaining->size = curr->size - byte_size;
 135              		.loc 1 44 41 is_stmt 0
 136 00ac 83368500 		ld	a3,8(a0)
  44:src/MemoryAllocator.cpp ****                 remaining->size = curr->size - byte_size;
 137              		.loc 1 44 33
 138 00b0 2334D700 		sd	a3,8(a4)
  45:src/MemoryAllocator.cpp ****                 // update pointers of next
 139              		.loc 1 45 17 is_stmt 1
  45:src/MemoryAllocator.cpp ****                 // update pointers of next
 140              		.loc 1 45 41 is_stmt 0
 141 00b4 83360501 		ld	a3,16(a0)
  45:src/MemoryAllocator.cpp ****                 // update pointers of next
 142              		.loc 1 45 46
 143 00b8 B386F640 		sub	a3,a3,a5
  45:src/MemoryAllocator.cpp ****                 // update pointers of next
 144              		.loc 1 45 33
 145 00bc 2338D700 		sd	a3,16(a4)
  47:src/MemoryAllocator.cpp ****                 if (curr->prev) curr->prev->next = remaining;
 146              		.loc 1 47 17 is_stmt 1
  47:src/MemoryAllocator.cpp ****                 if (curr->prev) curr->prev->next = remaining;
 147              		.loc 1 47 27 is_stmt 0
 148 00c0 83360500 		ld	a3,0(a0)
  47:src/MemoryAllocator.cpp ****                 if (curr->prev) curr->prev->next = remaining;
GAS LISTING /tmp/cchaUPP3.s 			page 5


 149              		.loc 1 47 17
 150 00c4 63840600 		beqz	a3,.L8
  47:src/MemoryAllocator.cpp ****                 if (curr->prev) curr->prev->next = remaining;
 151              		.loc 1 47 33 is_stmt 1 discriminator 1
  47:src/MemoryAllocator.cpp ****                 if (curr->prev) curr->prev->next = remaining;
 152              		.loc 1 47 50 is_stmt 0 discriminator 1
 153 00c8 23B4E600 		sd	a4,8(a3)
 154              	.L8:
  48:src/MemoryAllocator.cpp ****                 else free_mem_head = remaining;
 155              		.loc 1 48 17 is_stmt 1
  48:src/MemoryAllocator.cpp ****                 else free_mem_head = remaining;
 156              		.loc 1 48 27 is_stmt 0
 157 00cc 83368500 		ld	a3,8(a0)
  48:src/MemoryAllocator.cpp ****                 else free_mem_head = remaining;
 158              		.loc 1 48 17
 159 00d0 63860600 		beqz	a3,.L9
  48:src/MemoryAllocator.cpp ****                 else free_mem_head = remaining;
 160              		.loc 1 48 33 is_stmt 1 discriminator 1
  48:src/MemoryAllocator.cpp ****                 else free_mem_head = remaining;
 161              		.loc 1 48 50 is_stmt 0 discriminator 1
 162 00d4 23B0E600 		sd	a4,0(a3)
 163 00d8 6FF05FF8 		j	.L7
 164              	.L9:
  49:src/MemoryAllocator.cpp ****             }
 165              		.loc 1 49 22 is_stmt 1
  49:src/MemoryAllocator.cpp ****             }
 166              		.loc 1 49 36 is_stmt 0
 167 00dc 97060000 		sd	a4,.LANCHOR0,a3
 167      23B0E600 
 168 00e4 6FF09FF7 		j	.L7
 169              	.LVL9:
 170              	.L17:
 171              	.LBE6:
 172              	.LBE7:
  54:src/MemoryAllocator.cpp ****             else for (prev = used_mem_head; prev->next && (char*)curr >= (char *) prev + prev->size
 173              		.loc 1 54 62
 174 00e8 93060000 		li	a3,0
 175              	.L10:
 176              	.LVL10:
  58:src/MemoryAllocator.cpp ****             }
  59:src/MemoryAllocator.cpp **** 
  60:src/MemoryAllocator.cpp ****             // dodavanje na kraj?
  61:src/MemoryAllocator.cpp **** 
  62:src/MemoryAllocator.cpp ****             curr->size = byte_size - mem_h_size;
 177              		.loc 1 62 13 is_stmt 1
 178              		.loc 1 62 36 is_stmt 0
 179 00ec 938787FE 		addi	a5,a5,-24
 180              	.LVL11:
 181              		.loc 1 62 24
 182 00f0 2338F500 		sd	a5,16(a0)
  63:src/MemoryAllocator.cpp ****             curr->prev = prev;
 183              		.loc 1 63 13 is_stmt 1
 184              		.loc 1 63 24 is_stmt 0
 185 00f4 2334D500 		sd	a3,8(a0)
  64:src/MemoryAllocator.cpp **** 
  65:src/MemoryAllocator.cpp ****             if (prev) {
 186              		.loc 1 65 13 is_stmt 1
GAS LISTING /tmp/cchaUPP3.s 			page 6


 187 00f8 638A0602 		beqz	a3,.L12
  66:src/MemoryAllocator.cpp ****                 curr->next = prev->next;
 188              		.loc 1 66 17
 189              		.loc 1 66 36 is_stmt 0
 190 00fc 83B70600 		ld	a5,0(a3)
 191              	.LVL12:
 192              		.loc 1 66 28
 193 0100 2330F500 		sd	a5,0(a0)
  67:src/MemoryAllocator.cpp ****                 prev->next = curr;
 194              		.loc 1 67 17 is_stmt 1
 195              		.loc 1 67 28 is_stmt 0
 196 0104 23B0A600 		sd	a0,0(a3)
 197              	.LVL13:
 198              	.L13:
  68:src/MemoryAllocator.cpp ****             }
  69:src/MemoryAllocator.cpp ****             else used_mem_head = curr;
  70:src/MemoryAllocator.cpp ****             if (curr->next) curr->next->prev = curr;
 199              		.loc 1 70 13 is_stmt 1
 200              		.loc 1 70 23 is_stmt 0
 201 0108 83370500 		ld	a5,0(a0)
 202              		.loc 1 70 13
 203 010c 63840700 		beqz	a5,.L14
 204              		.loc 1 70 29 is_stmt 1 discriminator 1
 205              		.loc 1 70 46 is_stmt 0 discriminator 1
 206 0110 23B4A700 		sd	a0,8(a5)
 207              	.L14:
  71:src/MemoryAllocator.cpp ****             return (void*)((char*)curr + sizeof(MemoryBlock));
 208              		.loc 1 71 13 is_stmt 1
 209              		.loc 1 71 61 is_stmt 0
 210 0114 13058501 		addi	a0,a0,24
 211              	.LVL14:
 212              	.L1:
 213              	.LBE4:
 214              	.LBE9:
 215              	.LBE11:
  72:src/MemoryAllocator.cpp **** 
  73:src/MemoryAllocator.cpp ****         }
  74:src/MemoryAllocator.cpp ****     }
  75:src/MemoryAllocator.cpp **** 
  76:src/MemoryAllocator.cpp ****     // free memory not found :(
  77:src/MemoryAllocator.cpp ****     return nullptr;
  78:src/MemoryAllocator.cpp **** }
 216              		.loc 1 78 1
 217 0118 03348100 		ld	s0,8(sp)
 218              		.cfi_remember_state
 219              		.cfi_restore 8
 220              		.cfi_def_cfa 2, 16
 221 011c 13010101 		addi	sp,sp,16
 222              		.cfi_def_cfa_offset 0
 223 0120 67800000 		jr	ra
 224              	.LVL15:
 225              	.L18:
 226              		.cfi_restore_state
 227              	.LBB12:
 228              	.LBB10:
 229              	.LBB8:
  54:src/MemoryAllocator.cpp ****             else for (prev = used_mem_head; prev->next && (char*)curr >= (char *) prev + prev->size
GAS LISTING /tmp/cchaUPP3.s 			page 7


 230              		.loc 1 54 62
 231 0124 93060700 		mv	a3,a4
 232 0128 6FF05FFC 		j	.L10
 233              	.LVL16:
 234              	.L12:
  69:src/MemoryAllocator.cpp ****             if (curr->next) curr->next->prev = curr;
 235              		.loc 1 69 18 is_stmt 1
  69:src/MemoryAllocator.cpp ****             if (curr->next) curr->next->prev = curr;
 236              		.loc 1 69 32 is_stmt 0
 237 012c 97070000 		sd	a0,.LANCHOR0+8,a5
 237      23B0A700 
 238              	.LVL17:
 239 0134 6FF05FFD 		j	.L13
 240              	.LVL18:
 241              	.L16:
 242              	.LBE8:
 243              	.LBE10:
 244              	.LBE12:
  25:src/MemoryAllocator.cpp **** 
 245              		.loc 1 25 27
 246 0138 13050000 		li	a0,0
 247              	.LVL19:
 248 013c 6FF0DFFD 		j	.L1
 249              		.cfi_endproc
 250              	.LFE1:
 252              		.align	2
 253              		.globl	_ZN15MemoryAllocator14init_allocatorEv
 255              	_ZN15MemoryAllocator14init_allocatorEv:
 256              	.LFB0:
   9:src/MemoryAllocator.cpp **** 
 257              		.loc 1 9 52 is_stmt 1
 258              		.cfi_startproc
  11:src/MemoryAllocator.cpp ****         free_mem_head = (MemoryBlock*)HEAP_START_ADDR;
 259              		.loc 1 11 5
  11:src/MemoryAllocator.cpp ****         free_mem_head = (MemoryBlock*)HEAP_START_ADDR;
 260              		.loc 1 11 9 is_stmt 0
 261 0140 97070000 		ld	a5,.LANCHOR0+16
 261      83B70700 
  11:src/MemoryAllocator.cpp ****         free_mem_head = (MemoryBlock*)HEAP_START_ADDR;
 262              		.loc 1 11 5
 263 0148 63880700 		beqz	a5,.L27
  18:src/MemoryAllocator.cpp **** }
 264              		.loc 1 18 5 is_stmt 1
  19:src/MemoryAllocator.cpp **** 
 265              		.loc 1 19 1 is_stmt 0
 266 014c 17050000 		ld	a0,.LANCHOR0+16
 266      03350500 
 267 0154 67800000 		ret
 268              	.L27:
   9:src/MemoryAllocator.cpp **** 
 269              		.loc 1 9 52
 270 0158 130101FE 		addi	sp,sp,-32
 271              		.cfi_def_cfa_offset 32
 272 015c 233C1100 		sd	ra,24(sp)
 273 0160 23388100 		sd	s0,16(sp)
 274 0164 23349100 		sd	s1,8(sp)
 275              		.cfi_offset 1, -8
GAS LISTING /tmp/cchaUPP3.s 			page 8


 276              		.cfi_offset 8, -16
 277              		.cfi_offset 9, -24
 278 0168 13040102 		addi	s0,sp,32
 279              		.cfi_def_cfa 8, 0
  12:src/MemoryAllocator.cpp ****         free_mem_head->next = nullptr;
 280              		.loc 1 12 9 is_stmt 1
  12:src/MemoryAllocator.cpp ****         free_mem_head->next = nullptr;
 281              		.loc 1 12 23 is_stmt 0
 282 016c 97060000 		la	a3,HEAP_START_ADDR
 282      83B60600 
 283 0174 83B70600 		ld	a5,0(a3)
 284 0178 97040000 		lla	s1,.LANCHOR0
 284      93840400 
 285 0180 23B0F400 		sd	a5,0(s1)
  13:src/MemoryAllocator.cpp ****         free_mem_head->prev = nullptr;
 286              		.loc 1 13 9 is_stmt 1
  13:src/MemoryAllocator.cpp ****         free_mem_head->prev = nullptr;
 287              		.loc 1 13 29 is_stmt 0
 288 0184 23B00700 		sd	zero,0(a5)
  14:src/MemoryAllocator.cpp ****         free_mem_head->size = (size_t)HEAP_END_ADDR - (size_t)HEAP_START_ADDR + 1;
 289              		.loc 1 14 9 is_stmt 1
  14:src/MemoryAllocator.cpp ****         free_mem_head->size = (size_t)HEAP_END_ADDR - (size_t)HEAP_START_ADDR + 1;
 290              		.loc 1 14 24 is_stmt 0
 291 0188 03B70400 		ld	a4,0(s1)
  14:src/MemoryAllocator.cpp ****         free_mem_head->size = (size_t)HEAP_END_ADDR - (size_t)HEAP_START_ADDR + 1;
 292              		.loc 1 14 29
 293 018c 23340700 		sd	zero,8(a4)
  15:src/MemoryAllocator.cpp ****         allocator = (MemoryAllocator*)MemoryAllocator::mem_alloc((sizeof(MemoryAllocator) + mem_h_s
 294              		.loc 1 15 9 is_stmt 1
  15:src/MemoryAllocator.cpp ****         allocator = (MemoryAllocator*)MemoryAllocator::mem_alloc((sizeof(MemoryAllocator) + mem_h_s
 295              		.loc 1 15 53 is_stmt 0
 296 0190 97070000 		la	a5,HEAP_END_ADDR
 296      83B70700 
 297 0198 83B70700 		ld	a5,0(a5)
 298 019c 83B60600 		ld	a3,0(a3)
 299 01a0 B387D740 		sub	a5,a5,a3
  15:src/MemoryAllocator.cpp ****         allocator = (MemoryAllocator*)MemoryAllocator::mem_alloc((sizeof(MemoryAllocator) + mem_h_s
 300              		.loc 1 15 79
 301 01a4 93871700 		addi	a5,a5,1
  15:src/MemoryAllocator.cpp ****         allocator = (MemoryAllocator*)MemoryAllocator::mem_alloc((sizeof(MemoryAllocator) + mem_h_s
 302              		.loc 1 15 29
 303 01a8 2338F700 		sd	a5,16(a4)
  16:src/MemoryAllocator.cpp ****     }
 304              		.loc 1 16 9 is_stmt 1
  16:src/MemoryAllocator.cpp ****     }
 305              		.loc 1 16 65 is_stmt 0
 306 01ac 13051000 		li	a0,1
 307 01b0 97000000 		call	_ZN15MemoryAllocator9mem_allocEm
 307      E7800000 
 308              	.LVL20:
  16:src/MemoryAllocator.cpp ****     }
 309              		.loc 1 16 19
 310 01b8 23B8A400 		sd	a0,16(s1)
  18:src/MemoryAllocator.cpp **** }
 311              		.loc 1 18 5 is_stmt 1
  19:src/MemoryAllocator.cpp **** 
 312              		.loc 1 19 1 is_stmt 0
GAS LISTING /tmp/cchaUPP3.s 			page 9


 313 01bc 17050000 		ld	a0,.LANCHOR0+16
 313      03350500 
 314 01c4 83308101 		ld	ra,24(sp)
 315              		.cfi_restore 1
 316 01c8 03340101 		ld	s0,16(sp)
 317              		.cfi_restore 8
 318              		.cfi_def_cfa 2, 32
 319 01cc 83348100 		ld	s1,8(sp)
 320              		.cfi_restore 9
 321 01d0 13010102 		addi	sp,sp,32
 322              		.cfi_def_cfa_offset 0
 323 01d4 67800000 		jr	ra
 324              		.cfi_endproc
 325              	.LFE0:
 327              		.align	2
 328              		.globl	_ZN15MemoryAllocator9tryToJoinEPNS_11MemoryBlockE
 330              	_ZN15MemoryAllocator9tryToJoinEPNS_11MemoryBlockE:
 331              	.LFB3:
  79:src/MemoryAllocator.cpp **** 
  80:src/MemoryAllocator.cpp **** int MemoryAllocator::mem_free(void* addr) {
  81:src/MemoryAllocator.cpp **** 
  82:src/MemoryAllocator.cpp ****     if (!addr || addr > HEAP_END_ADDR || addr < HEAP_START_ADDR) return -1; // error
  83:src/MemoryAllocator.cpp **** 
  84:src/MemoryAllocator.cpp ****     auto* block = (MemoryBlock*)((char*)addr - sizeof(MemoryBlock));
  85:src/MemoryAllocator.cpp ****     MemoryBlock* tmp = used_mem_head;
  86:src/MemoryAllocator.cpp **** 
  87:src/MemoryAllocator.cpp ****     for (; tmp && block > tmp; tmp = tmp->next);
  88:src/MemoryAllocator.cpp ****     if (block != tmp || !tmp) return -1;
  89:src/MemoryAllocator.cpp **** 
  90:src/MemoryAllocator.cpp ****     // used mem
  91:src/MemoryAllocator.cpp ****     if (tmp->prev) tmp->prev->next = tmp->next;
  92:src/MemoryAllocator.cpp ****     else used_mem_head = tmp->next;
  93:src/MemoryAllocator.cpp ****     if (tmp->next) tmp->next->prev = tmp->prev;
  94:src/MemoryAllocator.cpp **** 
  95:src/MemoryAllocator.cpp ****     // free mem
  96:src/MemoryAllocator.cpp ****     if (!free_mem_head || (char*)block < (char*)free_mem_head) tmp = nullptr;
  97:src/MemoryAllocator.cpp ****     else for (tmp = free_mem_head; tmp->next && (char*)block > (char*)(tmp->next); tmp = tmp->next)
  98:src/MemoryAllocator.cpp **** 
  99:src/MemoryAllocator.cpp ****     // tmp == previous
 100:src/MemoryAllocator.cpp **** 
 101:src/MemoryAllocator.cpp ****     if (tmp == nullptr) {
 102:src/MemoryAllocator.cpp ****         block -> prev = nullptr;
 103:src/MemoryAllocator.cpp ****         if (free_mem_head) {
 104:src/MemoryAllocator.cpp ****             free_mem_head->prev = block;
 105:src/MemoryAllocator.cpp ****             block->next = free_mem_head;
 106:src/MemoryAllocator.cpp ****             free_mem_head = block;
 107:src/MemoryAllocator.cpp ****             tryToJoin(block);
 108:src/MemoryAllocator.cpp ****         }
 109:src/MemoryAllocator.cpp ****         else block -> next = nullptr;
 110:src/MemoryAllocator.cpp ****         free_mem_head = block;
 111:src/MemoryAllocator.cpp ****         tryToJoin(free_mem_head);
 112:src/MemoryAllocator.cpp **** 
 113:src/MemoryAllocator.cpp ****     } else {
 114:src/MemoryAllocator.cpp ****         block->next = tmp->next;
 115:src/MemoryAllocator.cpp ****         block->prev = tmp;
 116:src/MemoryAllocator.cpp ****         tmp->next = block;
 117:src/MemoryAllocator.cpp ****         if (block->next) block->next->prev = block;
GAS LISTING /tmp/cchaUPP3.s 			page 10


 118:src/MemoryAllocator.cpp ****         tryToJoin(block);
 119:src/MemoryAllocator.cpp ****         tryToJoin(tmp);
 120:src/MemoryAllocator.cpp ****     }
 121:src/MemoryAllocator.cpp ****     return 0;
 122:src/MemoryAllocator.cpp **** }
 123:src/MemoryAllocator.cpp **** 
 124:src/MemoryAllocator.cpp **** // try to join with next free segment
 125:src/MemoryAllocator.cpp **** 
 126:src/MemoryAllocator.cpp **** int MemoryAllocator::tryToJoin(MemoryAllocator::MemoryBlock *curr) {
 332              		.loc 1 126 68 is_stmt 1
 333              		.cfi_startproc
 334              	.LVL21:
 335 01d8 130101FF 		addi	sp,sp,-16
 336              		.cfi_def_cfa_offset 16
 337 01dc 23348100 		sd	s0,8(sp)
 338              		.cfi_offset 8, -8
 339 01e0 13040101 		addi	s0,sp,16
 340              		.cfi_def_cfa 8, 0
 127:src/MemoryAllocator.cpp ****     if (!curr) return 0;
 341              		.loc 1 127 5
 342 01e4 63060504 		beqz	a0,.L31
 128:src/MemoryAllocator.cpp ****     if (curr->next && (char*)curr + curr->size == (char*)curr->next) {
 343              		.loc 1 128 5
 344              		.loc 1 128 15 is_stmt 0
 345 01e8 83370500 		ld	a5,0(a0)
 346              		.loc 1 128 5
 347 01ec 63860704 		beqz	a5,.L32
 348              		.loc 1 128 43 discriminator 1
 349 01f0 03370501 		ld	a4,16(a0)
 350              		.loc 1 128 35 discriminator 1
 351 01f4 B306E500 		add	a3,a0,a4
 352              		.loc 1 128 20 discriminator 1
 353 01f8 638AD700 		beq	a5,a3,.L35
 129:src/MemoryAllocator.cpp ****         curr->size += curr->next->size;
 130:src/MemoryAllocator.cpp ****         curr->next = curr->next->next;
 131:src/MemoryAllocator.cpp ****         if (curr->next) curr->next->prev = curr;
 132:src/MemoryAllocator.cpp ****         return 1; // success status
 133:src/MemoryAllocator.cpp ****     }
 134:src/MemoryAllocator.cpp ****     return 0;
 354              		.loc 1 134 12
 355 01fc 13050000 		li	a0,0
 356              	.LVL22:
 357              	.L29:
 135:src/MemoryAllocator.cpp **** }
 358              		.loc 1 135 1
 359 0200 03348100 		ld	s0,8(sp)
 360              		.cfi_remember_state
 361              		.cfi_restore 8
 362              		.cfi_def_cfa 2, 16
 363 0204 13010101 		addi	sp,sp,16
 364              		.cfi_def_cfa_offset 0
 365 0208 67800000 		jr	ra
 366              	.LVL23:
 367              	.L35:
 368              		.cfi_restore_state
 129:src/MemoryAllocator.cpp ****         curr->size += curr->next->size;
 369              		.loc 1 129 9 is_stmt 1
GAS LISTING /tmp/cchaUPP3.s 			page 11


 129:src/MemoryAllocator.cpp ****         curr->size += curr->next->size;
 370              		.loc 1 129 35 is_stmt 0
 371 020c 83B60701 		ld	a3,16(a5)
 129:src/MemoryAllocator.cpp ****         curr->size += curr->next->size;
 372              		.loc 1 129 20
 373 0210 3307D700 		add	a4,a4,a3
 374 0214 2338E500 		sd	a4,16(a0)
 130:src/MemoryAllocator.cpp ****         if (curr->next) curr->next->prev = curr;
 375              		.loc 1 130 9 is_stmt 1
 130:src/MemoryAllocator.cpp ****         if (curr->next) curr->next->prev = curr;
 376              		.loc 1 130 34 is_stmt 0
 377 0218 83B70700 		ld	a5,0(a5)
 130:src/MemoryAllocator.cpp ****         if (curr->next) curr->next->prev = curr;
 378              		.loc 1 130 20
 379 021c 2330F500 		sd	a5,0(a0)
 131:src/MemoryAllocator.cpp ****         return 1; // success status
 380              		.loc 1 131 9 is_stmt 1
 381 0220 63840700 		beqz	a5,.L30
 131:src/MemoryAllocator.cpp ****         return 1; // success status
 382              		.loc 1 131 25 discriminator 1
 131:src/MemoryAllocator.cpp ****         return 1; // success status
 383              		.loc 1 131 42 is_stmt 0 discriminator 1
 384 0224 23B4A700 		sd	a0,8(a5)
 385              	.L30:
 132:src/MemoryAllocator.cpp ****     }
 386              		.loc 1 132 9 is_stmt 1
 132:src/MemoryAllocator.cpp ****     }
 387              		.loc 1 132 16 is_stmt 0
 388 0228 13051000 		li	a0,1
 389              	.LVL24:
 390 022c 6FF05FFD 		j	.L29
 391              	.LVL25:
 392              	.L31:
 127:src/MemoryAllocator.cpp ****     if (curr->next && (char*)curr + curr->size == (char*)curr->next) {
 393              		.loc 1 127 23
 394 0230 13050000 		li	a0,0
 395              	.LVL26:
 396 0234 6FF0DFFC 		j	.L29
 397              	.LVL27:
 398              	.L32:
 134:src/MemoryAllocator.cpp **** }
 399              		.loc 1 134 12
 400 0238 13050000 		li	a0,0
 401              	.LVL28:
 402 023c 6FF05FFC 		j	.L29
 403              		.cfi_endproc
 404              	.LFE3:
 406              		.align	2
 407              		.globl	_ZN15MemoryAllocator8mem_freeEPv
 409              	_ZN15MemoryAllocator8mem_freeEPv:
 410              	.LFB2:
  80:src/MemoryAllocator.cpp **** 
 411              		.loc 1 80 43 is_stmt 1
 412              		.cfi_startproc
 413              	.LVL29:
  82:src/MemoryAllocator.cpp **** 
 414              		.loc 1 82 5
GAS LISTING /tmp/cchaUPP3.s 			page 12


 415 0240 63080514 		beqz	a0,.L50
  82:src/MemoryAllocator.cpp **** 
 416              		.loc 1 82 23 is_stmt 0 discriminator 2
 417 0244 97070000 		la	a5,HEAP_END_ADDR
 417      83B70700 
 418 024c 83B70700 		ld	a5,0(a5)
  82:src/MemoryAllocator.cpp **** 
 419              		.loc 1 82 15 discriminator 2
 420 0250 63E4A714 		bltu	a5,a0,.L51
  82:src/MemoryAllocator.cpp **** 
 421              		.loc 1 82 47 discriminator 4
 422 0254 97070000 		la	a5,HEAP_START_ADDR
 422      83B70700 
 423 025c 83B70700 		ld	a5,0(a5)
  82:src/MemoryAllocator.cpp **** 
 424              		.loc 1 82 39 discriminator 4
 425 0260 6360F514 		bgtu	a5,a0,.L52
  80:src/MemoryAllocator.cpp **** 
 426              		.loc 1 80 43
 427 0264 130101FE 		addi	sp,sp,-32
 428              		.cfi_def_cfa_offset 32
 429 0268 233C1100 		sd	ra,24(sp)
 430 026c 23388100 		sd	s0,16(sp)
 431 0270 23349100 		sd	s1,8(sp)
 432 0274 23302101 		sd	s2,0(sp)
 433              		.cfi_offset 1, -8
 434              		.cfi_offset 8, -16
 435              		.cfi_offset 9, -24
 436              		.cfi_offset 18, -32
 437 0278 13040102 		addi	s0,sp,32
 438              		.cfi_def_cfa 8, 0
  84:src/MemoryAllocator.cpp ****     MemoryBlock* tmp = used_mem_head;
 439              		.loc 1 84 5 is_stmt 1
  84:src/MemoryAllocator.cpp ****     MemoryBlock* tmp = used_mem_head;
 440              		.loc 1 84 11 is_stmt 0
 441 027c 930485FE 		addi	s1,a0,-24
 442              	.LVL30:
  85:src/MemoryAllocator.cpp **** 
 443              		.loc 1 85 5 is_stmt 1
  85:src/MemoryAllocator.cpp **** 
 444              		.loc 1 85 18 is_stmt 0
 445 0280 97070000 		ld	a5,.LANCHOR0+8
 445      83B70700 
 446              	.LVL31:
 447              	.L39:
  87:src/MemoryAllocator.cpp ****     if (block != tmp || !tmp) return -1;
 448              		.loc 1 87 5 is_stmt 1 discriminator 3
  87:src/MemoryAllocator.cpp ****     if (block != tmp || !tmp) return -1;
 449              		.loc 1 87 16 discriminator 3
 450 0288 63880700 		beqz	a5,.L38
  87:src/MemoryAllocator.cpp ****     if (block != tmp || !tmp) return -1;
 451              		.loc 1 87 16 is_stmt 0 discriminator 1
 452 028c 63F69700 		bgeu	a5,s1,.L38
  87:src/MemoryAllocator.cpp ****     if (block != tmp || !tmp) return -1;
 453              		.loc 1 87 5 is_stmt 1 discriminator 2
  87:src/MemoryAllocator.cpp ****     if (block != tmp || !tmp) return -1;
 454              		.loc 1 87 36 is_stmt 0 discriminator 2
GAS LISTING /tmp/cchaUPP3.s 			page 13


 455 0290 83B70700 		ld	a5,0(a5)
 456              	.LVL32:
  87:src/MemoryAllocator.cpp ****     if (block != tmp || !tmp) return -1;
 457              		.loc 1 87 5 discriminator 2
 458 0294 6FF05FFF 		j	.L39
 459              	.L38:
  88:src/MemoryAllocator.cpp **** 
 460              		.loc 1 88 5 is_stmt 1
 461 0298 63989710 		bne	a5,s1,.L53
  88:src/MemoryAllocator.cpp **** 
 462              		.loc 1 88 22 is_stmt 0 discriminator 2
 463 029c 638A0710 		beqz	a5,.L54
  91:src/MemoryAllocator.cpp ****     else used_mem_head = tmp->next;
 464              		.loc 1 91 5 is_stmt 1
  91:src/MemoryAllocator.cpp ****     else used_mem_head = tmp->next;
 465              		.loc 1 91 14 is_stmt 0
 466 02a0 03B78700 		ld	a4,8(a5)
  91:src/MemoryAllocator.cpp ****     else used_mem_head = tmp->next;
 467              		.loc 1 91 5
 468 02a4 630C0706 		beqz	a4,.L40
  91:src/MemoryAllocator.cpp ****     else used_mem_head = tmp->next;
 469              		.loc 1 91 20 is_stmt 1 discriminator 1
  91:src/MemoryAllocator.cpp ****     else used_mem_head = tmp->next;
 470              		.loc 1 91 43 is_stmt 0 discriminator 1
 471 02a8 83B60700 		ld	a3,0(a5)
  91:src/MemoryAllocator.cpp ****     else used_mem_head = tmp->next;
 472              		.loc 1 91 36 discriminator 1
 473 02ac 2330D700 		sd	a3,0(a4)
 474              	.L41:
  93:src/MemoryAllocator.cpp **** 
 475              		.loc 1 93 5 is_stmt 1
  93:src/MemoryAllocator.cpp **** 
 476              		.loc 1 93 14 is_stmt 0
 477 02b0 03B70700 		ld	a4,0(a5)
  93:src/MemoryAllocator.cpp **** 
 478              		.loc 1 93 5
 479 02b4 63060700 		beqz	a4,.L42
  93:src/MemoryAllocator.cpp **** 
 480              		.loc 1 93 20 is_stmt 1 discriminator 1
  93:src/MemoryAllocator.cpp **** 
 481              		.loc 1 93 43 is_stmt 0 discriminator 1
 482 02b8 83B78700 		ld	a5,8(a5)
 483              	.LVL33:
  93:src/MemoryAllocator.cpp **** 
 484              		.loc 1 93 36 discriminator 1
 485 02bc 2334F700 		sd	a5,8(a4)
 486              	.L42:
  96:src/MemoryAllocator.cpp ****     else for (tmp = free_mem_head; tmp->next && (char*)block > (char*)(tmp->next); tmp = tmp->next)
 487              		.loc 1 96 5 is_stmt 1
  96:src/MemoryAllocator.cpp ****     else for (tmp = free_mem_head; tmp->next && (char*)block > (char*)(tmp->next); tmp = tmp->next)
 488              		.loc 1 96 9 is_stmt 0
 489 02c0 97070000 		ld	a5,.LANCHOR0
 489      83B70700 
  96:src/MemoryAllocator.cpp ****     else for (tmp = free_mem_head; tmp->next && (char*)block > (char*)(tmp->next); tmp = tmp->next)
 490              		.loc 1 96 5
 491 02c8 63820706 		beqz	a5,.L43
  96:src/MemoryAllocator.cpp ****     else for (tmp = free_mem_head; tmp->next && (char*)block > (char*)(tmp->next); tmp = tmp->next)
GAS LISTING /tmp/cchaUPP3.s 			page 14


 492              		.loc 1 96 24 discriminator 2
 493 02cc 63E0F406 		bgtu	a5,s1,.L43
 494              	.L45:
 495              	.LVL34:
  97:src/MemoryAllocator.cpp **** 
 496              		.loc 1 97 46 is_stmt 1 discriminator 4
 497 02d0 13890700 		mv	s2,a5
  97:src/MemoryAllocator.cpp **** 
 498              		.loc 1 97 41 is_stmt 0 discriminator 4
 499 02d4 83B70700 		ld	a5,0(a5)
 500              	.LVL35:
  97:src/MemoryAllocator.cpp **** 
 501              		.loc 1 97 46 discriminator 4
 502 02d8 63840700 		beqz	a5,.L44
  97:src/MemoryAllocator.cpp **** 
 503              		.loc 1 97 46 discriminator 2
 504 02dc E3EA97FE 		bltu	a5,s1,.L45
 505              	.L44:
 101:src/MemoryAllocator.cpp ****         block -> prev = nullptr;
 506              		.loc 1 101 5 is_stmt 1
 507 02e0 63060904 		beqz	s2,.L43
 114:src/MemoryAllocator.cpp ****         block->prev = tmp;
 508              		.loc 1 114 9
 114:src/MemoryAllocator.cpp ****         block->prev = tmp;
 509              		.loc 1 114 21 is_stmt 0
 510 02e4 2334F5FE 		sd	a5,-24(a0)
 115:src/MemoryAllocator.cpp ****         tmp->next = block;
 511              		.loc 1 115 9 is_stmt 1
 115:src/MemoryAllocator.cpp ****         tmp->next = block;
 512              		.loc 1 115 21 is_stmt 0
 513 02e8 233825FF 		sd	s2,-16(a0)
 116:src/MemoryAllocator.cpp ****         if (block->next) block->next->prev = block;
 514              		.loc 1 116 9 is_stmt 1
 116:src/MemoryAllocator.cpp ****         if (block->next) block->next->prev = block;
 515              		.loc 1 116 19 is_stmt 0
 516 02ec 23309900 		sd	s1,0(s2)
 117:src/MemoryAllocator.cpp ****         tryToJoin(block);
 517              		.loc 1 117 9 is_stmt 1
 117:src/MemoryAllocator.cpp ****         tryToJoin(block);
 518              		.loc 1 117 20 is_stmt 0
 519 02f0 833785FE 		ld	a5,-24(a0)
 117:src/MemoryAllocator.cpp ****         tryToJoin(block);
 520              		.loc 1 117 9
 521 02f4 63840700 		beqz	a5,.L49
 117:src/MemoryAllocator.cpp ****         tryToJoin(block);
 522              		.loc 1 117 26 is_stmt 1 discriminator 1
 117:src/MemoryAllocator.cpp ****         tryToJoin(block);
 523              		.loc 1 117 44 is_stmt 0 discriminator 1
 524 02f8 23B49700 		sd	s1,8(a5)
 525              	.L49:
 118:src/MemoryAllocator.cpp ****         tryToJoin(tmp);
 526              		.loc 1 118 9 is_stmt 1
 118:src/MemoryAllocator.cpp ****         tryToJoin(tmp);
 527              		.loc 1 118 18 is_stmt 0
 528 02fc 13850400 		mv	a0,s1
 529              	.LVL36:
 530 0300 97000000 		call	_ZN15MemoryAllocator9tryToJoinEPNS_11MemoryBlockE
GAS LISTING /tmp/cchaUPP3.s 			page 15


 530      E7800000 
 531              	.LVL37:
 119:src/MemoryAllocator.cpp ****     }
 532              		.loc 1 119 9 is_stmt 1
 119:src/MemoryAllocator.cpp ****     }
 533              		.loc 1 119 18 is_stmt 0
 534 0308 13050900 		mv	a0,s2
 535 030c 97000000 		call	_ZN15MemoryAllocator9tryToJoinEPNS_11MemoryBlockE
 535      E7800000 
 536              	.LVL38:
 121:src/MemoryAllocator.cpp **** }
 537              		.loc 1 121 12
 538 0314 13050000 		li	a0,0
 539 0318 6F008005 		j	.L37
 540              	.LVL39:
 541              	.L40:
  92:src/MemoryAllocator.cpp ****     if (tmp->next) tmp->next->prev = tmp->prev;
 542              		.loc 1 92 10 is_stmt 1
  92:src/MemoryAllocator.cpp ****     if (tmp->next) tmp->next->prev = tmp->prev;
 543              		.loc 1 92 31 is_stmt 0
 544 031c 03B70700 		ld	a4,0(a5)
  92:src/MemoryAllocator.cpp ****     if (tmp->next) tmp->next->prev = tmp->prev;
 545              		.loc 1 92 24
 546 0320 97060000 		sd	a4,.LANCHOR0+8,a3
 546      23B0E600 
 547 0328 6FF09FF8 		j	.L41
 548              	.LVL40:
 549              	.L43:
 102:src/MemoryAllocator.cpp ****         if (free_mem_head) {
 550              		.loc 1 102 9 is_stmt 1
 102:src/MemoryAllocator.cpp ****         if (free_mem_head) {
 551              		.loc 1 102 23 is_stmt 0
 552 032c 233805FE 		sd	zero,-16(a0)
 103:src/MemoryAllocator.cpp ****             free_mem_head->prev = block;
 553              		.loc 1 103 9 is_stmt 1
 103:src/MemoryAllocator.cpp ****             free_mem_head->prev = block;
 554              		.loc 1 103 26 is_stmt 0
 555 0330 97070000 		ld	a5,.LANCHOR0
 555      83B70700 
 103:src/MemoryAllocator.cpp ****             free_mem_head->prev = block;
 556              		.loc 1 103 9
 557 0338 63880704 		beqz	a5,.L47
 104:src/MemoryAllocator.cpp ****             block->next = free_mem_head;
 558              		.loc 1 104 13 is_stmt 1
 104:src/MemoryAllocator.cpp ****             block->next = free_mem_head;
 559              		.loc 1 104 33 is_stmt 0
 560 033c 23B49700 		sd	s1,8(a5)
 105:src/MemoryAllocator.cpp ****             free_mem_head = block;
 561              		.loc 1 105 13 is_stmt 1
 105:src/MemoryAllocator.cpp ****             free_mem_head = block;
 562              		.loc 1 105 25 is_stmt 0
 563 0340 2334F5FE 		sd	a5,-24(a0)
 106:src/MemoryAllocator.cpp ****             tryToJoin(block);
 564              		.loc 1 106 13 is_stmt 1
 106:src/MemoryAllocator.cpp ****             tryToJoin(block);
 565              		.loc 1 106 27 is_stmt 0
 566 0344 97070000 		sd	s1,.LANCHOR0,a5
GAS LISTING /tmp/cchaUPP3.s 			page 16


 566      23B09700 
 107:src/MemoryAllocator.cpp ****         }
 567              		.loc 1 107 13 is_stmt 1
 107:src/MemoryAllocator.cpp ****         }
 568              		.loc 1 107 22 is_stmt 0
 569 034c 13850400 		mv	a0,s1
 570              	.LVL41:
 571 0350 97000000 		call	_ZN15MemoryAllocator9tryToJoinEPNS_11MemoryBlockE
 571      E7800000 
 572              	.LVL42:
 573              	.L48:
 110:src/MemoryAllocator.cpp ****         tryToJoin(free_mem_head);
 574              		.loc 1 110 9 is_stmt 1
 110:src/MemoryAllocator.cpp ****         tryToJoin(free_mem_head);
 575              		.loc 1 110 23 is_stmt 0
 576 0358 97070000 		sd	s1,.LANCHOR0,a5
 576      23B09700 
 111:src/MemoryAllocator.cpp **** 
 577              		.loc 1 111 9 is_stmt 1
 111:src/MemoryAllocator.cpp **** 
 578              		.loc 1 111 18 is_stmt 0
 579 0360 13850400 		mv	a0,s1
 580 0364 97000000 		call	_ZN15MemoryAllocator9tryToJoinEPNS_11MemoryBlockE
 580      E7800000 
 581              	.LVL43:
 121:src/MemoryAllocator.cpp **** }
 582              		.loc 1 121 12
 583 036c 13050000 		li	a0,0
 584              	.L37:
 122:src/MemoryAllocator.cpp **** 
 585              		.loc 1 122 1
 586 0370 83308101 		ld	ra,24(sp)
 587              		.cfi_remember_state
 588              		.cfi_restore 1
 589 0374 03340101 		ld	s0,16(sp)
 590              		.cfi_restore 8
 591              		.cfi_def_cfa 2, 32
 592 0378 83348100 		ld	s1,8(sp)
 593              		.cfi_restore 9
 594              	.LVL44:
 595 037c 03390100 		ld	s2,0(sp)
 596              		.cfi_restore 18
 597 0380 13010102 		addi	sp,sp,32
 598              		.cfi_def_cfa_offset 0
 599 0384 67800000 		jr	ra
 600              	.LVL45:
 601              	.L47:
 602              		.cfi_restore_state
 109:src/MemoryAllocator.cpp ****         free_mem_head = block;
 603              		.loc 1 109 14 is_stmt 1
 109:src/MemoryAllocator.cpp ****         free_mem_head = block;
 604              		.loc 1 109 28 is_stmt 0
 605 0388 233405FE 		sd	zero,-24(a0)
 606 038c 6FF0DFFC 		j	.L48
 607              	.LVL46:
 608              	.L50:
 609              		.cfi_def_cfa_register 2
GAS LISTING /tmp/cchaUPP3.s 			page 17


 610              		.cfi_restore 1
 611              		.cfi_restore 8
 612              		.cfi_restore 9
 613              		.cfi_restore 18
  82:src/MemoryAllocator.cpp **** 
 614              		.loc 1 82 74
 615 0390 1305F0FF 		li	a0,-1
 616              	.LVL47:
 617 0394 67800000 		ret
 618              	.LVL48:
 619              	.L51:
 620 0398 1305F0FF 		li	a0,-1
 621              	.LVL49:
 622 039c 67800000 		ret
 623              	.LVL50:
 624              	.L52:
 625 03a0 1305F0FF 		li	a0,-1
 626              	.LVL51:
 122:src/MemoryAllocator.cpp **** 
 627              		.loc 1 122 1
 628 03a4 67800000 		ret
 629              	.LVL52:
 630              	.L53:
 631              		.cfi_def_cfa_register 8
 632              		.cfi_offset 1, -8
 633              		.cfi_offset 8, -16
 634              		.cfi_offset 9, -24
 635              		.cfi_offset 18, -32
  88:src/MemoryAllocator.cpp **** 
 636              		.loc 1 88 39
 637 03a8 1305F0FF 		li	a0,-1
 638              	.LVL53:
 639 03ac 6FF05FFC 		j	.L37
 640              	.LVL54:
 641              	.L54:
 642 03b0 1305F0FF 		li	a0,-1
 643              	.LVL55:
 644 03b4 6FF0DFFB 		j	.L37
 645              		.cfi_endproc
 646              	.LFE2:
 648              		.align	2
 649              		.globl	_ZN15MemoryAllocator5printEv
 651              	_ZN15MemoryAllocator5printEv:
 652              	.LFB4:
 136:src/MemoryAllocator.cpp **** 
 137:src/MemoryAllocator.cpp **** extern void printInteger(uint64);
 138:src/MemoryAllocator.cpp **** 
 139:src/MemoryAllocator.cpp **** 
 140:src/MemoryAllocator.cpp **** void MemoryAllocator::print() {
 653              		.loc 1 140 31 is_stmt 1
 654              		.cfi_startproc
 655 03b8 130101FE 		addi	sp,sp,-32
 656              		.cfi_def_cfa_offset 32
 657 03bc 233C1100 		sd	ra,24(sp)
 658 03c0 23388100 		sd	s0,16(sp)
 659 03c4 23349100 		sd	s1,8(sp)
 660              		.cfi_offset 1, -8
GAS LISTING /tmp/cchaUPP3.s 			page 18


 661              		.cfi_offset 8, -16
 662              		.cfi_offset 9, -24
 663 03c8 13040102 		addi	s0,sp,32
 664              		.cfi_def_cfa 8, 0
 141:src/MemoryAllocator.cpp ****     __putc('\n');
 665              		.loc 1 141 5
 666              		.loc 1 141 11 is_stmt 0
 667 03cc 1305A000 		li	a0,10
 668 03d0 97000000 		call	__putc@plt
 668      E7800000 
 669              	.LVL56:
 142:src/MemoryAllocator.cpp ****     __putc('M');
 670              		.loc 1 142 5 is_stmt 1
 671              		.loc 1 142 11 is_stmt 0
 672 03d8 1305D004 		li	a0,77
 673 03dc 97000000 		call	__putc@plt
 673      E7800000 
 674              	.LVL57:
 143:src/MemoryAllocator.cpp ****     __putc(':');
 675              		.loc 1 143 5 is_stmt 1
 676              		.loc 1 143 11 is_stmt 0
 677 03e4 1305A003 		li	a0,58
 678 03e8 97000000 		call	__putc@plt
 678      E7800000 
 679              	.LVL58:
 144:src/MemoryAllocator.cpp ****     __putc(' ');
 680              		.loc 1 144 5 is_stmt 1
 681              		.loc 1 144 11 is_stmt 0
 682 03f0 13050002 		li	a0,32
 683 03f4 97000000 		call	__putc@plt
 683      E7800000 
 684              	.LVL59:
 145:src/MemoryAllocator.cpp ****     for (MemoryBlock* tmp = free_mem_head; tmp; tmp = tmp -> next) {
 685              		.loc 1 145 5 is_stmt 1
 686              	.LBB13:
 687              		.loc 1 145 23 is_stmt 0
 688 03fc 97040000 		ld	s1,.LANCHOR0
 688      83B40400 
 689              	.LVL60:
 690              	.L61:
 691              		.loc 1 145 44 is_stmt 1 discriminator 3
 692 0404 63840404 		beqz	s1,.L60
 146:src/MemoryAllocator.cpp ****         printInteger(tmp -> size);
 693              		.loc 1 146 9 discriminator 2
 694              		.loc 1 146 21 is_stmt 0 discriminator 2
 695 0408 03B50401 		ld	a0,16(s1)
 696 040c 97000000 		call	_Z12printIntegerm@plt
 696      E7800000 
 697              	.LVL61:
 147:src/MemoryAllocator.cpp ****         __putc(' ');
 698              		.loc 1 147 9 is_stmt 1 discriminator 2
 699              		.loc 1 147 15 is_stmt 0 discriminator 2
 700 0414 13050002 		li	a0,32
 701 0418 97000000 		call	__putc@plt
 701      E7800000 
 702              	.LVL62:
 148:src/MemoryAllocator.cpp ****         printInteger((uint64)tmp);
GAS LISTING /tmp/cchaUPP3.s 			page 19


 703              		.loc 1 148 9 is_stmt 1 discriminator 2
 704              		.loc 1 148 21 is_stmt 0 discriminator 2
 705 0420 13850400 		mv	a0,s1
 706 0424 97000000 		call	_Z12printIntegerm@plt
 706      E7800000 
 707              	.LVL63:
 149:src/MemoryAllocator.cpp ****         __putc(' ');
 708              		.loc 1 149 9 is_stmt 1 discriminator 2
 709              		.loc 1 149 15 is_stmt 0 discriminator 2
 710 042c 13050002 		li	a0,32
 711 0430 97000000 		call	__putc@plt
 711      E7800000 
 712              	.LVL64:
 150:src/MemoryAllocator.cpp ****         __putc('f');
 713              		.loc 1 150 9 is_stmt 1 discriminator 2
 714              		.loc 1 150 15 is_stmt 0 discriminator 2
 715 0438 13056006 		li	a0,102
 716 043c 97000000 		call	__putc@plt
 716      E7800000 
 717              	.LVL65:
 145:src/MemoryAllocator.cpp ****         printInteger(tmp -> size);
 718              		.loc 1 145 5 is_stmt 1 discriminator 2
 145:src/MemoryAllocator.cpp ****         printInteger(tmp -> size);
 719              		.loc 1 145 53 is_stmt 0 discriminator 2
 720 0444 83B40400 		ld	s1,0(s1)
 721              	.LVL66:
 145:src/MemoryAllocator.cpp ****         printInteger(tmp -> size);
 722              		.loc 1 145 5 discriminator 2
 723 0448 6FF0DFFB 		j	.L61
 724              	.L60:
 725              	.LBE13:
 151:src/MemoryAllocator.cpp ****     }
 152:src/MemoryAllocator.cpp ****     __putc('\t');
 726              		.loc 1 152 5 is_stmt 1
 727              		.loc 1 152 11 is_stmt 0
 728 044c 13059000 		li	a0,9
 729 0450 97000000 		call	__putc@plt
 729      E7800000 
 730              	.LVL67:
 153:src/MemoryAllocator.cpp ****     for (MemoryBlock* tmp = used_mem_head; tmp; tmp = tmp -> next) {
 731              		.loc 1 153 5 is_stmt 1
 732              	.LBB14:
 733              		.loc 1 153 23 is_stmt 0
 734 0458 97040000 		ld	s1,.LANCHOR0+8
 734      83B40400 
 735              	.LVL68:
 736              	.L63:
 737              		.loc 1 153 44 is_stmt 1 discriminator 3
 738 0460 63840404 		beqz	s1,.L59
 154:src/MemoryAllocator.cpp ****         printInteger(tmp -> size);
 739              		.loc 1 154 9 discriminator 2
 740              		.loc 1 154 21 is_stmt 0 discriminator 2
 741 0464 03B50401 		ld	a0,16(s1)
 742 0468 97000000 		call	_Z12printIntegerm@plt
 742      E7800000 
 743              	.LVL69:
 155:src/MemoryAllocator.cpp ****         __putc(' ');
GAS LISTING /tmp/cchaUPP3.s 			page 20


 744              		.loc 1 155 9 is_stmt 1 discriminator 2
 745              		.loc 1 155 15 is_stmt 0 discriminator 2
 746 0470 13050002 		li	a0,32
 747 0474 97000000 		call	__putc@plt
 747      E7800000 
 748              	.LVL70:
 156:src/MemoryAllocator.cpp ****         printInteger((uint64)tmp);
 749              		.loc 1 156 9 is_stmt 1 discriminator 2
 750              		.loc 1 156 21 is_stmt 0 discriminator 2
 751 047c 13850400 		mv	a0,s1
 752 0480 97000000 		call	_Z12printIntegerm@plt
 752      E7800000 
 753              	.LVL71:
 157:src/MemoryAllocator.cpp ****         __putc(' ');
 754              		.loc 1 157 9 is_stmt 1 discriminator 2
 755              		.loc 1 157 15 is_stmt 0 discriminator 2
 756 0488 13050002 		li	a0,32
 757 048c 97000000 		call	__putc@plt
 757      E7800000 
 758              	.LVL72:
 158:src/MemoryAllocator.cpp ****         __putc('u');
 759              		.loc 1 158 9 is_stmt 1 discriminator 2
 760              		.loc 1 158 15 is_stmt 0 discriminator 2
 761 0494 13055007 		li	a0,117
 762 0498 97000000 		call	__putc@plt
 762      E7800000 
 763              	.LVL73:
 153:src/MemoryAllocator.cpp ****         printInteger(tmp -> size);
 764              		.loc 1 153 5 is_stmt 1 discriminator 2
 153:src/MemoryAllocator.cpp ****         printInteger(tmp -> size);
 765              		.loc 1 153 53 is_stmt 0 discriminator 2
 766 04a0 83B40400 		ld	s1,0(s1)
 767              	.LVL74:
 153:src/MemoryAllocator.cpp ****         printInteger(tmp -> size);
 768              		.loc 1 153 5 discriminator 2
 769 04a4 6FF0DFFB 		j	.L63
 770              	.L59:
 771              	.LBE14:
 159:src/MemoryAllocator.cpp ****     }
 160:src/MemoryAllocator.cpp **** }
 772              		.loc 1 160 1
 773 04a8 83308101 		ld	ra,24(sp)
 774              		.cfi_restore 1
 775 04ac 03340101 		ld	s0,16(sp)
 776              		.cfi_restore 8
 777              		.cfi_def_cfa 2, 32
 778 04b0 83348100 		ld	s1,8(sp)
 779              		.cfi_restore 9
 780              	.LVL75:
 781 04b4 13010102 		addi	sp,sp,32
 782              		.cfi_def_cfa_offset 0
 783 04b8 67800000 		jr	ra
 784              		.cfi_endproc
 785              	.LFE4:
 787              		.globl	_ZN15MemoryAllocator13used_mem_headE
 788              		.globl	_ZN15MemoryAllocator13free_mem_headE
 789              		.globl	_ZN15MemoryAllocator9allocatorE
GAS LISTING /tmp/cchaUPP3.s 			page 21


 790              		.bss
 791              		.align	3
 792              		.set	.LANCHOR0,. + 0
 795              	_ZN15MemoryAllocator13free_mem_headE:
 796 0000 00000000 		.zero	8
 796      00000000 
 799              	_ZN15MemoryAllocator13used_mem_headE:
 800 0008 00000000 		.zero	8
 800      00000000 
 803              	_ZN15MemoryAllocator9allocatorE:
 804 0010 00000000 		.zero	8
 804      00000000 
 805              		.text
 806              	.Letext0:
 807              		.file 2 "src/../h/../lib/hw.h"
 808              		.file 3 "src/../h/Memoryallocator.hpp"
 809              		.file 4 "src/../lib/console.h"
GAS LISTING /tmp/cchaUPP3.s 			page 22


DEFINED SYMBOLS
                            *ABS*:0000000000000000 MemoryAllocator.cpp
     /tmp/cchaUPP3.s:9      .text:0000000000000000 _ZN15MemoryAllocator9mem_allocEm
     /tmp/cchaUPP3.s:13     .text:0000000000000000 .L0 
     /tmp/cchaUPP3.s:15     .text:0000000000000000 .L0 
     /tmp/cchaUPP3.s:16     .text:0000000000000004 .L0 
     /tmp/cchaUPP3.s:18     .text:0000000000000008 .L0 
     /tmp/cchaUPP3.s:20     .text:000000000000000c .L0 
     /tmp/cchaUPP3.s:22     .text:000000000000000c .L0 
     /tmp/cchaUPP3.s:25     .text:0000000000000010 .L0 
     /tmp/cchaUPP3.s:26     .text:0000000000000010 .L0 
     /tmp/cchaUPP3.s:27     .text:0000000000000010 .L0 
     /tmp/cchaUPP3.s:31     .text:0000000000000014 .L0 
     /tmp/cchaUPP3.s:32     .text:0000000000000014 .L0 
     /tmp/cchaUPP3.s:36     .text:000000000000001c .L0 
     /tmp/cchaUPP3.s:41     .text:0000000000000020 .L0 
     /tmp/cchaUPP3.s:42     .text:0000000000000020 .L0 
     /tmp/cchaUPP3.s:44     .text:0000000000000024 .L0 
     /tmp/cchaUPP3.s:47     .text:0000000000000028 .L0 
     /tmp/cchaUPP3.s:48     .text:0000000000000028 .L0 
     /tmp/cchaUPP3.s:51     .text:000000000000002c .L0 
     /tmp/cchaUPP3.s:57     .text:0000000000000030 .L0 
     /tmp/cchaUPP3.s:58     .text:0000000000000030 .L0 
     /tmp/cchaUPP3.s:60     .text:0000000000000034 .L0 
     /tmp/cchaUPP3.s:63     .text:000000000000003c .L0 
     /tmp/cchaUPP3.s:64     .text:000000000000003c .L0 
     /tmp/cchaUPP3.s:66     .text:0000000000000040 .L0 
     /tmp/cchaUPP3.s:68     .text:0000000000000044 .L0 
     /tmp/cchaUPP3.s:69     .text:0000000000000044 .L0 
     /tmp/cchaUPP3.s:71     .text:0000000000000048 .L0 
     /tmp/cchaUPP3.s:74     .text:000000000000004c .L0 
     /tmp/cchaUPP3.s:75     .text:000000000000004c .L0 
     /tmp/cchaUPP3.s:77     .text:0000000000000050 .L0 
     /tmp/cchaUPP3.s:79     .text:0000000000000054 .L0 
     /tmp/cchaUPP3.s:80     .text:0000000000000054 .L0 
     /tmp/cchaUPP3.s:82     .text:0000000000000058 .L0 
     /tmp/cchaUPP3.s:86     .text:000000000000005c .L0 
     /tmp/cchaUPP3.s:87     .text:000000000000005c .L0 
     /tmp/cchaUPP3.s:88     .text:000000000000005c .L0 
     /tmp/cchaUPP3.s:90     .text:0000000000000064 .L0 
     /tmp/cchaUPP3.s:92     .text:0000000000000068 .L0 
     /tmp/cchaUPP3.s:96     .text:000000000000006c .L0 
     /tmp/cchaUPP3.s:98     .text:0000000000000070 .L0 
     /tmp/cchaUPP3.s:101    .text:0000000000000074 .L0 
     /tmp/cchaUPP3.s:103    .text:0000000000000078 .L0 
     /tmp/cchaUPP3.s:105    .text:000000000000007c .L0 
     /tmp/cchaUPP3.s:107    .text:0000000000000080 .L0 
     /tmp/cchaUPP3.s:109    .text:0000000000000084 .L0 
     /tmp/cchaUPP3.s:110    .text:0000000000000084 .L0 
     /tmp/cchaUPP3.s:112    .text:0000000000000088 .L0 
     /tmp/cchaUPP3.s:118    .text:0000000000000090 .L0 
     /tmp/cchaUPP3.s:119    .text:0000000000000090 .L0 
     /tmp/cchaUPP3.s:121    .text:0000000000000094 .L0 
     /tmp/cchaUPP3.s:126    .text:00000000000000a0 .L0 
     /tmp/cchaUPP3.s:127    .text:00000000000000a0 .L0 
     /tmp/cchaUPP3.s:130    .text:00000000000000a4 .L0 
     /tmp/cchaUPP3.s:131    .text:00000000000000a4 .L0 
GAS LISTING /tmp/cchaUPP3.s 			page 23


     /tmp/cchaUPP3.s:133    .text:00000000000000a8 .L0 
     /tmp/cchaUPP3.s:135    .text:00000000000000ac .L0 
     /tmp/cchaUPP3.s:136    .text:00000000000000ac .L0 
     /tmp/cchaUPP3.s:138    .text:00000000000000b0 .L0 
     /tmp/cchaUPP3.s:140    .text:00000000000000b4 .L0 
     /tmp/cchaUPP3.s:141    .text:00000000000000b4 .L0 
     /tmp/cchaUPP3.s:143    .text:00000000000000b8 .L0 
     /tmp/cchaUPP3.s:145    .text:00000000000000bc .L0 
     /tmp/cchaUPP3.s:147    .text:00000000000000c0 .L0 
     /tmp/cchaUPP3.s:148    .text:00000000000000c0 .L0 
     /tmp/cchaUPP3.s:150    .text:00000000000000c4 .L0 
     /tmp/cchaUPP3.s:152    .text:00000000000000c8 .L0 
     /tmp/cchaUPP3.s:153    .text:00000000000000c8 .L0 
     /tmp/cchaUPP3.s:156    .text:00000000000000cc .L0 
     /tmp/cchaUPP3.s:157    .text:00000000000000cc .L0 
     /tmp/cchaUPP3.s:159    .text:00000000000000d0 .L0 
     /tmp/cchaUPP3.s:161    .text:00000000000000d4 .L0 
     /tmp/cchaUPP3.s:162    .text:00000000000000d4 .L0 
     /tmp/cchaUPP3.s:166    .text:00000000000000dc .L0 
     /tmp/cchaUPP3.s:167    .text:00000000000000dc .L0 
     /tmp/cchaUPP3.s:174    .text:00000000000000e8 .L0 
     /tmp/cchaUPP3.s:178    .text:00000000000000ec .L0 
     /tmp/cchaUPP3.s:179    .text:00000000000000ec .L0 
     /tmp/cchaUPP3.s:182    .text:00000000000000f0 .L0 
     /tmp/cchaUPP3.s:184    .text:00000000000000f4 .L0 
     /tmp/cchaUPP3.s:185    .text:00000000000000f4 .L0 
     /tmp/cchaUPP3.s:187    .text:00000000000000f8 .L0 
     /tmp/cchaUPP3.s:189    .text:00000000000000fc .L0 
     /tmp/cchaUPP3.s:190    .text:00000000000000fc .L0 
     /tmp/cchaUPP3.s:193    .text:0000000000000100 .L0 
     /tmp/cchaUPP3.s:195    .text:0000000000000104 .L0 
     /tmp/cchaUPP3.s:196    .text:0000000000000104 .L0 
     /tmp/cchaUPP3.s:200    .text:0000000000000108 .L0 
     /tmp/cchaUPP3.s:201    .text:0000000000000108 .L0 
     /tmp/cchaUPP3.s:203    .text:000000000000010c .L0 
     /tmp/cchaUPP3.s:205    .text:0000000000000110 .L0 
     /tmp/cchaUPP3.s:206    .text:0000000000000110 .L0 
     /tmp/cchaUPP3.s:209    .text:0000000000000114 .L0 
     /tmp/cchaUPP3.s:210    .text:0000000000000114 .L0 
     /tmp/cchaUPP3.s:217    .text:0000000000000118 .L0 
     /tmp/cchaUPP3.s:218    .text:000000000000011c .L0 
     /tmp/cchaUPP3.s:219    .text:000000000000011c .L0 
     /tmp/cchaUPP3.s:220    .text:000000000000011c .L0 
     /tmp/cchaUPP3.s:222    .text:0000000000000120 .L0 
     /tmp/cchaUPP3.s:226    .text:0000000000000124 .L0 
     /tmp/cchaUPP3.s:231    .text:0000000000000124 .L0 
     /tmp/cchaUPP3.s:236    .text:000000000000012c .L0 
     /tmp/cchaUPP3.s:237    .text:000000000000012c .L0 
     /tmp/cchaUPP3.s:246    .text:0000000000000138 .L0 
     /tmp/cchaUPP3.s:249    .text:0000000000000140 .L0 
     /tmp/cchaUPP3.s:255    .text:0000000000000140 _ZN15MemoryAllocator14init_allocatorEv
     /tmp/cchaUPP3.s:258    .text:0000000000000140 .L0 
     /tmp/cchaUPP3.s:259    .text:0000000000000140 .L0 
     /tmp/cchaUPP3.s:260    .text:0000000000000140 .L0 
     /tmp/cchaUPP3.s:261    .text:0000000000000140 .L0 
     /tmp/cchaUPP3.s:263    .text:0000000000000148 .L0 
     /tmp/cchaUPP3.s:265    .text:000000000000014c .L0 
GAS LISTING /tmp/cchaUPP3.s 			page 24


     /tmp/cchaUPP3.s:266    .text:000000000000014c .L0 
     /tmp/cchaUPP3.s:270    .text:0000000000000158 .L0 
     /tmp/cchaUPP3.s:271    .text:000000000000015c .L0 
     /tmp/cchaUPP3.s:275    .text:0000000000000168 .L0 
     /tmp/cchaUPP3.s:276    .text:0000000000000168 .L0 
     /tmp/cchaUPP3.s:277    .text:0000000000000168 .L0 
     /tmp/cchaUPP3.s:279    .text:000000000000016c .L0 
     /tmp/cchaUPP3.s:281    .text:000000000000016c .L0 
     /tmp/cchaUPP3.s:282    .text:000000000000016c .L0 
     /tmp/cchaUPP3.s:287    .text:0000000000000184 .L0 
     /tmp/cchaUPP3.s:288    .text:0000000000000184 .L0 
     /tmp/cchaUPP3.s:290    .text:0000000000000188 .L0 
     /tmp/cchaUPP3.s:291    .text:0000000000000188 .L0 
     /tmp/cchaUPP3.s:293    .text:000000000000018c .L0 
     /tmp/cchaUPP3.s:295    .text:0000000000000190 .L0 
     /tmp/cchaUPP3.s:296    .text:0000000000000190 .L0 
     /tmp/cchaUPP3.s:301    .text:00000000000001a4 .L0 
     /tmp/cchaUPP3.s:303    .text:00000000000001a8 .L0 
     /tmp/cchaUPP3.s:305    .text:00000000000001ac .L0 
     /tmp/cchaUPP3.s:306    .text:00000000000001ac .L0 
     /tmp/cchaUPP3.s:310    .text:00000000000001b8 .L0 
     /tmp/cchaUPP3.s:312    .text:00000000000001bc .L0 
     /tmp/cchaUPP3.s:313    .text:00000000000001bc .L0 
     /tmp/cchaUPP3.s:315    .text:00000000000001c8 .L0 
     /tmp/cchaUPP3.s:317    .text:00000000000001cc .L0 
     /tmp/cchaUPP3.s:318    .text:00000000000001cc .L0 
     /tmp/cchaUPP3.s:320    .text:00000000000001d0 .L0 
     /tmp/cchaUPP3.s:322    .text:00000000000001d4 .L0 
     /tmp/cchaUPP3.s:324    .text:00000000000001d8 .L0 
     /tmp/cchaUPP3.s:330    .text:00000000000001d8 _ZN15MemoryAllocator9tryToJoinEPNS_11MemoryBlockE
     /tmp/cchaUPP3.s:333    .text:00000000000001d8 .L0 
     /tmp/cchaUPP3.s:335    .text:00000000000001d8 .L0 
     /tmp/cchaUPP3.s:336    .text:00000000000001dc .L0 
     /tmp/cchaUPP3.s:338    .text:00000000000001e0 .L0 
     /tmp/cchaUPP3.s:340    .text:00000000000001e4 .L0 
     /tmp/cchaUPP3.s:342    .text:00000000000001e4 .L0 
     /tmp/cchaUPP3.s:344    .text:00000000000001e8 .L0 
     /tmp/cchaUPP3.s:345    .text:00000000000001e8 .L0 
     /tmp/cchaUPP3.s:347    .text:00000000000001ec .L0 
     /tmp/cchaUPP3.s:349    .text:00000000000001f0 .L0 
     /tmp/cchaUPP3.s:351    .text:00000000000001f4 .L0 
     /tmp/cchaUPP3.s:353    .text:00000000000001f8 .L0 
     /tmp/cchaUPP3.s:355    .text:00000000000001fc .L0 
     /tmp/cchaUPP3.s:359    .text:0000000000000200 .L0 
     /tmp/cchaUPP3.s:360    .text:0000000000000204 .L0 
     /tmp/cchaUPP3.s:361    .text:0000000000000204 .L0 
     /tmp/cchaUPP3.s:362    .text:0000000000000204 .L0 
     /tmp/cchaUPP3.s:364    .text:0000000000000208 .L0 
     /tmp/cchaUPP3.s:368    .text:000000000000020c .L0 
     /tmp/cchaUPP3.s:370    .text:000000000000020c .L0 
     /tmp/cchaUPP3.s:371    .text:000000000000020c .L0 
     /tmp/cchaUPP3.s:373    .text:0000000000000210 .L0 
     /tmp/cchaUPP3.s:376    .text:0000000000000218 .L0 
     /tmp/cchaUPP3.s:377    .text:0000000000000218 .L0 
     /tmp/cchaUPP3.s:379    .text:000000000000021c .L0 
     /tmp/cchaUPP3.s:381    .text:0000000000000220 .L0 
     /tmp/cchaUPP3.s:383    .text:0000000000000224 .L0 
GAS LISTING /tmp/cchaUPP3.s 			page 25


     /tmp/cchaUPP3.s:384    .text:0000000000000224 .L0 
     /tmp/cchaUPP3.s:387    .text:0000000000000228 .L0 
     /tmp/cchaUPP3.s:388    .text:0000000000000228 .L0 
     /tmp/cchaUPP3.s:394    .text:0000000000000230 .L0 
     /tmp/cchaUPP3.s:400    .text:0000000000000238 .L0 
     /tmp/cchaUPP3.s:403    .text:0000000000000240 .L0 
     /tmp/cchaUPP3.s:409    .text:0000000000000240 _ZN15MemoryAllocator8mem_freeEPv
     /tmp/cchaUPP3.s:412    .text:0000000000000240 .L0 
     /tmp/cchaUPP3.s:414    .text:0000000000000240 .L0 
     /tmp/cchaUPP3.s:415    .text:0000000000000240 .L0 
     /tmp/cchaUPP3.s:417    .text:0000000000000244 .L0 
     /tmp/cchaUPP3.s:420    .text:0000000000000250 .L0 
     /tmp/cchaUPP3.s:422    .text:0000000000000254 .L0 
     /tmp/cchaUPP3.s:425    .text:0000000000000260 .L0 
     /tmp/cchaUPP3.s:427    .text:0000000000000264 .L0 
     /tmp/cchaUPP3.s:428    .text:0000000000000268 .L0 
     /tmp/cchaUPP3.s:433    .text:0000000000000278 .L0 
     /tmp/cchaUPP3.s:434    .text:0000000000000278 .L0 
     /tmp/cchaUPP3.s:435    .text:0000000000000278 .L0 
     /tmp/cchaUPP3.s:436    .text:0000000000000278 .L0 
     /tmp/cchaUPP3.s:438    .text:000000000000027c .L0 
     /tmp/cchaUPP3.s:440    .text:000000000000027c .L0 
     /tmp/cchaUPP3.s:441    .text:000000000000027c .L0 
     /tmp/cchaUPP3.s:444    .text:0000000000000280 .L0 
     /tmp/cchaUPP3.s:445    .text:0000000000000280 .L0 
     /tmp/cchaUPP3.s:449    .text:0000000000000288 .L0 
     /tmp/cchaUPP3.s:450    .text:0000000000000288 .L0 
     /tmp/cchaUPP3.s:452    .text:000000000000028c .L0 
     /tmp/cchaUPP3.s:454    .text:0000000000000290 .L0 
     /tmp/cchaUPP3.s:455    .text:0000000000000290 .L0 
     /tmp/cchaUPP3.s:458    .text:0000000000000294 .L0 
     /tmp/cchaUPP3.s:461    .text:0000000000000298 .L0 
     /tmp/cchaUPP3.s:463    .text:000000000000029c .L0 
     /tmp/cchaUPP3.s:465    .text:00000000000002a0 .L0 
     /tmp/cchaUPP3.s:466    .text:00000000000002a0 .L0 
     /tmp/cchaUPP3.s:468    .text:00000000000002a4 .L0 
     /tmp/cchaUPP3.s:470    .text:00000000000002a8 .L0 
     /tmp/cchaUPP3.s:471    .text:00000000000002a8 .L0 
     /tmp/cchaUPP3.s:473    .text:00000000000002ac .L0 
     /tmp/cchaUPP3.s:476    .text:00000000000002b0 .L0 
     /tmp/cchaUPP3.s:477    .text:00000000000002b0 .L0 
     /tmp/cchaUPP3.s:479    .text:00000000000002b4 .L0 
     /tmp/cchaUPP3.s:481    .text:00000000000002b8 .L0 
     /tmp/cchaUPP3.s:482    .text:00000000000002b8 .L0 
     /tmp/cchaUPP3.s:485    .text:00000000000002bc .L0 
     /tmp/cchaUPP3.s:488    .text:00000000000002c0 .L0 
     /tmp/cchaUPP3.s:489    .text:00000000000002c0 .L0 
     /tmp/cchaUPP3.s:491    .text:00000000000002c8 .L0 
     /tmp/cchaUPP3.s:493    .text:00000000000002cc .L0 
     /tmp/cchaUPP3.s:497    .text:00000000000002d0 .L0 
     /tmp/cchaUPP3.s:499    .text:00000000000002d4 .L0 
     /tmp/cchaUPP3.s:502    .text:00000000000002d8 .L0 
     /tmp/cchaUPP3.s:504    .text:00000000000002dc .L0 
     /tmp/cchaUPP3.s:507    .text:00000000000002e0 .L0 
     /tmp/cchaUPP3.s:509    .text:00000000000002e4 .L0 
     /tmp/cchaUPP3.s:510    .text:00000000000002e4 .L0 
     /tmp/cchaUPP3.s:512    .text:00000000000002e8 .L0 
GAS LISTING /tmp/cchaUPP3.s 			page 26


     /tmp/cchaUPP3.s:513    .text:00000000000002e8 .L0 
     /tmp/cchaUPP3.s:515    .text:00000000000002ec .L0 
     /tmp/cchaUPP3.s:516    .text:00000000000002ec .L0 
     /tmp/cchaUPP3.s:518    .text:00000000000002f0 .L0 
     /tmp/cchaUPP3.s:519    .text:00000000000002f0 .L0 
     /tmp/cchaUPP3.s:521    .text:00000000000002f4 .L0 
     /tmp/cchaUPP3.s:523    .text:00000000000002f8 .L0 
     /tmp/cchaUPP3.s:524    .text:00000000000002f8 .L0 
     /tmp/cchaUPP3.s:527    .text:00000000000002fc .L0 
     /tmp/cchaUPP3.s:528    .text:00000000000002fc .L0 
     /tmp/cchaUPP3.s:533    .text:0000000000000308 .L0 
     /tmp/cchaUPP3.s:534    .text:0000000000000308 .L0 
     /tmp/cchaUPP3.s:538    .text:0000000000000314 .L0 
     /tmp/cchaUPP3.s:543    .text:000000000000031c .L0 
     /tmp/cchaUPP3.s:544    .text:000000000000031c .L0 
     /tmp/cchaUPP3.s:546    .text:0000000000000320 .L0 
     /tmp/cchaUPP3.s:551    .text:000000000000032c .L0 
     /tmp/cchaUPP3.s:552    .text:000000000000032c .L0 
     /tmp/cchaUPP3.s:554    .text:0000000000000330 .L0 
     /tmp/cchaUPP3.s:555    .text:0000000000000330 .L0 
     /tmp/cchaUPP3.s:557    .text:0000000000000338 .L0 
     /tmp/cchaUPP3.s:559    .text:000000000000033c .L0 
     /tmp/cchaUPP3.s:560    .text:000000000000033c .L0 
     /tmp/cchaUPP3.s:562    .text:0000000000000340 .L0 
     /tmp/cchaUPP3.s:563    .text:0000000000000340 .L0 
     /tmp/cchaUPP3.s:565    .text:0000000000000344 .L0 
     /tmp/cchaUPP3.s:566    .text:0000000000000344 .L0 
     /tmp/cchaUPP3.s:568    .text:000000000000034c .L0 
     /tmp/cchaUPP3.s:569    .text:000000000000034c .L0 
     /tmp/cchaUPP3.s:575    .text:0000000000000358 .L0 
     /tmp/cchaUPP3.s:576    .text:0000000000000358 .L0 
     /tmp/cchaUPP3.s:578    .text:0000000000000360 .L0 
     /tmp/cchaUPP3.s:579    .text:0000000000000360 .L0 
     /tmp/cchaUPP3.s:583    .text:000000000000036c .L0 
     /tmp/cchaUPP3.s:586    .text:0000000000000370 .L0 
     /tmp/cchaUPP3.s:587    .text:0000000000000374 .L0 
     /tmp/cchaUPP3.s:588    .text:0000000000000374 .L0 
     /tmp/cchaUPP3.s:590    .text:0000000000000378 .L0 
     /tmp/cchaUPP3.s:591    .text:0000000000000378 .L0 
     /tmp/cchaUPP3.s:593    .text:000000000000037c .L0 
     /tmp/cchaUPP3.s:596    .text:0000000000000380 .L0 
     /tmp/cchaUPP3.s:598    .text:0000000000000384 .L0 
     /tmp/cchaUPP3.s:602    .text:0000000000000388 .L0 
     /tmp/cchaUPP3.s:604    .text:0000000000000388 .L0 
     /tmp/cchaUPP3.s:605    .text:0000000000000388 .L0 
     /tmp/cchaUPP3.s:609    .text:0000000000000390 .L0 
     /tmp/cchaUPP3.s:610    .text:0000000000000390 .L0 
     /tmp/cchaUPP3.s:611    .text:0000000000000390 .L0 
     /tmp/cchaUPP3.s:612    .text:0000000000000390 .L0 
     /tmp/cchaUPP3.s:613    .text:0000000000000390 .L0 
     /tmp/cchaUPP3.s:615    .text:0000000000000390 .L0 
     /tmp/cchaUPP3.s:628    .text:00000000000003a4 .L0 
     /tmp/cchaUPP3.s:631    .text:00000000000003a8 .L0 
     /tmp/cchaUPP3.s:632    .text:00000000000003a8 .L0 
     /tmp/cchaUPP3.s:633    .text:00000000000003a8 .L0 
     /tmp/cchaUPP3.s:634    .text:00000000000003a8 .L0 
     /tmp/cchaUPP3.s:635    .text:00000000000003a8 .L0 
GAS LISTING /tmp/cchaUPP3.s 			page 27


     /tmp/cchaUPP3.s:637    .text:00000000000003a8 .L0 
     /tmp/cchaUPP3.s:645    .text:00000000000003b8 .L0 
     /tmp/cchaUPP3.s:651    .text:00000000000003b8 _ZN15MemoryAllocator5printEv
     /tmp/cchaUPP3.s:654    .text:00000000000003b8 .L0 
     /tmp/cchaUPP3.s:655    .text:00000000000003b8 .L0 
     /tmp/cchaUPP3.s:656    .text:00000000000003bc .L0 
     /tmp/cchaUPP3.s:660    .text:00000000000003c8 .L0 
     /tmp/cchaUPP3.s:661    .text:00000000000003c8 .L0 
     /tmp/cchaUPP3.s:662    .text:00000000000003c8 .L0 
     /tmp/cchaUPP3.s:664    .text:00000000000003cc .L0 
     /tmp/cchaUPP3.s:666    .text:00000000000003cc .L0 
     /tmp/cchaUPP3.s:667    .text:00000000000003cc .L0 
     /tmp/cchaUPP3.s:671    .text:00000000000003d8 .L0 
     /tmp/cchaUPP3.s:672    .text:00000000000003d8 .L0 
     /tmp/cchaUPP3.s:676    .text:00000000000003e4 .L0 
     /tmp/cchaUPP3.s:677    .text:00000000000003e4 .L0 
     /tmp/cchaUPP3.s:681    .text:00000000000003f0 .L0 
     /tmp/cchaUPP3.s:682    .text:00000000000003f0 .L0 
     /tmp/cchaUPP3.s:687    .text:00000000000003fc .L0 
     /tmp/cchaUPP3.s:688    .text:00000000000003fc .L0 
     /tmp/cchaUPP3.s:692    .text:0000000000000404 .L0 
     /tmp/cchaUPP3.s:694    .text:0000000000000408 .L0 
     /tmp/cchaUPP3.s:695    .text:0000000000000408 .L0 
     /tmp/cchaUPP3.s:699    .text:0000000000000414 .L0 
     /tmp/cchaUPP3.s:700    .text:0000000000000414 .L0 
     /tmp/cchaUPP3.s:704    .text:0000000000000420 .L0 
     /tmp/cchaUPP3.s:705    .text:0000000000000420 .L0 
     /tmp/cchaUPP3.s:709    .text:000000000000042c .L0 
     /tmp/cchaUPP3.s:710    .text:000000000000042c .L0 
     /tmp/cchaUPP3.s:714    .text:0000000000000438 .L0 
     /tmp/cchaUPP3.s:715    .text:0000000000000438 .L0 
     /tmp/cchaUPP3.s:719    .text:0000000000000444 .L0 
     /tmp/cchaUPP3.s:720    .text:0000000000000444 .L0 
     /tmp/cchaUPP3.s:723    .text:0000000000000448 .L0 
     /tmp/cchaUPP3.s:727    .text:000000000000044c .L0 
     /tmp/cchaUPP3.s:728    .text:000000000000044c .L0 
     /tmp/cchaUPP3.s:733    .text:0000000000000458 .L0 
     /tmp/cchaUPP3.s:734    .text:0000000000000458 .L0 
     /tmp/cchaUPP3.s:738    .text:0000000000000460 .L0 
     /tmp/cchaUPP3.s:740    .text:0000000000000464 .L0 
     /tmp/cchaUPP3.s:741    .text:0000000000000464 .L0 
     /tmp/cchaUPP3.s:745    .text:0000000000000470 .L0 
     /tmp/cchaUPP3.s:746    .text:0000000000000470 .L0 
     /tmp/cchaUPP3.s:750    .text:000000000000047c .L0 
     /tmp/cchaUPP3.s:751    .text:000000000000047c .L0 
     /tmp/cchaUPP3.s:755    .text:0000000000000488 .L0 
     /tmp/cchaUPP3.s:756    .text:0000000000000488 .L0 
     /tmp/cchaUPP3.s:760    .text:0000000000000494 .L0 
     /tmp/cchaUPP3.s:761    .text:0000000000000494 .L0 
     /tmp/cchaUPP3.s:765    .text:00000000000004a0 .L0 
     /tmp/cchaUPP3.s:766    .text:00000000000004a0 .L0 
     /tmp/cchaUPP3.s:769    .text:00000000000004a4 .L0 
     /tmp/cchaUPP3.s:773    .text:00000000000004a8 .L0 
     /tmp/cchaUPP3.s:774    .text:00000000000004ac .L0 
     /tmp/cchaUPP3.s:776    .text:00000000000004b0 .L0 
     /tmp/cchaUPP3.s:777    .text:00000000000004b0 .L0 
     /tmp/cchaUPP3.s:779    .text:00000000000004b4 .L0 
GAS LISTING /tmp/cchaUPP3.s 			page 28


     /tmp/cchaUPP3.s:782    .text:00000000000004b8 .L0 
     /tmp/cchaUPP3.s:784    .text:00000000000004bc .L0 
     /tmp/cchaUPP3.s:799    .bss:0000000000000008 _ZN15MemoryAllocator13used_mem_headE
     /tmp/cchaUPP3.s:795    .bss:0000000000000000 _ZN15MemoryAllocator13free_mem_headE
     /tmp/cchaUPP3.s:803    .bss:0000000000000010 _ZN15MemoryAllocator9allocatorE
     /tmp/cchaUPP3.s:792    .bss:0000000000000000 .LANCHOR0
     /tmp/cchaUPP3.s:810    .text:00000000000004bc .L0 
     /tmp/cchaUPP3.s:32     .text:0000000000000014 .L0 
     /tmp/cchaUPP3.s:88     .text:000000000000005c .L0 
     /tmp/cchaUPP3.s:121    .text:0000000000000094 .L0 
     /tmp/cchaUPP3.s:167    .text:00000000000000dc .L0 
     /tmp/cchaUPP3.s:237    .text:000000000000012c .L0 
     /tmp/cchaUPP3.s:261    .text:0000000000000140 .L0 
     /tmp/cchaUPP3.s:266    .text:000000000000014c .L0 
     /tmp/cchaUPP3.s:282    .text:000000000000016c .L0 
     /tmp/cchaUPP3.s:284    .text:0000000000000178 .L0 
     /tmp/cchaUPP3.s:296    .text:0000000000000190 .L0 
     /tmp/cchaUPP3.s:313    .text:00000000000001bc .L0 
     /tmp/cchaUPP3.s:417    .text:0000000000000244 .L0 
     /tmp/cchaUPP3.s:422    .text:0000000000000254 .L0 
     /tmp/cchaUPP3.s:445    .text:0000000000000280 .L0 
     /tmp/cchaUPP3.s:489    .text:00000000000002c0 .L0 
     /tmp/cchaUPP3.s:546    .text:0000000000000320 .L0 
     /tmp/cchaUPP3.s:555    .text:0000000000000330 .L0 
     /tmp/cchaUPP3.s:566    .text:0000000000000344 .L0 
     /tmp/cchaUPP3.s:576    .text:0000000000000358 .L0 
     /tmp/cchaUPP3.s:688    .text:00000000000003fc .L0 
     /tmp/cchaUPP3.s:734    .text:0000000000000458 .L0 
     /tmp/cchaUPP3.s:241    .text:0000000000000138 .L16
     /tmp/cchaUPP3.s:212    .text:0000000000000118 .L1
     /tmp/cchaUPP3.s:52     .text:0000000000000030 .L20
     /tmp/cchaUPP3.s:34     .text:000000000000001c .L15
     /tmp/cchaUPP3.s:123    .text:00000000000000a0 .L4
     /tmp/cchaUPP3.s:72     .text:000000000000004c .L5
     /tmp/cchaUPP3.s:115    .text:0000000000000090 .L6
     /tmp/cchaUPP3.s:170    .text:00000000000000e8 .L17
     /tmp/cchaUPP3.s:225    .text:0000000000000124 .L18
     /tmp/cchaUPP3.s:175    .text:00000000000000ec .L10
     /tmp/cchaUPP3.s:93     .text:000000000000006c .L11
     /tmp/cchaUPP3.s:83     .text:000000000000005c .L7
     /tmp/cchaUPP3.s:154    .text:00000000000000cc .L8
     /tmp/cchaUPP3.s:164    .text:00000000000000dc .L9
     /tmp/cchaUPP3.s:234    .text:000000000000012c .L12
     /tmp/cchaUPP3.s:207    .text:0000000000000114 .L14
     /tmp/cchaUPP3.s:198    .text:0000000000000108 .L13
     /tmp/cchaUPP3.s:268    .text:0000000000000158 .L27
     /tmp/cchaUPP3.s:392    .text:0000000000000230 .L31
     /tmp/cchaUPP3.s:398    .text:0000000000000238 .L32
     /tmp/cchaUPP3.s:367    .text:000000000000020c .L35
     /tmp/cchaUPP3.s:385    .text:0000000000000228 .L30
     /tmp/cchaUPP3.s:357    .text:0000000000000200 .L29
     /tmp/cchaUPP3.s:608    .text:0000000000000390 .L50
     /tmp/cchaUPP3.s:619    .text:0000000000000398 .L51
     /tmp/cchaUPP3.s:624    .text:00000000000003a0 .L52
     /tmp/cchaUPP3.s:459    .text:0000000000000298 .L38
     /tmp/cchaUPP3.s:447    .text:0000000000000288 .L39
     /tmp/cchaUPP3.s:630    .text:00000000000003a8 .L53
GAS LISTING /tmp/cchaUPP3.s 			page 29


     /tmp/cchaUPP3.s:641    .text:00000000000003b0 .L54
     /tmp/cchaUPP3.s:541    .text:000000000000031c .L40
     /tmp/cchaUPP3.s:486    .text:00000000000002c0 .L42
     /tmp/cchaUPP3.s:549    .text:000000000000032c .L43
     /tmp/cchaUPP3.s:505    .text:00000000000002e0 .L44
     /tmp/cchaUPP3.s:494    .text:00000000000002d0 .L45
     /tmp/cchaUPP3.s:525    .text:00000000000002fc .L49
     /tmp/cchaUPP3.s:584    .text:0000000000000370 .L37
     /tmp/cchaUPP3.s:474    .text:00000000000002b0 .L41
     /tmp/cchaUPP3.s:601    .text:0000000000000388 .L47
     /tmp/cchaUPP3.s:573    .text:0000000000000358 .L48
     /tmp/cchaUPP3.s:724    .text:000000000000044c .L60
     /tmp/cchaUPP3.s:690    .text:0000000000000404 .L61
     /tmp/cchaUPP3.s:770    .text:00000000000004a8 .L59
     /tmp/cchaUPP3.s:736    .text:0000000000000460 .L63
     /tmp/cchaUPP3.s:1487   .debug_abbrev:0000000000000000 .Ldebug_abbrev0
     /tmp/cchaUPP3.s:2498   .debug_str:00000000000001b2 .LASF41
     /tmp/cchaUPP3.s:2522   .debug_str:0000000000000342 .LASF42
     /tmp/cchaUPP3.s:2524   .debug_str:000000000000035a .LASF43
     /tmp/cchaUPP3.s:5      .text:0000000000000000 .Ltext0
     /tmp/cchaUPP3.s:806    .text:00000000000004bc .Letext0
     /tmp/cchaUPP3.s:2444   .debug_line:0000000000000000 .Ldebug_line0
     /tmp/cchaUPP3.s:2504   .debug_str:00000000000002b4 .LASF0
     /tmp/cchaUPP3.s:2494   .debug_str:0000000000000193 .LASF1
     /tmp/cchaUPP3.s:2486   .debug_str:0000000000000136 .LASF2
     /tmp/cchaUPP3.s:2466   .debug_str:000000000000009d .LASF4
     /tmp/cchaUPP3.s:2490   .debug_str:000000000000014f .LASF3
     /tmp/cchaUPP3.s:2454   .debug_str:000000000000004e .LASF5
     /tmp/cchaUPP3.s:2448   .debug_str:0000000000000021 .LASF6
     /tmp/cchaUPP3.s:2478   .debug_str:00000000000000f3 .LASF7
     /tmp/cchaUPP3.s:2516   .debug_str:0000000000000313 .LASF8
     /tmp/cchaUPP3.s:2464   .debug_str:000000000000008f .LASF9
     /tmp/cchaUPP3.s:2552   .debug_str:0000000000000447 .LASF10
     /tmp/cchaUPP3.s:2482   .debug_str:000000000000010c .LASF11
     /tmp/cchaUPP3.s:2538   .debug_str:00000000000003f9 .LASF12
     /tmp/cchaUPP3.s:2510   .debug_str:00000000000002f0 .LASF13
     /tmp/cchaUPP3.s:2496   .debug_str:00000000000001a6 .LASF14
     /tmp/cchaUPP3.s:2472   .debug_str:00000000000000bb .LASF15
     /tmp/cchaUPP3.s:2518   .debug_str:0000000000000323 .LASF16
     /tmp/cchaUPP3.s:2452   .debug_str:000000000000003e .LASF20
     /tmp/cchaUPP3.s:2514   .debug_str:0000000000000307 .LASF44
     /tmp/cchaUPP3.s:2456   .debug_str:0000000000000055 .LASF17
     /tmp/cchaUPP3.s:2550   .debug_str:0000000000000442 .LASF18
     /tmp/cchaUPP3.s:2548   .debug_str:000000000000043d .LASF19
     /tmp/cchaUPP3.s:2500   .debug_str:0000000000000276 .LASF21
     /tmp/cchaUPP3.s:2484   .debug_str:000000000000011b .LASF22
     /tmp/cchaUPP3.s:2462   .debug_str:0000000000000084 .LASF45
     /tmp/cchaUPP3.s:2534   .debug_str:00000000000003d4 .LASF46
     /tmp/cchaUPP3.s:2540   .debug_str:0000000000000409 .LASF23
     /tmp/cchaUPP3.s:2526   .debug_str:0000000000000378 .LASF24
     /tmp/cchaUPP3.s:2536   .debug_str:00000000000003ef .LASF47
     /tmp/cchaUPP3.s:2492   .debug_str:0000000000000161 .LASF48
     /tmp/cchaUPP3.s:2546   .debug_str:0000000000000433 .LASF49
     /tmp/cchaUPP3.s:2506   .debug_str:00000000000002c1 .LASF50
     /tmp/cchaUPP3.s:2528   .debug_str:0000000000000386 .LASF51
     /tmp/cchaUPP3.s:2542   .debug_str:0000000000000417 .LASF25
     /tmp/cchaUPP3.s:2446   .debug_str:0000000000000000 .LASF26
GAS LISTING /tmp/cchaUPP3.s 			page 30


     /tmp/cchaUPP3.s:2520   .debug_str:0000000000000339 .LASF27
     /tmp/cchaUPP3.s:2532   .debug_str:00000000000003b3 .LASF28
     /tmp/cchaUPP3.s:2530   .debug_str:00000000000003ad .LASF52
     /tmp/cchaUPP3.s:2474   .debug_str:00000000000000d1 .LASF53
     /tmp/cchaUPP3.s:2488   .debug_str:0000000000000144 .LASF29
     /tmp/cchaUPP3.s:2508   .debug_str:00000000000002d0 .LASF30
     /tmp/cchaUPP3.s:2458   .debug_str:000000000000005a .LASF31
     /tmp/cchaUPP3.s:2502   .debug_str:000000000000028f .LASF32
     /tmp/cchaUPP3.s:652    .text:00000000000003b8 .LFB4
     /tmp/cchaUPP3.s:785    .text:00000000000004bc .LFE4
     /tmp/cchaUPP3.s:686    .text:00000000000003fc .LBB13
     /tmp/cchaUPP3.s:725    .text:000000000000044c .LBE13
     /tmp/cchaUPP3.s:2115   .debug_loc:0000000000000000 .LLST9
     /tmp/cchaUPP3.s:697    .text:0000000000000414 .LVL61
     /tmp/cchaUPP3.s:702    .text:0000000000000420 .LVL62
     /tmp/cchaUPP3.s:707    .text:000000000000042c .LVL63
     /tmp/cchaUPP3.s:712    .text:0000000000000438 .LVL64
     /tmp/cchaUPP3.s:717    .text:0000000000000444 .LVL65
     /tmp/cchaUPP3.s:732    .text:0000000000000458 .LBB14
     /tmp/cchaUPP3.s:771    .text:00000000000004a8 .LBE14
     /tmp/cchaUPP3.s:2122   .debug_loc:0000000000000023 .LLST10
     /tmp/cchaUPP3.s:743    .text:0000000000000470 .LVL69
     /tmp/cchaUPP3.s:748    .text:000000000000047c .LVL70
     /tmp/cchaUPP3.s:753    .text:0000000000000488 .LVL71
     /tmp/cchaUPP3.s:758    .text:0000000000000494 .LVL72
     /tmp/cchaUPP3.s:763    .text:00000000000004a0 .LVL73
     /tmp/cchaUPP3.s:669    .text:00000000000003d8 .LVL56
     /tmp/cchaUPP3.s:674    .text:00000000000003e4 .LVL57
     /tmp/cchaUPP3.s:679    .text:00000000000003f0 .LVL58
     /tmp/cchaUPP3.s:684    .text:00000000000003fc .LVL59
     /tmp/cchaUPP3.s:730    .text:0000000000000458 .LVL67
     /tmp/cchaUPP3.s:331    .text:00000000000001d8 .LFB3
     /tmp/cchaUPP3.s:404    .text:0000000000000240 .LFE3
     /tmp/cchaUPP3.s:2460   .debug_str:000000000000007f .LASF33
     /tmp/cchaUPP3.s:2129   .debug_loc:0000000000000046 .LLST5
     /tmp/cchaUPP3.s:410    .text:0000000000000240 .LFB2
     /tmp/cchaUPP3.s:646    .text:00000000000003b8 .LFE2
     /tmp/cchaUPP3.s:2476   .debug_str:00000000000000ee .LASF34
     /tmp/cchaUPP3.s:2176   .debug_loc:00000000000000fa .LLST6
     /tmp/cchaUPP3.s:2480   .debug_str:0000000000000106 .LASF35
     /tmp/cchaUPP3.s:2259   .debug_loc:000000000000023b .LLST7
     /tmp/cchaUPP3.s:2283   .debug_loc:000000000000029c .LLST8
     /tmp/cchaUPP3.s:531    .text:0000000000000308 .LVL37
     /tmp/cchaUPP3.s:536    .text:0000000000000314 .LVL38
     /tmp/cchaUPP3.s:572    .text:0000000000000358 .LVL42
     /tmp/cchaUPP3.s:581    .text:000000000000036c .LVL43
     /tmp/cchaUPP3.s:10     .text:0000000000000000 .LFB1
     /tmp/cchaUPP3.s:250    .text:0000000000000140 .LFE1
     /tmp/cchaUPP3.s:2306   .debug_loc:000000000000030b .LLST0
     /tmp/cchaUPP3.s:2331   .debug_loc:000000000000036d .LLST1
     /tmp/cchaUPP3.s:2468   .debug_str:00000000000000a4 .LASF36
     /tmp/cchaUPP3.s:2347   .debug_loc:00000000000003b7 .LLST2
     /tmp/cchaUPP3.s:2436   .debug_ranges:0000000000000000 .Ldebug_ranges0
     /tmp/cchaUPP3.s:2397   .debug_loc:000000000000045f .LLST3
     /tmp/cchaUPP3.s:124    .text:00000000000000a0 .LBB6
     /tmp/cchaUPP3.s:171    .text:00000000000000e8 .LBE6
     /tmp/cchaUPP3.s:2450   .debug_str:0000000000000034 .LASF37
GAS LISTING /tmp/cchaUPP3.s 			page 31


     /tmp/cchaUPP3.s:2416   .debug_loc:00000000000004bb .LLST4
     /tmp/cchaUPP3.s:256    .text:0000000000000140 .LFB0
     /tmp/cchaUPP3.s:325    .text:00000000000001d8 .LFE0
     /tmp/cchaUPP3.s:308    .text:00000000000001b8 .LVL20
     /tmp/cchaUPP3.s:2544   .debug_str:0000000000000421 .LASF38
     /tmp/cchaUPP3.s:2470   .debug_str:00000000000000ae .LASF40
     /tmp/cchaUPP3.s:2512   .debug_str:0000000000000300 .LASF39
     /tmp/cchaUPP3.s:689    .text:0000000000000404 .LVL60
     /tmp/cchaUPP3.s:735    .text:0000000000000460 .LVL68
     /tmp/cchaUPP3.s:780    .text:00000000000004b4 .LVL75
     /tmp/cchaUPP3.s:334    .text:00000000000001d8 .LVL21
     /tmp/cchaUPP3.s:356    .text:0000000000000200 .LVL22
     /tmp/cchaUPP3.s:366    .text:000000000000020c .LVL23
     /tmp/cchaUPP3.s:389    .text:000000000000022c .LVL24
     /tmp/cchaUPP3.s:391    .text:0000000000000230 .LVL25
     /tmp/cchaUPP3.s:395    .text:0000000000000234 .LVL26
     /tmp/cchaUPP3.s:397    .text:0000000000000238 .LVL27
     /tmp/cchaUPP3.s:401    .text:000000000000023c .LVL28
     /tmp/cchaUPP3.s:413    .text:0000000000000240 .LVL29
     /tmp/cchaUPP3.s:529    .text:0000000000000300 .LVL36
     /tmp/cchaUPP3.s:540    .text:000000000000031c .LVL39
     /tmp/cchaUPP3.s:570    .text:0000000000000350 .LVL41
     /tmp/cchaUPP3.s:594    .text:000000000000037c .LVL44
     /tmp/cchaUPP3.s:600    .text:0000000000000388 .LVL45
     /tmp/cchaUPP3.s:616    .text:0000000000000394 .LVL47
     /tmp/cchaUPP3.s:618    .text:0000000000000398 .LVL48
     /tmp/cchaUPP3.s:621    .text:000000000000039c .LVL49
     /tmp/cchaUPP3.s:623    .text:00000000000003a0 .LVL50
     /tmp/cchaUPP3.s:626    .text:00000000000003a4 .LVL51
     /tmp/cchaUPP3.s:629    .text:00000000000003a8 .LVL52
     /tmp/cchaUPP3.s:638    .text:00000000000003ac .LVL53
     /tmp/cchaUPP3.s:640    .text:00000000000003b0 .LVL54
     /tmp/cchaUPP3.s:643    .text:00000000000003b4 .LVL55
     /tmp/cchaUPP3.s:442    .text:0000000000000280 .LVL30
     /tmp/cchaUPP3.s:607    .text:0000000000000390 .LVL46
     /tmp/cchaUPP3.s:446    .text:0000000000000288 .LVL31
     /tmp/cchaUPP3.s:483    .text:00000000000002bc .LVL33
     /tmp/cchaUPP3.s:495    .text:00000000000002d0 .LVL34
     /tmp/cchaUPP3.s:500    .text:00000000000002d8 .LVL35
     /tmp/cchaUPP3.s:548    .text:000000000000032c .LVL40
     /tmp/cchaUPP3.s:14     .text:0000000000000000 .LVL0
     /tmp/cchaUPP3.s:33     .text:000000000000001c .LVL3
     /tmp/cchaUPP3.s:240    .text:0000000000000138 .LVL18
     /tmp/cchaUPP3.s:247    .text:000000000000013c .LVL19
     /tmp/cchaUPP3.s:24     .text:0000000000000010 .LVL1
     /tmp/cchaUPP3.s:211    .text:0000000000000118 .LVL14
     /tmp/cchaUPP3.s:224    .text:0000000000000124 .LVL15
     /tmp/cchaUPP3.s:28     .text:0000000000000014 .LVL2
     /tmp/cchaUPP3.s:180    .text:00000000000000f0 .LVL11
     /tmp/cchaUPP3.s:191    .text:0000000000000100 .LVL12
     /tmp/cchaUPP3.s:197    .text:0000000000000108 .LVL13
     /tmp/cchaUPP3.s:233    .text:000000000000012c .LVL16
     /tmp/cchaUPP3.s:238    .text:0000000000000134 .LVL17
     /tmp/cchaUPP3.s:94     .text:000000000000006c .LVL5
     /tmp/cchaUPP3.s:99     .text:0000000000000074 .LVL6
     /tmp/cchaUPP3.s:114    .text:0000000000000090 .LVL7
     /tmp/cchaUPP3.s:176    .text:00000000000000ec .LVL10
GAS LISTING /tmp/cchaUPP3.s 			page 32


     /tmp/cchaUPP3.s:128    .text:00000000000000a4 .LVL8
     /tmp/cchaUPP3.s:169    .text:00000000000000e8 .LVL9
     /tmp/cchaUPP3.s:811    .debug_info:0000000000000000 .Ldebug_info0
     /tmp/cchaUPP3.s:54     .text:0000000000000030 .LBB4
     /tmp/cchaUPP3.s:213    .text:0000000000000118 .LBE4
     /tmp/cchaUPP3.s:229    .text:0000000000000124 .LBB8
     /tmp/cchaUPP3.s:242    .text:0000000000000138 .LBE8

UNDEFINED SYMBOLS
HEAP_START_ADDR
HEAP_END_ADDR
__putc
_Z12printIntegerm
