GAS LISTING /tmp/ccHOwAkS.s 			page 1


   1              		.file	"riscv.cpp"
   2              		.option pic
   3              		.option norelax
   4              		.text
   5              	.Ltext0:
   6              		.align	2
   7              		.globl	_ZN5RISCV10popSppSpieEv
   9              	_ZN5RISCV10popSppSpieEv:
  10              	.LFB34:
  11              		.file 1 "src/riscv.cpp"
   1:src/riscv.cpp **** #include "../lib/hw.h"
   2:src/riscv.cpp **** #include "../h/riscv.hpp"
   3:src/riscv.cpp **** #include "../h/syscall_c.hpp"
   4:src/riscv.cpp **** #include "../h/Memoryallocator.hpp"
   5:src/riscv.cpp **** #include "../h/thread.hpp"
   6:src/riscv.cpp **** #include "../h/Console.hpp"
   7:src/riscv.cpp **** 
   8:src/riscv.cpp **** extern void printInteger(uint64);
   9:src/riscv.cpp **** extern void printString(char*);
  10:src/riscv.cpp **** extern void handleNewChars(void*);
  11:src/riscv.cpp **** 
  12:src/riscv.cpp **** // first time running a thread, sepc inside of wrapper
  13:src/riscv.cpp **** 
  14:src/riscv.cpp **** void RISCV::popSppSpie() {
  12              		.loc 1 14 26
  13              		.cfi_startproc
  14 0000 130101FF 		addi	sp,sp,-16
  15              		.cfi_def_cfa_offset 16
  16 0004 23348100 		sd	s0,8(sp)
  17              		.cfi_offset 8, -8
  18 0008 13040101 		addi	s0,sp,16
  19              		.cfi_def_cfa 8, 0
  15:src/riscv.cpp **** 
  16:src/riscv.cpp ****     // not inline ( ra reg )
  17:src/riscv.cpp **** 
  18:src/riscv.cpp ****     if (TCB::running->routine != handleNewChars) RISCV::mask_status(SPP);
  20              		.loc 1 18 5
  21              		.loc 1 18 23 is_stmt 0
  22 000c 97070000 		la	a5,_ZN3TCB7runningE
  22      83B70700 
  23 0014 83B70700 		ld	a5,0(a5)
  24 0018 03B70703 		ld	a4,48(a5)
  25              		.loc 1 18 5
  26 001c 97070000 		la	a5,_Z14handleNewCharsPv
  26      83B70700 
  27 0024 6306F700 		beq	a4,a5,.L2
  28              		.loc 1 18 50 is_stmt 1
  29              	.LVL0:
  30              	.LBB56:
  31              	.LBB57:
  32              		.file 2 "src/../h/riscv.hpp"
   1:src/../h/riscv.hpp **** //
   2:src/../h/riscv.hpp **** // Created by os on 4/7/24.
   3:src/../h/riscv.hpp **** //
   4:src/../h/riscv.hpp **** 
   5:src/../h/riscv.hpp **** #ifndef PROJECT_BASE_RISCV_HPP
   6:src/../h/riscv.hpp **** #define PROJECT_BASE_RISCV_HPP
GAS LISTING /tmp/ccHOwAkS.s 			page 2


   7:src/../h/riscv.hpp **** 
   8:src/../h/riscv.hpp **** #include "../lib/hw.h"
   9:src/../h/riscv.hpp **** 
  10:src/../h/riscv.hpp **** class RISCV {
  11:src/../h/riscv.hpp **** public:
  12:src/../h/riscv.hpp **** 
  13:src/../h/riscv.hpp ****     enum causes {
  14:src/../h/riscv.hpp ****         SOFTWARE = 0x8000000000000001UL,
  15:src/../h/riscv.hpp ****         EXTERNAL = 0x8000000000000009UL,
  16:src/../h/riscv.hpp ****         U_ECALL  = 0x0000000000000008UL,
  17:src/../h/riscv.hpp ****         S_ECALL  = 0x0000000000000009UL
  18:src/../h/riscv.hpp ****     };
  19:src/../h/riscv.hpp **** 
  20:src/../h/riscv.hpp ****     static void supervisor_trap();
  21:src/../h/riscv.hpp ****     static void handle_interrupt();
  22:src/../h/riscv.hpp **** 
  23:src/../h/riscv.hpp ****     static void push_regs();
  24:src/../h/riscv.hpp ****     static void pop_regs();
  25:src/../h/riscv.hpp **** 
  26:src/../h/riscv.hpp ****     static uint64 return_value(uint64 value);
  27:src/../h/riscv.hpp **** 
  28:src/../h/riscv.hpp ****     static uint64 rd_scause();
  29:src/../h/riscv.hpp ****     static void wr_scause(uint64 value);
  30:src/../h/riscv.hpp **** 
  31:src/../h/riscv.hpp ****     static uint64 rd_sepc();
  32:src/../h/riscv.hpp ****     static void wr_sepc(uint64 value);
  33:src/../h/riscv.hpp **** 
  34:src/../h/riscv.hpp ****     static uint64 rd_stvec();
  35:src/../h/riscv.hpp ****     static void wr_stvec(uint64 value);
  36:src/../h/riscv.hpp **** 
  37:src/../h/riscv.hpp ****     static uint64 rd_stval();
  38:src/../h/riscv.hpp ****     static void wr_stval(uint64 value);
  39:src/../h/riscv.hpp **** 
  40:src/../h/riscv.hpp ****     static uint64 rd_sip();
  41:src/../h/riscv.hpp ****     static void wr_sip(uint64 value);
  42:src/../h/riscv.hpp **** 
  43:src/../h/riscv.hpp ****     static uint64 rd_sstatus();
  44:src/../h/riscv.hpp ****     static void wr_sstatus(uint64 value);
  45:src/../h/riscv.hpp **** 
  46:src/../h/riscv.hpp ****     static void clear_sip(uint64 mask);
  47:src/../h/riscv.hpp ****     static void set_sip(uint64 mask);
  48:src/../h/riscv.hpp **** 
  49:src/../h/riscv.hpp ****     static void mask_status(uint64 mask);
  50:src/../h/riscv.hpp ****     static void set_status(uint64 mask);
  51:src/../h/riscv.hpp **** 
  52:src/../h/riscv.hpp ****     static void popSppSpie();
  53:src/../h/riscv.hpp ****     // pop sstatus.spp and sstatus.spie bits
  54:src/../h/riscv.hpp ****     // must be in cpp, not inline
  55:src/../h/riscv.hpp **** 
  56:src/../h/riscv.hpp ****     enum mask_sstatus {
  57:src/../h/riscv.hpp ****         SIE = (1 << 1),
  58:src/../h/riscv.hpp ****         SPIE =(1 << 5),
  59:src/../h/riscv.hpp ****         SPP = (1 << 8)
  60:src/../h/riscv.hpp ****     };
  61:src/../h/riscv.hpp **** 
  62:src/../h/riscv.hpp ****     enum mask_sip_sie {
  63:src/../h/riscv.hpp ****         SS = (1 << 1),
GAS LISTING /tmp/ccHOwAkS.s 			page 3


  64:src/../h/riscv.hpp ****         SE = (1 << 9)
  65:src/../h/riscv.hpp ****     };
  66:src/../h/riscv.hpp **** 
  67:src/../h/riscv.hpp **** };
  68:src/../h/riscv.hpp **** 
  69:src/../h/riscv.hpp **** inline uint64 RISCV::rd_scause() {
  70:src/../h/riscv.hpp ****     uint64 volatile value;
  71:src/../h/riscv.hpp ****     __asm__ volatile ("csrr %0, scause" : "=r"(value));
  72:src/../h/riscv.hpp ****     return value;
  73:src/../h/riscv.hpp **** }
  74:src/../h/riscv.hpp **** 
  75:src/../h/riscv.hpp **** inline void RISCV::wr_scause(uint64 value) {
  76:src/../h/riscv.hpp ****     __asm__ volatile ("csrw scause, %0" : : "r"(value));
  77:src/../h/riscv.hpp **** }
  78:src/../h/riscv.hpp **** 
  79:src/../h/riscv.hpp **** inline uint64 RISCV::rd_sepc() {
  80:src/../h/riscv.hpp ****     uint64 volatile value;
  81:src/../h/riscv.hpp ****     __asm__ volatile ("csrr %0, sepc" : "=r"(value));
  82:src/../h/riscv.hpp ****     return value;
  83:src/../h/riscv.hpp **** }
  84:src/../h/riscv.hpp **** 
  85:src/../h/riscv.hpp **** inline void RISCV::wr_sepc(uint64 value) {
  86:src/../h/riscv.hpp ****     __asm__ volatile ("csrw sepc, %0" : : "r"(value));
  87:src/../h/riscv.hpp **** }
  88:src/../h/riscv.hpp **** 
  89:src/../h/riscv.hpp **** inline uint64 RISCV::rd_stvec() {
  90:src/../h/riscv.hpp ****     uint64 volatile value;
  91:src/../h/riscv.hpp ****     __asm__ volatile ("csrr %0, stvec" : "=r"(value));
  92:src/../h/riscv.hpp ****     return value;
  93:src/../h/riscv.hpp **** }
  94:src/../h/riscv.hpp **** 
  95:src/../h/riscv.hpp **** inline void RISCV::wr_stvec(uint64 value) {
  96:src/../h/riscv.hpp ****     __asm__ volatile ("csrw stvec, %0" : : "r"(value));
  97:src/../h/riscv.hpp **** }
  98:src/../h/riscv.hpp **** 
  99:src/../h/riscv.hpp **** inline uint64 RISCV::rd_stval() {
 100:src/../h/riscv.hpp ****     uint64 volatile value;
 101:src/../h/riscv.hpp ****     __asm__ volatile ("csrr %0, stval" : "=r"(value));
 102:src/../h/riscv.hpp ****     return value;
 103:src/../h/riscv.hpp **** }
 104:src/../h/riscv.hpp **** 
 105:src/../h/riscv.hpp **** inline void RISCV::wr_stval(uint64 value) {
 106:src/../h/riscv.hpp ****     __asm__ volatile ("csrw stval, %0" : : "r"(value));
 107:src/../h/riscv.hpp **** }
 108:src/../h/riscv.hpp **** 
 109:src/../h/riscv.hpp **** inline uint64 RISCV::rd_sip() {
 110:src/../h/riscv.hpp ****     uint64 volatile value;
 111:src/../h/riscv.hpp ****     __asm__ volatile ("csrr %0, sip" : "=r"(value));
 112:src/../h/riscv.hpp ****     return value;
 113:src/../h/riscv.hpp **** }
 114:src/../h/riscv.hpp **** 
 115:src/../h/riscv.hpp **** inline void RISCV::wr_sip(uint64 value) {
 116:src/../h/riscv.hpp ****     __asm__ volatile ("csrw sip, %0" : : "r"(value));
 117:src/../h/riscv.hpp **** }
 118:src/../h/riscv.hpp **** 
 119:src/../h/riscv.hpp **** inline uint64 RISCV::rd_sstatus() {
 120:src/../h/riscv.hpp ****     uint64 volatile value;
GAS LISTING /tmp/ccHOwAkS.s 			page 4


 121:src/../h/riscv.hpp ****     __asm__ volatile ("csrr %0, sstatus" : "=r"(value));
 122:src/../h/riscv.hpp ****     return value;
 123:src/../h/riscv.hpp **** }
 124:src/../h/riscv.hpp **** 
 125:src/../h/riscv.hpp **** inline void RISCV::wr_sstatus(uint64 value) {
 126:src/../h/riscv.hpp ****     __asm__ volatile ("csrw sstatus, %0" : : "r"(value));
 127:src/../h/riscv.hpp **** }
 128:src/../h/riscv.hpp **** 
 129:src/../h/riscv.hpp **** inline void RISCV::clear_sip(uint64 mask) {
 130:src/../h/riscv.hpp ****     __asm__ volatile("csrc sip, %0" : : "r"(mask));
 131:src/../h/riscv.hpp **** }
 132:src/../h/riscv.hpp **** 
 133:src/../h/riscv.hpp **** inline void RISCV::set_sip(uint64 mask) {
 134:src/../h/riscv.hpp ****     __asm__ volatile("csrs sip, %0" : : "r"(mask));
 135:src/../h/riscv.hpp **** }
 136:src/../h/riscv.hpp **** 
 137:src/../h/riscv.hpp **** inline void RISCV::mask_status(uint64 mask) {
 138:src/../h/riscv.hpp ****     __asm__ volatile("csrc sstatus, %0" : : "r"(mask));
  33              		.loc 2 138 5
  34              		.loc 2 138 55 is_stmt 0
  35 0028 93070010 		li	a5,256
  36              	#APP
  37              	# 138 "src/../h/riscv.hpp" 1
 139              	};
  38              		csrc sstatus, a5
  39              	# 0 "" 2
  40              	.LVL1:
  41              	#NO_APP
  42              	.L2:
  43              	.LBE57:
  44              	.LBE56:
  19:src/riscv.cpp ****     __asm__ volatile ("csrw sepc, ra");
  45              		.loc 1 19 5 is_stmt 1
  46              		.loc 1 19 39 is_stmt 0
  47              	#APP
  48              	# 19 "src/riscv.cpp" 1
  20              	    __asm__ volatile ("sret");
  49              		csrw sepc, ra
  50              	# 0 "" 2
  51              		.loc 1 20 5 is_stmt 1
  52              		.loc 1 20 30 is_stmt 0
  53              	# 20 "src/riscv.cpp" 1
  21              	
  22:src/riscv.cpp ****     // => pop spp and spie !
  23:src/riscv.cpp ****     // exit from supervisor mode
  24:src/riscv.cpp **** }
  54              		sret
  55              	# 0 "" 2
  56              		.loc 1 24 1
  57              	#NO_APP
  58 0038 03348100 		ld	s0,8(sp)
  59              		.cfi_restore 8
  60              		.cfi_def_cfa 2, 16
  61 003c 13010101 		addi	sp,sp,16
  62              		.cfi_def_cfa_offset 0
  63 0040 67800000 		jr	ra
  64              		.cfi_endproc
GAS LISTING /tmp/ccHOwAkS.s 			page 5


  65              	.LFE34:
  67              		.align	2
  68              		.globl	_ZN5RISCV12return_valueEm
  70              	_ZN5RISCV12return_valueEm:
  71              	.LFB35:
  25:src/riscv.cpp **** 
  26:src/riscv.cpp **** uint64 RISCV::return_value(uint64 value) {
  72              		.loc 1 26 42 is_stmt 1
  73              		.cfi_startproc
  74              	.LVL2:
  75 0044 130101FF 		addi	sp,sp,-16
  76              		.cfi_def_cfa_offset 16
  77 0048 23348100 		sd	s0,8(sp)
  78              		.cfi_offset 8, -8
  79 004c 13040101 		addi	s0,sp,16
  80              		.cfi_def_cfa 8, 0
  27:src/riscv.cpp ****     return value; // move to a0 reg
  81              		.loc 1 27 5
  28:src/riscv.cpp **** }
  82              		.loc 1 28 1 is_stmt 0
  83 0050 03348100 		ld	s0,8(sp)
  84              		.cfi_restore 8
  85              		.cfi_def_cfa 2, 16
  86 0054 13010101 		addi	sp,sp,16
  87              		.cfi_def_cfa_offset 0
  88 0058 67800000 		jr	ra
  89              		.cfi_endproc
  90              	.LFE35:
  92              		.section	.text._ZN4ListI3TCBE6removeEPS0_,"axG",@progbits,_ZN4ListI3TCBE6removeEPS0_,comdat
  93              		.align	2
  94              		.weak	_ZN4ListI3TCBE6removeEPS0_
  96              	_ZN4ListI3TCBE6removeEPS0_:
  97              	.LFB40:
  98              		.file 3 "src/../h/List.hpp"
   1:src/../h/List.hpp **** //
   2:src/../h/List.hpp **** // Created by os on 5/13/24.
   3:src/../h/List.hpp **** //
   4:src/../h/List.hpp **** 
   5:src/../h/List.hpp **** #ifndef PROJECT_BASE_LIST_HPP
   6:src/../h/List.hpp **** #define PROJECT_BASE_LIST_HPP
   7:src/../h/List.hpp **** #include "thread.hpp"
   8:src/../h/List.hpp **** 
   9:src/../h/List.hpp **** extern void printInteger(uint64);
  10:src/../h/List.hpp **** 
  11:src/../h/List.hpp **** template <typename T>
  12:src/../h/List.hpp **** class List {
  13:src/../h/List.hpp **** 
  14:src/../h/List.hpp **** public:
  15:src/../h/List.hpp **** 
  16:src/../h/List.hpp ****     friend class RISCV;
  17:src/../h/List.hpp **** 
  18:src/../h/List.hpp ****     List() : head(nullptr), tail(nullptr) {};
  19:src/../h/List.hpp **** 
  20:src/../h/List.hpp ****     void add(T*);
  21:src/../h/List.hpp ****     T* get();
  22:src/../h/List.hpp ****     T* peek();
  23:src/../h/List.hpp **** 
GAS LISTING /tmp/ccHOwAkS.s 			page 6


  24:src/../h/List.hpp ****     inline int size() {return count;}
  25:src/../h/List.hpp **** 
  26:src/../h/List.hpp **** private:
  27:src/../h/List.hpp **** 
  28:src/../h/List.hpp ****     struct Elem {
  29:src/../h/List.hpp ****         T* data;
  30:src/../h/List.hpp ****         Elem* next;
  31:src/../h/List.hpp **** 
  32:src/../h/List.hpp ****         explicit Elem(T* data) : data(data), next(nullptr) {}
  33:src/../h/List.hpp ****     };
  34:src/../h/List.hpp **** 
  35:src/../h/List.hpp ****     Elem *head, *tail;
  36:src/../h/List.hpp ****     int count = 0;
  37:src/../h/List.hpp **** 
  38:src/../h/List.hpp ****     void remove(T *t);
  39:src/../h/List.hpp **** };
  40:src/../h/List.hpp **** 
  41:src/../h/List.hpp **** typedef List<TCB> ListTCB;
  42:src/../h/List.hpp **** using ListSEM = List<Sem>;
  43:src/../h/List.hpp **** 
  44:src/../h/List.hpp **** template <typename T>
  45:src/../h/List.hpp **** void List<T>::add(T *t) {
  46:src/../h/List.hpp **** 
  47:src/../h/List.hpp ****     Elem* toAdd = new Elem(t);
  48:src/../h/List.hpp **** 
  49:src/../h/List.hpp ****     if (!head) head = tail = toAdd;
  50:src/../h/List.hpp ****     else tail = tail -> next = toAdd;
  51:src/../h/List.hpp **** 
  52:src/../h/List.hpp ****     count++;
  53:src/../h/List.hpp **** }
  54:src/../h/List.hpp **** 
  55:src/../h/List.hpp **** template <typename T>
  56:src/../h/List.hpp **** T* List<T>::get() {
  57:src/../h/List.hpp **** 
  58:src/../h/List.hpp ****     if (!head) return nullptr;
  59:src/../h/List.hpp **** 
  60:src/../h/List.hpp ****     T* t = head -> data;
  61:src/../h/List.hpp ****     Elem* oldHead = head;
  62:src/../h/List.hpp ****     head = head -> next;
  63:src/../h/List.hpp **** 
  64:src/../h/List.hpp ****     if (!head) tail = nullptr;
  65:src/../h/List.hpp **** 
  66:src/../h/List.hpp ****     delete oldHead;
  67:src/../h/List.hpp ****     count--;
  68:src/../h/List.hpp ****     return t;
  69:src/../h/List.hpp **** }
  70:src/../h/List.hpp **** 
  71:src/../h/List.hpp **** template <typename T>
  72:src/../h/List.hpp **** T* List<T>::peek() {
  73:src/../h/List.hpp ****     if (head) return head->data;
  74:src/../h/List.hpp ****     else return nullptr;
  75:src/../h/List.hpp **** }
  76:src/../h/List.hpp **** 
  77:src/../h/List.hpp **** template <typename T>
  78:src/../h/List.hpp **** void List<T>::remove(T* t) {
  99              		.loc 3 78 6 is_stmt 1
 100              		.cfi_startproc
GAS LISTING /tmp/ccHOwAkS.s 			page 7


 101              	.LVL3:
 102 0000 93060500 		mv	a3,a0
 103              	.LVL4:
  79:src/../h/List.hpp ****     Elem* prev = nullptr, *elem = head;
 104              		.loc 3 79 28 is_stmt 0
 105 0004 03350500 		ld	a0,0(a0)
 106              	.LVL5:
 107              		.loc 3 79 11
 108 0008 13070000 		li	a4,0
 109              	.LVL6:
 110              	.L12:
  80:src/../h/List.hpp ****     while (elem) {
 111              		.loc 3 80 5 is_stmt 1
 112 000c 630C0506 		beqz	a0,.L14
  81:src/../h/List.hpp ****         if (elem->data == t) {
 113              		.loc 3 81 19 is_stmt 0
 114 0010 83370500 		ld	a5,0(a0)
 115              		.loc 3 81 9
 116 0014 6388B700 		beq	a5,a1,.L17
 117              	.LVL7:
  82:src/../h/List.hpp **** 
  83:src/../h/List.hpp ****             // found
  84:src/../h/List.hpp ****             if (prev) {
  85:src/../h/List.hpp ****                 prev->next = elem->next;
  86:src/../h/List.hpp ****                 if (tail == elem) tail = prev;
  87:src/../h/List.hpp ****             }
  88:src/../h/List.hpp ****             else head = elem -> next;
  89:src/../h/List.hpp ****             if (!head) tail = nullptr;
  90:src/../h/List.hpp **** 
  91:src/../h/List.hpp ****             delete elem;
  92:src/../h/List.hpp ****             return;
  93:src/../h/List.hpp **** 
  94:src/../h/List.hpp ****         }
  95:src/../h/List.hpp ****         prev = elem;
 118              		.loc 3 95 9
 119 0018 13070500 		mv	a4,a0
  96:src/../h/List.hpp ****         elem = elem -> next;
 120              		.loc 3 96 9
 121 001c 03358500 		ld	a0,8(a0)
 122              	.LVL8:
  80:src/../h/List.hpp ****         if (elem->data == t) {
 123              		.loc 3 80 5
 124 0020 6FF0DFFE 		j	.L12
 125              	.L17:
  78:src/../h/List.hpp ****     Elem* prev = nullptr, *elem = head;
 126              		.loc 3 78 6
 127 0024 130101FF 		addi	sp,sp,-16
 128              		.cfi_def_cfa_offset 16
 129 0028 23341100 		sd	ra,8(sp)
 130 002c 23308100 		sd	s0,0(sp)
 131              		.cfi_offset 1, -8
 132              		.cfi_offset 8, -16
 133 0030 13040101 		addi	s0,sp,16
 134              		.cfi_def_cfa 8, 0
  84:src/../h/List.hpp ****                 prev->next = elem->next;
 135              		.loc 3 84 13
 136 0034 630E0702 		beqz	a4,.L9
GAS LISTING /tmp/ccHOwAkS.s 			page 8


  85:src/../h/List.hpp ****                 if (tail == elem) tail = prev;
 137              		.loc 3 85 36
 138 0038 83378500 		ld	a5,8(a0)
  85:src/../h/List.hpp ****                 if (tail == elem) tail = prev;
 139              		.loc 3 85 17
 140 003c 2334F700 		sd	a5,8(a4)
  86:src/../h/List.hpp ****             }
 141              		.loc 3 86 21
 142 0040 83B78600 		ld	a5,8(a3)
  86:src/../h/List.hpp ****             }
 143              		.loc 3 86 17
 144 0044 6382A702 		beq	a5,a0,.L18
 145              	.L10:
  89:src/../h/List.hpp **** 
 146              		.loc 3 89 18
 147 0048 83B70600 		ld	a5,0(a3)
  89:src/../h/List.hpp **** 
 148              		.loc 3 89 13
 149 004c 63880702 		beqz	a5,.L19
 150              	.L11:
  91:src/../h/List.hpp ****             return;
 151              		.loc 3 91 13
 152 0050 97000000 		call	_ZdlPv@plt
 152      E7800000 
 153              	.LVL9:
  97:src/../h/List.hpp ****     }
  98:src/../h/List.hpp **** }
 154              		.loc 3 98 1
 155 0058 83308100 		ld	ra,8(sp)
 156              		.cfi_remember_state
 157              		.cfi_restore 1
 158 005c 03340100 		ld	s0,0(sp)
 159              		.cfi_restore 8
 160              		.cfi_def_cfa 2, 16
 161 0060 13010101 		addi	sp,sp,16
 162              		.cfi_def_cfa_offset 0
 163 0064 67800000 		jr	ra
 164              	.LVL10:
 165              	.L18:
 166              		.cfi_restore_state
  86:src/../h/List.hpp ****             }
 167              		.loc 3 86 35 discriminator 1
 168 0068 23B4E600 		sd	a4,8(a3)
 169 006c 6FF0DFFD 		j	.L10
 170              	.L9:
  88:src/../h/List.hpp ****             if (!head) tail = nullptr;
 171              		.loc 3 88 33
 172 0070 83378500 		ld	a5,8(a0)
  88:src/../h/List.hpp ****             if (!head) tail = nullptr;
 173              		.loc 3 88 18
 174 0074 23B0F600 		sd	a5,0(a3)
 175 0078 6FF01FFD 		j	.L10
 176              	.L19:
  89:src/../h/List.hpp **** 
 177              		.loc 3 89 24 discriminator 1
 178 007c 23B40600 		sd	zero,8(a3)
 179 0080 6FF01FFD 		j	.L11
GAS LISTING /tmp/ccHOwAkS.s 			page 9


 180              	.L14:
 181              		.cfi_def_cfa_register 2
 182              		.cfi_restore 1
 183              		.cfi_restore 8
 184 0084 67800000 		ret
 185              		.cfi_endproc
 186              	.LFE40:
 188              		.text
 189              		.align	2
 190              		.globl	_ZN5RISCV16handle_interruptEv
 192              	_ZN5RISCV16handle_interruptEv:
 193              	.LFB36:
  29:src/riscv.cpp **** 
  30:src/riscv.cpp **** void RISCV::handle_interrupt() {
 194              		.loc 1 30 32 is_stmt 1
 195              		.cfi_startproc
 196 005c 130101F9 		addi	sp,sp,-112
 197              		.cfi_def_cfa_offset 112
 198 0060 23341106 		sd	ra,104(sp)
 199 0064 23308106 		sd	s0,96(sp)
 200 0068 233C9104 		sd	s1,88(sp)
 201 006c 23382105 		sd	s2,80(sp)
 202 0070 23343105 		sd	s3,72(sp)
 203 0074 23304105 		sd	s4,64(sp)
 204              		.cfi_offset 1, -8
 205              		.cfi_offset 8, -16
 206              		.cfi_offset 9, -24
 207              		.cfi_offset 18, -32
 208              		.cfi_offset 19, -40
 209              		.cfi_offset 20, -48
 210 0078 13040107 		addi	s0,sp,112
 211              		.cfi_def_cfa 8, 0
  31:src/riscv.cpp **** 
  32:src/riscv.cpp ****     uint64 op, a1, a2, a3, a4;
 212              		.loc 1 32 5
  33:src/riscv.cpp ****     __asm__ volatile("mv %0, a0" : "=r"(op)); // operation code
 213              		.loc 1 33 5
 214              		.loc 1 33 45 is_stmt 0
 215              	#APP
 216              	# 33 "src/riscv.cpp" 1
  34              	    __asm__ volatile("mv %0, a1" : "=r"(a1));
 217              		mv a6, a0
 218              	# 0 "" 2
 219              	.LVL11:
 220              		.loc 1 34 5 is_stmt 1
 221              		.loc 1 34 45 is_stmt 0
 222              	# 34 "src/riscv.cpp" 1
  35              	    __asm__ volatile("mv %0, a2" : "=r"(a2));
 223              		mv a0, a1
 224              	# 0 "" 2
 225              	.LVL12:
 226              		.loc 1 35 5 is_stmt 1
 227              		.loc 1 35 45 is_stmt 0
 228              	# 35 "src/riscv.cpp" 1
  36              	    __asm__ volatile("mv %0, a3" : "=r"(a3));
 229              		mv a1, a2
 230              	# 0 "" 2
GAS LISTING /tmp/ccHOwAkS.s 			page 10


 231              	.LVL13:
 232              		.loc 1 36 5 is_stmt 1
 233              		.loc 1 36 45 is_stmt 0
 234              	# 36 "src/riscv.cpp" 1
  37              	    __asm__ volatile("mv %0, a4" : "=r"(a4));
 235              		mv a2, a3
 236              	# 0 "" 2
 237              	.LVL14:
 238              		.loc 1 37 5 is_stmt 1
 239              		.loc 1 37 45 is_stmt 0
 240              	# 37 "src/riscv.cpp" 1
  38              	
 241              		mv a3, a4
 242              	# 0 "" 2
 243              	.LVL15:
  39:src/riscv.cpp ****     uint64 scause = rd_scause();
 244              		.loc 1 39 5 is_stmt 1
 245              	#NO_APP
 246              	.LBB58:
 247              	.LBB59:
  70:src/../h/riscv.hpp ****     __asm__ volatile ("csrr %0, scause" : "=r"(value));
 248              		.loc 2 70 5
  71:src/../h/riscv.hpp ****     return value;
 249              		.loc 2 71 5
  71:src/../h/riscv.hpp ****     return value;
 250              		.loc 2 71 55 is_stmt 0
 251              	#APP
 252              	# 71 "src/../h/riscv.hpp" 1
 253              		csrr a5, scause
 254              	# 0 "" 2
 255              	#NO_APP
 256 0094 233CF4F8 		sd	a5,-104(s0)
  72:src/../h/riscv.hpp **** }
 257              		.loc 2 72 5 is_stmt 1
  72:src/../h/riscv.hpp **** }
 258              		.loc 2 72 12 is_stmt 0
 259 0098 033784F9 		ld	a4,-104(s0)
 260              	.LVL16:
 261              	.LBE59:
 262              	.LBE58:
  40:src/riscv.cpp **** 
  41:src/riscv.cpp ****     if (scause == SOFTWARE) {
 263              		.loc 1 41 5 is_stmt 1
 264              	.LBB60:
 265 009c 9307F0FF 		li	a5,-1
 266 00a0 9397F703 		slli	a5,a5,63
 267 00a4 93871700 		addi	a5,a5,1
 268 00a8 6300F706 		beq	a4,a5,.L53
 269              	.LBE60:
  42:src/riscv.cpp ****         // software interrupt - timer
  43:src/riscv.cpp **** 
  44:src/riscv.cpp ****         // update running time passed for running
  45:src/riscv.cpp ****         // if time >= running time slice, dispatch()
  46:src/riscv.cpp ****         // reset static time passed
  47:src/riscv.cpp ****         // update sleeping threads or timed wait
  48:src/riscv.cpp **** 
  49:src/riscv.cpp ****         clear_sip(mask_sip_sie::SS);
GAS LISTING /tmp/ccHOwAkS.s 			page 11


  50:src/riscv.cpp **** 
  51:src/riscv.cpp ****         // UPDATE SLEEPING THREADS IF SLEEPING_TIME > 0
  52:src/riscv.cpp **** 
  53:src/riscv.cpp ****         if (Scheduler::hasSleeping()) {
  54:src/riscv.cpp **** 
  55:src/riscv.cpp ****             Scheduler::first_sleepy -> sleeping_time --;
  56:src/riscv.cpp **** 
  57:src/riscv.cpp ****             TCB* tcb = Scheduler::first_sleepy;
  58:src/riscv.cpp ****             while (tcb) {
  59:src/riscv.cpp ****                 // remember first sleepy
  60:src/riscv.cpp ****                 if (tcb -> sleeping_time > 0) break;
  61:src/riscv.cpp **** 
  62:src/riscv.cpp ****                 tcb->current_state = TCB::RUNNABLE;
  63:src/riscv.cpp ****                 Scheduler::put(tcb);
  64:src/riscv.cpp ****                 TCB* next = tcb -> next_sleepy;
  65:src/riscv.cpp ****                 tcb -> next_sleepy = nullptr;
  66:src/riscv.cpp ****                 tcb = next;
  67:src/riscv.cpp ****             }
  68:src/riscv.cpp **** 
  69:src/riscv.cpp ****             Scheduler::first_sleepy = tcb;
  70:src/riscv.cpp ****         }
  71:src/riscv.cpp **** 
  72:src/riscv.cpp ****         // UPDATE TIMED WAITING ON SEMAPHORES
  73:src/riscv.cpp **** 
  74:src/riscv.cpp ****         for (Sem* s = Sem::first; s; s = s->next) {
  75:src/riscv.cpp ****             int count = s->timedBlock;
  76:src/riscv.cpp ****             for (List<TCB>::Elem* e = s->blocked.head ; e && count > 0; e = e->next) {
  77:src/riscv.cpp ****                 TCB* t = e->data;
  78:src/riscv.cpp ****                 if (t->time_on_sem > 0) { // if timed waiting
  79:src/riscv.cpp ****                     count--;
  80:src/riscv.cpp ****                     // time on sem == 0 will return TIMEOUT
  81:src/riscv.cpp ****                     if ( --t->time_on_sem == 0) {
  82:src/riscv.cpp ****                         // time expired
  83:src/riscv.cpp ****                         s->blocked.remove(t);
  84:src/riscv.cpp ****                         t->current_state = TCB::RUNNABLE;
  85:src/riscv.cpp ****                         Scheduler::put(t);
  86:src/riscv.cpp ****                     }
  87:src/riscv.cpp ****                 }
  88:src/riscv.cpp ****             }
  89:src/riscv.cpp ****         }
  90:src/riscv.cpp **** 
  91:src/riscv.cpp ****         // CHECK IF RUNNING THREAD TIME SLICE EXPIRED
  92:src/riscv.cpp **** 
  93:src/riscv.cpp ****         TCB::time_slice_count ++;
  94:src/riscv.cpp ****         if (TCB::time_slice_count >= TCB::running->getTimeSlice())
  95:src/riscv.cpp ****         {
  96:src/riscv.cpp ****             uint64 sepc = rd_sepc();
  97:src/riscv.cpp ****             uint64 sstatus = rd_sstatus();
  98:src/riscv.cpp **** 
  99:src/riscv.cpp ****             TCB::time_slice_count = 0; // new running thread
 100:src/riscv.cpp ****             TCB::dispatch();
 101:src/riscv.cpp **** 
 102:src/riscv.cpp ****             wr_sepc(sepc);
 103:src/riscv.cpp ****             wr_sstatus(sstatus);
 104:src/riscv.cpp **** 
 105:src/riscv.cpp ****             // first time running thread -> context not saved
 106:src/riscv.cpp ****             // next instruction: inside of wrapper function
GAS LISTING /tmp/ccHOwAkS.s 			page 12


 107:src/riscv.cpp ****         }
 108:src/riscv.cpp **** 
 109:src/riscv.cpp ****     } else if (scause == EXTERNAL) {
 270              		.loc 1 109 12
 271              	.LBB120:
 272              	.LBB61:
 273 00ac 9307F0FF 		li	a5,-1
 274 00b0 9397F703 		slli	a5,a5,63
 275 00b4 93879700 		addi	a5,a5,9
 276 00b8 630EF716 		beq	a4,a5,.L54
 277              	.LBE61:
 278              	.LBE120:
 110:src/riscv.cpp ****         // external interrupt - console
 111:src/riscv.cpp ****         //console_handler();
 112:src/riscv.cpp **** 
 113:src/riscv.cpp ****         uint64 sepc = rd_sepc();
 114:src/riscv.cpp ****         uint64 sstatus = rd_sstatus();
 115:src/riscv.cpp **** 
 116:src/riscv.cpp ****         int irq = plic_claim();
 117:src/riscv.cpp ****         if (irq == CONSOLE_IRQ) {
 118:src/riscv.cpp **** 
 119:src/riscv.cpp ****             while (*(char *) CONSOLE_STATUS & CONSOLE_RX_STATUS_BIT && !myConsole::inputBuffer->ful
 120:src/riscv.cpp **** 
 121:src/riscv.cpp ****                 char c = *(char *) CONSOLE_RX_DATA;
 122:src/riscv.cpp ****                 myConsole::input_putc(c);
 123:src/riscv.cpp ****                 // put new char to input buffer.
 124:src/riscv.cpp ****             }
 125:src/riscv.cpp **** 
 126:src/riscv.cpp ****             plic_complete(irq);
 127:src/riscv.cpp ****         }
 128:src/riscv.cpp **** 
 129:src/riscv.cpp ****         wr_sepc(sepc);
 130:src/riscv.cpp ****         wr_sstatus(sstatus);
 131:src/riscv.cpp ****         clear_sip(SE);
 132:src/riscv.cpp **** 
 133:src/riscv.cpp ****     }
 134:src/riscv.cpp **** 
 135:src/riscv.cpp ****      else if (scause == U_ECALL || scause == S_ECALL){
 279              		.loc 1 135 11
 280              	.LBB121:
 281              	.LBB91:
 282              	.LBB62:
 283              		.loc 1 135 33 is_stmt 0
 284 00bc 130787FF 		addi	a4,a4,-8
 285              	.LVL17:
 286              		.loc 1 135 11
 287 00c0 93071000 		li	a5,1
 288 00c4 63EEE72E 		bgtu	a4,a5,.L35
 289              	.LBB63:
 136:src/riscv.cpp ****         // environment call from user / supervisor mode
 137:src/riscv.cpp **** 
 138:src/riscv.cpp ****         uint64 sepc = rd_sepc() + 4;
 290              		.loc 1 138 9 is_stmt 1
 291              	.LBB64:
 292              	.LBB65:
  80:src/../h/riscv.hpp ****     __asm__ volatile ("csrr %0, sepc" : "=r"(value));
 293              		.loc 2 80 5
GAS LISTING /tmp/ccHOwAkS.s 			page 13


  81:src/../h/riscv.hpp ****     return value;
 294              		.loc 2 81 5
  81:src/../h/riscv.hpp ****     return value;
 295              		.loc 2 81 53 is_stmt 0
 296              	#APP
 297              	# 81 "src/../h/riscv.hpp" 1
 298              		csrr a5, sepc
 299              	# 0 "" 2
 300              	#NO_APP
 301 00cc 2334F4FC 		sd	a5,-56(s0)
  82:src/../h/riscv.hpp **** }
 302              		.loc 2 82 5 is_stmt 1
  82:src/../h/riscv.hpp **** }
 303              		.loc 2 82 12 is_stmt 0
 304 00d0 833484FC 		ld	s1,-56(s0)
 305              	.LBE65:
 306              	.LBE64:
 307              		.loc 1 138 35
 308 00d4 93844400 		addi	s1,s1,4
 309              	.LVL18:
 139:src/riscv.cpp ****         uint64 sstatus = rd_sstatus();
 310              		.loc 1 139 9 is_stmt 1
 311              	.LBB66:
 312              	.LBB67:
 120:src/../h/riscv.hpp ****     __asm__ volatile ("csrr %0, sstatus" : "=r"(value));
 313              		.loc 2 120 5
 121:src/../h/riscv.hpp ****     return value;
 314              		.loc 2 121 5
 121:src/../h/riscv.hpp ****     return value;
 315              		.loc 2 121 56 is_stmt 0
 316              	#APP
 317              	# 121 "src/../h/riscv.hpp" 1
 318              		csrr a5, sstatus
 319              	# 0 "" 2
 320              	#NO_APP
 321 00dc 2330F4FC 		sd	a5,-64(s0)
 122:src/../h/riscv.hpp **** }
 322              		.loc 2 122 5 is_stmt 1
 122:src/../h/riscv.hpp **** }
 323              		.loc 2 122 12 is_stmt 0
 324 00e0 033904FC 		ld	s2,-64(s0)
 325              	.LVL19:
 326              	.LBE67:
 327              	.LBE66:
 140:src/riscv.cpp **** 
 141:src/riscv.cpp ****         switch (op) {
 328              		.loc 1 141 9 is_stmt 1
 329 00e4 93072004 		li	a5,66
 330 00e8 63E8071F 		bgtu	a6,a5,.L36
 331 00ec 93172800 		slli	a5,a6,2
 332 00f0 17070000 		lla	a4,.L38
 332      13070700 
 333              	.LVL20:
 334 00f8 B387E700 		add	a5,a5,a4
 335 00fc 83A70700 		lw	a5,0(a5)
 336 0100 B387E700 		add	a5,a5,a4
 337 0104 67800700 		jr	a5
GAS LISTING /tmp/ccHOwAkS.s 			page 14


 338              		.section	.rodata
 339              		.align	2
 340              		.align	2
 341              	.L38:
 342 0000 00000000 		.word	.L36-.L38
 343 0004 00000000 		.word	.L51-.L38
 344 0008 00000000 		.word	.L50-.L38
 345 000c 00000000 		.word	.L36-.L38
 346 0010 00000000 		.word	.L36-.L38
 347 0014 00000000 		.word	.L36-.L38
 348 0018 00000000 		.word	.L36-.L38
 349 001c 00000000 		.word	.L36-.L38
 350 0020 00000000 		.word	.L36-.L38
 351 0024 00000000 		.word	.L36-.L38
 352 0028 00000000 		.word	.L36-.L38
 353 002c 00000000 		.word	.L36-.L38
 354 0030 00000000 		.word	.L36-.L38
 355 0034 00000000 		.word	.L36-.L38
 356 0038 00000000 		.word	.L36-.L38
 357 003c 00000000 		.word	.L36-.L38
 358 0040 00000000 		.word	.L36-.L38
 359 0044 00000000 		.word	.L49-.L38
 360 0048 00000000 		.word	.L48-.L38
 361 004c 00000000 		.word	.L47-.L38
 362 0050 00000000 		.word	.L36-.L38
 363 0054 00000000 		.word	.L36-.L38
 364 0058 00000000 		.word	.L36-.L38
 365 005c 00000000 		.word	.L36-.L38
 366 0060 00000000 		.word	.L36-.L38
 367 0064 00000000 		.word	.L36-.L38
 368 0068 00000000 		.word	.L36-.L38
 369 006c 00000000 		.word	.L36-.L38
 370 0070 00000000 		.word	.L36-.L38
 371 0074 00000000 		.word	.L36-.L38
 372 0078 00000000 		.word	.L36-.L38
 373 007c 00000000 		.word	.L36-.L38
 374 0080 00000000 		.word	.L36-.L38
 375 0084 00000000 		.word	.L46-.L38
 376 0088 00000000 		.word	.L45-.L38
 377 008c 00000000 		.word	.L44-.L38
 378 0090 00000000 		.word	.L43-.L38
 379 0094 00000000 		.word	.L42-.L38
 380 0098 00000000 		.word	.L41-.L38
 381 009c 00000000 		.word	.L36-.L38
 382 00a0 00000000 		.word	.L36-.L38
 383 00a4 00000000 		.word	.L36-.L38
 384 00a8 00000000 		.word	.L36-.L38
 385 00ac 00000000 		.word	.L36-.L38
 386 00b0 00000000 		.word	.L36-.L38
 387 00b4 00000000 		.word	.L36-.L38
 388 00b8 00000000 		.word	.L36-.L38
 389 00bc 00000000 		.word	.L36-.L38
 390 00c0 00000000 		.word	.L36-.L38
 391 00c4 00000000 		.word	.L40-.L38
 392 00c8 00000000 		.word	.L36-.L38
 393 00cc 00000000 		.word	.L36-.L38
 394 00d0 00000000 		.word	.L36-.L38
GAS LISTING /tmp/ccHOwAkS.s 			page 15


 395 00d4 00000000 		.word	.L36-.L38
 396 00d8 00000000 		.word	.L36-.L38
 397 00dc 00000000 		.word	.L36-.L38
 398 00e0 00000000 		.word	.L36-.L38
 399 00e4 00000000 		.word	.L36-.L38
 400 00e8 00000000 		.word	.L36-.L38
 401 00ec 00000000 		.word	.L36-.L38
 402 00f0 00000000 		.word	.L36-.L38
 403 00f4 00000000 		.word	.L36-.L38
 404 00f8 00000000 		.word	.L36-.L38
 405 00fc 00000000 		.word	.L36-.L38
 406 0100 00000000 		.word	.L36-.L38
 407 0104 00000000 		.word	.L39-.L38
 408 0108 00000000 		.word	.L37-.L38
 409              		.text
 410              	.LVL21:
 411              	.L53:
 412              	.LBE63:
 413              	.LBE62:
 414              	.LBE91:
 415              	.LBB92:
  49:src/riscv.cpp **** 
 416              		.loc 1 49 9
 417              	.LBB93:
 418              	.LBB94:
 130:src/../h/riscv.hpp **** }
 419              		.loc 2 130 5
 130:src/../h/riscv.hpp **** }
 420              		.loc 2 130 51 is_stmt 0
 421 0108 93072000 		li	a5,2
 422              	#APP
 423              	# 130 "src/../h/riscv.hpp" 1
 424              		csrc sip, a5
 425              	# 0 "" 2
 426              	.LVL22:
 427              	#NO_APP
 428              	.LBE94:
 429              	.LBE93:
  53:src/riscv.cpp **** 
 430              		.loc 1 53 9 is_stmt 1
 431              	.LBB95:
 432              	.LBB96:
 433              	.LBB97:
 434              		.file 4 "src/../h/Scheduler.hpp"
   1:src/../h/Scheduler.hpp **** 
   2:src/../h/Scheduler.hpp **** #ifndef PROJECT_BASE_SCHEDULER_HPP
   3:src/../h/Scheduler.hpp **** #define PROJECT_BASE_SCHEDULER_HPP
   4:src/../h/Scheduler.hpp **** 
   5:src/../h/Scheduler.hpp **** #include "thread.hpp"
   6:src/../h/Scheduler.hpp **** 
   7:src/../h/Scheduler.hpp **** class Scheduler {
   8:src/../h/Scheduler.hpp **** 
   9:src/../h/Scheduler.hpp ****     friend class RISCV;
  10:src/../h/Scheduler.hpp **** 
  11:src/../h/Scheduler.hpp **** public:
  12:src/../h/Scheduler.hpp ****     static void init_scheduler();
  13:src/../h/Scheduler.hpp **** 
GAS LISTING /tmp/ccHOwAkS.s 			page 16


  14:src/../h/Scheduler.hpp ****     static TCB* get();
  15:src/../h/Scheduler.hpp ****     static void put(TCB*);
  16:src/../h/Scheduler.hpp ****     static TCB* peek();
  17:src/../h/Scheduler.hpp ****     static bool empty();
  18:src/../h/Scheduler.hpp **** 
  19:src/../h/Scheduler.hpp ****     static int time_sleep(TCB*, time_t );
  20:src/../h/Scheduler.hpp **** 
  21:src/../h/Scheduler.hpp ****     void* operator new(size_t);
  22:src/../h/Scheduler.hpp ****     void operator delete(void *);
  23:src/../h/Scheduler.hpp **** 
  24:src/../h/Scheduler.hpp ****     Scheduler(const Scheduler&) = delete;
  25:src/../h/Scheduler.hpp **** 
  26:src/../h/Scheduler.hpp **** private:
  27:src/../h/Scheduler.hpp **** 
  28:src/../h/Scheduler.hpp ****     static bool hasSleeping() {return  first_sleepy != nullptr;}
 435              		.loc 4 28 32
 436              		.loc 4 28 53 is_stmt 0
 437 0110 97070000 		la	a5,_ZN9Scheduler12first_sleepyE
 437      83B70700 
 438 0118 83B40700 		ld	s1,0(a5)
 439              	.LBE97:
 440              	.LBE96:
  53:src/riscv.cpp **** 
 441              		.loc 1 53 9
 442 011c 63840404 		beqz	s1,.L22
 443              	.LBB98:
  55:src/riscv.cpp **** 
 444              		.loc 1 55 13 is_stmt 1
  55:src/riscv.cpp **** 
 445              		.loc 1 55 40 is_stmt 0
 446 0120 83B70402 		ld	a5,32(s1)
  55:src/riscv.cpp **** 
 447              		.loc 1 55 54
 448 0124 9387F7FF 		addi	a5,a5,-1
 449 0128 23B0F402 		sd	a5,32(s1)
  57:src/riscv.cpp ****             while (tcb) {
 450              		.loc 1 57 13 is_stmt 1
 451              	.LVL23:
 452              	.L24:
  58:src/riscv.cpp ****                 // remember first sleepy
 453              		.loc 1 58 13
  58:src/riscv.cpp ****                 // remember first sleepy
 454              		.loc 1 58 20
 455 012c 63860402 		beqz	s1,.L23
 456              	.LBB99:
  60:src/riscv.cpp **** 
 457              		.loc 1 60 17
  60:src/riscv.cpp **** 
 458              		.loc 1 60 28 is_stmt 0
 459 0130 83B70402 		ld	a5,32(s1)
  60:src/riscv.cpp **** 
 460              		.loc 1 60 17
 461 0134 63920702 		bnez	a5,.L23
  62:src/riscv.cpp ****                 Scheduler::put(tcb);
 462              		.loc 1 62 17 is_stmt 1
  62:src/riscv.cpp ****                 Scheduler::put(tcb);
 463              		.loc 1 62 36 is_stmt 0
GAS LISTING /tmp/ccHOwAkS.s 			page 17


 464 0138 23A40406 		sw	zero,104(s1)
  63:src/riscv.cpp ****                 TCB* next = tcb -> next_sleepy;
 465              		.loc 1 63 17 is_stmt 1
  63:src/riscv.cpp ****                 TCB* next = tcb -> next_sleepy;
 466              		.loc 1 63 31 is_stmt 0
 467 013c 13850400 		mv	a0,s1
 468 0140 97000000 		call	_ZN9Scheduler3putEP3TCB@plt
 468      E7800000 
 469              	.LVL24:
  64:src/riscv.cpp ****                 tcb -> next_sleepy = nullptr;
 470              		.loc 1 64 17 is_stmt 1
  64:src/riscv.cpp ****                 tcb -> next_sleepy = nullptr;
 471              		.loc 1 64 22 is_stmt 0
 472 0148 83B70401 		ld	a5,16(s1)
 473              	.LVL25:
  65:src/riscv.cpp ****                 tcb = next;
 474              		.loc 1 65 17 is_stmt 1
  65:src/riscv.cpp ****                 tcb = next;
 475              		.loc 1 65 36 is_stmt 0
 476 014c 23B80400 		sd	zero,16(s1)
  66:src/riscv.cpp ****             }
 477              		.loc 1 66 17 is_stmt 1
 478              	.LVL26:
  66:src/riscv.cpp ****             }
 479              		.loc 1 66 21 is_stmt 0
 480 0150 93840700 		mv	s1,a5
 481              	.LBE99:
  58:src/riscv.cpp ****                 // remember first sleepy
 482              		.loc 1 58 13
 483 0154 6FF09FFD 		j	.L24
 484              	.LVL27:
 485              	.L23:
  69:src/riscv.cpp ****         }
 486              		.loc 1 69 13 is_stmt 1
  69:src/riscv.cpp ****         }
 487              		.loc 1 69 37 is_stmt 0
 488 0158 97070000 		la	a5,_ZN9Scheduler12first_sleepyE
 488      83B70700 
 489 0160 23B09700 		sd	s1,0(a5)
 490              	.LVL28:
 491              	.L22:
 492              	.LBE98:
 493              	.LBE95:
  74:src/riscv.cpp ****             int count = s->timedBlock;
 494              		.loc 1 74 9 is_stmt 1
 495              	.LBB100:
  74:src/riscv.cpp ****             int count = s->timedBlock;
 496              		.loc 1 74 19 is_stmt 0
 497 0164 97070000 		la	a5,_ZN3Sem5firstE
 497      83B70700 
 498 016c 03BA0700 		ld	s4,0(a5)
 499              	.LVL29:
 500 0170 6F004005 		j	.L29
 501              	.LVL30:
 502              	.L27:
 503              	.LBB101:
 504              	.LBB102:
GAS LISTING /tmp/ccHOwAkS.s 			page 18


  76:src/riscv.cpp ****                 TCB* t = e->data;
 505              		.loc 1 76 13 is_stmt 1 discriminator 3
  76:src/riscv.cpp ****                 TCB* t = e->data;
 506              		.loc 1 76 75 is_stmt 0 discriminator 3
 507 0174 83B48400 		ld	s1,8(s1)
 508              	.LVL31:
 509              	.L28:
  76:src/riscv.cpp ****                 TCB* t = e->data;
 510              		.loc 1 76 59 is_stmt 1 discriminator 1
 511 0178 63840404 		beqz	s1,.L26
  76:src/riscv.cpp ****                 TCB* t = e->data;
 512              		.loc 1 76 59 is_stmt 0 discriminator 2
 513 017c 63523005 		blez	s3,.L26
 514              	.LBB103:
  77:src/riscv.cpp ****                 if (t->time_on_sem > 0) { // if timed waiting
 515              		.loc 1 77 17 is_stmt 1
  77:src/riscv.cpp ****                 if (t->time_on_sem > 0) { // if timed waiting
 516              		.loc 1 77 22 is_stmt 0
 517 0180 03B90400 		ld	s2,0(s1)
 518              	.LVL32:
  78:src/riscv.cpp ****                     count--;
 519              		.loc 1 78 17 is_stmt 1
  78:src/riscv.cpp ****                     count--;
 520              		.loc 1 78 24 is_stmt 0
 521 0184 83378901 		ld	a5,24(s2)
  78:src/riscv.cpp ****                     count--;
 522              		.loc 1 78 17
 523 0188 E38607FE 		beqz	a5,.L27
  79:src/riscv.cpp ****                     // time on sem == 0 will return TIMEOUT
 524              		.loc 1 79 21 is_stmt 1
  79:src/riscv.cpp ****                     // time on sem == 0 will return TIMEOUT
 525              		.loc 1 79 26 is_stmt 0
 526 018c 9B89F9FF 		addiw	s3,s3,-1
 527              	.LVL33:
  81:src/riscv.cpp ****                         // time expired
 528              		.loc 1 81 21 is_stmt 1
  81:src/riscv.cpp ****                         // time expired
 529              		.loc 1 81 26 is_stmt 0
 530 0190 9387F7FF 		addi	a5,a5,-1
  81:src/riscv.cpp ****                         // time expired
 531              		.loc 1 81 43
 532 0194 233CF900 		sd	a5,24(s2)
  81:src/riscv.cpp ****                         // time expired
 533              		.loc 1 81 21
 534 0198 E39E07FC 		bnez	a5,.L27
  83:src/riscv.cpp ****                         t->current_state = TCB::RUNNABLE;
 535              		.loc 1 83 25 is_stmt 1
  83:src/riscv.cpp ****                         t->current_state = TCB::RUNNABLE;
 536              		.loc 1 83 42 is_stmt 0
 537 019c 93050900 		mv	a1,s2
 538 01a0 13050A01 		addi	a0,s4,16
 539 01a4 97000000 		call	_ZN4ListI3TCBE6removeEPS0_
 539      E7800000 
 540              	.LVL34:
  84:src/riscv.cpp ****                         Scheduler::put(t);
 541              		.loc 1 84 25 is_stmt 1
  84:src/riscv.cpp ****                         Scheduler::put(t);
GAS LISTING /tmp/ccHOwAkS.s 			page 19


 542              		.loc 1 84 42 is_stmt 0
 543 01ac 23240906 		sw	zero,104(s2)
  85:src/riscv.cpp ****                     }
 544              		.loc 1 85 25 is_stmt 1
  85:src/riscv.cpp ****                     }
 545              		.loc 1 85 39 is_stmt 0
 546 01b0 13050900 		mv	a0,s2
 547 01b4 97000000 		call	_ZN9Scheduler3putEP3TCB@plt
 547      E7800000 
 548              	.LVL35:
 549 01bc 6FF09FFB 		j	.L27
 550              	.LVL36:
 551              	.L26:
 552              	.LBE103:
 553              	.LBE102:
 554              	.LBE101:
  74:src/riscv.cpp ****             int count = s->timedBlock;
 555              		.loc 1 74 9 is_stmt 1 discriminator 2
  74:src/riscv.cpp ****             int count = s->timedBlock;
 556              		.loc 1 74 40 is_stmt 0 discriminator 2
 557 01c0 033A8A00 		ld	s4,8(s4)
 558              	.LVL37:
 559              	.L29:
  74:src/riscv.cpp ****             int count = s->timedBlock;
 560              		.loc 1 74 35 is_stmt 1 discriminator 1
 561 01c4 63080A00 		beqz	s4,.L25
 562              	.LBB105:
  75:src/riscv.cpp ****             for (List<TCB>::Elem* e = s->blocked.head ; e && count > 0; e = e->next) {
 563              		.loc 1 75 13
  75:src/riscv.cpp ****             for (List<TCB>::Elem* e = s->blocked.head ; e && count > 0; e = e->next) {
 564              		.loc 1 75 17 is_stmt 0
 565 01c8 83298A02 		lw	s3,40(s4)
 566              	.LVL38:
  76:src/riscv.cpp ****                 TCB* t = e->data;
 567              		.loc 1 76 13 is_stmt 1
 568              	.LBB104:
  76:src/riscv.cpp ****                 TCB* t = e->data;
 569              		.loc 1 76 35 is_stmt 0
 570 01cc 83340A01 		ld	s1,16(s4)
 571              	.LVL39:
 572 01d0 6FF09FFA 		j	.L28
 573              	.LVL40:
 574              	.L25:
 575              	.LBE104:
 576              	.LBE105:
 577              	.LBE100:
  93:src/riscv.cpp ****         if (TCB::time_slice_count >= TCB::running->getTimeSlice())
 578              		.loc 1 93 9 is_stmt 1
  93:src/riscv.cpp ****         if (TCB::time_slice_count >= TCB::running->getTimeSlice())
 579              		.loc 1 93 31 is_stmt 0
 580 01d4 17070000 		la	a4,_ZN3TCB16time_slice_countE
 580      03370700 
 581 01dc 83370700 		ld	a5,0(a4)
 582 01e0 93871700 		addi	a5,a5,1
 583 01e4 2330F700 		sd	a5,0(a4)
  94:src/riscv.cpp ****         {
 584              		.loc 1 94 9 is_stmt 1
GAS LISTING /tmp/ccHOwAkS.s 			page 20


 585              	.LBB106:
  94:src/riscv.cpp ****         {
 586              		.loc 1 94 64 is_stmt 0
 587 01e8 17070000 		la	a4,_ZN3TCB7runningE
 587      03370700 
 588 01f0 03370700 		ld	a4,0(a4)
 589              	.LVL41:
 590              	.LBB107:
 591              	.LBB108:
 592              		.file 5 "src/../h/thread.hpp"
   1:src/../h/thread.hpp **** //
   2:src/../h/thread.hpp **** // Created by os on 4/9/24.
   3:src/../h/thread.hpp **** //
   4:src/../h/thread.hpp **** 
   5:src/../h/thread.hpp **** #ifndef PROJECT_BASE_THREAD_HPP
   6:src/../h/thread.hpp **** #define PROJECT_BASE_THREAD_HPP
   7:src/../h/thread.hpp **** 
   8:src/../h/thread.hpp **** #include "../lib/hw.h"
   9:src/../h/thread.hpp **** #include "../h/Memoryallocator.hpp"
  10:src/../h/thread.hpp **** #include "../h/riscv.hpp"
  11:src/../h/thread.hpp **** #include "../h/syscall_c.hpp"
  12:src/../h/thread.hpp **** 
  13:src/../h/thread.hpp **** //extern void thread_dispatch();
  14:src/../h/thread.hpp **** 
  15:src/../h/thread.hpp **** using routine_ptr = void(*)(void *);
  16:src/../h/thread.hpp **** 
  17:src/../h/thread.hpp **** // _thread je wrapper ove klase
  18:src/../h/thread.hpp **** class TCB final {
  19:src/../h/thread.hpp **** 
  20:src/../h/thread.hpp ****     friend class RISCV;
  21:src/../h/thread.hpp ****     friend class Sem;
  22:src/../h/thread.hpp ****     friend class Scheduler;
  23:src/../h/thread.hpp **** 
  24:src/../h/thread.hpp **** public:
  25:src/../h/thread.hpp **** 
  26:src/../h/thread.hpp ****     static TCB* running; // current thread
  27:src/../h/thread.hpp **** 
  28:src/../h/thread.hpp ****     enum state {
  29:src/../h/thread.hpp ****         RUNNABLE,
  30:src/../h/thread.hpp ****         SLEEPING,
  31:src/../h/thread.hpp ****         CREATED,
  32:src/../h/thread.hpp ****         FINISHED,
  33:src/../h/thread.hpp ****         BLOCKED
  34:src/../h/thread.hpp ****     };
  35:src/../h/thread.hpp ****     struct Context {
  36:src/../h/thread.hpp ****         // nadogradi kasnije
  37:src/../h/thread.hpp ****         uint64 pc;
  38:src/../h/thread.hpp ****         uint64 sp;
  39:src/../h/thread.hpp ****         uint64 sstatus;
  40:src/../h/thread.hpp ****         uint64 sepc;
  41:src/../h/thread.hpp ****     };
  42:src/../h/thread.hpp **** 
  43:src/../h/thread.hpp ****     static int _threadCreate(TCB** handle, routine_ptr routine, void* args, void* stack_space); // 
  44:src/../h/thread.hpp **** 
  45:src/../h/thread.hpp ****     static void yield(TCB*, TCB*);
  46:src/../h/thread.hpp **** 
  47:src/../h/thread.hpp ****     static void dispatch();
GAS LISTING /tmp/ccHOwAkS.s 			page 21


  48:src/../h/thread.hpp **** 
  49:src/../h/thread.hpp ****     state getState() const {return current_state;}
  50:src/../h/thread.hpp ****     time_t getTimeSlice() const {return time_slice;}
 593              		.loc 5 50 34 is_stmt 1
 594              		.loc 5 50 41 is_stmt 0
 595 01f4 03378702 		ld	a4,40(a4)
 596              	.LVL42:
 597              	.LBE108:
 598              	.LBE107:
  94:src/riscv.cpp ****         {
 599              		.loc 1 94 9
 600 01f8 63E4E70E 		bltu	a5,a4,.L20
 601              	.LBB109:
  96:src/riscv.cpp ****             uint64 sstatus = rd_sstatus();
 602              		.loc 1 96 13 is_stmt 1
 603              	.LBB110:
 604              	.LBB111:
  80:src/../h/riscv.hpp ****     __asm__ volatile ("csrr %0, sepc" : "=r"(value));
 605              		.loc 2 80 5
  81:src/../h/riscv.hpp ****     return value;
 606              		.loc 2 81 5
  81:src/../h/riscv.hpp ****     return value;
 607              		.loc 2 81 53 is_stmt 0
 608              	#APP
 609              	# 81 "src/../h/riscv.hpp" 1
 610              		csrr a5, sepc
 611              	# 0 "" 2
 612              	#NO_APP
 613 0200 2334F4FA 		sd	a5,-88(s0)
  82:src/../h/riscv.hpp **** }
 614              		.loc 2 82 5 is_stmt 1
  82:src/../h/riscv.hpp **** }
 615              		.loc 2 82 12 is_stmt 0
 616 0204 033984FA 		ld	s2,-88(s0)
 617              	.LVL43:
 618              	.LBE111:
 619              	.LBE110:
  97:src/riscv.cpp **** 
 620              		.loc 1 97 13 is_stmt 1
 621              	.LBB112:
 622              	.LBB113:
 120:src/../h/riscv.hpp ****     __asm__ volatile ("csrr %0, sstatus" : "=r"(value));
 623              		.loc 2 120 5
 121:src/../h/riscv.hpp ****     return value;
 624              		.loc 2 121 5
 121:src/../h/riscv.hpp ****     return value;
 625              		.loc 2 121 56 is_stmt 0
 626              	#APP
 627              	# 121 "src/../h/riscv.hpp" 1
 628              		csrr a5, sstatus
 629              	# 0 "" 2
 630              	#NO_APP
 631 020c 2330F4FA 		sd	a5,-96(s0)
 122:src/../h/riscv.hpp **** }
 632              		.loc 2 122 5 is_stmt 1
 122:src/../h/riscv.hpp **** }
 633              		.loc 2 122 12 is_stmt 0
GAS LISTING /tmp/ccHOwAkS.s 			page 22


 634 0210 833404FA 		ld	s1,-96(s0)
 635              	.LVL44:
 636              	.LBE113:
 637              	.LBE112:
  99:src/riscv.cpp ****             TCB::dispatch();
 638              		.loc 1 99 13 is_stmt 1
  99:src/riscv.cpp ****             TCB::dispatch();
 639              		.loc 1 99 35 is_stmt 0
 640 0214 97070000 		la	a5,_ZN3TCB16time_slice_countE
 640      83B70700 
 641 021c 23B00700 		sd	zero,0(a5)
 100:src/riscv.cpp **** 
 642              		.loc 1 100 13 is_stmt 1
 100:src/riscv.cpp **** 
 643              		.loc 1 100 26 is_stmt 0
 644 0220 97000000 		call	_ZN3TCB8dispatchEv@plt
 644      E7800000 
 645              	.LVL45:
 102:src/riscv.cpp ****             wr_sstatus(sstatus);
 646              		.loc 1 102 13 is_stmt 1
 647              	.LBB114:
 648              	.LBB115:
  86:src/../h/riscv.hpp **** }
 649              		.loc 2 86 5
  86:src/../h/riscv.hpp **** }
 650              		.loc 2 86 54 is_stmt 0
 651              	#APP
 652              	# 86 "src/../h/riscv.hpp" 1
 653              		csrw sepc, s2
 654              	# 0 "" 2
 655              	.LVL46:
 656              	#NO_APP
 657              	.LBE115:
 658              	.LBE114:
 103:src/riscv.cpp **** 
 659              		.loc 1 103 13 is_stmt 1
 660              	.LBB116:
 661              	.LBB117:
 126:src/../h/riscv.hpp **** }
 662              		.loc 2 126 5
 126:src/../h/riscv.hpp **** }
 663              		.loc 2 126 57 is_stmt 0
 664              	#APP
 665              	# 126 "src/../h/riscv.hpp" 1
 127:src/../h/riscv.hpp **** 
 666              		csrw sstatus, s1
 667              	# 0 "" 2
 668              		.loc 2 127 1
 669              	#NO_APP
 670 0230 6F00000B 		j	.L20
 671              	.LVL47:
 672              	.L54:
 673              	.LBE117:
 674              	.LBE116:
 675              	.LBE109:
 676              	.LBE106:
 677              	.LBE92:
GAS LISTING /tmp/ccHOwAkS.s 			page 23


 678              	.LBB118:
 679              	.LBB74:
 113:src/riscv.cpp ****         uint64 sstatus = rd_sstatus();
 680              		.loc 1 113 9 is_stmt 1
 681              	.LBB75:
 682              	.LBB76:
  80:src/../h/riscv.hpp ****     __asm__ volatile ("csrr %0, sepc" : "=r"(value));
 683              		.loc 2 80 5
  81:src/../h/riscv.hpp ****     return value;
 684              		.loc 2 81 5
  81:src/../h/riscv.hpp ****     return value;
 685              		.loc 2 81 53 is_stmt 0
 686              	#APP
 687              	# 81 "src/../h/riscv.hpp" 1
 688              		csrr a5, sepc
 689              	# 0 "" 2
 690              	#NO_APP
 691 0238 233CF4FA 		sd	a5,-72(s0)
  82:src/../h/riscv.hpp **** }
 692              		.loc 2 82 5 is_stmt 1
  82:src/../h/riscv.hpp **** }
 693              		.loc 2 82 12 is_stmt 0
 694 023c 833984FB 		ld	s3,-72(s0)
 695              	.LVL48:
 696              	.LBE76:
 697              	.LBE75:
 114:src/riscv.cpp **** 
 698              		.loc 1 114 9 is_stmt 1
 699              	.LBB77:
 700              	.LBB78:
 120:src/../h/riscv.hpp ****     __asm__ volatile ("csrr %0, sstatus" : "=r"(value));
 701              		.loc 2 120 5
 121:src/../h/riscv.hpp ****     return value;
 702              		.loc 2 121 5
 121:src/../h/riscv.hpp ****     return value;
 703              		.loc 2 121 56 is_stmt 0
 704              	#APP
 705              	# 121 "src/../h/riscv.hpp" 1
 706              		csrr a5, sstatus
 707              	# 0 "" 2
 708              	#NO_APP
 709 0244 2338F4FA 		sd	a5,-80(s0)
 122:src/../h/riscv.hpp **** }
 710              		.loc 2 122 5 is_stmt 1
 122:src/../h/riscv.hpp **** }
 711              		.loc 2 122 12 is_stmt 0
 712 0248 033904FB 		ld	s2,-80(s0)
 713              	.LVL49:
 714              	.LBE78:
 715              	.LBE77:
 116:src/riscv.cpp ****         if (irq == CONSOLE_IRQ) {
 716              		.loc 1 116 9 is_stmt 1
 116:src/riscv.cpp ****         if (irq == CONSOLE_IRQ) {
 717              		.loc 1 116 29 is_stmt 0
 718 024c 97000000 		call	plic_claim@plt
 718      E7800000 
 719              	.LVL50:
GAS LISTING /tmp/ccHOwAkS.s 			page 24


 720 0254 93040500 		mv	s1,a0
 721              	.LVL51:
 117:src/riscv.cpp **** 
 722              		.loc 1 117 9 is_stmt 1
 723              	.LBB79:
 724 0258 9307A000 		li	a5,10
 725 025c 630CF500 		beq	a0,a5,.L34
 726              	.LVL52:
 727              	.L32:
 728              	.LBE79:
 129:src/riscv.cpp ****         wr_sstatus(sstatus);
 729              		.loc 1 129 9
 730              	.LBB82:
 731              	.LBB83:
  86:src/../h/riscv.hpp **** }
 732              		.loc 2 86 5
  86:src/../h/riscv.hpp **** }
 733              		.loc 2 86 54 is_stmt 0
 734              	#APP
 735              	# 86 "src/../h/riscv.hpp" 1
 736              		csrw sepc, s3
 737              	# 0 "" 2
 738              	.LVL53:
 739              	#NO_APP
 740              	.LBE83:
 741              	.LBE82:
 130:src/riscv.cpp ****         clear_sip(SE);
 742              		.loc 1 130 9 is_stmt 1
 743              	.LBB84:
 744              	.LBB85:
 126:src/../h/riscv.hpp **** }
 745              		.loc 2 126 5
 126:src/../h/riscv.hpp **** }
 746              		.loc 2 126 57 is_stmt 0
 747              	#APP
 748              	# 126 "src/../h/riscv.hpp" 1
 749              		csrw sstatus, s2
 750              	# 0 "" 2
 751              	.LVL54:
 752              	#NO_APP
 753              	.LBE85:
 754              	.LBE84:
 131:src/riscv.cpp **** 
 755              		.loc 1 131 9 is_stmt 1
 756              	.LBB86:
 757              	.LBB87:
 130:src/../h/riscv.hpp **** }
 758              		.loc 2 130 5
 130:src/../h/riscv.hpp **** }
 759              		.loc 2 130 51 is_stmt 0
 760 0268 93070020 		li	a5,512
 761              	#APP
 762              	# 130 "src/../h/riscv.hpp" 1
 131:src/../h/riscv.hpp **** 
 763              		csrc sip, a5
 764              	# 0 "" 2
 765              		.loc 2 131 1
GAS LISTING /tmp/ccHOwAkS.s 			page 25


 766              	#NO_APP
 767 0270 6F000007 		j	.L20
 768              	.LVL55:
 769              	.L34:
 770              	.LBE87:
 771              	.LBE86:
 772              	.LBB88:
 773              	.LBB80:
 119:src/riscv.cpp **** 
 774              		.loc 1 119 13 is_stmt 1
 119:src/riscv.cpp **** 
 775              		.loc 1 119 69
 119:src/riscv.cpp **** 
 776              		.loc 1 119 20 is_stmt 0
 777 0274 97070000 		la	a5,CONSOLE_STATUS
 777      83B70700 
 778 027c 83B70700 		ld	a5,0(a5)
 779 0280 83C70700 		lbu	a5,0(a5)
 119:src/riscv.cpp **** 
 780              		.loc 1 119 69
 781 0284 93F71700 		andi	a5,a5,1
 782 0288 638C0702 		beqz	a5,.L33
 119:src/riscv.cpp **** 
 783              		.loc 1 119 101 discriminator 1
 784 028c 97070000 		la	a5,_ZN9myConsole11inputBufferE
 784      83B70700 
 785 0294 03B50700 		ld	a0,0(a5)
 786 0298 97000000 		call	_ZNK13BoundedBuffer4fullEv@plt
 786      E7800000 
 787              	.LVL56:
 119:src/riscv.cpp **** 
 788              		.loc 1 119 69 discriminator 1
 789 02a0 63100502 		bnez	a0,.L33
 790              	.LBB81:
 121:src/riscv.cpp ****                 myConsole::input_putc(c);
 791              		.loc 1 121 17 is_stmt 1
 121:src/riscv.cpp ****                 myConsole::input_putc(c);
 792              		.loc 1 121 26 is_stmt 0
 793 02a4 97070000 		la	a5,CONSOLE_RX_DATA
 793      83B70700 
 794 02ac 83B70700 		ld	a5,0(a5)
 795              	.LVL57:
 122:src/riscv.cpp ****                 // put new char to input buffer.
 796              		.loc 1 122 17 is_stmt 1
 122:src/riscv.cpp ****                 // put new char to input buffer.
 797              		.loc 1 122 38 is_stmt 0
 798 02b0 03C50700 		lbu	a0,0(a5)
 799 02b4 97000000 		call	_ZN9myConsole10input_putcEc@plt
 799      E7800000 
 800              	.LVL58:
 801              	.LBE81:
 119:src/riscv.cpp **** 
 802              		.loc 1 119 13
 803 02bc 6FF09FFB 		j	.L34
 804              	.L33:
 126:src/riscv.cpp ****         }
 805              		.loc 1 126 13 is_stmt 1 discriminator 4
GAS LISTING /tmp/ccHOwAkS.s 			page 26


 126:src/riscv.cpp ****         }
 806              		.loc 1 126 26 is_stmt 0 discriminator 4
 807 02c0 13850400 		mv	a0,s1
 808 02c4 97000000 		call	plic_complete@plt
 808      E7800000 
 809              	.LVL59:
 810              	.LBE80:
 811 02cc 6FF05FF9 		j	.L32
 812              	.LVL60:
 813              	.L51:
 814              	.LBE88:
 815              	.LBE74:
 816              	.LBB89:
 817              	.LBB72:
 142:src/riscv.cpp ****             case MEM_ALLOC:
 818              		.loc 1 142 13 is_stmt 1
 143:src/riscv.cpp ****                 MemoryAllocator::mem_alloc((size_t)a1);
 819              		.loc 1 143 17
 820              		.loc 1 143 43 is_stmt 0
 821 02d0 97000000 		call	_ZN15MemoryAllocator9mem_allocEm@plt
 821      E7800000 
 822              	.LVL61:
 144:src/riscv.cpp ****                 break;
 823              		.loc 1 144 17 is_stmt 1
 824              	.L36:
 145:src/riscv.cpp ****             case MEM_FREE:
 146:src/riscv.cpp ****                 MemoryAllocator::mem_free((void *)a1);
 147:src/riscv.cpp ****                 break;
 148:src/riscv.cpp ****             case THREAD_CREATE:
 149:src/riscv.cpp ****                 TCB::_threadCreate((TCB**)a1, (routine_ptr)a2, (void *)a3, (void *)a4);
 150:src/riscv.cpp ****                 break;
 151:src/riscv.cpp ****             case THREAD_EXIT:
 152:src/riscv.cpp ****                 TCB::_threadExit();
 153:src/riscv.cpp ****                 break;
 154:src/riscv.cpp ****             case THREAD_DISPATCH:
 155:src/riscv.cpp ****                 TCB::time_slice_count = 0;
 156:src/riscv.cpp ****                 TCB::dispatch();
 157:src/riscv.cpp ****                 break;
 158:src/riscv.cpp ****             case SEM_OPEN:
 159:src/riscv.cpp ****                 Sem::open((sem_t*)a1, (unsigned int)a2);
 160:src/riscv.cpp ****                 break;
 161:src/riscv.cpp ****             case SEM_CLOSE:
 162:src/riscv.cpp ****                 Sem::s_close((sem_t)a1); // a1 == handle
 163:src/riscv.cpp ****                 break;
 164:src/riscv.cpp ****             case SEM_WAIT:
 165:src/riscv.cpp ****                 Sem::wait(((sem_t)a1)); // a1 <=> handle
 166:src/riscv.cpp ****                 break;
 167:src/riscv.cpp ****             case SEM_SIGNAL:
 168:src/riscv.cpp ****                 Sem::signal((sem_t)a1); // a1 <=> handle
 169:src/riscv.cpp ****                 break;
 170:src/riscv.cpp ****             case SEM_TIMEDWAIT:
 171:src/riscv.cpp ****                 Sem::timedwait((sem_t)a1,(time_t)a2);
 172:src/riscv.cpp ****                 break;
 173:src/riscv.cpp ****             case SEM_TRYWAIT:
 174:src/riscv.cpp ****                 Sem::trywait((sem_t)a1);
 175:src/riscv.cpp ****                 break;
 176:src/riscv.cpp ****             case TIME_SLEEP:
GAS LISTING /tmp/ccHOwAkS.s 			page 27


 177:src/riscv.cpp ****                 Scheduler::time_sleep((thread_t)TCB::running, (time_t)a1);
 178:src/riscv.cpp ****                 break;
 179:src/riscv.cpp ****             case GETC:
 180:src/riscv.cpp ****                 myConsole::input_getc();
 181:src/riscv.cpp ****                 break;
 182:src/riscv.cpp ****             case PUTC:
 183:src/riscv.cpp ****                 myConsole::output_putc((char) a1);
 184:src/riscv.cpp ****                 break;
 185:src/riscv.cpp ****         }
 186:src/riscv.cpp **** 
 187:src/riscv.cpp ****         wr_sepc(sepc);
 825              		.loc 1 187 9
 826              	.LBB68:
 827              	.LBB69:
  86:src/../h/riscv.hpp **** }
 828              		.loc 2 86 5
  86:src/../h/riscv.hpp **** }
 829              		.loc 2 86 54 is_stmt 0
 830              	#APP
 831              	# 86 "src/../h/riscv.hpp" 1
 832              		csrw sepc, s1
 833              	# 0 "" 2
 834              	.LVL62:
 835              	#NO_APP
 836              	.LBE69:
 837              	.LBE68:
 188:src/riscv.cpp ****         wr_sstatus(sstatus);
 838              		.loc 1 188 9 is_stmt 1
 839              	.LBB70:
 840              	.LBB71:
 126:src/../h/riscv.hpp **** }
 841              		.loc 2 126 5
 126:src/../h/riscv.hpp **** }
 842              		.loc 2 126 57 is_stmt 0
 843              	#APP
 844              	# 126 "src/../h/riscv.hpp" 1
 845              		csrw sstatus, s2
 846              	# 0 "" 2
 847              	.LVL63:
 848              	#NO_APP
 849              	.L20:
 850              	.LBE71:
 851              	.LBE70:
 852              	.LBE72:
 853              	.LBE89:
 854              	.LBE118:
 855              	.LBE121:
 189:src/riscv.cpp **** 
 190:src/riscv.cpp ****     } else {
 191:src/riscv.cpp ****         // INVALID INTERRUPT CODE
 192:src/riscv.cpp ****         printInteger(123456789);
 193:src/riscv.cpp ****     }
 194:src/riscv.cpp **** }
 856              		.loc 1 194 1
 857 02e0 83308106 		ld	ra,104(sp)
 858              		.cfi_remember_state
 859              		.cfi_restore 1
GAS LISTING /tmp/ccHOwAkS.s 			page 28


 860 02e4 03340106 		ld	s0,96(sp)
 861              		.cfi_restore 8
 862              		.cfi_def_cfa 2, 112
 863 02e8 83348105 		ld	s1,88(sp)
 864              		.cfi_restore 9
 865 02ec 03390105 		ld	s2,80(sp)
 866              		.cfi_restore 18
 867 02f0 83398104 		ld	s3,72(sp)
 868              		.cfi_restore 19
 869 02f4 033A0104 		ld	s4,64(sp)
 870              		.cfi_restore 20
 871 02f8 13010107 		addi	sp,sp,112
 872              		.cfi_def_cfa_offset 0
 873 02fc 67800000 		jr	ra
 874              	.LVL64:
 875              	.L50:
 876              		.cfi_restore_state
 877              	.LBB122:
 878              	.LBB119:
 879              	.LBB90:
 880              	.LBB73:
 145:src/riscv.cpp ****                 MemoryAllocator::mem_free((void *)a1);
 881              		.loc 1 145 13 is_stmt 1
 146:src/riscv.cpp ****                 break;
 882              		.loc 1 146 17
 146:src/riscv.cpp ****                 break;
 883              		.loc 1 146 42 is_stmt 0
 884 0300 97000000 		call	_ZN15MemoryAllocator8mem_freeEPv@plt
 884      E7800000 
 885              	.LVL65:
 147:src/riscv.cpp ****             case THREAD_CREATE:
 886              		.loc 1 147 17 is_stmt 1
 887 0308 6FF01FFD 		j	.L36
 888              	.LVL66:
 889              	.L49:
 148:src/riscv.cpp ****                 TCB::_threadCreate((TCB**)a1, (routine_ptr)a2, (void *)a3, (void *)a4);
 890              		.loc 1 148 13
 149:src/riscv.cpp ****                 break;
 891              		.loc 1 149 17
 149:src/riscv.cpp ****                 break;
 892              		.loc 1 149 35 is_stmt 0
 893 030c 97000000 		call	_ZN3TCB13_threadCreateEPPS_PFvPvES2_S2_@plt
 893      E7800000 
 894              	.LVL67:
 150:src/riscv.cpp ****             case THREAD_EXIT:
 895              		.loc 1 150 17 is_stmt 1
 896 0314 6FF05FFC 		j	.L36
 897              	.LVL68:
 898              	.L48:
 151:src/riscv.cpp ****                 TCB::_threadExit();
 899              		.loc 1 151 13
 152:src/riscv.cpp ****                 break;
 900              		.loc 1 152 17
 152:src/riscv.cpp ****                 break;
 901              		.loc 1 152 33 is_stmt 0
 902 0318 97000000 		call	_ZN3TCB11_threadExitEv@plt
 902      E7800000 
GAS LISTING /tmp/ccHOwAkS.s 			page 29


 903              	.LVL69:
 153:src/riscv.cpp ****             case THREAD_DISPATCH:
 904              		.loc 1 153 17 is_stmt 1
 905 0320 6FF09FFB 		j	.L36
 906              	.LVL70:
 907              	.L47:
 154:src/riscv.cpp ****                 TCB::time_slice_count = 0;
 908              		.loc 1 154 13
 155:src/riscv.cpp ****                 TCB::dispatch();
 909              		.loc 1 155 17
 155:src/riscv.cpp ****                 TCB::dispatch();
 910              		.loc 1 155 39 is_stmt 0
 911 0324 97070000 		la	a5,_ZN3TCB16time_slice_countE
 911      83B70700 
 912 032c 23B00700 		sd	zero,0(a5)
 156:src/riscv.cpp ****                 break;
 913              		.loc 1 156 17 is_stmt 1
 156:src/riscv.cpp ****                 break;
 914              		.loc 1 156 30 is_stmt 0
 915 0330 97000000 		call	_ZN3TCB8dispatchEv@plt
 915      E7800000 
 916              	.LVL71:
 157:src/riscv.cpp ****             case SEM_OPEN:
 917              		.loc 1 157 17 is_stmt 1
 918 0338 6FF01FFA 		j	.L36
 919              	.LVL72:
 920              	.L46:
 158:src/riscv.cpp ****                 Sem::open((sem_t*)a1, (unsigned int)a2);
 921              		.loc 1 158 13
 159:src/riscv.cpp ****                 break;
 922              		.loc 1 159 17
 159:src/riscv.cpp ****                 break;
 923              		.loc 1 159 26 is_stmt 0
 924 033c 9B850500 		sext.w	a1,a1
 925              	.LVL73:
 926 0340 97000000 		call	_ZN3Sem4openEPPS_j@plt
 926      E7800000 
 927              	.LVL74:
 160:src/riscv.cpp ****             case SEM_CLOSE:
 928              		.loc 1 160 17 is_stmt 1
 929 0348 6FF01FF9 		j	.L36
 930              	.LVL75:
 931              	.L45:
 161:src/riscv.cpp ****                 Sem::s_close((sem_t)a1); // a1 == handle
 932              		.loc 1 161 13
 162:src/riscv.cpp ****                 break;
 933              		.loc 1 162 17
 162:src/riscv.cpp ****                 break;
 934              		.loc 1 162 29 is_stmt 0
 935 034c 97000000 		call	_ZN3Sem7s_closeEPS_@plt
 935      E7800000 
 936              	.LVL76:
 163:src/riscv.cpp ****             case SEM_WAIT:
 937              		.loc 1 163 17 is_stmt 1
 938 0354 6FF05FF8 		j	.L36
 939              	.LVL77:
 940              	.L44:
GAS LISTING /tmp/ccHOwAkS.s 			page 30


 164:src/riscv.cpp ****                 Sem::wait(((sem_t)a1)); // a1 <=> handle
 941              		.loc 1 164 13
 165:src/riscv.cpp ****                 break;
 942              		.loc 1 165 17
 165:src/riscv.cpp ****                 break;
 943              		.loc 1 165 26 is_stmt 0
 944 0358 97000000 		call	_ZN3Sem4waitEPS_@plt
 944      E7800000 
 945              	.LVL78:
 166:src/riscv.cpp ****             case SEM_SIGNAL:
 946              		.loc 1 166 17 is_stmt 1
 947 0360 6FF09FF7 		j	.L36
 948              	.LVL79:
 949              	.L43:
 167:src/riscv.cpp ****                 Sem::signal((sem_t)a1); // a1 <=> handle
 950              		.loc 1 167 13
 168:src/riscv.cpp ****                 break;
 951              		.loc 1 168 17
 168:src/riscv.cpp ****                 break;
 952              		.loc 1 168 28 is_stmt 0
 953 0364 97000000 		call	_ZN3Sem6signalEPS_@plt
 953      E7800000 
 954              	.LVL80:
 169:src/riscv.cpp ****             case SEM_TIMEDWAIT:
 955              		.loc 1 169 17 is_stmt 1
 956 036c 6FF0DFF6 		j	.L36
 957              	.LVL81:
 958              	.L42:
 170:src/riscv.cpp ****                 Sem::timedwait((sem_t)a1,(time_t)a2);
 959              		.loc 1 170 13
 171:src/riscv.cpp ****                 break;
 960              		.loc 1 171 17
 171:src/riscv.cpp ****                 break;
 961              		.loc 1 171 31 is_stmt 0
 962 0370 97000000 		call	_ZN3Sem9timedwaitEPS_m@plt
 962      E7800000 
 963              	.LVL82:
 172:src/riscv.cpp ****             case SEM_TRYWAIT:
 964              		.loc 1 172 17 is_stmt 1
 965 0378 6FF01FF6 		j	.L36
 966              	.LVL83:
 967              	.L41:
 173:src/riscv.cpp ****                 Sem::trywait((sem_t)a1);
 968              		.loc 1 173 13
 174:src/riscv.cpp ****                 break;
 969              		.loc 1 174 17
 174:src/riscv.cpp ****                 break;
 970              		.loc 1 174 29 is_stmt 0
 971 037c 97000000 		call	_ZN3Sem7trywaitEPS_@plt
 971      E7800000 
 972              	.LVL84:
 175:src/riscv.cpp ****             case TIME_SLEEP:
 973              		.loc 1 175 17 is_stmt 1
 974 0384 6FF05FF5 		j	.L36
 975              	.LVL85:
 976              	.L40:
 176:src/riscv.cpp ****                 Scheduler::time_sleep((thread_t)TCB::running, (time_t)a1);
GAS LISTING /tmp/ccHOwAkS.s 			page 31


 977              		.loc 1 176 13
 177:src/riscv.cpp ****                 break;
 978              		.loc 1 177 17
 177:src/riscv.cpp ****                 break;
 979              		.loc 1 177 38 is_stmt 0
 980 0388 93050500 		mv	a1,a0
 981              	.LVL86:
 982 038c 97070000 		la	a5,_ZN3TCB7runningE
 982      83B70700 
 983 0394 03B50700 		ld	a0,0(a5)
 984              	.LVL87:
 985 0398 97000000 		call	_ZN9Scheduler10time_sleepEP3TCBm@plt
 985      E7800000 
 986              	.LVL88:
 178:src/riscv.cpp ****             case GETC:
 987              		.loc 1 178 17 is_stmt 1
 988 03a0 6FF09FF3 		j	.L36
 989              	.LVL89:
 990              	.L39:
 179:src/riscv.cpp ****                 myConsole::input_getc();
 991              		.loc 1 179 13
 180:src/riscv.cpp ****                 break;
 992              		.loc 1 180 17
 180:src/riscv.cpp ****                 break;
 993              		.loc 1 180 38 is_stmt 0
 994 03a4 97000000 		call	_ZN9myConsole10input_getcEv@plt
 994      E7800000 
 995              	.LVL90:
 181:src/riscv.cpp ****             case PUTC:
 996              		.loc 1 181 17 is_stmt 1
 997 03ac 6FF0DFF2 		j	.L36
 998              	.LVL91:
 999              	.L37:
 182:src/riscv.cpp ****                 myConsole::output_putc((char) a1);
 1000              		.loc 1 182 13
 183:src/riscv.cpp ****                 break;
 1001              		.loc 1 183 17
 183:src/riscv.cpp ****                 break;
 1002              		.loc 1 183 39 is_stmt 0
 1003 03b0 1375F50F 		andi	a0,a0,0xff
 1004              	.LVL92:
 1005 03b4 97000000 		call	_ZN9myConsole11output_putcEc@plt
 1005      E7800000 
 1006              	.LVL93:
 184:src/riscv.cpp ****         }
 1007              		.loc 1 184 17 is_stmt 1
 1008 03bc 6FF0DFF1 		j	.L36
 1009              	.LVL94:
 1010              	.L35:
 1011              	.LBE73:
 192:src/riscv.cpp ****     }
 1012              		.loc 1 192 9
 192:src/riscv.cpp ****     }
 1013              		.loc 1 192 21 is_stmt 0
 1014 03c0 37D55B07 		li	a0,123457536
 1015              	.LVL95:
 1016 03c4 130555D1 		addi	a0,a0,-747
GAS LISTING /tmp/ccHOwAkS.s 			page 32


 1017 03c8 97000000 		call	_Z12printIntegerm@plt
 1017      E7800000 
 1018              	.LVL96:
 1019              	.LBE90:
 1020              	.LBE119:
 1021              	.LBE122:
 1022              		.loc 1 194 1
 1023 03d0 6FF01FF1 		j	.L20
 1024              		.cfi_endproc
 1025              	.LFE36:
 1027              	.Letext0:
 1028              		.file 6 "src/../lib/hw.h"
 1029              		.file 7 "src/../h/syscall_c.hpp"
 1030              		.file 8 "src/../h/semaphore.hpp"
 1031              		.file 9 "src/../h/Memoryallocator.hpp"
 1032              		.file 10 "src/../h/BoundedBuffer.hpp"
 1033              		.file 11 "src/../h/Console.hpp"
GAS LISTING /tmp/ccHOwAkS.s 			page 33


DEFINED SYMBOLS
                            *ABS*:0000000000000000 riscv.cpp
     /tmp/ccHOwAkS.s:9      .text:0000000000000000 _ZN5RISCV10popSppSpieEv
     /tmp/ccHOwAkS.s:13     .text:0000000000000000 .L0 
     /tmp/ccHOwAkS.s:14     .text:0000000000000000 .L0 
     /tmp/ccHOwAkS.s:15     .text:0000000000000004 .L0 
     /tmp/ccHOwAkS.s:17     .text:0000000000000008 .L0 
     /tmp/ccHOwAkS.s:19     .text:000000000000000c .L0 
     /tmp/ccHOwAkS.s:21     .text:000000000000000c .L0 
     /tmp/ccHOwAkS.s:22     .text:000000000000000c .L0 
     /tmp/ccHOwAkS.s:26     .text:000000000000001c .L0 
     /tmp/ccHOwAkS.s:33     .text:0000000000000028 .L0 
     /tmp/ccHOwAkS.s:34     .text:0000000000000028 .L0 
     /tmp/ccHOwAkS.s:35     .text:0000000000000028 .L0 
     /tmp/ccHOwAkS.s:46     .text:0000000000000030 .L0 
       src/riscv.cpp:19     .text:0000000000000030 .L0 
     /tmp/ccHOwAkS.s:52     .text:0000000000000034 .L0 
       src/riscv.cpp:20     .text:0000000000000034 .L0 
     /tmp/ccHOwAkS.s:58     .text:0000000000000038 .L0 
     /tmp/ccHOwAkS.s:59     .text:000000000000003c .L0 
     /tmp/ccHOwAkS.s:60     .text:000000000000003c .L0 
     /tmp/ccHOwAkS.s:62     .text:0000000000000040 .L0 
     /tmp/ccHOwAkS.s:64     .text:0000000000000044 .L0 
     /tmp/ccHOwAkS.s:70     .text:0000000000000044 _ZN5RISCV12return_valueEm
     /tmp/ccHOwAkS.s:73     .text:0000000000000044 .L0 
     /tmp/ccHOwAkS.s:75     .text:0000000000000044 .L0 
     /tmp/ccHOwAkS.s:76     .text:0000000000000048 .L0 
     /tmp/ccHOwAkS.s:78     .text:000000000000004c .L0 
     /tmp/ccHOwAkS.s:80     .text:0000000000000050 .L0 
     /tmp/ccHOwAkS.s:82     .text:0000000000000050 .L0 
     /tmp/ccHOwAkS.s:83     .text:0000000000000050 .L0 
     /tmp/ccHOwAkS.s:84     .text:0000000000000054 .L0 
     /tmp/ccHOwAkS.s:85     .text:0000000000000054 .L0 
     /tmp/ccHOwAkS.s:87     .text:0000000000000058 .L0 
     /tmp/ccHOwAkS.s:89     .text:000000000000005c .L0 
     /tmp/ccHOwAkS.s:96     .text._ZN4ListI3TCBE6removeEPS0_:0000000000000000 _ZN4ListI3TCBE6removeEPS0_
     /tmp/ccHOwAkS.s:100    .text._ZN4ListI3TCBE6removeEPS0_:0000000000000000 .L0 
     /tmp/ccHOwAkS.s:102    .text._ZN4ListI3TCBE6removeEPS0_:0000000000000000 .L0 
     /tmp/ccHOwAkS.s:105    .text._ZN4ListI3TCBE6removeEPS0_:0000000000000004 .L0 
     /tmp/ccHOwAkS.s:108    .text._ZN4ListI3TCBE6removeEPS0_:0000000000000008 .L0 
     /tmp/ccHOwAkS.s:112    .text._ZN4ListI3TCBE6removeEPS0_:000000000000000c .L0 
     /tmp/ccHOwAkS.s:114    .text._ZN4ListI3TCBE6removeEPS0_:0000000000000010 .L0 
     /tmp/ccHOwAkS.s:116    .text._ZN4ListI3TCBE6removeEPS0_:0000000000000014 .L0 
     /tmp/ccHOwAkS.s:119    .text._ZN4ListI3TCBE6removeEPS0_:0000000000000018 .L0 
     /tmp/ccHOwAkS.s:121    .text._ZN4ListI3TCBE6removeEPS0_:000000000000001c .L0 
     /tmp/ccHOwAkS.s:124    .text._ZN4ListI3TCBE6removeEPS0_:0000000000000020 .L0 
     /tmp/ccHOwAkS.s:127    .text._ZN4ListI3TCBE6removeEPS0_:0000000000000024 .L0 
     /tmp/ccHOwAkS.s:128    .text._ZN4ListI3TCBE6removeEPS0_:0000000000000028 .L0 
     /tmp/ccHOwAkS.s:131    .text._ZN4ListI3TCBE6removeEPS0_:0000000000000030 .L0 
     /tmp/ccHOwAkS.s:132    .text._ZN4ListI3TCBE6removeEPS0_:0000000000000030 .L0 
     /tmp/ccHOwAkS.s:134    .text._ZN4ListI3TCBE6removeEPS0_:0000000000000034 .L0 
     /tmp/ccHOwAkS.s:136    .text._ZN4ListI3TCBE6removeEPS0_:0000000000000034 .L0 
     /tmp/ccHOwAkS.s:138    .text._ZN4ListI3TCBE6removeEPS0_:0000000000000038 .L0 
     /tmp/ccHOwAkS.s:140    .text._ZN4ListI3TCBE6removeEPS0_:000000000000003c .L0 
     /tmp/ccHOwAkS.s:142    .text._ZN4ListI3TCBE6removeEPS0_:0000000000000040 .L0 
     /tmp/ccHOwAkS.s:144    .text._ZN4ListI3TCBE6removeEPS0_:0000000000000044 .L0 
     /tmp/ccHOwAkS.s:147    .text._ZN4ListI3TCBE6removeEPS0_:0000000000000048 .L0 
GAS LISTING /tmp/ccHOwAkS.s 			page 34


     /tmp/ccHOwAkS.s:149    .text._ZN4ListI3TCBE6removeEPS0_:000000000000004c .L0 
     /tmp/ccHOwAkS.s:152    .text._ZN4ListI3TCBE6removeEPS0_:0000000000000050 .L0 
     /tmp/ccHOwAkS.s:155    .text._ZN4ListI3TCBE6removeEPS0_:0000000000000058 .L0 
     /tmp/ccHOwAkS.s:156    .text._ZN4ListI3TCBE6removeEPS0_:000000000000005c .L0 
     /tmp/ccHOwAkS.s:157    .text._ZN4ListI3TCBE6removeEPS0_:000000000000005c .L0 
     /tmp/ccHOwAkS.s:159    .text._ZN4ListI3TCBE6removeEPS0_:0000000000000060 .L0 
     /tmp/ccHOwAkS.s:160    .text._ZN4ListI3TCBE6removeEPS0_:0000000000000060 .L0 
     /tmp/ccHOwAkS.s:162    .text._ZN4ListI3TCBE6removeEPS0_:0000000000000064 .L0 
     /tmp/ccHOwAkS.s:166    .text._ZN4ListI3TCBE6removeEPS0_:0000000000000068 .L0 
     /tmp/ccHOwAkS.s:168    .text._ZN4ListI3TCBE6removeEPS0_:0000000000000068 .L0 
     /tmp/ccHOwAkS.s:172    .text._ZN4ListI3TCBE6removeEPS0_:0000000000000070 .L0 
     /tmp/ccHOwAkS.s:174    .text._ZN4ListI3TCBE6removeEPS0_:0000000000000074 .L0 
     /tmp/ccHOwAkS.s:178    .text._ZN4ListI3TCBE6removeEPS0_:000000000000007c .L0 
     /tmp/ccHOwAkS.s:181    .text._ZN4ListI3TCBE6removeEPS0_:0000000000000084 .L0 
     /tmp/ccHOwAkS.s:182    .text._ZN4ListI3TCBE6removeEPS0_:0000000000000084 .L0 
     /tmp/ccHOwAkS.s:183    .text._ZN4ListI3TCBE6removeEPS0_:0000000000000084 .L0 
     /tmp/ccHOwAkS.s:185    .text._ZN4ListI3TCBE6removeEPS0_:0000000000000088 .L0 
     /tmp/ccHOwAkS.s:192    .text:000000000000005c _ZN5RISCV16handle_interruptEv
     /tmp/ccHOwAkS.s:195    .text:000000000000005c .L0 
     /tmp/ccHOwAkS.s:196    .text:000000000000005c .L0 
     /tmp/ccHOwAkS.s:197    .text:0000000000000060 .L0 
     /tmp/ccHOwAkS.s:204    .text:0000000000000078 .L0 
     /tmp/ccHOwAkS.s:205    .text:0000000000000078 .L0 
     /tmp/ccHOwAkS.s:206    .text:0000000000000078 .L0 
     /tmp/ccHOwAkS.s:207    .text:0000000000000078 .L0 
     /tmp/ccHOwAkS.s:208    .text:0000000000000078 .L0 
     /tmp/ccHOwAkS.s:209    .text:0000000000000078 .L0 
     /tmp/ccHOwAkS.s:211    .text:000000000000007c .L0 
     /tmp/ccHOwAkS.s:213    .text:000000000000007c .L0 
     /tmp/ccHOwAkS.s:214    .text:000000000000007c .L0 
       src/riscv.cpp:33     .text:000000000000007c .L0 
     /tmp/ccHOwAkS.s:221    .text:0000000000000080 .L0 
       src/riscv.cpp:34     .text:0000000000000080 .L0 
     /tmp/ccHOwAkS.s:227    .text:0000000000000084 .L0 
       src/riscv.cpp:35     .text:0000000000000084 .L0 
     /tmp/ccHOwAkS.s:233    .text:0000000000000088 .L0 
       src/riscv.cpp:36     .text:0000000000000088 .L0 
     /tmp/ccHOwAkS.s:239    .text:000000000000008c .L0 
       src/riscv.cpp:37     .text:000000000000008c .L0 
     /tmp/ccHOwAkS.s:248    .text:0000000000000090 .L0 
     /tmp/ccHOwAkS.s:249    .text:0000000000000090 .L0 
     /tmp/ccHOwAkS.s:250    .text:0000000000000090 .L0 
  src/../h/riscv.hpp:71     .text:0000000000000090 .L0 
     /tmp/ccHOwAkS.s:258    .text:0000000000000098 .L0 
     /tmp/ccHOwAkS.s:259    .text:0000000000000098 .L0 
     /tmp/ccHOwAkS.s:265    .text:000000000000009c .L0 
     /tmp/ccHOwAkS.s:273    .text:00000000000000ac .L0 
     /tmp/ccHOwAkS.s:283    .text:00000000000000bc .L0 
     /tmp/ccHOwAkS.s:284    .text:00000000000000bc .L0 
     /tmp/ccHOwAkS.s:287    .text:00000000000000c0 .L0 
     /tmp/ccHOwAkS.s:293    .text:00000000000000c8 .L0 
     /tmp/ccHOwAkS.s:294    .text:00000000000000c8 .L0 
     /tmp/ccHOwAkS.s:295    .text:00000000000000c8 .L0 
  src/../h/riscv.hpp:81     .text:00000000000000c8 .L0 
     /tmp/ccHOwAkS.s:303    .text:00000000000000d0 .L0 
     /tmp/ccHOwAkS.s:304    .text:00000000000000d0 .L0 
     /tmp/ccHOwAkS.s:308    .text:00000000000000d4 .L0 
GAS LISTING /tmp/ccHOwAkS.s 			page 35


     /tmp/ccHOwAkS.s:313    .text:00000000000000d8 .L0 
     /tmp/ccHOwAkS.s:314    .text:00000000000000d8 .L0 
     /tmp/ccHOwAkS.s:315    .text:00000000000000d8 .L0 
  src/../h/riscv.hpp:121    .text:00000000000000d8 .L0 
     /tmp/ccHOwAkS.s:323    .text:00000000000000e0 .L0 
     /tmp/ccHOwAkS.s:324    .text:00000000000000e0 .L0 
     /tmp/ccHOwAkS.s:329    .text:00000000000000e4 .L0 
     /tmp/ccHOwAkS.s:419    .text:0000000000000108 .L0 
     /tmp/ccHOwAkS.s:420    .text:0000000000000108 .L0 
     /tmp/ccHOwAkS.s:421    .text:0000000000000108 .L0 
     /tmp/ccHOwAkS.s:435    .text:0000000000000110 .L0 
     /tmp/ccHOwAkS.s:436    .text:0000000000000110 .L0 
     /tmp/ccHOwAkS.s:437    .text:0000000000000110 .L0 
     /tmp/ccHOwAkS.s:442    .text:000000000000011c .L0 
     /tmp/ccHOwAkS.s:445    .text:0000000000000120 .L0 
     /tmp/ccHOwAkS.s:446    .text:0000000000000120 .L0 
     /tmp/ccHOwAkS.s:448    .text:0000000000000124 .L0 
     /tmp/ccHOwAkS.s:453    .text:000000000000012c .L0 
     /tmp/ccHOwAkS.s:454    .text:000000000000012c .L0 
     /tmp/ccHOwAkS.s:455    .text:000000000000012c .L0 
     /tmp/ccHOwAkS.s:458    .text:0000000000000130 .L0 
     /tmp/ccHOwAkS.s:459    .text:0000000000000130 .L0 
     /tmp/ccHOwAkS.s:461    .text:0000000000000134 .L0 
     /tmp/ccHOwAkS.s:463    .text:0000000000000138 .L0 
     /tmp/ccHOwAkS.s:464    .text:0000000000000138 .L0 
     /tmp/ccHOwAkS.s:466    .text:000000000000013c .L0 
     /tmp/ccHOwAkS.s:467    .text:000000000000013c .L0 
     /tmp/ccHOwAkS.s:471    .text:0000000000000148 .L0 
     /tmp/ccHOwAkS.s:472    .text:0000000000000148 .L0 
     /tmp/ccHOwAkS.s:475    .text:000000000000014c .L0 
     /tmp/ccHOwAkS.s:476    .text:000000000000014c .L0 
     /tmp/ccHOwAkS.s:479    .text:0000000000000150 .L0 
     /tmp/ccHOwAkS.s:480    .text:0000000000000150 .L0 
     /tmp/ccHOwAkS.s:483    .text:0000000000000154 .L0 
     /tmp/ccHOwAkS.s:487    .text:0000000000000158 .L0 
     /tmp/ccHOwAkS.s:488    .text:0000000000000158 .L0 
     /tmp/ccHOwAkS.s:496    .text:0000000000000164 .L0 
     /tmp/ccHOwAkS.s:497    .text:0000000000000164 .L0 
     /tmp/ccHOwAkS.s:506    .text:0000000000000174 .L0 
     /tmp/ccHOwAkS.s:507    .text:0000000000000174 .L0 
     /tmp/ccHOwAkS.s:511    .text:0000000000000178 .L0 
     /tmp/ccHOwAkS.s:513    .text:000000000000017c .L0 
     /tmp/ccHOwAkS.s:516    .text:0000000000000180 .L0 
     /tmp/ccHOwAkS.s:517    .text:0000000000000180 .L0 
     /tmp/ccHOwAkS.s:520    .text:0000000000000184 .L0 
     /tmp/ccHOwAkS.s:521    .text:0000000000000184 .L0 
     /tmp/ccHOwAkS.s:523    .text:0000000000000188 .L0 
     /tmp/ccHOwAkS.s:525    .text:000000000000018c .L0 
     /tmp/ccHOwAkS.s:526    .text:000000000000018c .L0 
     /tmp/ccHOwAkS.s:529    .text:0000000000000190 .L0 
     /tmp/ccHOwAkS.s:530    .text:0000000000000190 .L0 
     /tmp/ccHOwAkS.s:532    .text:0000000000000194 .L0 
     /tmp/ccHOwAkS.s:534    .text:0000000000000198 .L0 
     /tmp/ccHOwAkS.s:536    .text:000000000000019c .L0 
     /tmp/ccHOwAkS.s:537    .text:000000000000019c .L0 
     /tmp/ccHOwAkS.s:542    .text:00000000000001ac .L0 
     /tmp/ccHOwAkS.s:543    .text:00000000000001ac .L0 
GAS LISTING /tmp/ccHOwAkS.s 			page 36


     /tmp/ccHOwAkS.s:545    .text:00000000000001b0 .L0 
     /tmp/ccHOwAkS.s:546    .text:00000000000001b0 .L0 
     /tmp/ccHOwAkS.s:556    .text:00000000000001c0 .L0 
     /tmp/ccHOwAkS.s:557    .text:00000000000001c0 .L0 
     /tmp/ccHOwAkS.s:561    .text:00000000000001c4 .L0 
     /tmp/ccHOwAkS.s:564    .text:00000000000001c8 .L0 
     /tmp/ccHOwAkS.s:565    .text:00000000000001c8 .L0 
     /tmp/ccHOwAkS.s:569    .text:00000000000001cc .L0 
     /tmp/ccHOwAkS.s:570    .text:00000000000001cc .L0 
     /tmp/ccHOwAkS.s:579    .text:00000000000001d4 .L0 
     /tmp/ccHOwAkS.s:580    .text:00000000000001d4 .L0 
     /tmp/ccHOwAkS.s:586    .text:00000000000001e8 .L0 
     /tmp/ccHOwAkS.s:587    .text:00000000000001e8 .L0 
     /tmp/ccHOwAkS.s:594    .text:00000000000001f4 .L0 
     /tmp/ccHOwAkS.s:595    .text:00000000000001f4 .L0 
     /tmp/ccHOwAkS.s:600    .text:00000000000001f8 .L0 
     /tmp/ccHOwAkS.s:605    .text:00000000000001fc .L0 
     /tmp/ccHOwAkS.s:606    .text:00000000000001fc .L0 
     /tmp/ccHOwAkS.s:607    .text:00000000000001fc .L0 
  src/../h/riscv.hpp:81     .text:00000000000001fc .L0 
     /tmp/ccHOwAkS.s:615    .text:0000000000000204 .L0 
     /tmp/ccHOwAkS.s:616    .text:0000000000000204 .L0 
     /tmp/ccHOwAkS.s:623    .text:0000000000000208 .L0 
     /tmp/ccHOwAkS.s:624    .text:0000000000000208 .L0 
     /tmp/ccHOwAkS.s:625    .text:0000000000000208 .L0 
  src/../h/riscv.hpp:121    .text:0000000000000208 .L0 
     /tmp/ccHOwAkS.s:633    .text:0000000000000210 .L0 
     /tmp/ccHOwAkS.s:634    .text:0000000000000210 .L0 
     /tmp/ccHOwAkS.s:639    .text:0000000000000214 .L0 
     /tmp/ccHOwAkS.s:640    .text:0000000000000214 .L0 
     /tmp/ccHOwAkS.s:643    .text:0000000000000220 .L0 
     /tmp/ccHOwAkS.s:644    .text:0000000000000220 .L0 
     /tmp/ccHOwAkS.s:649    .text:0000000000000228 .L0 
     /tmp/ccHOwAkS.s:650    .text:0000000000000228 .L0 
  src/../h/riscv.hpp:86     .text:0000000000000228 .L0 
     /tmp/ccHOwAkS.s:662    .text:000000000000022c .L0 
     /tmp/ccHOwAkS.s:663    .text:000000000000022c .L0 
  src/../h/riscv.hpp:126    .text:000000000000022c .L0 
     /tmp/ccHOwAkS.s:670    .text:0000000000000230 .L0 
     /tmp/ccHOwAkS.s:683    .text:0000000000000234 .L0 
     /tmp/ccHOwAkS.s:684    .text:0000000000000234 .L0 
     /tmp/ccHOwAkS.s:685    .text:0000000000000234 .L0 
  src/../h/riscv.hpp:81     .text:0000000000000234 .L0 
     /tmp/ccHOwAkS.s:693    .text:000000000000023c .L0 
     /tmp/ccHOwAkS.s:694    .text:000000000000023c .L0 
     /tmp/ccHOwAkS.s:701    .text:0000000000000240 .L0 
     /tmp/ccHOwAkS.s:702    .text:0000000000000240 .L0 
     /tmp/ccHOwAkS.s:703    .text:0000000000000240 .L0 
  src/../h/riscv.hpp:121    .text:0000000000000240 .L0 
     /tmp/ccHOwAkS.s:711    .text:0000000000000248 .L0 
     /tmp/ccHOwAkS.s:712    .text:0000000000000248 .L0 
     /tmp/ccHOwAkS.s:717    .text:000000000000024c .L0 
     /tmp/ccHOwAkS.s:718    .text:000000000000024c .L0 
     /tmp/ccHOwAkS.s:724    .text:0000000000000258 .L0 
     /tmp/ccHOwAkS.s:732    .text:0000000000000260 .L0 
     /tmp/ccHOwAkS.s:733    .text:0000000000000260 .L0 
  src/../h/riscv.hpp:86     .text:0000000000000260 .L0 
GAS LISTING /tmp/ccHOwAkS.s 			page 37


     /tmp/ccHOwAkS.s:745    .text:0000000000000264 .L0 
     /tmp/ccHOwAkS.s:746    .text:0000000000000264 .L0 
  src/../h/riscv.hpp:126    .text:0000000000000264 .L0 
     /tmp/ccHOwAkS.s:758    .text:0000000000000268 .L0 
     /tmp/ccHOwAkS.s:759    .text:0000000000000268 .L0 
     /tmp/ccHOwAkS.s:760    .text:0000000000000268 .L0 
     /tmp/ccHOwAkS.s:767    .text:0000000000000270 .L0 
     /tmp/ccHOwAkS.s:775    .text:0000000000000274 .L0 
     /tmp/ccHOwAkS.s:776    .text:0000000000000274 .L0 
     /tmp/ccHOwAkS.s:777    .text:0000000000000274 .L0 
     /tmp/ccHOwAkS.s:781    .text:0000000000000284 .L0 
     /tmp/ccHOwAkS.s:784    .text:000000000000028c .L0 
     /tmp/ccHOwAkS.s:789    .text:00000000000002a0 .L0 
     /tmp/ccHOwAkS.s:792    .text:00000000000002a4 .L0 
     /tmp/ccHOwAkS.s:793    .text:00000000000002a4 .L0 
     /tmp/ccHOwAkS.s:797    .text:00000000000002b0 .L0 
     /tmp/ccHOwAkS.s:798    .text:00000000000002b0 .L0 
     /tmp/ccHOwAkS.s:803    .text:00000000000002bc .L0 
     /tmp/ccHOwAkS.s:806    .text:00000000000002c0 .L0 
     /tmp/ccHOwAkS.s:807    .text:00000000000002c0 .L0 
     /tmp/ccHOwAkS.s:819    .text:00000000000002d0 .L0 
     /tmp/ccHOwAkS.s:820    .text:00000000000002d0 .L0 
     /tmp/ccHOwAkS.s:821    .text:00000000000002d0 .L0 
     /tmp/ccHOwAkS.s:825    .text:00000000000002d8 .L0 
     /tmp/ccHOwAkS.s:828    .text:00000000000002d8 .L0 
     /tmp/ccHOwAkS.s:829    .text:00000000000002d8 .L0 
  src/../h/riscv.hpp:86     .text:00000000000002d8 .L0 
     /tmp/ccHOwAkS.s:841    .text:00000000000002dc .L0 
     /tmp/ccHOwAkS.s:842    .text:00000000000002dc .L0 
  src/../h/riscv.hpp:126    .text:00000000000002dc .L0 
     /tmp/ccHOwAkS.s:857    .text:00000000000002e0 .L0 
     /tmp/ccHOwAkS.s:858    .text:00000000000002e4 .L0 
     /tmp/ccHOwAkS.s:859    .text:00000000000002e4 .L0 
     /tmp/ccHOwAkS.s:861    .text:00000000000002e8 .L0 
     /tmp/ccHOwAkS.s:862    .text:00000000000002e8 .L0 
     /tmp/ccHOwAkS.s:864    .text:00000000000002ec .L0 
     /tmp/ccHOwAkS.s:866    .text:00000000000002f0 .L0 
     /tmp/ccHOwAkS.s:868    .text:00000000000002f4 .L0 
     /tmp/ccHOwAkS.s:870    .text:00000000000002f8 .L0 
     /tmp/ccHOwAkS.s:872    .text:00000000000002fc .L0 
     /tmp/ccHOwAkS.s:876    .text:0000000000000300 .L0 
     /tmp/ccHOwAkS.s:882    .text:0000000000000300 .L0 
     /tmp/ccHOwAkS.s:883    .text:0000000000000300 .L0 
     /tmp/ccHOwAkS.s:884    .text:0000000000000300 .L0 
     /tmp/ccHOwAkS.s:887    .text:0000000000000308 .L0 
     /tmp/ccHOwAkS.s:891    .text:000000000000030c .L0 
     /tmp/ccHOwAkS.s:892    .text:000000000000030c .L0 
     /tmp/ccHOwAkS.s:893    .text:000000000000030c .L0 
     /tmp/ccHOwAkS.s:896    .text:0000000000000314 .L0 
     /tmp/ccHOwAkS.s:900    .text:0000000000000318 .L0 
     /tmp/ccHOwAkS.s:901    .text:0000000000000318 .L0 
     /tmp/ccHOwAkS.s:902    .text:0000000000000318 .L0 
     /tmp/ccHOwAkS.s:905    .text:0000000000000320 .L0 
     /tmp/ccHOwAkS.s:909    .text:0000000000000324 .L0 
     /tmp/ccHOwAkS.s:910    .text:0000000000000324 .L0 
     /tmp/ccHOwAkS.s:911    .text:0000000000000324 .L0 
     /tmp/ccHOwAkS.s:914    .text:0000000000000330 .L0 
GAS LISTING /tmp/ccHOwAkS.s 			page 38


     /tmp/ccHOwAkS.s:915    .text:0000000000000330 .L0 
     /tmp/ccHOwAkS.s:918    .text:0000000000000338 .L0 
     /tmp/ccHOwAkS.s:922    .text:000000000000033c .L0 
     /tmp/ccHOwAkS.s:923    .text:000000000000033c .L0 
     /tmp/ccHOwAkS.s:924    .text:000000000000033c .L0 
     /tmp/ccHOwAkS.s:929    .text:0000000000000348 .L0 
     /tmp/ccHOwAkS.s:933    .text:000000000000034c .L0 
     /tmp/ccHOwAkS.s:934    .text:000000000000034c .L0 
     /tmp/ccHOwAkS.s:935    .text:000000000000034c .L0 
     /tmp/ccHOwAkS.s:938    .text:0000000000000354 .L0 
     /tmp/ccHOwAkS.s:942    .text:0000000000000358 .L0 
     /tmp/ccHOwAkS.s:943    .text:0000000000000358 .L0 
     /tmp/ccHOwAkS.s:944    .text:0000000000000358 .L0 
     /tmp/ccHOwAkS.s:947    .text:0000000000000360 .L0 
     /tmp/ccHOwAkS.s:951    .text:0000000000000364 .L0 
     /tmp/ccHOwAkS.s:952    .text:0000000000000364 .L0 
     /tmp/ccHOwAkS.s:953    .text:0000000000000364 .L0 
     /tmp/ccHOwAkS.s:956    .text:000000000000036c .L0 
     /tmp/ccHOwAkS.s:960    .text:0000000000000370 .L0 
     /tmp/ccHOwAkS.s:961    .text:0000000000000370 .L0 
     /tmp/ccHOwAkS.s:962    .text:0000000000000370 .L0 
     /tmp/ccHOwAkS.s:965    .text:0000000000000378 .L0 
     /tmp/ccHOwAkS.s:969    .text:000000000000037c .L0 
     /tmp/ccHOwAkS.s:970    .text:000000000000037c .L0 
     /tmp/ccHOwAkS.s:971    .text:000000000000037c .L0 
     /tmp/ccHOwAkS.s:974    .text:0000000000000384 .L0 
     /tmp/ccHOwAkS.s:978    .text:0000000000000388 .L0 
     /tmp/ccHOwAkS.s:979    .text:0000000000000388 .L0 
     /tmp/ccHOwAkS.s:980    .text:0000000000000388 .L0 
     /tmp/ccHOwAkS.s:988    .text:00000000000003a0 .L0 
     /tmp/ccHOwAkS.s:992    .text:00000000000003a4 .L0 
     /tmp/ccHOwAkS.s:993    .text:00000000000003a4 .L0 
     /tmp/ccHOwAkS.s:994    .text:00000000000003a4 .L0 
     /tmp/ccHOwAkS.s:997    .text:00000000000003ac .L0 
     /tmp/ccHOwAkS.s:1001   .text:00000000000003b0 .L0 
     /tmp/ccHOwAkS.s:1002   .text:00000000000003b0 .L0 
     /tmp/ccHOwAkS.s:1003   .text:00000000000003b0 .L0 
     /tmp/ccHOwAkS.s:1008   .text:00000000000003bc .L0 
     /tmp/ccHOwAkS.s:1013   .text:00000000000003c0 .L0 
     /tmp/ccHOwAkS.s:1014   .text:00000000000003c0 .L0 
     /tmp/ccHOwAkS.s:1023   .text:00000000000003d0 .L0 
     /tmp/ccHOwAkS.s:1024   .text:00000000000003d4 .L0 
     /tmp/ccHOwAkS.s:1034   .text:00000000000003d4 .L0 
     /tmp/ccHOwAkS.s:188    .text._ZN4ListI3TCBE6removeEPS0_:0000000000000088 .L0 
     /tmp/ccHOwAkS.s:22     .text:000000000000000c .L0 
     /tmp/ccHOwAkS.s:26     .text:000000000000001c .L0 
     /tmp/ccHOwAkS.s:341    .rodata:0000000000000000 .L38
     /tmp/ccHOwAkS.s:332    .text:00000000000000f0 .L0 
     /tmp/ccHOwAkS.s:437    .text:0000000000000110 .L0 
     /tmp/ccHOwAkS.s:488    .text:0000000000000158 .L0 
     /tmp/ccHOwAkS.s:497    .text:0000000000000164 .L0 
     /tmp/ccHOwAkS.s:580    .text:00000000000001d4 .L0 
     /tmp/ccHOwAkS.s:587    .text:00000000000001e8 .L0 
     /tmp/ccHOwAkS.s:640    .text:0000000000000214 .L0 
     /tmp/ccHOwAkS.s:777    .text:0000000000000274 .L0 
     /tmp/ccHOwAkS.s:784    .text:000000000000028c .L0 
     /tmp/ccHOwAkS.s:793    .text:00000000000002a4 .L0 
GAS LISTING /tmp/ccHOwAkS.s 			page 39


     /tmp/ccHOwAkS.s:911    .text:0000000000000324 .L0 
     /tmp/ccHOwAkS.s:982    .text:000000000000038c .L0 
     /tmp/ccHOwAkS.s:42     .text:0000000000000030 .L2
     /tmp/ccHOwAkS.s:411    .text:0000000000000108 .L53
     /tmp/ccHOwAkS.s:672    .text:0000000000000234 .L54
     /tmp/ccHOwAkS.s:1010   .text:00000000000003c0 .L35
     /tmp/ccHOwAkS.s:824    .text:00000000000002d8 .L36
     /tmp/ccHOwAkS.s:491    .text:0000000000000164 .L22
     /tmp/ccHOwAkS.s:485    .text:0000000000000158 .L23
     /tmp/ccHOwAkS.s:452    .text:000000000000012c .L24
     /tmp/ccHOwAkS.s:559    .text:00000000000001c4 .L29
     /tmp/ccHOwAkS.s:551    .text:00000000000001c0 .L26
     /tmp/ccHOwAkS.s:502    .text:0000000000000174 .L27
     /tmp/ccHOwAkS.s:574    .text:00000000000001d4 .L25
     /tmp/ccHOwAkS.s:509    .text:0000000000000178 .L28
     /tmp/ccHOwAkS.s:849    .text:00000000000002e0 .L20
     /tmp/ccHOwAkS.s:769    .text:0000000000000274 .L34
     /tmp/ccHOwAkS.s:804    .text:00000000000002c0 .L33
     /tmp/ccHOwAkS.s:727    .text:0000000000000260 .L32
     /tmp/ccHOwAkS.s:180    .text._ZN4ListI3TCBE6removeEPS0_:0000000000000084 .L14
     /tmp/ccHOwAkS.s:125    .text._ZN4ListI3TCBE6removeEPS0_:0000000000000024 .L17
     /tmp/ccHOwAkS.s:110    .text._ZN4ListI3TCBE6removeEPS0_:000000000000000c .L12
     /tmp/ccHOwAkS.s:170    .text._ZN4ListI3TCBE6removeEPS0_:0000000000000070 .L9
     /tmp/ccHOwAkS.s:165    .text._ZN4ListI3TCBE6removeEPS0_:0000000000000068 .L18
     /tmp/ccHOwAkS.s:176    .text._ZN4ListI3TCBE6removeEPS0_:000000000000007c .L19
     /tmp/ccHOwAkS.s:145    .text._ZN4ListI3TCBE6removeEPS0_:0000000000000048 .L10
     /tmp/ccHOwAkS.s:150    .text._ZN4ListI3TCBE6removeEPS0_:0000000000000050 .L11
     /tmp/ccHOwAkS.s:813    .text:00000000000002d0 .L51
     /tmp/ccHOwAkS.s:875    .text:0000000000000300 .L50
     /tmp/ccHOwAkS.s:889    .text:000000000000030c .L49
     /tmp/ccHOwAkS.s:898    .text:0000000000000318 .L48
     /tmp/ccHOwAkS.s:907    .text:0000000000000324 .L47
     /tmp/ccHOwAkS.s:920    .text:000000000000033c .L46
     /tmp/ccHOwAkS.s:931    .text:000000000000034c .L45
     /tmp/ccHOwAkS.s:940    .text:0000000000000358 .L44
     /tmp/ccHOwAkS.s:949    .text:0000000000000364 .L43
     /tmp/ccHOwAkS.s:958    .text:0000000000000370 .L42
     /tmp/ccHOwAkS.s:967    .text:000000000000037c .L41
     /tmp/ccHOwAkS.s:976    .text:0000000000000388 .L40
     /tmp/ccHOwAkS.s:990    .text:00000000000003a4 .L39
     /tmp/ccHOwAkS.s:999    .text:00000000000003b0 .L37
     /tmp/ccHOwAkS.s:3620   .debug_abbrev:0000000000000000 .Ldebug_abbrev0
     /tmp/ccHOwAkS.s:6229   .debug_str:0000000000000cec .LASF270
     /tmp/ccHOwAkS.s:6301   .debug_str:0000000000000f95 .LASF271
     /tmp/ccHOwAkS.s:5935   .debug_str:00000000000004a8 .LASF272
     /tmp/ccHOwAkS.s:5747   .debug_ranges:0000000000000000 .Ldebug_ranges0
     /tmp/ccHOwAkS.s:5775   .debug_line:0000000000000000 .Ldebug_line0
     /tmp/ccHOwAkS.s:5971   .debug_str:00000000000005b9 .LASF0
     /tmp/ccHOwAkS.s:6011   .debug_str:00000000000006ae .LASF1
     /tmp/ccHOwAkS.s:6145   .debug_str:0000000000000a6d .LASF2
     /tmp/ccHOwAkS.s:6157   .debug_str:0000000000000af7 .LASF4
     /tmp/ccHOwAkS.s:5987   .debug_str:000000000000062b .LASF3
     /tmp/ccHOwAkS.s:5793   .debug_str:0000000000000064 .LASF5
     /tmp/ccHOwAkS.s:6109   .debug_str:0000000000000992 .LASF6
     /tmp/ccHOwAkS.s:6097   .debug_str:0000000000000923 .LASF7
     /tmp/ccHOwAkS.s:5997   .debug_str:0000000000000668 .LASF8
     /tmp/ccHOwAkS.s:5931   .debug_str:000000000000048c .LASF9
GAS LISTING /tmp/ccHOwAkS.s 			page 40


     /tmp/ccHOwAkS.s:5943   .debug_str:00000000000004f8 .LASF10
     /tmp/ccHOwAkS.s:5847   .debug_str:0000000000000201 .LASF11
     /tmp/ccHOwAkS.s:5917   .debug_str:0000000000000441 .LASF12
     /tmp/ccHOwAkS.s:5867   .debug_str:00000000000002a7 .LASF13
     /tmp/ccHOwAkS.s:5845   .debug_str:00000000000001f1 .LASF14
     /tmp/ccHOwAkS.s:6205   .debug_str:0000000000000c57 .LASF15
     /tmp/ccHOwAkS.s:5905   .debug_str:00000000000003b8 .LASF16
     /tmp/ccHOwAkS.s:6185   .debug_str:0000000000000bb1 .LASF17
     /tmp/ccHOwAkS.s:6299   .debug_str:0000000000000f8f .LASF83
     /tmp/ccHOwAkS.s:5983   .debug_str:000000000000060f .LASF22
     /tmp/ccHOwAkS.s:6029   .debug_str:0000000000000742 .LASF18
     /tmp/ccHOwAkS.s:6049   .debug_str:00000000000007d7 .LASF19
     /tmp/ccHOwAkS.s:5835   .debug_str:00000000000001b1 .LASF20
     /tmp/ccHOwAkS.s:5821   .debug_str:0000000000000126 .LASF21
     /tmp/ccHOwAkS.s:5787   .debug_str:0000000000000041 .LASF23
     /tmp/ccHOwAkS.s:6123   .debug_str:00000000000009ec .LASF24
     /tmp/ccHOwAkS.s:5881   .debug_str:0000000000000314 .LASF25
     /tmp/ccHOwAkS.s:5883   .debug_str:0000000000000321 .LASF26
     /tmp/ccHOwAkS.s:6137   .debug_str:0000000000000a28 .LASF28
     /tmp/ccHOwAkS.s:5891   .debug_str:0000000000000347 .LASF27
     /tmp/ccHOwAkS.s:6147   .debug_str:0000000000000a7b .LASF29
     /tmp/ccHOwAkS.s:5831   .debug_str:00000000000001a1 .LASF30
     /tmp/ccHOwAkS.s:6257   .debug_str:0000000000000e69 .LASF31
     /tmp/ccHOwAkS.s:5941   .debug_str:00000000000004ef .LASF32
     /tmp/ccHOwAkS.s:5849   .debug_str:0000000000000210 .LASF33
     /tmp/ccHOwAkS.s:6261   .debug_str:0000000000000e96 .LASF92
     /tmp/ccHOwAkS.s:6215   .debug_str:0000000000000c92 .LASF94
     /tmp/ccHOwAkS.s:6135   .debug_str:0000000000000a1e .LASF34
     /tmp/ccHOwAkS.s:6333   .debug_str:00000000000010a4 .LASF36
     /tmp/ccHOwAkS.s:6211   .debug_str:0000000000000c80 .LASF38
     /tmp/ccHOwAkS.s:6107   .debug_str:000000000000097c .LASF40
     /tmp/ccHOwAkS.s:6283   .debug_str:0000000000000f28 .LASF35
     /tmp/ccHOwAkS.s:6285   .debug_str:0000000000000f30 .LASF37
     /tmp/ccHOwAkS.s:6169   .debug_str:0000000000000b4f .LASF39
     /tmp/ccHOwAkS.s:6331   .debug_str:0000000000001090 .LASF41
     /tmp/ccHOwAkS.s:5841   .debug_str:00000000000001d3 .LASF42
     /tmp/ccHOwAkS.s:6319   .debug_str:000000000000102c .LASF43
     /tmp/ccHOwAkS.s:6023   .debug_str:000000000000070b .LASF44
     /tmp/ccHOwAkS.s:6219   .debug_str:0000000000000cb1 .LASF45
     /tmp/ccHOwAkS.s:6121   .debug_str:00000000000009e3 .LASF46
     /tmp/ccHOwAkS.s:6031   .debug_str:000000000000074b .LASF47
     /tmp/ccHOwAkS.s:6289   .debug_str:0000000000000f4f .LASF48
     /tmp/ccHOwAkS.s:6103   .debug_str:000000000000094e .LASF49
     /tmp/ccHOwAkS.s:6077   .debug_str:00000000000008b3 .LASF50
     /tmp/ccHOwAkS.s:6045   .debug_str:00000000000007b5 .LASF51
     /tmp/ccHOwAkS.s:5909   .debug_str:00000000000003ea .LASF52
     /tmp/ccHOwAkS.s:6197   .debug_str:0000000000000c16 .LASF53
     /tmp/ccHOwAkS.s:6247   .debug_str:0000000000000e17 .LASF54
     /tmp/ccHOwAkS.s:5859   .debug_str:0000000000000267 .LASF55
     /tmp/ccHOwAkS.s:6297   .debug_str:0000000000000f84 .LASF56
     /tmp/ccHOwAkS.s:6265   .debug_str:0000000000000eb9 .LASF57
     /tmp/ccHOwAkS.s:5995   .debug_str:000000000000065e .LASF58
     /tmp/ccHOwAkS.s:6263   .debug_str:0000000000000ea3 .LASF59
     /tmp/ccHOwAkS.s:6243   .debug_str:0000000000000dfb .LASF60
     /tmp/ccHOwAkS.s:6245   .debug_str:0000000000000e03 .LASF61
     /tmp/ccHOwAkS.s:5877   .debug_str:00000000000002f8 .LASF62
     /tmp/ccHOwAkS.s:6317   .debug_str:0000000000001013 .LASF63
GAS LISTING /tmp/ccHOwAkS.s 			page 41


     /tmp/ccHOwAkS.s:6127   .debug_str:00000000000009fd .LASF64
     /tmp/ccHOwAkS.s:6027   .debug_str:000000000000072a .LASF65
     /tmp/ccHOwAkS.s:5957   .debug_str:0000000000000563 .LASF66
     /tmp/ccHOwAkS.s:5897   .debug_str:000000000000036c .LASF67
     /tmp/ccHOwAkS.s:6237   .debug_str:0000000000000dda .LASF273
     /tmp/ccHOwAkS.s:6329   .debug_str:0000000000001086 .LASF68
     /tmp/ccHOwAkS.s:5925   .debug_str:0000000000000462 .LASF69
     /tmp/ccHOwAkS.s:6183   .debug_str:0000000000000ba3 .LASF70
     /tmp/ccHOwAkS.s:6117   .debug_str:00000000000009cf .LASF71
     /tmp/ccHOwAkS.s:5879   .debug_str:0000000000000304 .LASF72
     /tmp/ccHOwAkS.s:5851   .debug_str:0000000000000225 .LASF73
     /tmp/ccHOwAkS.s:5791   .debug_str:000000000000005a .LASF74
     /tmp/ccHOwAkS.s:6067   .debug_str:000000000000084f .LASF75
     /tmp/ccHOwAkS.s:6155   .debug_str:0000000000000aec .LASF76
     /tmp/ccHOwAkS.s:6233   .debug_str:0000000000000db5 .LASF77
     /tmp/ccHOwAkS.s:6143   .debug_str:0000000000000a61 .LASF78
     /tmp/ccHOwAkS.s:6307   .debug_str:0000000000000fc4 .LASF79
     /tmp/ccHOwAkS.s:5991   .debug_str:0000000000000649 .LASF80
     /tmp/ccHOwAkS.s:6059   .debug_str:0000000000000826 .LASF81
     /tmp/ccHOwAkS.s:6279   .debug_str:0000000000000f15 .LASF82
     /tmp/ccHOwAkS.s:5895   .debug_str:0000000000000366 .LASF84
     /tmp/ccHOwAkS.s:5999   .debug_str:000000000000067b .LASF85
     /tmp/ccHOwAkS.s:5853   .debug_str:000000000000022e .LASF86
     /tmp/ccHOwAkS.s:6119   .debug_str:00000000000009db .LASF87
     /tmp/ccHOwAkS.s:5829   .debug_str:0000000000000198 .LASF88
     /tmp/ccHOwAkS.s:6039   .debug_str:0000000000000793 .LASF89
     /tmp/ccHOwAkS.s:6213   .debug_str:0000000000000c8a .LASF163
     /tmp/ccHOwAkS.s:6291   .debug_str:0000000000000f58 .LASF90
     /tmp/ccHOwAkS.s:6231   .debug_str:0000000000000db0 .LASF91
     /tmp/ccHOwAkS.s:6227   .debug_str:0000000000000ce4 .LASF147
     /tmp/ccHOwAkS.s:5837   .debug_str:00000000000001b9 .LASF93
     /tmp/ccHOwAkS.s:5915   .debug_str:0000000000000419 .LASF95
     /tmp/ccHOwAkS.s:6015   .debug_str:00000000000006d3 .LASF96
     /tmp/ccHOwAkS.s:5811   .debug_str:00000000000000db .LASF97
     /tmp/ccHOwAkS.s:5887   .debug_str:0000000000000339 .LASF98
     /tmp/ccHOwAkS.s:5857   .debug_str:0000000000000254 .LASF99
     /tmp/ccHOwAkS.s:6167   .debug_str:0000000000000b46 .LASF100
     /tmp/ccHOwAkS.s:6181   .debug_str:0000000000000b8f .LASF102
     /tmp/ccHOwAkS.s:6019   .debug_str:00000000000006f9 .LASF101
     /tmp/ccHOwAkS.s:6269   .debug_str:0000000000000edb .LASF103
     /tmp/ccHOwAkS.s:5797   .debug_str:0000000000000070 .LASF104
     /tmp/ccHOwAkS.s:6025   .debug_str:0000000000000714 .LASF105
     /tmp/ccHOwAkS.s:5949   .debug_str:0000000000000523 .LASF106
     /tmp/ccHOwAkS.s:6209   .debug_str:0000000000000c6a .LASF107
     /tmp/ccHOwAkS.s:6043   .debug_str:00000000000007ae .LASF108
     /tmp/ccHOwAkS.s:5869   .debug_str:00000000000002b7 .LASF109
     /tmp/ccHOwAkS.s:6159   .debug_str:0000000000000afe .LASF110
     /tmp/ccHOwAkS.s:5789   .debug_str:000000000000004e .LASF111
     /tmp/ccHOwAkS.s:6321   .debug_str:0000000000001041 .LASF112
     /tmp/ccHOwAkS.s:5937   .debug_str:00000000000004c6 .LASF113
     /tmp/ccHOwAkS.s:5785   .debug_str:0000000000000031 .LASF114
     /tmp/ccHOwAkS.s:6083   .debug_str:00000000000008d7 .LASF115
     /tmp/ccHOwAkS.s:6171   .debug_str:0000000000000b57 .LASF116
     /tmp/ccHOwAkS.s:6141   .debug_str:0000000000000a50 .LASF117
     /tmp/ccHOwAkS.s:5817   .debug_str:0000000000000116 .LASF118
     /tmp/ccHOwAkS.s:6149   .debug_str:0000000000000a99 .LASF119
     /tmp/ccHOwAkS.s:6001   .debug_str:0000000000000684 .LASF120
GAS LISTING /tmp/ccHOwAkS.s 			page 42


     /tmp/ccHOwAkS.s:5893   .debug_str:0000000000000358 .LASF121
     /tmp/ccHOwAkS.s:6131   .debug_str:0000000000000a0d .LASF122
     /tmp/ccHOwAkS.s:5885   .debug_str:0000000000000331 .LASF123
     /tmp/ccHOwAkS.s:6085   .debug_str:00000000000008e4 .LASF124
     /tmp/ccHOwAkS.s:6177   .debug_str:0000000000000b74 .LASF125
     /tmp/ccHOwAkS.s:6251   .debug_str:0000000000000e2e .LASF126
     /tmp/ccHOwAkS.s:6057   .debug_str:0000000000000818 .LASF127
     /tmp/ccHOwAkS.s:6325   .debug_str:0000000000001058 .LASF190
     /tmp/ccHOwAkS.s:5875   .debug_str:00000000000002ea .LASF158
     /tmp/ccHOwAkS.s:5827   .debug_str:0000000000000170 .LASF160
     /tmp/ccHOwAkS.s:6271   .debug_str:0000000000000ef4 .LASF204
     /tmp/ccHOwAkS.s:5801   .debug_str:0000000000000088 .LASF206
     /tmp/ccHOwAkS.s:6087   .debug_str:00000000000008e9 .LASF128
     /tmp/ccHOwAkS.s:6235   .debug_str:0000000000000dc3 .LASF129
     /tmp/ccHOwAkS.s:6303   .debug_str:0000000000000fa3 .LASF130
     /tmp/ccHOwAkS.s:5889   .debug_str:0000000000000342 .LASF131
     /tmp/ccHOwAkS.s:5973   .debug_str:00000000000005c6 .LASF132
     /tmp/ccHOwAkS.s:6207   .debug_str:0000000000000c63 .LASF133
     /tmp/ccHOwAkS.s:6113   .debug_str:00000000000009a1 .LASF134
     /tmp/ccHOwAkS.s:6323   .debug_str:000000000000104e .LASF135
     /tmp/ccHOwAkS.s:5985   .debug_str:0000000000000616 .LASF136
     /tmp/ccHOwAkS.s:6089   .debug_str:00000000000008f5 .LASF137
     /tmp/ccHOwAkS.s:5927   .debug_str:000000000000046b .LASF138
     /tmp/ccHOwAkS.s:6277   .debug_str:0000000000000f0d .LASF139
     /tmp/ccHOwAkS.s:5865   .debug_str:0000000000000293 .LASF140
     /tmp/ccHOwAkS.s:6079   .debug_str:00000000000008ba .LASF141
     /tmp/ccHOwAkS.s:6041   .debug_str:000000000000079b .LASF142
     /tmp/ccHOwAkS.s:5953   .debug_str:0000000000000540 .LASF143
     /tmp/ccHOwAkS.s:5981   .debug_str:00000000000005fb .LASF144
     /tmp/ccHOwAkS.s:5933   .debug_str:000000000000049c .LASF145
     /tmp/ccHOwAkS.s:6199   .debug_str:0000000000000c29 .LASF146
     /tmp/ccHOwAkS.s:6133   .debug_str:0000000000000a18 .LASF148
     /tmp/ccHOwAkS.s:6021   .debug_str:0000000000000706 .LASF149
     /tmp/ccHOwAkS.s:6033   .debug_str:0000000000000760 .LASF215
     /tmp/ccHOwAkS.s:5969   .debug_str:00000000000005b3 .LASF150
     /tmp/ccHOwAkS.s:5993   .debug_str:000000000000064e .LASF151
     /tmp/ccHOwAkS.s:6315   .debug_str:000000000000100b .LASF152
     /tmp/ccHOwAkS.s:6161   .debug_str:0000000000000b03 .LASF153
     /tmp/ccHOwAkS.s:5961   .debug_str:0000000000000581 .LASF154
     /tmp/ccHOwAkS.s:5795   .debug_str:000000000000006b .LASF155
     /tmp/ccHOwAkS.s:6111   .debug_str:0000000000000999 .LASF156
     /tmp/ccHOwAkS.s:5777   .debug_str:0000000000000000 .LASF157
     /tmp/ccHOwAkS.s:6069   .debug_str:0000000000000858 .LASF159
     /tmp/ccHOwAkS.s:6071   .debug_str:0000000000000860 .LASF161
     /tmp/ccHOwAkS.s:6099   .debug_str:0000000000000936 .LASF274
     /tmp/ccHOwAkS.s:6073   .debug_str:0000000000000874 .LASF275
     /tmp/ccHOwAkS.s:6091   .debug_str:00000000000008ff .LASF162
     /tmp/ccHOwAkS.s:5839   .debug_str:00000000000001c7 .LASF164
     /tmp/ccHOwAkS.s:5779   .debug_str:000000000000000b .LASF165
     /tmp/ccHOwAkS.s:6009   .debug_str:00000000000006a9 .LASF166
     /tmp/ccHOwAkS.s:5809   .debug_str:00000000000000c2 .LASF167
     /tmp/ccHOwAkS.s:5955   .debug_str:0000000000000548 .LASF168
     /tmp/ccHOwAkS.s:6287   .debug_str:0000000000000f44 .LASF169
     /tmp/ccHOwAkS.s:6305   .debug_str:0000000000000fa9 .LASF170
     /tmp/ccHOwAkS.s:6221   .debug_str:0000000000000cc6 .LASF171
     /tmp/ccHOwAkS.s:5805   .debug_str:00000000000000aa .LASF172
     /tmp/ccHOwAkS.s:5977   .debug_str:00000000000005dc .LASF173
GAS LISTING /tmp/ccHOwAkS.s 			page 43


     /tmp/ccHOwAkS.s:6151   .debug_str:0000000000000aa5 .LASF174
     /tmp/ccHOwAkS.s:6267   .debug_str:0000000000000ed1 .LASF175
     /tmp/ccHOwAkS.s:6051   .debug_str:00000000000007e0 .LASF176
     /tmp/ccHOwAkS.s:5823   .debug_str:000000000000012e .LASF177
     /tmp/ccHOwAkS.s:6053   .debug_str:00000000000007ed .LASF178
     /tmp/ccHOwAkS.s:6253   .debug_str:0000000000000e36 .LASF179
     /tmp/ccHOwAkS.s:5965   .debug_str:000000000000059f .LASF180
     /tmp/ccHOwAkS.s:6055   .debug_str:00000000000007f7 .LASF181
     /tmp/ccHOwAkS.s:5833   .debug_str:00000000000001ab .LASF182
     /tmp/ccHOwAkS.s:5825   .debug_str:0000000000000153 .LASF183
     /tmp/ccHOwAkS.s:5967   .debug_str:00000000000005a8 .LASF184
     /tmp/ccHOwAkS.s:5989   .debug_str:000000000000063d .LASF185
     /tmp/ccHOwAkS.s:6129   .debug_str:0000000000000a08 .LASF186
     /tmp/ccHOwAkS.s:5929   .debug_str:0000000000000482 .LASF187
     /tmp/ccHOwAkS.s:6003   .debug_str:0000000000000690 .LASF188
     /tmp/ccHOwAkS.s:6017   .debug_str:00000000000006d9 .LASF189
     /tmp/ccHOwAkS.s:6313   .debug_str:0000000000000ff7 .LASF276
     /tmp/ccHOwAkS.s:5963   .debug_str:0000000000000587 .LASF191
     /tmp/ccHOwAkS.s:6007   .debug_str:00000000000006a4 .LASF192
     /tmp/ccHOwAkS.s:5901   .debug_str:000000000000038b .LASF193
     /tmp/ccHOwAkS.s:5861   .debug_str:000000000000027f .LASF194
     /tmp/ccHOwAkS.s:6163   .debug_str:0000000000000b15 .LASF195
     /tmp/ccHOwAkS.s:6139   .debug_str:0000000000000a45 .LASF196
     /tmp/ccHOwAkS.s:5813   .debug_str:00000000000000f0 .LASF197
     /tmp/ccHOwAkS.s:6255   .debug_str:0000000000000e57 .LASF198
     /tmp/ccHOwAkS.s:5959   .debug_str:000000000000056e .LASF199
     /tmp/ccHOwAkS.s:5843   .debug_str:00000000000001dc .LASF200
     /tmp/ccHOwAkS.s:6249   .debug_str:0000000000000e22 .LASF201
     /tmp/ccHOwAkS.s:5939   .debug_str:00000000000004d2 .LASF202
     /tmp/ccHOwAkS.s:6309   .debug_str:0000000000000fcf .LASF203
     /tmp/ccHOwAkS.s:5919   .debug_str:0000000000000450 .LASF205
     /tmp/ccHOwAkS.s:6081   .debug_str:00000000000008bf .LASF207
     /tmp/ccHOwAkS.s:5921   .debug_str:0000000000000458 .LASF208
     /tmp/ccHOwAkS.s:6175   .debug_str:0000000000000b67 .LASF209
     /tmp/ccHOwAkS.s:5911   .debug_str:00000000000003f1 .LASF210
     /tmp/ccHOwAkS.s:6063   .debug_str:0000000000000830 .LASF211
     /tmp/ccHOwAkS.s:6281   .debug_str:0000000000000f1e .LASF212
     /tmp/ccHOwAkS.s:6061   .debug_str:000000000000082b .LASF213
     /tmp/ccHOwAkS.s:6187   .debug_str:0000000000000bc7 .LASF214
     /tmp/ccHOwAkS.s:5903   .debug_str:00000000000003a0 .LASF216
     /tmp/ccHOwAkS.s:5979   .debug_str:00000000000005e6 .LASF233
     /tmp/ccHOwAkS.s:6311   .debug_str:0000000000000fe1 .LASF217
     /tmp/ccHOwAkS.s:6293   .debug_str:0000000000000f60 .LASF218
     /tmp/ccHOwAkS.s:5873   .debug_str:00000000000002e5 .LASF220
     /tmp/ccHOwAkS.s:6005   .debug_str:000000000000069f .LASF219
     /tmp/ccHOwAkS.s:5783   .debug_str:0000000000000016 .LASF221
     /tmp/ccHOwAkS.s:6225   .debug_str:0000000000000cdf .LASF222
     /tmp/ccHOwAkS.s:5947   .debug_str:000000000000051e .LASF223
     /tmp/ccHOwAkS.s:5781   .debug_str:0000000000000010 .LASF224
     /tmp/ccHOwAkS.s:5899   .debug_str:0000000000000384 .LASF225
     /tmp/ccHOwAkS.s:6115   .debug_str:00000000000009b4 .LASF226
     /tmp/ccHOwAkS.s:6223   .debug_str:0000000000000cd4 .LASF227
     /tmp/ccHOwAkS.s:5863   .debug_str:0000000000000285 .LASF228
     /tmp/ccHOwAkS.s:6065   .debug_str:0000000000000838 .LASF229
     /tmp/ccHOwAkS.s:6239   .debug_str:0000000000000de0 .LASF230
     /tmp/ccHOwAkS.s:6193   .debug_str:0000000000000bfa .LASF231
     /tmp/ccHOwAkS.s:6105   .debug_str:0000000000000963 .LASF232
GAS LISTING /tmp/ccHOwAkS.s 			page 44


     /tmp/ccHOwAkS.s:6189   .debug_str:0000000000000bda .LASF234
     /tmp/ccHOwAkS.s:6037   .debug_str:0000000000000777 .LASF235
     /tmp/ccHOwAkS.s:6195   .debug_str:0000000000000c11 .LASF236
     /tmp/ccHOwAkS.s:6165   .debug_str:0000000000000b2b .LASF237
     /tmp/ccHOwAkS.s:6259   .debug_str:0000000000000e7f .LASF238
     /tmp/ccHOwAkS.s:5945   .debug_str:0000000000000506 .LASF239
     /tmp/ccHOwAkS.s:5803   .debug_str:000000000000009a .LASF240
     /tmp/ccHOwAkS.s:6047   .debug_str:00000000000007c8 .LASF241
     /tmp/ccHOwAkS.s:6275   .debug_str:0000000000000f07 .LASF242
     /tmp/ccHOwAkS.s:6173   .debug_str:0000000000000b60 .LASF243
     /tmp/ccHOwAkS.s:6217   .debug_str:0000000000000cac .LASF244
     /tmp/ccHOwAkS.s:5807   .debug_str:00000000000000b8 .LASF245
     /tmp/ccHOwAkS.s:6013   .debug_str:00000000000006c1 .LASF246
     /tmp/ccHOwAkS.s:6153   .debug_str:0000000000000ad7 .LASF247
     /tmp/ccHOwAkS.s:6241   .debug_str:0000000000000def .LASF248
     /tmp/ccHOwAkS.s:5799   .debug_str:000000000000007b .LASF249
     /tmp/ccHOwAkS.s:5819   .debug_str:0000000000000121 .LASF250
     /tmp/ccHOwAkS.s:6179   .debug_str:0000000000000b7a .LASF251
     /tmp/ccHOwAkS.s:6273   .debug_str:0000000000000efc .LASF252
     /tmp/ccHOwAkS.s:5907   .debug_str:00000000000003ce .LASF253
     /tmp/ccHOwAkS.s:6203   .debug_str:0000000000000c4b .LASF254
     /tmp/ccHOwAkS.s:5871   .debug_str:00000000000002c8 .LASF255
     /tmp/ccHOwAkS.s:6125   .debug_str:00000000000009f1 .LASF256
     /tmp/ccHOwAkS.s:5855   .debug_str:0000000000000237 .LASF257
     /tmp/ccHOwAkS.s:6327   .debug_str:000000000000107b .LASF258
     /tmp/ccHOwAkS.s:5913   .debug_str:00000000000003fd .LASF259
     /tmp/ccHOwAkS.s:6095   .debug_str:0000000000000916 .LASF260
     /tmp/ccHOwAkS.s:6201   .debug_str:0000000000000c36 .LASF261
     /tmp/ccHOwAkS.s:6075   .debug_str:000000000000088c .LASF262
     /tmp/ccHOwAkS.s:97     .text._ZN4ListI3TCBE6removeEPS0_:0000000000000000 .LFB40
     /tmp/ccHOwAkS.s:186    .text._ZN4ListI3TCBE6removeEPS0_:0000000000000088 .LFE40
     /tmp/ccHOwAkS.s:5923   .debug_str:000000000000045d .LASF277
     /tmp/ccHOwAkS.s:5048   .debug_loc:0000000000000000 .LLST1
     /tmp/ccHOwAkS.s:5070   .debug_loc:000000000000005f .LLST2
     /tmp/ccHOwAkS.s:5088   .debug_loc:00000000000000ab .LLST3
     /tmp/ccHOwAkS.s:5975   .debug_str:00000000000005d7 .LASF263
     /tmp/ccHOwAkS.s:5112   .debug_loc:000000000000011b .LLST4
     /tmp/ccHOwAkS.s:153    .text._ZN4ListI3TCBE6removeEPS0_:0000000000000058 .LVL9
     /tmp/ccHOwAkS.s:193    .text:000000000000005c .LFB36
     /tmp/ccHOwAkS.s:1025   .text:00000000000003d4 .LFE36
     /tmp/ccHOwAkS.s:5132   .debug_loc:0000000000000178 .LLST5
     /tmp/ccHOwAkS.s:5203   .debug_loc:00000000000002cb .LLST6
     /tmp/ccHOwAkS.s:5278   .debug_loc:0000000000000431 .LLST7
     /tmp/ccHOwAkS.s:5349   .debug_loc:0000000000000584 .LLST8
     /tmp/ccHOwAkS.s:5420   .debug_loc:00000000000006d7 .LLST9
     /tmp/ccHOwAkS.s:6191   .debug_str:0000000000000bf3 .LASF264
     /tmp/ccHOwAkS.s:5491   .debug_loc:000000000000082a .LLST10
     /tmp/ccHOwAkS.s:443    .text:0000000000000120 .LBB98
     /tmp/ccHOwAkS.s:492    .text:0000000000000164 .LBE98
     /tmp/ccHOwAkS.s:5518   .debug_loc:000000000000089d .LLST23
     /tmp/ccHOwAkS.s:456    .text:0000000000000130 .LBB99
     /tmp/ccHOwAkS.s:481    .text:0000000000000154 .LBE99
     /tmp/ccHOwAkS.s:5533   .debug_loc:00000000000008e6 .LLST24
     /tmp/ccHOwAkS.s:469    .text:0000000000000148 .LVL24
     /tmp/ccHOwAkS.s:495    .text:0000000000000164 .LBB100
     /tmp/ccHOwAkS.s:577    .text:00000000000001d4 .LBE100
     /tmp/ccHOwAkS.s:5540   .debug_loc:0000000000000909 .LLST25
GAS LISTING /tmp/ccHOwAkS.s 			page 45


     /tmp/ccHOwAkS.s:5547   .debug_loc:000000000000092c .LLST26
     /tmp/ccHOwAkS.s:5562   .debug_loc:0000000000000975 .LLST27
     /tmp/ccHOwAkS.s:514    .text:0000000000000180 .LBB103
     /tmp/ccHOwAkS.s:552    .text:00000000000001c0 .LBE103
     /tmp/ccHOwAkS.s:5573   .debug_loc:00000000000009ab .LLST28
     /tmp/ccHOwAkS.s:540    .text:00000000000001ac .LVL34
     /tmp/ccHOwAkS.s:548    .text:00000000000001bc .LVL35
     /tmp/ccHOwAkS.s:601    .text:00000000000001fc .LBB109
     /tmp/ccHOwAkS.s:675    .text:0000000000000234 .LBE109
     /tmp/ccHOwAkS.s:5584   .debug_loc:00000000000009e1 .LLST30
     /tmp/ccHOwAkS.s:5591   .debug_loc:0000000000000a04 .LLST31
     /tmp/ccHOwAkS.s:603    .text:00000000000001fc .LBB110
     /tmp/ccHOwAkS.s:619    .text:0000000000000208 .LBE110
     /tmp/ccHOwAkS.s:621    .text:0000000000000208 .LBB112
     /tmp/ccHOwAkS.s:637    .text:0000000000000214 .LBE112
     /tmp/ccHOwAkS.s:647    .text:0000000000000228 .LBB114
     /tmp/ccHOwAkS.s:658    .text:000000000000022c .LBE114
     /tmp/ccHOwAkS.s:5598   .debug_loc:0000000000000a27 .LLST32
     /tmp/ccHOwAkS.s:660    .text:000000000000022c .LBB116
     /tmp/ccHOwAkS.s:674    .text:0000000000000234 .LBE116
     /tmp/ccHOwAkS.s:5605   .debug_loc:0000000000000a4a .LLST33
     /tmp/ccHOwAkS.s:645    .text:0000000000000228 .LVL45
     /tmp/ccHOwAkS.s:679    .text:0000000000000234 .LBB74
     /tmp/ccHOwAkS.s:815    .text:00000000000002d0 .LBE74
     /tmp/ccHOwAkS.s:5612   .debug_loc:0000000000000a6d .LLST15
     /tmp/ccHOwAkS.s:5619   .debug_loc:0000000000000a90 .LLST16
     /tmp/ccHOwAkS.s:5626   .debug_loc:0000000000000ab3 .LLST17
     /tmp/ccHOwAkS.s:790    .text:00000000000002a4 .LBB81
     /tmp/ccHOwAkS.s:801    .text:00000000000002bc .LBE81
     /tmp/ccHOwAkS.s:5633   .debug_loc:0000000000000ad6 .LLST18
     /tmp/ccHOwAkS.s:800    .text:00000000000002bc .LVL58
     /tmp/ccHOwAkS.s:681    .text:0000000000000234 .LBB75
     /tmp/ccHOwAkS.s:697    .text:0000000000000240 .LBE75
     /tmp/ccHOwAkS.s:699    .text:0000000000000240 .LBB77
     /tmp/ccHOwAkS.s:715    .text:000000000000024c .LBE77
     /tmp/ccHOwAkS.s:730    .text:0000000000000260 .LBB82
     /tmp/ccHOwAkS.s:741    .text:0000000000000264 .LBE82
     /tmp/ccHOwAkS.s:5641   .debug_loc:0000000000000afa .LLST19
     /tmp/ccHOwAkS.s:743    .text:0000000000000264 .LBB84
     /tmp/ccHOwAkS.s:754    .text:0000000000000268 .LBE84
     /tmp/ccHOwAkS.s:5648   .debug_loc:0000000000000b1d .LLST20
     /tmp/ccHOwAkS.s:756    .text:0000000000000268 .LBB86
     /tmp/ccHOwAkS.s:771    .text:0000000000000274 .LBE86
     /tmp/ccHOwAkS.s:5655   .debug_loc:0000000000000b40 .LLST21
     /tmp/ccHOwAkS.s:719    .text:0000000000000254 .LVL50
     /tmp/ccHOwAkS.s:787    .text:00000000000002a0 .LVL56
     /tmp/ccHOwAkS.s:809    .text:00000000000002cc .LVL59
     /tmp/ccHOwAkS.s:5664   .debug_loc:0000000000000b66 .LLST11
     /tmp/ccHOwAkS.s:5679   .debug_loc:0000000000000baf .LLST12
     /tmp/ccHOwAkS.s:291    .text:00000000000000c8 .LBB64
     /tmp/ccHOwAkS.s:306    .text:00000000000000d4 .LBE64
     /tmp/ccHOwAkS.s:311    .text:00000000000000d8 .LBB66
     /tmp/ccHOwAkS.s:327    .text:00000000000000e4 .LBE66
     /tmp/ccHOwAkS.s:826    .text:00000000000002d8 .LBB68
     /tmp/ccHOwAkS.s:837    .text:00000000000002dc .LBE68
     /tmp/ccHOwAkS.s:5694   .debug_loc:0000000000000bf8 .LLST13
     /tmp/ccHOwAkS.s:839    .text:00000000000002dc .LBB70
GAS LISTING /tmp/ccHOwAkS.s 			page 46


     /tmp/ccHOwAkS.s:851    .text:00000000000002e0 .LBE70
     /tmp/ccHOwAkS.s:5701   .debug_loc:0000000000000c1b .LLST14
     /tmp/ccHOwAkS.s:822    .text:00000000000002d8 .LVL61
     /tmp/ccHOwAkS.s:885    .text:0000000000000308 .LVL65
     /tmp/ccHOwAkS.s:894    .text:0000000000000314 .LVL67
     /tmp/ccHOwAkS.s:903    .text:0000000000000320 .LVL69
     /tmp/ccHOwAkS.s:916    .text:0000000000000338 .LVL71
     /tmp/ccHOwAkS.s:927    .text:0000000000000348 .LVL74
     /tmp/ccHOwAkS.s:936    .text:0000000000000354 .LVL76
     /tmp/ccHOwAkS.s:945    .text:0000000000000360 .LVL78
     /tmp/ccHOwAkS.s:954    .text:000000000000036c .LVL80
     /tmp/ccHOwAkS.s:963    .text:0000000000000378 .LVL82
     /tmp/ccHOwAkS.s:972    .text:0000000000000384 .LVL84
     /tmp/ccHOwAkS.s:986    .text:00000000000003a0 .LVL88
     /tmp/ccHOwAkS.s:995    .text:00000000000003ac .LVL90
     /tmp/ccHOwAkS.s:1006   .text:00000000000003bc .LVL93
     /tmp/ccHOwAkS.s:246    .text:0000000000000090 .LBB58
     /tmp/ccHOwAkS.s:262    .text:000000000000009c .LBE58
     /tmp/ccHOwAkS.s:417    .text:0000000000000108 .LBB93
     /tmp/ccHOwAkS.s:429    .text:0000000000000110 .LBE93
     /tmp/ccHOwAkS.s:5708   .debug_loc:0000000000000c3e .LLST22
     /tmp/ccHOwAkS.s:432    .text:0000000000000110 .LBB96
     /tmp/ccHOwAkS.s:440    .text:000000000000011c .LBE96
     /tmp/ccHOwAkS.s:590    .text:00000000000001f4 .LBB107
     /tmp/ccHOwAkS.s:598    .text:00000000000001f8 .LBE107
     /tmp/ccHOwAkS.s:5716   .debug_loc:0000000000000c62 .LLST29
     /tmp/ccHOwAkS.s:1018   .text:00000000000003d0 .LVL96
     /tmp/ccHOwAkS.s:71     .text:0000000000000044 .LFB35
     /tmp/ccHOwAkS.s:90     .text:000000000000005c .LFE35
     /tmp/ccHOwAkS.s:10     .text:0000000000000000 .LFB34
     /tmp/ccHOwAkS.s:65     .text:0000000000000044 .LFE34
     /tmp/ccHOwAkS.s:30     .text:0000000000000028 .LBB56
     /tmp/ccHOwAkS.s:44     .text:0000000000000030 .LBE56
     /tmp/ccHOwAkS.s:5723   .debug_loc:0000000000000c85 .LLST0
     /tmp/ccHOwAkS.s:5815   .debug_str:0000000000000111 .LASF265
     /tmp/ccHOwAkS.s:6093   .debug_str:000000000000090f .LASF278
     /tmp/ccHOwAkS.s:6035   .debug_str:000000000000076c .LASF266
     /tmp/ccHOwAkS.s:6295   .debug_str:0000000000000f76 .LASF267
     /tmp/ccHOwAkS.s:5951   .debug_str:000000000000052e .LASF268
     /tmp/ccHOwAkS.s:6101   .debug_str:0000000000000941 .LASF269
     /tmp/ccHOwAkS.s:101    .text._ZN4ListI3TCBE6removeEPS0_:0000000000000000 .LVL3
     /tmp/ccHOwAkS.s:106    .text._ZN4ListI3TCBE6removeEPS0_:0000000000000008 .LVL5
     /tmp/ccHOwAkS.s:164    .text._ZN4ListI3TCBE6removeEPS0_:0000000000000068 .LVL10
     /tmp/ccHOwAkS.s:103    .text._ZN4ListI3TCBE6removeEPS0_:0000000000000004 .LVL4
     /tmp/ccHOwAkS.s:109    .text._ZN4ListI3TCBE6removeEPS0_:000000000000000c .LVL6
     /tmp/ccHOwAkS.s:117    .text._ZN4ListI3TCBE6removeEPS0_:0000000000000018 .LVL7
     /tmp/ccHOwAkS.s:122    .text._ZN4ListI3TCBE6removeEPS0_:0000000000000020 .LVL8
     /tmp/ccHOwAkS.s:219    .text:0000000000000080 .LVL11
     /tmp/ccHOwAkS.s:451    .text:000000000000012c .LVL23
     /tmp/ccHOwAkS.s:671    .text:0000000000000234 .LVL47
     /tmp/ccHOwAkS.s:812    .text:00000000000002d0 .LVL60
     /tmp/ccHOwAkS.s:874    .text:0000000000000300 .LVL64
     /tmp/ccHOwAkS.s:888    .text:000000000000030c .LVL66
     /tmp/ccHOwAkS.s:897    .text:0000000000000318 .LVL68
     /tmp/ccHOwAkS.s:906    .text:0000000000000324 .LVL70
     /tmp/ccHOwAkS.s:919    .text:000000000000033c .LVL72
     /tmp/ccHOwAkS.s:930    .text:000000000000034c .LVL75
GAS LISTING /tmp/ccHOwAkS.s 			page 47


     /tmp/ccHOwAkS.s:939    .text:0000000000000358 .LVL77
     /tmp/ccHOwAkS.s:948    .text:0000000000000364 .LVL79
     /tmp/ccHOwAkS.s:957    .text:0000000000000370 .LVL81
     /tmp/ccHOwAkS.s:966    .text:000000000000037c .LVL83
     /tmp/ccHOwAkS.s:975    .text:0000000000000388 .LVL85
     /tmp/ccHOwAkS.s:989    .text:00000000000003a4 .LVL89
     /tmp/ccHOwAkS.s:998    .text:00000000000003b0 .LVL91
     /tmp/ccHOwAkS.s:1009   .text:00000000000003c0 .LVL94
     /tmp/ccHOwAkS.s:225    .text:0000000000000084 .LVL12
     /tmp/ccHOwAkS.s:984    .text:0000000000000398 .LVL87
     /tmp/ccHOwAkS.s:1004   .text:00000000000003b4 .LVL92
     /tmp/ccHOwAkS.s:1015   .text:00000000000003c4 .LVL95
     /tmp/ccHOwAkS.s:231    .text:0000000000000088 .LVL13
     /tmp/ccHOwAkS.s:925    .text:0000000000000340 .LVL73
     /tmp/ccHOwAkS.s:981    .text:000000000000038c .LVL86
     /tmp/ccHOwAkS.s:237    .text:000000000000008c .LVL14
     /tmp/ccHOwAkS.s:243    .text:0000000000000090 .LVL15
     /tmp/ccHOwAkS.s:260    .text:000000000000009c .LVL16
     /tmp/ccHOwAkS.s:285    .text:00000000000000c0 .LVL17
     /tmp/ccHOwAkS.s:333    .text:00000000000000f8 .LVL20
     /tmp/ccHOwAkS.s:410    .text:0000000000000108 .LVL21
     /tmp/ccHOwAkS.s:478    .text:0000000000000150 .LVL26
     /tmp/ccHOwAkS.s:484    .text:0000000000000158 .LVL27
     /tmp/ccHOwAkS.s:490    .text:0000000000000164 .LVL28
     /tmp/ccHOwAkS.s:473    .text:000000000000014c .LVL25
     /tmp/ccHOwAkS.s:499    .text:0000000000000170 .LVL29
     /tmp/ccHOwAkS.s:501    .text:0000000000000174 .LVL30
     /tmp/ccHOwAkS.s:527    .text:0000000000000190 .LVL33
     /tmp/ccHOwAkS.s:550    .text:00000000000001c0 .LVL36
     /tmp/ccHOwAkS.s:558    .text:00000000000001c4 .LVL37
     /tmp/ccHOwAkS.s:566    .text:00000000000001cc .LVL38
     /tmp/ccHOwAkS.s:573    .text:00000000000001d4 .LVL40
     /tmp/ccHOwAkS.s:571    .text:00000000000001d0 .LVL39
     /tmp/ccHOwAkS.s:508    .text:0000000000000178 .LVL31
     /tmp/ccHOwAkS.s:518    .text:0000000000000184 .LVL32
     /tmp/ccHOwAkS.s:617    .text:0000000000000208 .LVL43
     /tmp/ccHOwAkS.s:635    .text:0000000000000214 .LVL44
     /tmp/ccHOwAkS.s:655    .text:000000000000022c .LVL46
     /tmp/ccHOwAkS.s:695    .text:0000000000000240 .LVL48
     /tmp/ccHOwAkS.s:713    .text:000000000000024c .LVL49
     /tmp/ccHOwAkS.s:721    .text:0000000000000258 .LVL51
     /tmp/ccHOwAkS.s:726    .text:0000000000000260 .LVL52
     /tmp/ccHOwAkS.s:795    .text:00000000000002b0 .LVL57
     /tmp/ccHOwAkS.s:738    .text:0000000000000264 .LVL53
     /tmp/ccHOwAkS.s:751    .text:0000000000000268 .LVL54
     /tmp/ccHOwAkS.s:768    .text:0000000000000274 .LVL55
     /tmp/ccHOwAkS.s:309    .text:00000000000000d8 .LVL18
     /tmp/ccHOwAkS.s:847    .text:00000000000002e0 .LVL63
     /tmp/ccHOwAkS.s:325    .text:00000000000000e4 .LVL19
     /tmp/ccHOwAkS.s:834    .text:00000000000002dc .LVL62
     /tmp/ccHOwAkS.s:426    .text:0000000000000110 .LVL22
     /tmp/ccHOwAkS.s:589    .text:00000000000001f4 .LVL41
     /tmp/ccHOwAkS.s:596    .text:00000000000001f8 .LVL42
     /tmp/ccHOwAkS.s:29     .text:0000000000000028 .LVL0
     /tmp/ccHOwAkS.s:40     .text:0000000000000030 .LVL1
     /tmp/ccHOwAkS.s:1035   .debug_info:0000000000000000 .Ldebug_info0
     /tmp/ccHOwAkS.s:5      .text:0000000000000000 .Ltext0
GAS LISTING /tmp/ccHOwAkS.s 			page 48


     /tmp/ccHOwAkS.s:1027   .text:00000000000003d4 .Letext0
     /tmp/ccHOwAkS.s:289    .text:00000000000000c8 .LBB63
     /tmp/ccHOwAkS.s:412    .text:0000000000000108 .LBE63
     /tmp/ccHOwAkS.s:817    .text:00000000000002d0 .LBB72
     /tmp/ccHOwAkS.s:852    .text:00000000000002e0 .LBE72
     /tmp/ccHOwAkS.s:880    .text:0000000000000300 .LBB73
     /tmp/ccHOwAkS.s:1011   .text:00000000000003c0 .LBE73
     /tmp/ccHOwAkS.s:503    .text:0000000000000174 .LBB101
     /tmp/ccHOwAkS.s:554    .text:00000000000001c0 .LBE101
     /tmp/ccHOwAkS.s:562    .text:00000000000001c8 .LBB105
     /tmp/ccHOwAkS.s:576    .text:00000000000001d4 .LBE105
     /tmp/ccHOwAkS.s:504    .text:0000000000000174 .LBB102
     /tmp/ccHOwAkS.s:553    .text:00000000000001c0 .LBE102
     /tmp/ccHOwAkS.s:568    .text:00000000000001cc .LBB104
     /tmp/ccHOwAkS.s:575    .text:00000000000001d4 .LBE104

UNDEFINED SYMBOLS
_ZN3TCB7runningE
_Z14handleNewCharsPv
_ZdlPv
_ZN9Scheduler12first_sleepyE
_ZN9Scheduler3putEP3TCB
_ZN3Sem5firstE
_ZN3TCB16time_slice_countE
_ZN3TCB8dispatchEv
plic_claim
CONSOLE_STATUS
_ZN9myConsole11inputBufferE
_ZNK13BoundedBuffer4fullEv
CONSOLE_RX_DATA
_ZN9myConsole10input_putcEc
plic_complete
_ZN15MemoryAllocator9mem_allocEm
_ZN15MemoryAllocator8mem_freeEPv
_ZN3TCB13_threadCreateEPPS_PFvPvES2_S2_
_ZN3TCB11_threadExitEv
_ZN3Sem4openEPPS_j
_ZN3Sem7s_closeEPS_
_ZN3Sem4waitEPS_
_ZN3Sem6signalEPS_
_ZN3Sem9timedwaitEPS_m
_ZN3Sem7trywaitEPS_
_ZN9Scheduler10time_sleepEP3TCBm
_ZN9myConsole10input_getcEv
_ZN9myConsole11output_putcEc
_Z12printIntegerm
