GAS LISTING /tmp/cc4PTFYO.s 			page 1


   1              		.file	"riscv.cpp"
   2              		.option pic
   3              		.option norelax
   4              		.text
   5              	.Ltext0:
   6              		.align	2
   7              		.globl	_ZN5RISCV10popSppSpieEv
   9              	_ZN5RISCV10popSppSpieEv:
  10              	.LFB33:
  11              		.file 1 "src/riscv.cpp"
   1:src/riscv.cpp **** #include "../lib/hw.h"
   2:src/riscv.cpp **** #include "../h/riscv.hpp"
   3:src/riscv.cpp **** #include "../h/syscall_c.hpp"
   4:src/riscv.cpp **** #include "../h/Memoryallocator.hpp"
   5:src/riscv.cpp **** #include "../h/thread.hpp"
   6:src/riscv.cpp **** #include "../h/Console.hpp"
   7:src/riscv.cpp **** #include "../h/print.hpp"
   8:src/riscv.cpp **** 
   9:src/riscv.cpp **** extern void printInteger(uint64);
  10:src/riscv.cpp **** extern void printString(char*);
  11:src/riscv.cpp **** extern void handleNewChars(void*);
  12:src/riscv.cpp **** 
  13:src/riscv.cpp **** // first time running a thread, sepc inside of wrapper
  14:src/riscv.cpp **** 
  15:src/riscv.cpp **** void RISCV::popSppSpie() {
  12              		.loc 1 15 26
  13              		.cfi_startproc
  14 0000 130101FF 		addi	sp,sp,-16
  15              		.cfi_def_cfa_offset 16
  16 0004 23348100 		sd	s0,8(sp)
  17              		.cfi_offset 8, -8
  18 0008 13040101 		addi	s0,sp,16
  19              		.cfi_def_cfa 8, 0
  16:src/riscv.cpp **** 
  17:src/riscv.cpp ****     // not inline ( ra reg )
  18:src/riscv.cpp **** 
  19:src/riscv.cpp ****     if (TCB::running->routine != handleNewChars) RISCV::mask_status(SPP);
  20              		.loc 1 19 5
  21              		.loc 1 19 23 is_stmt 0
  22 000c 97070000 		la	a5,_ZN3TCB7runningE
  22      83B70700 
  23 0014 83B70700 		ld	a5,0(a5)
  24 0018 03B70703 		ld	a4,48(a5)
  25              		.loc 1 19 5
  26 001c 97070000 		la	a5,_Z14handleNewCharsPv
  26      83B70700 
  27 0024 6306F700 		beq	a4,a5,.L2
  28              		.loc 1 19 50 is_stmt 1
  29              	.LVL0:
  30              	.LBB56:
  31              	.LBB57:
  32              		.file 2 "src/../h/riscv.hpp"
   1:src/../h/riscv.hpp **** //
   2:src/../h/riscv.hpp **** // Created by os on 4/7/24.
   3:src/../h/riscv.hpp **** //
   4:src/../h/riscv.hpp **** 
   5:src/../h/riscv.hpp **** #ifndef PROJECT_BASE_RISCV_HPP
GAS LISTING /tmp/cc4PTFYO.s 			page 2


   6:src/../h/riscv.hpp **** #define PROJECT_BASE_RISCV_HPP
   7:src/../h/riscv.hpp **** 
   8:src/../h/riscv.hpp **** #include "../lib/hw.h"
   9:src/../h/riscv.hpp **** 
  10:src/../h/riscv.hpp **** class RISCV {
  11:src/../h/riscv.hpp **** public:
  12:src/../h/riscv.hpp **** 
  13:src/../h/riscv.hpp ****     enum causes {
  14:src/../h/riscv.hpp ****         SOFTWARE = 0x8000000000000001UL,
  15:src/../h/riscv.hpp ****         EXTERNAL = 0x8000000000000009UL,
  16:src/../h/riscv.hpp ****         U_ECALL  = 0x0000000000000008UL,
  17:src/../h/riscv.hpp ****         S_ECALL  = 0x0000000000000009UL
  18:src/../h/riscv.hpp ****     };
  19:src/../h/riscv.hpp **** 
  20:src/../h/riscv.hpp ****     static void supervisor_trap();
  21:src/../h/riscv.hpp ****     static void handle_interrupt();
  22:src/../h/riscv.hpp **** 
  23:src/../h/riscv.hpp ****     static void push_regs();
  24:src/../h/riscv.hpp ****     static void pop_regs();
  25:src/../h/riscv.hpp **** 
  26:src/../h/riscv.hpp ****     static uint64 return_value(uint64 value);
  27:src/../h/riscv.hpp **** 
  28:src/../h/riscv.hpp ****     static uint64 rd_scause();
  29:src/../h/riscv.hpp ****     static void wr_scause(uint64 value);
  30:src/../h/riscv.hpp **** 
  31:src/../h/riscv.hpp ****     static uint64 rd_sepc();
  32:src/../h/riscv.hpp ****     static void wr_sepc(uint64 value);
  33:src/../h/riscv.hpp **** 
  34:src/../h/riscv.hpp ****     static uint64 rd_stvec();
  35:src/../h/riscv.hpp ****     static void wr_stvec(uint64 value);
  36:src/../h/riscv.hpp **** 
  37:src/../h/riscv.hpp ****     static uint64 rd_stval();
  38:src/../h/riscv.hpp ****     static void wr_stval(uint64 value);
  39:src/../h/riscv.hpp **** 
  40:src/../h/riscv.hpp ****     static uint64 rd_sip();
  41:src/../h/riscv.hpp ****     static void wr_sip(uint64 value);
  42:src/../h/riscv.hpp **** 
  43:src/../h/riscv.hpp ****     static uint64 rd_sstatus();
  44:src/../h/riscv.hpp ****     static void wr_sstatus(uint64 value);
  45:src/../h/riscv.hpp **** 
  46:src/../h/riscv.hpp ****     static void clear_sip(uint64 mask);
  47:src/../h/riscv.hpp ****     static void set_sip(uint64 mask);
  48:src/../h/riscv.hpp **** 
  49:src/../h/riscv.hpp ****     static void mask_status(uint64 mask);
  50:src/../h/riscv.hpp ****     static void set_status(uint64 mask);
  51:src/../h/riscv.hpp **** 
  52:src/../h/riscv.hpp ****     static void popSppSpie();
  53:src/../h/riscv.hpp ****     // pop sstatus.spp and sstatus.spie bits
  54:src/../h/riscv.hpp ****     // must be in cpp, not inline
  55:src/../h/riscv.hpp **** 
  56:src/../h/riscv.hpp ****     enum mask_sstatus {
  57:src/../h/riscv.hpp ****         SIE = (1 << 1),
  58:src/../h/riscv.hpp ****         SPIE =(1 << 5),
  59:src/../h/riscv.hpp ****         SPP = (1 << 8)
  60:src/../h/riscv.hpp ****     };
  61:src/../h/riscv.hpp **** 
  62:src/../h/riscv.hpp ****     enum mask_sip_sie {
GAS LISTING /tmp/cc4PTFYO.s 			page 3


  63:src/../h/riscv.hpp ****         SS = (1 << 1),
  64:src/../h/riscv.hpp ****         SE = (1 << 9)
  65:src/../h/riscv.hpp ****     };
  66:src/../h/riscv.hpp **** 
  67:src/../h/riscv.hpp **** };
  68:src/../h/riscv.hpp **** 
  69:src/../h/riscv.hpp **** inline uint64 RISCV::rd_scause() {
  70:src/../h/riscv.hpp ****     uint64 volatile value;
  71:src/../h/riscv.hpp ****     __asm__ volatile ("csrr %0, scause" : "=r"(value));
  72:src/../h/riscv.hpp ****     return value;
  73:src/../h/riscv.hpp **** }
  74:src/../h/riscv.hpp **** 
  75:src/../h/riscv.hpp **** inline void RISCV::wr_scause(uint64 value) {
  76:src/../h/riscv.hpp ****     __asm__ volatile ("csrw scause, %0" : : "r"(value));
  77:src/../h/riscv.hpp **** }
  78:src/../h/riscv.hpp **** 
  79:src/../h/riscv.hpp **** inline uint64 RISCV::rd_sepc() {
  80:src/../h/riscv.hpp ****     uint64 volatile value;
  81:src/../h/riscv.hpp ****     __asm__ volatile ("csrr %0, sepc" : "=r"(value));
  82:src/../h/riscv.hpp ****     return value;
  83:src/../h/riscv.hpp **** }
  84:src/../h/riscv.hpp **** 
  85:src/../h/riscv.hpp **** inline void RISCV::wr_sepc(uint64 value) {
  86:src/../h/riscv.hpp ****     __asm__ volatile ("csrw sepc, %0" : : "r"(value));
  87:src/../h/riscv.hpp **** }
  88:src/../h/riscv.hpp **** 
  89:src/../h/riscv.hpp **** inline uint64 RISCV::rd_stvec() {
  90:src/../h/riscv.hpp ****     uint64 volatile value;
  91:src/../h/riscv.hpp ****     __asm__ volatile ("csrr %0, stvec" : "=r"(value));
  92:src/../h/riscv.hpp ****     return value;
  93:src/../h/riscv.hpp **** }
  94:src/../h/riscv.hpp **** 
  95:src/../h/riscv.hpp **** inline void RISCV::wr_stvec(uint64 value) {
  96:src/../h/riscv.hpp ****     __asm__ volatile ("csrw stvec, %0" : : "r"(value));
  97:src/../h/riscv.hpp **** }
  98:src/../h/riscv.hpp **** 
  99:src/../h/riscv.hpp **** inline uint64 RISCV::rd_stval() {
 100:src/../h/riscv.hpp ****     uint64 volatile value;
 101:src/../h/riscv.hpp ****     __asm__ volatile ("csrr %0, stval" : "=r"(value));
 102:src/../h/riscv.hpp ****     return value;
 103:src/../h/riscv.hpp **** }
 104:src/../h/riscv.hpp **** 
 105:src/../h/riscv.hpp **** inline void RISCV::wr_stval(uint64 value) {
 106:src/../h/riscv.hpp ****     __asm__ volatile ("csrw stval, %0" : : "r"(value));
 107:src/../h/riscv.hpp **** }
 108:src/../h/riscv.hpp **** 
 109:src/../h/riscv.hpp **** inline uint64 RISCV::rd_sip() {
 110:src/../h/riscv.hpp ****     uint64 volatile value;
 111:src/../h/riscv.hpp ****     __asm__ volatile ("csrr %0, sip" : "=r"(value));
 112:src/../h/riscv.hpp ****     return value;
 113:src/../h/riscv.hpp **** }
 114:src/../h/riscv.hpp **** 
 115:src/../h/riscv.hpp **** inline void RISCV::wr_sip(uint64 value) {
 116:src/../h/riscv.hpp ****     __asm__ volatile ("csrw sip, %0" : : "r"(value));
 117:src/../h/riscv.hpp **** }
 118:src/../h/riscv.hpp **** 
 119:src/../h/riscv.hpp **** inline uint64 RISCV::rd_sstatus() {
GAS LISTING /tmp/cc4PTFYO.s 			page 4


 120:src/../h/riscv.hpp ****     uint64 volatile value;
 121:src/../h/riscv.hpp ****     __asm__ volatile ("csrr %0, sstatus" : "=r"(value));
 122:src/../h/riscv.hpp ****     return value;
 123:src/../h/riscv.hpp **** }
 124:src/../h/riscv.hpp **** 
 125:src/../h/riscv.hpp **** inline void RISCV::wr_sstatus(uint64 value) {
 126:src/../h/riscv.hpp ****     __asm__ volatile ("csrw sstatus, %0" : : "r"(value));
 127:src/../h/riscv.hpp **** }
 128:src/../h/riscv.hpp **** 
 129:src/../h/riscv.hpp **** inline void RISCV::clear_sip(uint64 mask) {
 130:src/../h/riscv.hpp ****     __asm__ volatile("csrc sip, %0" : : "r"(mask));
 131:src/../h/riscv.hpp **** }
 132:src/../h/riscv.hpp **** 
 133:src/../h/riscv.hpp **** inline void RISCV::set_sip(uint64 mask) {
 134:src/../h/riscv.hpp ****     __asm__ volatile("csrs sip, %0" : : "r"(mask));
 135:src/../h/riscv.hpp **** }
 136:src/../h/riscv.hpp **** 
 137:src/../h/riscv.hpp **** inline void RISCV::mask_status(uint64 mask) {
 138:src/../h/riscv.hpp ****     __asm__ volatile("csrc sstatus, %0" : : "r"(mask));
  33              		.loc 2 138 5
  34              		.loc 2 138 55 is_stmt 0
  35 0028 93070010 		li	a5,256
  36              	#APP
  37              	# 138 "src/../h/riscv.hpp" 1
 139              	};
  38              		csrc sstatus, a5
  39              	# 0 "" 2
  40              	.LVL1:
  41              	#NO_APP
  42              	.L2:
  43              	.LBE57:
  44              	.LBE56:
  20:src/riscv.cpp ****     __asm__ volatile ("csrw sepc, ra");
  45              		.loc 1 20 5 is_stmt 1
  46              		.loc 1 20 39 is_stmt 0
  47              	#APP
  48              	# 20 "src/riscv.cpp" 1
  21              	    __asm__ volatile ("sret");
  49              		csrw sepc, ra
  50              	# 0 "" 2
  51              		.loc 1 21 5 is_stmt 1
  52              		.loc 1 21 30 is_stmt 0
  53              	# 21 "src/riscv.cpp" 1
  22              	
  23:src/riscv.cpp ****     // => pop spp and spie !
  24:src/riscv.cpp ****     // exit from supervisor mode
  25:src/riscv.cpp **** }
  54              		sret
  55              	# 0 "" 2
  56              		.loc 1 25 1
  57              	#NO_APP
  58 0038 03348100 		ld	s0,8(sp)
  59              		.cfi_restore 8
  60              		.cfi_def_cfa 2, 16
  61 003c 13010101 		addi	sp,sp,16
  62              		.cfi_def_cfa_offset 0
  63 0040 67800000 		jr	ra
GAS LISTING /tmp/cc4PTFYO.s 			page 5


  64              		.cfi_endproc
  65              	.LFE33:
  67              		.align	2
  68              		.globl	_ZN5RISCV12return_valueEm
  70              	_ZN5RISCV12return_valueEm:
  71              	.LFB34:
  26:src/riscv.cpp **** 
  27:src/riscv.cpp **** uint64 RISCV::return_value(uint64 value) {
  72              		.loc 1 27 42 is_stmt 1
  73              		.cfi_startproc
  74              	.LVL2:
  75 0044 130101FF 		addi	sp,sp,-16
  76              		.cfi_def_cfa_offset 16
  77 0048 23348100 		sd	s0,8(sp)
  78              		.cfi_offset 8, -8
  79 004c 13040101 		addi	s0,sp,16
  80              		.cfi_def_cfa 8, 0
  28:src/riscv.cpp ****     return value; // move to a0 reg
  81              		.loc 1 28 5
  29:src/riscv.cpp **** }
  82              		.loc 1 29 1 is_stmt 0
  83 0050 03348100 		ld	s0,8(sp)
  84              		.cfi_restore 8
  85              		.cfi_def_cfa 2, 16
  86 0054 13010101 		addi	sp,sp,16
  87              		.cfi_def_cfa_offset 0
  88 0058 67800000 		jr	ra
  89              		.cfi_endproc
  90              	.LFE34:
  92              		.section	.text._ZN4ListI3TCBE6removeEPS0_,"axG",@progbits,_ZN4ListI3TCBE6removeEPS0_,comdat
  93              		.align	2
  94              		.weak	_ZN4ListI3TCBE6removeEPS0_
  96              	_ZN4ListI3TCBE6removeEPS0_:
  97              	.LFB39:
  98              		.file 3 "src/../h/List.hpp"
   1:src/../h/List.hpp **** //
   2:src/../h/List.hpp **** // Created by os on 5/13/24.
   3:src/../h/List.hpp **** //
   4:src/../h/List.hpp **** 
   5:src/../h/List.hpp **** #ifndef PROJECT_BASE_LIST_HPP
   6:src/../h/List.hpp **** #define PROJECT_BASE_LIST_HPP
   7:src/../h/List.hpp **** #include "thread.hpp"
   8:src/../h/List.hpp **** 
   9:src/../h/List.hpp **** extern void printInteger(uint64);
  10:src/../h/List.hpp **** 
  11:src/../h/List.hpp **** template <typename T>
  12:src/../h/List.hpp **** class List {
  13:src/../h/List.hpp **** 
  14:src/../h/List.hpp **** public:
  15:src/../h/List.hpp **** 
  16:src/../h/List.hpp ****     friend class RISCV;
  17:src/../h/List.hpp **** 
  18:src/../h/List.hpp ****     List() : head(nullptr), tail(nullptr) {};
  19:src/../h/List.hpp **** 
  20:src/../h/List.hpp ****     void add(T*);
  21:src/../h/List.hpp ****     T* get();
  22:src/../h/List.hpp ****     T* peek();
GAS LISTING /tmp/cc4PTFYO.s 			page 6


  23:src/../h/List.hpp **** 
  24:src/../h/List.hpp ****     inline int size() {return count;}
  25:src/../h/List.hpp **** 
  26:src/../h/List.hpp **** private:
  27:src/../h/List.hpp **** 
  28:src/../h/List.hpp ****     struct Elem {
  29:src/../h/List.hpp ****         T* data;
  30:src/../h/List.hpp ****         Elem* next;
  31:src/../h/List.hpp **** 
  32:src/../h/List.hpp ****         explicit Elem(T* data) : data(data), next(nullptr) {}
  33:src/../h/List.hpp ****     };
  34:src/../h/List.hpp **** 
  35:src/../h/List.hpp ****     Elem *head, *tail;
  36:src/../h/List.hpp ****     int count = 0;
  37:src/../h/List.hpp **** 
  38:src/../h/List.hpp ****     void remove(T *t);
  39:src/../h/List.hpp **** };
  40:src/../h/List.hpp **** 
  41:src/../h/List.hpp **** typedef List<TCB> ListTCB;
  42:src/../h/List.hpp **** using ListSEM = List<Sem>;
  43:src/../h/List.hpp **** 
  44:src/../h/List.hpp **** template <typename T>
  45:src/../h/List.hpp **** void List<T>::add(T *t) {
  46:src/../h/List.hpp **** 
  47:src/../h/List.hpp ****     Elem* toAdd = new Elem(t);
  48:src/../h/List.hpp **** 
  49:src/../h/List.hpp ****     if (!head) head = tail = toAdd;
  50:src/../h/List.hpp ****     else tail = tail -> next = toAdd;
  51:src/../h/List.hpp **** 
  52:src/../h/List.hpp ****     count++;
  53:src/../h/List.hpp **** }
  54:src/../h/List.hpp **** 
  55:src/../h/List.hpp **** template <typename T>
  56:src/../h/List.hpp **** T* List<T>::get() {
  57:src/../h/List.hpp **** 
  58:src/../h/List.hpp ****     if (!head) return nullptr;
  59:src/../h/List.hpp **** 
  60:src/../h/List.hpp ****     T* t = head -> data;
  61:src/../h/List.hpp ****     Elem* oldHead = head;
  62:src/../h/List.hpp ****     head = head -> next;
  63:src/../h/List.hpp **** 
  64:src/../h/List.hpp ****     if (!head) tail = nullptr;
  65:src/../h/List.hpp **** 
  66:src/../h/List.hpp ****     delete oldHead;
  67:src/../h/List.hpp ****     count--;
  68:src/../h/List.hpp ****     return t;
  69:src/../h/List.hpp **** }
  70:src/../h/List.hpp **** 
  71:src/../h/List.hpp **** template <typename T>
  72:src/../h/List.hpp **** T* List<T>::peek() {
  73:src/../h/List.hpp ****     if (head) return head->data;
  74:src/../h/List.hpp ****     else return nullptr;
  75:src/../h/List.hpp **** }
  76:src/../h/List.hpp **** 
  77:src/../h/List.hpp **** template <typename T>
  78:src/../h/List.hpp **** void List<T>::remove(T* t) {
  99              		.loc 3 78 6 is_stmt 1
GAS LISTING /tmp/cc4PTFYO.s 			page 7


 100              		.cfi_startproc
 101              	.LVL3:
 102 0000 93060500 		mv	a3,a0
 103              	.LVL4:
  79:src/../h/List.hpp ****     Elem* prev = nullptr, *elem = head;
 104              		.loc 3 79 28 is_stmt 0
 105 0004 03350500 		ld	a0,0(a0)
 106              	.LVL5:
 107              		.loc 3 79 11
 108 0008 13070000 		li	a4,0
 109              	.LVL6:
 110              	.L12:
  80:src/../h/List.hpp ****     while (elem) {
 111              		.loc 3 80 5 is_stmt 1
 112 000c 630C0506 		beqz	a0,.L14
  81:src/../h/List.hpp ****         if (elem->data == t) {
 113              		.loc 3 81 19 is_stmt 0
 114 0010 83370500 		ld	a5,0(a0)
 115              		.loc 3 81 9
 116 0014 6388B700 		beq	a5,a1,.L17
 117              	.LVL7:
  82:src/../h/List.hpp **** 
  83:src/../h/List.hpp ****             // found
  84:src/../h/List.hpp ****             if (prev) {
  85:src/../h/List.hpp ****                 prev->next = elem->next;
  86:src/../h/List.hpp ****                 if (tail == elem) tail = prev;
  87:src/../h/List.hpp ****             }
  88:src/../h/List.hpp ****             else head = elem -> next;
  89:src/../h/List.hpp ****             if (!head) tail = nullptr;
  90:src/../h/List.hpp **** 
  91:src/../h/List.hpp ****             delete elem;
  92:src/../h/List.hpp ****             return;
  93:src/../h/List.hpp **** 
  94:src/../h/List.hpp ****         }
  95:src/../h/List.hpp ****         prev = elem;
 118              		.loc 3 95 9
 119 0018 13070500 		mv	a4,a0
  96:src/../h/List.hpp ****         elem = elem -> next;
 120              		.loc 3 96 9
 121 001c 03358500 		ld	a0,8(a0)
 122              	.LVL8:
  80:src/../h/List.hpp ****         if (elem->data == t) {
 123              		.loc 3 80 5
 124 0020 6FF0DFFE 		j	.L12
 125              	.L17:
  78:src/../h/List.hpp ****     Elem* prev = nullptr, *elem = head;
 126              		.loc 3 78 6
 127 0024 130101FF 		addi	sp,sp,-16
 128              		.cfi_def_cfa_offset 16
 129 0028 23341100 		sd	ra,8(sp)
 130 002c 23308100 		sd	s0,0(sp)
 131              		.cfi_offset 1, -8
 132              		.cfi_offset 8, -16
 133 0030 13040101 		addi	s0,sp,16
 134              		.cfi_def_cfa 8, 0
  84:src/../h/List.hpp ****                 prev->next = elem->next;
 135              		.loc 3 84 13
GAS LISTING /tmp/cc4PTFYO.s 			page 8


 136 0034 630E0702 		beqz	a4,.L9
  85:src/../h/List.hpp ****                 if (tail == elem) tail = prev;
 137              		.loc 3 85 36
 138 0038 83378500 		ld	a5,8(a0)
  85:src/../h/List.hpp ****                 if (tail == elem) tail = prev;
 139              		.loc 3 85 17
 140 003c 2334F700 		sd	a5,8(a4)
  86:src/../h/List.hpp ****             }
 141              		.loc 3 86 21
 142 0040 83B78600 		ld	a5,8(a3)
  86:src/../h/List.hpp ****             }
 143              		.loc 3 86 17
 144 0044 6382A702 		beq	a5,a0,.L18
 145              	.L10:
  89:src/../h/List.hpp **** 
 146              		.loc 3 89 18
 147 0048 83B70600 		ld	a5,0(a3)
  89:src/../h/List.hpp **** 
 148              		.loc 3 89 13
 149 004c 63880702 		beqz	a5,.L19
 150              	.L11:
  91:src/../h/List.hpp ****             return;
 151              		.loc 3 91 13
 152 0050 97000000 		call	_ZdlPv@plt
 152      E7800000 
 153              	.LVL9:
  97:src/../h/List.hpp ****     }
  98:src/../h/List.hpp **** }
 154              		.loc 3 98 1
 155 0058 83308100 		ld	ra,8(sp)
 156              		.cfi_remember_state
 157              		.cfi_restore 1
 158 005c 03340100 		ld	s0,0(sp)
 159              		.cfi_restore 8
 160              		.cfi_def_cfa 2, 16
 161 0060 13010101 		addi	sp,sp,16
 162              		.cfi_def_cfa_offset 0
 163 0064 67800000 		jr	ra
 164              	.LVL10:
 165              	.L18:
 166              		.cfi_restore_state
  86:src/../h/List.hpp ****             }
 167              		.loc 3 86 35 discriminator 1
 168 0068 23B4E600 		sd	a4,8(a3)
 169 006c 6FF0DFFD 		j	.L10
 170              	.L9:
  88:src/../h/List.hpp ****             if (!head) tail = nullptr;
 171              		.loc 3 88 33
 172 0070 83378500 		ld	a5,8(a0)
  88:src/../h/List.hpp ****             if (!head) tail = nullptr;
 173              		.loc 3 88 18
 174 0074 23B0F600 		sd	a5,0(a3)
 175 0078 6FF01FFD 		j	.L10
 176              	.L19:
  89:src/../h/List.hpp **** 
 177              		.loc 3 89 24 discriminator 1
 178 007c 23B40600 		sd	zero,8(a3)
GAS LISTING /tmp/cc4PTFYO.s 			page 9


 179 0080 6FF01FFD 		j	.L11
 180              	.L14:
 181              		.cfi_def_cfa_register 2
 182              		.cfi_restore 1
 183              		.cfi_restore 8
 184 0084 67800000 		ret
 185              		.cfi_endproc
 186              	.LFE39:
 188              		.section	.rodata.str1.8,"aMS",@progbits,1
 189              		.align	3
 190              	.LC0:
 191 0000 4572726F 		.string	"Error"
 191      7200
 192              		.text
 193              		.align	2
 194              		.globl	_ZN5RISCV16handle_interruptEv
 196              	_ZN5RISCV16handle_interruptEv:
 197              	.LFB35:
  30:src/riscv.cpp **** 
  31:src/riscv.cpp **** void RISCV::handle_interrupt() {
 198              		.loc 1 31 32 is_stmt 1
 199              		.cfi_startproc
 200 005c 130101F9 		addi	sp,sp,-112
 201              		.cfi_def_cfa_offset 112
 202 0060 23341106 		sd	ra,104(sp)
 203 0064 23308106 		sd	s0,96(sp)
 204 0068 233C9104 		sd	s1,88(sp)
 205 006c 23382105 		sd	s2,80(sp)
 206 0070 23343105 		sd	s3,72(sp)
 207 0074 23304105 		sd	s4,64(sp)
 208              		.cfi_offset 1, -8
 209              		.cfi_offset 8, -16
 210              		.cfi_offset 9, -24
 211              		.cfi_offset 18, -32
 212              		.cfi_offset 19, -40
 213              		.cfi_offset 20, -48
 214 0078 13040107 		addi	s0,sp,112
 215              		.cfi_def_cfa 8, 0
  32:src/riscv.cpp **** 
  33:src/riscv.cpp ****     uint64 op, a1, a2, a3, a4;
 216              		.loc 1 33 5
  34:src/riscv.cpp ****     __asm__ volatile("mv %0, a0" : "=r"(op)); // operation code
 217              		.loc 1 34 5
 218              		.loc 1 34 45 is_stmt 0
 219              	#APP
 220              	# 34 "src/riscv.cpp" 1
  35              	    __asm__ volatile("mv %0, a1" : "=r"(a1));
 221              		mv a6, a0
 222              	# 0 "" 2
 223              	.LVL11:
 224              		.loc 1 35 5 is_stmt 1
 225              		.loc 1 35 45 is_stmt 0
 226              	# 35 "src/riscv.cpp" 1
  36              	    __asm__ volatile("mv %0, a2" : "=r"(a2));
 227              		mv a0, a1
 228              	# 0 "" 2
 229              	.LVL12:
GAS LISTING /tmp/cc4PTFYO.s 			page 10


 230              		.loc 1 36 5 is_stmt 1
 231              		.loc 1 36 45 is_stmt 0
 232              	# 36 "src/riscv.cpp" 1
  37              	    __asm__ volatile("mv %0, a3" : "=r"(a3));
 233              		mv a1, a2
 234              	# 0 "" 2
 235              	.LVL13:
 236              		.loc 1 37 5 is_stmt 1
 237              		.loc 1 37 45 is_stmt 0
 238              	# 37 "src/riscv.cpp" 1
  38              	    __asm__ volatile("mv %0, a4" : "=r"(a4));
 239              		mv a2, a3
 240              	# 0 "" 2
 241              	.LVL14:
 242              		.loc 1 38 5 is_stmt 1
 243              		.loc 1 38 45 is_stmt 0
 244              	# 38 "src/riscv.cpp" 1
  39              	
 245              		mv a3, a4
 246              	# 0 "" 2
 247              	.LVL15:
  40:src/riscv.cpp ****     uint64 scause = rd_scause();
 248              		.loc 1 40 5 is_stmt 1
 249              	#NO_APP
 250              	.LBB58:
 251              	.LBB59:
  70:src/../h/riscv.hpp ****     __asm__ volatile ("csrr %0, scause" : "=r"(value));
 252              		.loc 2 70 5
  71:src/../h/riscv.hpp ****     return value;
 253              		.loc 2 71 5
  71:src/../h/riscv.hpp ****     return value;
 254              		.loc 2 71 55 is_stmt 0
 255              	#APP
 256              	# 71 "src/../h/riscv.hpp" 1
 257              		csrr a5, scause
 258              	# 0 "" 2
 259              	#NO_APP
 260 0094 233CF4F8 		sd	a5,-104(s0)
  72:src/../h/riscv.hpp **** }
 261              		.loc 2 72 5 is_stmt 1
  72:src/../h/riscv.hpp **** }
 262              		.loc 2 72 12 is_stmt 0
 263 0098 033784F9 		ld	a4,-104(s0)
 264              	.LVL16:
 265              	.LBE59:
 266              	.LBE58:
  41:src/riscv.cpp **** 
  42:src/riscv.cpp ****     if (scause == SOFTWARE) {
 267              		.loc 1 42 5 is_stmt 1
 268              	.LBB60:
 269 009c 9307F0FF 		li	a5,-1
 270 00a0 9397F703 		slli	a5,a5,63
 271 00a4 93871700 		addi	a5,a5,1
 272 00a8 6300F706 		beq	a4,a5,.L54
 273              	.LBE60:
  43:src/riscv.cpp ****         // software interrupt - timer
  44:src/riscv.cpp **** 
GAS LISTING /tmp/cc4PTFYO.s 			page 11


  45:src/riscv.cpp ****         // update running time passed for running
  46:src/riscv.cpp ****         // if time >= running time slice, dispatch()
  47:src/riscv.cpp ****         // reset static time passed
  48:src/riscv.cpp ****         // update sleeping threads or timed wait
  49:src/riscv.cpp **** 
  50:src/riscv.cpp ****         clear_sip(mask_sip_sie::SS);
  51:src/riscv.cpp **** 
  52:src/riscv.cpp ****         // UPDATE SLEEPING THREADS IF SLEEPING_TIME > 0
  53:src/riscv.cpp **** 
  54:src/riscv.cpp ****         if (Scheduler::hasSleeping()) {
  55:src/riscv.cpp **** 
  56:src/riscv.cpp ****             Scheduler::first_sleepy -> sleeping_time --;
  57:src/riscv.cpp **** 
  58:src/riscv.cpp ****             TCB* tcb = Scheduler::first_sleepy;
  59:src/riscv.cpp ****             while (tcb) {
  60:src/riscv.cpp ****                 // remember first sleepy
  61:src/riscv.cpp ****                 if (tcb -> sleeping_time > 0) break;
  62:src/riscv.cpp **** 
  63:src/riscv.cpp ****                 tcb->current_state = TCB::RUNNABLE;
  64:src/riscv.cpp ****                 Scheduler::put(tcb);
  65:src/riscv.cpp ****                 TCB* next = tcb -> next_sleepy;
  66:src/riscv.cpp ****                 tcb -> next_sleepy = nullptr;
  67:src/riscv.cpp ****                 tcb = next;
  68:src/riscv.cpp ****             }
  69:src/riscv.cpp **** 
  70:src/riscv.cpp ****             Scheduler::first_sleepy = tcb;
  71:src/riscv.cpp ****         }
  72:src/riscv.cpp **** 
  73:src/riscv.cpp ****         // UPDATE TIMED WAITING ON SEMAPHORES
  74:src/riscv.cpp **** 
  75:src/riscv.cpp ****         for (Sem* s = Sem::first; s; s = s->next) {
  76:src/riscv.cpp ****             int count = s->timedBlock;
  77:src/riscv.cpp ****             for (List<TCB>::Elem* e = s->blocked.head ; e && count > 0; ) {
  78:src/riscv.cpp **** 
  79:src/riscv.cpp ****                 TCB* t = e->data;
  80:src/riscv.cpp **** 
  81:src/riscv.cpp ****                 if (t->time_on_sem > 0) { // if timed waiting
  82:src/riscv.cpp ****                     count--;
  83:src/riscv.cpp ****                     // time on sem == 0 will return TIMEOUT
  84:src/riscv.cpp ****                     if ( --t->time_on_sem <= 0) {
  85:src/riscv.cpp ****                         // time expired
  86:src/riscv.cpp **** 
  87:src/riscv.cpp ****                         e = e -> next;
  88:src/riscv.cpp ****                         s->blocked.remove(t);
  89:src/riscv.cpp ****                         s->value++;
  90:src/riscv.cpp ****                         s->timedBlock--;
  91:src/riscv.cpp **** 
  92:src/riscv.cpp ****                         t->current_state = TCB::RUNNABLE;
  93:src/riscv.cpp ****                         Scheduler::put(t);
  94:src/riscv.cpp ****                         continue;
  95:src/riscv.cpp ****                     }
  96:src/riscv.cpp ****                 }
  97:src/riscv.cpp ****                 e = e->next;
  98:src/riscv.cpp ****             }
  99:src/riscv.cpp ****         }
 100:src/riscv.cpp **** 
 101:src/riscv.cpp ****         // CHECK IF RUNNING THREAD TIME SLICE EXPIRED
GAS LISTING /tmp/cc4PTFYO.s 			page 12


 102:src/riscv.cpp **** 
 103:src/riscv.cpp ****         TCB::time_slice_count ++;
 104:src/riscv.cpp ****         if (TCB::time_slice_count >= TCB::running->getTimeSlice())
 105:src/riscv.cpp ****         {
 106:src/riscv.cpp ****             uint64 sepc = rd_sepc();
 107:src/riscv.cpp ****             uint64 sstatus = rd_sstatus();
 108:src/riscv.cpp **** 
 109:src/riscv.cpp ****             TCB::time_slice_count = 0; // new running thread
 110:src/riscv.cpp ****             TCB::dispatch();
 111:src/riscv.cpp **** 
 112:src/riscv.cpp ****             wr_sepc(sepc);
 113:src/riscv.cpp ****             wr_sstatus(sstatus);
 114:src/riscv.cpp **** 
 115:src/riscv.cpp ****             // first time running thread -> context not saved
 116:src/riscv.cpp ****             // next instruction: inside of wrapper function
 117:src/riscv.cpp ****         }
 118:src/riscv.cpp **** 
 119:src/riscv.cpp ****     } else if (scause == EXTERNAL) {
 274              		.loc 1 119 12
 275              	.LBB121:
 276              	.LBB61:
 277 00ac 9307F0FF 		li	a5,-1
 278 00b0 9397F703 		slli	a5,a5,63
 279 00b4 93879700 		addi	a5,a5,9
 280 00b8 630CF718 		beq	a4,a5,.L55
 281              	.LBE61:
 282              	.LBE121:
 120:src/riscv.cpp ****         // external interrupt - console
 121:src/riscv.cpp ****         //console_handler();
 122:src/riscv.cpp **** 
 123:src/riscv.cpp ****         uint64 sepc = rd_sepc();
 124:src/riscv.cpp ****         uint64 sstatus = rd_sstatus();
 125:src/riscv.cpp **** 
 126:src/riscv.cpp ****         int irq = plic_claim();
 127:src/riscv.cpp ****         if (irq == CONSOLE_IRQ) {
 128:src/riscv.cpp **** 
 129:src/riscv.cpp ****             while (*(char *) CONSOLE_STATUS & CONSOLE_RX_STATUS_BIT && !myConsole::inputBuffer->ful
 130:src/riscv.cpp **** 
 131:src/riscv.cpp ****                 char c = *(char *) CONSOLE_RX_DATA;
 132:src/riscv.cpp ****                 myConsole::input_putc(c);
 133:src/riscv.cpp ****                 // put new char to input buffer.
 134:src/riscv.cpp ****             }
 135:src/riscv.cpp **** 
 136:src/riscv.cpp ****             plic_complete(irq);
 137:src/riscv.cpp ****         }
 138:src/riscv.cpp **** 
 139:src/riscv.cpp ****         wr_sepc(sepc);
 140:src/riscv.cpp ****         wr_sstatus(sstatus);
 141:src/riscv.cpp ****         clear_sip(SE);
 142:src/riscv.cpp **** 
 143:src/riscv.cpp ****     }
 144:src/riscv.cpp **** 
 145:src/riscv.cpp ****      else if (scause == U_ECALL || scause == S_ECALL){
 283              		.loc 1 145 11
 284              	.LBB122:
 285              	.LBB91:
 286              	.LBB62:
GAS LISTING /tmp/cc4PTFYO.s 			page 13


 287              		.loc 1 145 33 is_stmt 0
 288 00bc 130787FF 		addi	a4,a4,-8
 289              	.LVL17:
 290              		.loc 1 145 11
 291 00c0 93071000 		li	a5,1
 292 00c4 63ECE730 		bgtu	a4,a5,.L36
 293              	.LBB63:
 146:src/riscv.cpp ****         // environment call from user / supervisor mode
 147:src/riscv.cpp **** 
 148:src/riscv.cpp ****         uint64 sepc = rd_sepc() + 4;
 294              		.loc 1 148 9 is_stmt 1
 295              	.LBB64:
 296              	.LBB65:
  80:src/../h/riscv.hpp ****     __asm__ volatile ("csrr %0, sepc" : "=r"(value));
 297              		.loc 2 80 5
  81:src/../h/riscv.hpp ****     return value;
 298              		.loc 2 81 5
  81:src/../h/riscv.hpp ****     return value;
 299              		.loc 2 81 53 is_stmt 0
 300              	#APP
 301              	# 81 "src/../h/riscv.hpp" 1
 302              		csrr a5, sepc
 303              	# 0 "" 2
 304              	#NO_APP
 305 00cc 2334F4FC 		sd	a5,-56(s0)
  82:src/../h/riscv.hpp **** }
 306              		.loc 2 82 5 is_stmt 1
  82:src/../h/riscv.hpp **** }
 307              		.loc 2 82 12 is_stmt 0
 308 00d0 833484FC 		ld	s1,-56(s0)
 309              	.LBE65:
 310              	.LBE64:
 311              		.loc 1 148 35
 312 00d4 93844400 		addi	s1,s1,4
 313              	.LVL18:
 149:src/riscv.cpp ****         uint64 sstatus = rd_sstatus();
 314              		.loc 1 149 9 is_stmt 1
 315              	.LBB66:
 316              	.LBB67:
 120:src/../h/riscv.hpp ****     __asm__ volatile ("csrr %0, sstatus" : "=r"(value));
 317              		.loc 2 120 5
 121:src/../h/riscv.hpp ****     return value;
 318              		.loc 2 121 5
 121:src/../h/riscv.hpp ****     return value;
 319              		.loc 2 121 56 is_stmt 0
 320              	#APP
 321              	# 121 "src/../h/riscv.hpp" 1
 322              		csrr a5, sstatus
 323              	# 0 "" 2
 324              	#NO_APP
 325 00dc 2330F4FC 		sd	a5,-64(s0)
 122:src/../h/riscv.hpp **** }
 326              		.loc 2 122 5 is_stmt 1
 122:src/../h/riscv.hpp **** }
 327              		.loc 2 122 12 is_stmt 0
 328 00e0 033904FC 		ld	s2,-64(s0)
 329              	.LVL19:
GAS LISTING /tmp/cc4PTFYO.s 			page 14


 330              	.LBE67:
 331              	.LBE66:
 150:src/riscv.cpp **** 
 151:src/riscv.cpp ****         switch (op) {
 332              		.loc 1 151 9 is_stmt 1
 333 00e4 93072004 		li	a5,66
 334 00e8 63E60721 		bgtu	a6,a5,.L37
 335 00ec 93172800 		slli	a5,a6,2
 336 00f0 17070000 		lla	a4,.L39
 336      13070700 
 337              	.LVL20:
 338 00f8 B387E700 		add	a5,a5,a4
 339 00fc 83A70700 		lw	a5,0(a5)
 340 0100 B387E700 		add	a5,a5,a4
 341 0104 67800700 		jr	a5
 342              		.section	.rodata
 343              		.align	2
 344              		.align	2
 345              	.L39:
 346 0000 00000000 		.word	.L37-.L39
 347 0004 00000000 		.word	.L52-.L39
 348 0008 00000000 		.word	.L51-.L39
 349 000c 00000000 		.word	.L37-.L39
 350 0010 00000000 		.word	.L37-.L39
 351 0014 00000000 		.word	.L37-.L39
 352 0018 00000000 		.word	.L37-.L39
 353 001c 00000000 		.word	.L37-.L39
 354 0020 00000000 		.word	.L37-.L39
 355 0024 00000000 		.word	.L37-.L39
 356 0028 00000000 		.word	.L37-.L39
 357 002c 00000000 		.word	.L37-.L39
 358 0030 00000000 		.word	.L37-.L39
 359 0034 00000000 		.word	.L37-.L39
 360 0038 00000000 		.word	.L37-.L39
 361 003c 00000000 		.word	.L37-.L39
 362 0040 00000000 		.word	.L37-.L39
 363 0044 00000000 		.word	.L50-.L39
 364 0048 00000000 		.word	.L49-.L39
 365 004c 00000000 		.word	.L48-.L39
 366 0050 00000000 		.word	.L37-.L39
 367 0054 00000000 		.word	.L37-.L39
 368 0058 00000000 		.word	.L37-.L39
 369 005c 00000000 		.word	.L37-.L39
 370 0060 00000000 		.word	.L37-.L39
 371 0064 00000000 		.word	.L37-.L39
 372 0068 00000000 		.word	.L37-.L39
 373 006c 00000000 		.word	.L37-.L39
 374 0070 00000000 		.word	.L37-.L39
 375 0074 00000000 		.word	.L37-.L39
 376 0078 00000000 		.word	.L37-.L39
 377 007c 00000000 		.word	.L37-.L39
 378 0080 00000000 		.word	.L37-.L39
 379 0084 00000000 		.word	.L47-.L39
 380 0088 00000000 		.word	.L46-.L39
 381 008c 00000000 		.word	.L45-.L39
 382 0090 00000000 		.word	.L44-.L39
 383 0094 00000000 		.word	.L43-.L39
GAS LISTING /tmp/cc4PTFYO.s 			page 15


 384 0098 00000000 		.word	.L42-.L39
 385 009c 00000000 		.word	.L37-.L39
 386 00a0 00000000 		.word	.L37-.L39
 387 00a4 00000000 		.word	.L37-.L39
 388 00a8 00000000 		.word	.L37-.L39
 389 00ac 00000000 		.word	.L37-.L39
 390 00b0 00000000 		.word	.L37-.L39
 391 00b4 00000000 		.word	.L37-.L39
 392 00b8 00000000 		.word	.L37-.L39
 393 00bc 00000000 		.word	.L37-.L39
 394 00c0 00000000 		.word	.L37-.L39
 395 00c4 00000000 		.word	.L41-.L39
 396 00c8 00000000 		.word	.L37-.L39
 397 00cc 00000000 		.word	.L37-.L39
 398 00d0 00000000 		.word	.L37-.L39
 399 00d4 00000000 		.word	.L37-.L39
 400 00d8 00000000 		.word	.L37-.L39
 401 00dc 00000000 		.word	.L37-.L39
 402 00e0 00000000 		.word	.L37-.L39
 403 00e4 00000000 		.word	.L37-.L39
 404 00e8 00000000 		.word	.L37-.L39
 405 00ec 00000000 		.word	.L37-.L39
 406 00f0 00000000 		.word	.L37-.L39
 407 00f4 00000000 		.word	.L37-.L39
 408 00f8 00000000 		.word	.L37-.L39
 409 00fc 00000000 		.word	.L37-.L39
 410 0100 00000000 		.word	.L37-.L39
 411 0104 00000000 		.word	.L40-.L39
 412 0108 00000000 		.word	.L38-.L39
 413              		.text
 414              	.LVL21:
 415              	.L54:
 416              	.LBE63:
 417              	.LBE62:
 418              	.LBE91:
 419              	.LBB92:
  50:src/riscv.cpp **** 
 420              		.loc 1 50 9
 421              	.LBB93:
 422              	.LBB94:
 130:src/../h/riscv.hpp **** }
 423              		.loc 2 130 5
 130:src/../h/riscv.hpp **** }
 424              		.loc 2 130 51 is_stmt 0
 425 0108 93072000 		li	a5,2
 426              	#APP
 427              	# 130 "src/../h/riscv.hpp" 1
 428              		csrc sip, a5
 429              	# 0 "" 2
 430              	.LVL22:
 431              	#NO_APP
 432              	.LBE94:
 433              	.LBE93:
  54:src/riscv.cpp **** 
 434              		.loc 1 54 9 is_stmt 1
 435              	.LBB95:
 436              	.LBB96:
GAS LISTING /tmp/cc4PTFYO.s 			page 16


 437              	.LBB97:
 438              		.file 4 "src/../h/Scheduler.hpp"
   1:src/../h/Scheduler.hpp **** 
   2:src/../h/Scheduler.hpp **** #ifndef PROJECT_BASE_SCHEDULER_HPP
   3:src/../h/Scheduler.hpp **** #define PROJECT_BASE_SCHEDULER_HPP
   4:src/../h/Scheduler.hpp **** 
   5:src/../h/Scheduler.hpp **** #include "thread.hpp"
   6:src/../h/Scheduler.hpp **** 
   7:src/../h/Scheduler.hpp **** class Scheduler {
   8:src/../h/Scheduler.hpp **** 
   9:src/../h/Scheduler.hpp ****     friend class RISCV;
  10:src/../h/Scheduler.hpp **** 
  11:src/../h/Scheduler.hpp **** public:
  12:src/../h/Scheduler.hpp ****     static void init_scheduler();
  13:src/../h/Scheduler.hpp **** 
  14:src/../h/Scheduler.hpp ****     static TCB* get();
  15:src/../h/Scheduler.hpp ****     static void put(TCB*);
  16:src/../h/Scheduler.hpp ****     static TCB* peek();
  17:src/../h/Scheduler.hpp ****     static bool empty();
  18:src/../h/Scheduler.hpp **** 
  19:src/../h/Scheduler.hpp ****     static int time_sleep(TCB*, time_t );
  20:src/../h/Scheduler.hpp **** 
  21:src/../h/Scheduler.hpp ****     void* operator new(size_t);
  22:src/../h/Scheduler.hpp ****     void operator delete(void *);
  23:src/../h/Scheduler.hpp **** 
  24:src/../h/Scheduler.hpp ****     Scheduler(const Scheduler&) = delete;
  25:src/../h/Scheduler.hpp **** 
  26:src/../h/Scheduler.hpp **** private:
  27:src/../h/Scheduler.hpp **** 
  28:src/../h/Scheduler.hpp ****     static bool hasSleeping() {return  first_sleepy != nullptr;}
 439              		.loc 4 28 32
 440              		.loc 4 28 53 is_stmt 0
 441 0110 97070000 		la	a5,_ZN9Scheduler12first_sleepyE
 441      83B70700 
 442 0118 83B40700 		ld	s1,0(a5)
 443              	.LBE97:
 444              	.LBE96:
  54:src/riscv.cpp **** 
 445              		.loc 1 54 9
 446 011c 63840404 		beqz	s1,.L22
 447              	.LBB98:
  56:src/riscv.cpp **** 
 448              		.loc 1 56 13 is_stmt 1
  56:src/riscv.cpp **** 
 449              		.loc 1 56 40 is_stmt 0
 450 0120 83B70402 		ld	a5,32(s1)
  56:src/riscv.cpp **** 
 451              		.loc 1 56 54
 452 0124 9387F7FF 		addi	a5,a5,-1
 453 0128 23B0F402 		sd	a5,32(s1)
  58:src/riscv.cpp ****             while (tcb) {
 454              		.loc 1 58 13 is_stmt 1
 455              	.LVL23:
 456              	.L24:
  59:src/riscv.cpp ****                 // remember first sleepy
 457              		.loc 1 59 13
  59:src/riscv.cpp ****                 // remember first sleepy
GAS LISTING /tmp/cc4PTFYO.s 			page 17


 458              		.loc 1 59 20
 459 012c 63860402 		beqz	s1,.L23
 460              	.LBB99:
  61:src/riscv.cpp **** 
 461              		.loc 1 61 17
  61:src/riscv.cpp **** 
 462              		.loc 1 61 28 is_stmt 0
 463 0130 83B70402 		ld	a5,32(s1)
  61:src/riscv.cpp **** 
 464              		.loc 1 61 17
 465 0134 63920702 		bnez	a5,.L23
  63:src/riscv.cpp ****                 Scheduler::put(tcb);
 466              		.loc 1 63 17 is_stmt 1
  63:src/riscv.cpp ****                 Scheduler::put(tcb);
 467              		.loc 1 63 36 is_stmt 0
 468 0138 23A40406 		sw	zero,104(s1)
  64:src/riscv.cpp ****                 TCB* next = tcb -> next_sleepy;
 469              		.loc 1 64 17 is_stmt 1
  64:src/riscv.cpp ****                 TCB* next = tcb -> next_sleepy;
 470              		.loc 1 64 31 is_stmt 0
 471 013c 13850400 		mv	a0,s1
 472 0140 97000000 		call	_ZN9Scheduler3putEP3TCB@plt
 472      E7800000 
 473              	.LVL24:
  65:src/riscv.cpp ****                 tcb -> next_sleepy = nullptr;
 474              		.loc 1 65 17 is_stmt 1
  65:src/riscv.cpp ****                 tcb -> next_sleepy = nullptr;
 475              		.loc 1 65 22 is_stmt 0
 476 0148 83B70401 		ld	a5,16(s1)
 477              	.LVL25:
  66:src/riscv.cpp ****                 tcb = next;
 478              		.loc 1 66 17 is_stmt 1
  66:src/riscv.cpp ****                 tcb = next;
 479              		.loc 1 66 36 is_stmt 0
 480 014c 23B80400 		sd	zero,16(s1)
  67:src/riscv.cpp ****             }
 481              		.loc 1 67 17 is_stmt 1
 482              	.LVL26:
  67:src/riscv.cpp ****             }
 483              		.loc 1 67 21 is_stmt 0
 484 0150 93840700 		mv	s1,a5
 485              	.LBE99:
  59:src/riscv.cpp ****                 // remember first sleepy
 486              		.loc 1 59 13
 487 0154 6FF09FFD 		j	.L24
 488              	.LVL27:
 489              	.L23:
  70:src/riscv.cpp ****         }
 490              		.loc 1 70 13 is_stmt 1
  70:src/riscv.cpp ****         }
 491              		.loc 1 70 37 is_stmt 0
 492 0158 97070000 		la	a5,_ZN9Scheduler12first_sleepyE
 492      83B70700 
 493 0160 23B09700 		sd	s1,0(a5)
 494              	.LVL28:
 495              	.L22:
 496              	.LBE98:
GAS LISTING /tmp/cc4PTFYO.s 			page 18


 497              	.LBE95:
  75:src/riscv.cpp ****             int count = s->timedBlock;
 498              		.loc 1 75 9 is_stmt 1
 499              	.LBB100:
  75:src/riscv.cpp ****             int count = s->timedBlock;
 500              		.loc 1 75 19 is_stmt 0
 501 0164 97070000 		la	a5,_ZN3Sem5firstE
 501      83B70700 
 502 016c 03BA0700 		ld	s4,0(a5)
 503              	.LVL29:
 504 0170 6F000007 		j	.L30
 505              	.LVL30:
 506              	.L28:
 507              	.LBB101:
 508              	.LBB102:
 509              	.LBB103:
  97:src/riscv.cpp ****             }
 510              		.loc 1 97 17 is_stmt 1
  97:src/riscv.cpp ****             }
 511              		.loc 1 97 19 is_stmt 0
 512 0174 83B48400 		ld	s1,8(s1)
 513              	.LVL31:
 514              	.L26:
 515              	.LBE103:
  77:src/riscv.cpp **** 
 516              		.loc 1 77 59 is_stmt 1 discriminator 1
 517 0178 63820406 		beqz	s1,.L27
  77:src/riscv.cpp **** 
 518              		.loc 1 77 59 is_stmt 0 discriminator 2
 519 017c 63503007 		blez	s3,.L27
 520              	.LBB104:
  79:src/riscv.cpp **** 
 521              		.loc 1 79 17 is_stmt 1
  79:src/riscv.cpp **** 
 522              		.loc 1 79 22 is_stmt 0
 523 0180 03B90400 		ld	s2,0(s1)
 524              	.LVL32:
  81:src/riscv.cpp ****                     count--;
 525              		.loc 1 81 17 is_stmt 1
  81:src/riscv.cpp ****                     count--;
 526              		.loc 1 81 24 is_stmt 0
 527 0184 83378901 		ld	a5,24(s2)
  81:src/riscv.cpp ****                     count--;
 528              		.loc 1 81 17
 529 0188 E38607FE 		beqz	a5,.L28
  82:src/riscv.cpp ****                     // time on sem == 0 will return TIMEOUT
 530              		.loc 1 82 21 is_stmt 1
  82:src/riscv.cpp ****                     // time on sem == 0 will return TIMEOUT
 531              		.loc 1 82 26 is_stmt 0
 532 018c 9B89F9FF 		addiw	s3,s3,-1
 533              	.LVL33:
  84:src/riscv.cpp ****                         // time expired
 534              		.loc 1 84 21 is_stmt 1
  84:src/riscv.cpp ****                         // time expired
 535              		.loc 1 84 26 is_stmt 0
 536 0190 9387F7FF 		addi	a5,a5,-1
  84:src/riscv.cpp ****                         // time expired
GAS LISTING /tmp/cc4PTFYO.s 			page 19


 537              		.loc 1 84 43
 538 0194 233CF900 		sd	a5,24(s2)
  84:src/riscv.cpp ****                         // time expired
 539              		.loc 1 84 21
 540 0198 E39E07FC 		bnez	a5,.L28
  87:src/riscv.cpp ****                         s->blocked.remove(t);
 541              		.loc 1 87 25 is_stmt 1 discriminator 1
  87:src/riscv.cpp ****                         s->blocked.remove(t);
 542              		.loc 1 87 27 is_stmt 0 discriminator 1
 543 019c 83B48400 		ld	s1,8(s1)
 544              	.LVL34:
  88:src/riscv.cpp ****                         s->value++;
 545              		.loc 1 88 25 is_stmt 1 discriminator 1
  88:src/riscv.cpp ****                         s->value++;
 546              		.loc 1 88 42 is_stmt 0 discriminator 1
 547 01a0 93050900 		mv	a1,s2
 548 01a4 13050A01 		addi	a0,s4,16
 549 01a8 97000000 		call	_ZN4ListI3TCBE6removeEPS0_
 549      E7800000 
 550              	.LVL35:
  89:src/riscv.cpp ****                         s->timedBlock--;
 551              		.loc 1 89 25 is_stmt 1 discriminator 1
  89:src/riscv.cpp ****                         s->timedBlock--;
 552              		.loc 1 89 28 is_stmt 0 discriminator 1
 553 01b0 83270A00 		lw	a5,0(s4)
  89:src/riscv.cpp ****                         s->timedBlock--;
 554              		.loc 1 89 33 discriminator 1
 555 01b4 9B871700 		addiw	a5,a5,1
 556 01b8 2320FA00 		sw	a5,0(s4)
  90:src/riscv.cpp **** 
 557              		.loc 1 90 25 is_stmt 1 discriminator 1
  90:src/riscv.cpp **** 
 558              		.loc 1 90 28 is_stmt 0 discriminator 1
 559 01bc 83278A02 		lw	a5,40(s4)
  90:src/riscv.cpp **** 
 560              		.loc 1 90 38 discriminator 1
 561 01c0 9B87F7FF 		addiw	a5,a5,-1
 562 01c4 2324FA02 		sw	a5,40(s4)
  92:src/riscv.cpp ****                         Scheduler::put(t);
 563              		.loc 1 92 25 is_stmt 1 discriminator 1
  92:src/riscv.cpp ****                         Scheduler::put(t);
 564              		.loc 1 92 42 is_stmt 0 discriminator 1
 565 01c8 23240906 		sw	zero,104(s2)
  93:src/riscv.cpp ****                         continue;
 566              		.loc 1 93 25 is_stmt 1 discriminator 1
  93:src/riscv.cpp ****                         continue;
 567              		.loc 1 93 39 is_stmt 0 discriminator 1
 568 01cc 13050900 		mv	a0,s2
 569 01d0 97000000 		call	_ZN9Scheduler3putEP3TCB@plt
 569      E7800000 
 570              	.LVL36:
  94:src/riscv.cpp ****                     }
 571              		.loc 1 94 25 is_stmt 1 discriminator 1
 572 01d8 6FF01FFA 		j	.L26
 573              	.LVL37:
 574              	.L27:
 575              	.LBE104:
GAS LISTING /tmp/cc4PTFYO.s 			page 20


 576              	.LBE102:
 577              	.LBE101:
  75:src/riscv.cpp ****             int count = s->timedBlock;
 578              		.loc 1 75 9 discriminator 2
  75:src/riscv.cpp ****             int count = s->timedBlock;
 579              		.loc 1 75 40 is_stmt 0 discriminator 2
 580 01dc 033A8A00 		ld	s4,8(s4)
 581              	.LVL38:
 582              	.L30:
  75:src/riscv.cpp ****             int count = s->timedBlock;
 583              		.loc 1 75 35 is_stmt 1 discriminator 1
 584 01e0 63080A00 		beqz	s4,.L25
 585              	.LBB106:
  76:src/riscv.cpp ****             for (List<TCB>::Elem* e = s->blocked.head ; e && count > 0; ) {
 586              		.loc 1 76 13
  76:src/riscv.cpp ****             for (List<TCB>::Elem* e = s->blocked.head ; e && count > 0; ) {
 587              		.loc 1 76 17 is_stmt 0
 588 01e4 83298A02 		lw	s3,40(s4)
 589              	.LVL39:
  77:src/riscv.cpp **** 
 590              		.loc 1 77 13 is_stmt 1
 591              	.LBB105:
  77:src/riscv.cpp **** 
 592              		.loc 1 77 35 is_stmt 0
 593 01e8 83340A01 		ld	s1,16(s4)
 594              	.LVL40:
 595 01ec 6FF0DFF8 		j	.L26
 596              	.LVL41:
 597              	.L25:
 598              	.LBE105:
 599              	.LBE106:
 600              	.LBE100:
 103:src/riscv.cpp ****         if (TCB::time_slice_count >= TCB::running->getTimeSlice())
 601              		.loc 1 103 9 is_stmt 1
 103:src/riscv.cpp ****         if (TCB::time_slice_count >= TCB::running->getTimeSlice())
 602              		.loc 1 103 31 is_stmt 0
 603 01f0 17070000 		la	a4,_ZN3TCB16time_slice_countE
 603      03370700 
 604 01f8 83370700 		ld	a5,0(a4)
 605 01fc 93871700 		addi	a5,a5,1
 606 0200 2330F700 		sd	a5,0(a4)
 104:src/riscv.cpp ****         {
 607              		.loc 1 104 9 is_stmt 1
 608              	.LBB107:
 104:src/riscv.cpp ****         {
 609              		.loc 1 104 64 is_stmt 0
 610 0204 17070000 		la	a4,_ZN3TCB7runningE
 610      03370700 
 611 020c 03370700 		ld	a4,0(a4)
 612              	.LVL42:
 613              	.LBB108:
 614              	.LBB109:
 615              		.file 5 "src/../h/thread.hpp"
   1:src/../h/thread.hpp **** //
   2:src/../h/thread.hpp **** // Created by os on 4/9/24.
   3:src/../h/thread.hpp **** //
   4:src/../h/thread.hpp **** 
GAS LISTING /tmp/cc4PTFYO.s 			page 21


   5:src/../h/thread.hpp **** #ifndef PROJECT_BASE_THREAD_HPP
   6:src/../h/thread.hpp **** #define PROJECT_BASE_THREAD_HPP
   7:src/../h/thread.hpp **** 
   8:src/../h/thread.hpp **** #include "../lib/hw.h"
   9:src/../h/thread.hpp **** #include "../h/Memoryallocator.hpp"
  10:src/../h/thread.hpp **** #include "../h/riscv.hpp"
  11:src/../h/thread.hpp **** #include "../h/syscall_c.hpp"
  12:src/../h/thread.hpp **** 
  13:src/../h/thread.hpp **** //extern void thread_dispatch();
  14:src/../h/thread.hpp **** 
  15:src/../h/thread.hpp **** using routine_ptr = void(*)(void *);
  16:src/../h/thread.hpp **** 
  17:src/../h/thread.hpp **** // _thread je wrapper ove klase
  18:src/../h/thread.hpp **** class TCB final {
  19:src/../h/thread.hpp **** 
  20:src/../h/thread.hpp ****     friend class RISCV;
  21:src/../h/thread.hpp ****     friend class Sem;
  22:src/../h/thread.hpp ****     friend class Scheduler;
  23:src/../h/thread.hpp **** 
  24:src/../h/thread.hpp **** public:
  25:src/../h/thread.hpp **** 
  26:src/../h/thread.hpp ****     static TCB* running; // current thread
  27:src/../h/thread.hpp **** 
  28:src/../h/thread.hpp ****     enum state {
  29:src/../h/thread.hpp ****         RUNNABLE,
  30:src/../h/thread.hpp ****         SLEEPING,
  31:src/../h/thread.hpp ****         CREATED,
  32:src/../h/thread.hpp ****         FINISHED,
  33:src/../h/thread.hpp ****         BLOCKED
  34:src/../h/thread.hpp ****     };
  35:src/../h/thread.hpp ****     struct Context {
  36:src/../h/thread.hpp ****         // nadogradi kasnije
  37:src/../h/thread.hpp ****         uint64 pc;
  38:src/../h/thread.hpp ****         uint64 sp;
  39:src/../h/thread.hpp ****         uint64 sstatus;
  40:src/../h/thread.hpp ****         uint64 sepc;
  41:src/../h/thread.hpp ****     };
  42:src/../h/thread.hpp **** 
  43:src/../h/thread.hpp ****     static int _threadCreate(TCB** handle, routine_ptr routine, void* args, void* stack_space); // 
  44:src/../h/thread.hpp **** 
  45:src/../h/thread.hpp ****     static void yield(TCB*, TCB*);
  46:src/../h/thread.hpp **** 
  47:src/../h/thread.hpp ****     static void dispatch();
  48:src/../h/thread.hpp **** 
  49:src/../h/thread.hpp ****     time_t getTimeSlice() const {return time_slice;}
 616              		.loc 5 49 34 is_stmt 1
 617              		.loc 5 49 41 is_stmt 0
 618 0210 03378702 		ld	a4,40(a4)
 619              	.LVL43:
 620              	.LBE109:
 621              	.LBE108:
 104:src/riscv.cpp ****         {
 622              		.loc 1 104 9
 623 0214 63E4E70E 		bltu	a5,a4,.L20
 624              	.LBB110:
 106:src/riscv.cpp ****             uint64 sstatus = rd_sstatus();
 625              		.loc 1 106 13 is_stmt 1
GAS LISTING /tmp/cc4PTFYO.s 			page 22


 626              	.LBB111:
 627              	.LBB112:
  80:src/../h/riscv.hpp ****     __asm__ volatile ("csrr %0, sepc" : "=r"(value));
 628              		.loc 2 80 5
  81:src/../h/riscv.hpp ****     return value;
 629              		.loc 2 81 5
  81:src/../h/riscv.hpp ****     return value;
 630              		.loc 2 81 53 is_stmt 0
 631              	#APP
 632              	# 81 "src/../h/riscv.hpp" 1
 633              		csrr a5, sepc
 634              	# 0 "" 2
 635              	#NO_APP
 636 021c 2334F4FA 		sd	a5,-88(s0)
  82:src/../h/riscv.hpp **** }
 637              		.loc 2 82 5 is_stmt 1
  82:src/../h/riscv.hpp **** }
 638              		.loc 2 82 12 is_stmt 0
 639 0220 033984FA 		ld	s2,-88(s0)
 640              	.LVL44:
 641              	.LBE112:
 642              	.LBE111:
 107:src/riscv.cpp **** 
 643              		.loc 1 107 13 is_stmt 1
 644              	.LBB113:
 645              	.LBB114:
 120:src/../h/riscv.hpp ****     __asm__ volatile ("csrr %0, sstatus" : "=r"(value));
 646              		.loc 2 120 5
 121:src/../h/riscv.hpp ****     return value;
 647              		.loc 2 121 5
 121:src/../h/riscv.hpp ****     return value;
 648              		.loc 2 121 56 is_stmt 0
 649              	#APP
 650              	# 121 "src/../h/riscv.hpp" 1
 651              		csrr a5, sstatus
 652              	# 0 "" 2
 653              	#NO_APP
 654 0228 2330F4FA 		sd	a5,-96(s0)
 122:src/../h/riscv.hpp **** }
 655              		.loc 2 122 5 is_stmt 1
 122:src/../h/riscv.hpp **** }
 656              		.loc 2 122 12 is_stmt 0
 657 022c 833404FA 		ld	s1,-96(s0)
 658              	.LVL45:
 659              	.LBE114:
 660              	.LBE113:
 109:src/riscv.cpp ****             TCB::dispatch();
 661              		.loc 1 109 13 is_stmt 1
 109:src/riscv.cpp ****             TCB::dispatch();
 662              		.loc 1 109 35 is_stmt 0
 663 0230 97070000 		la	a5,_ZN3TCB16time_slice_countE
 663      83B70700 
 664 0238 23B00700 		sd	zero,0(a5)
 110:src/riscv.cpp **** 
 665              		.loc 1 110 13 is_stmt 1
 110:src/riscv.cpp **** 
 666              		.loc 1 110 26 is_stmt 0
GAS LISTING /tmp/cc4PTFYO.s 			page 23


 667 023c 97000000 		call	_ZN3TCB8dispatchEv@plt
 667      E7800000 
 668              	.LVL46:
 112:src/riscv.cpp ****             wr_sstatus(sstatus);
 669              		.loc 1 112 13 is_stmt 1
 670              	.LBB115:
 671              	.LBB116:
  86:src/../h/riscv.hpp **** }
 672              		.loc 2 86 5
  86:src/../h/riscv.hpp **** }
 673              		.loc 2 86 54 is_stmt 0
 674              	#APP
 675              	# 86 "src/../h/riscv.hpp" 1
 676              		csrw sepc, s2
 677              	# 0 "" 2
 678              	.LVL47:
 679              	#NO_APP
 680              	.LBE116:
 681              	.LBE115:
 113:src/riscv.cpp **** 
 682              		.loc 1 113 13 is_stmt 1
 683              	.LBB117:
 684              	.LBB118:
 126:src/../h/riscv.hpp **** }
 685              		.loc 2 126 5
 126:src/../h/riscv.hpp **** }
 686              		.loc 2 126 57 is_stmt 0
 687              	#APP
 688              	# 126 "src/../h/riscv.hpp" 1
 127:src/../h/riscv.hpp **** 
 689              		csrw sstatus, s1
 690              	# 0 "" 2
 691              		.loc 2 127 1
 692              	#NO_APP
 693 024c 6F00000B 		j	.L20
 694              	.LVL48:
 695              	.L55:
 696              	.LBE118:
 697              	.LBE117:
 698              	.LBE110:
 699              	.LBE107:
 700              	.LBE92:
 701              	.LBB119:
 702              	.LBB74:
 123:src/riscv.cpp ****         uint64 sstatus = rd_sstatus();
 703              		.loc 1 123 9 is_stmt 1
 704              	.LBB75:
 705              	.LBB76:
  80:src/../h/riscv.hpp ****     __asm__ volatile ("csrr %0, sepc" : "=r"(value));
 706              		.loc 2 80 5
  81:src/../h/riscv.hpp ****     return value;
 707              		.loc 2 81 5
  81:src/../h/riscv.hpp ****     return value;
 708              		.loc 2 81 53 is_stmt 0
 709              	#APP
 710              	# 81 "src/../h/riscv.hpp" 1
 711              		csrr a5, sepc
GAS LISTING /tmp/cc4PTFYO.s 			page 24


 712              	# 0 "" 2
 713              	#NO_APP
 714 0254 233CF4FA 		sd	a5,-72(s0)
  82:src/../h/riscv.hpp **** }
 715              		.loc 2 82 5 is_stmt 1
  82:src/../h/riscv.hpp **** }
 716              		.loc 2 82 12 is_stmt 0
 717 0258 833984FB 		ld	s3,-72(s0)
 718              	.LVL49:
 719              	.LBE76:
 720              	.LBE75:
 124:src/riscv.cpp **** 
 721              		.loc 1 124 9 is_stmt 1
 722              	.LBB77:
 723              	.LBB78:
 120:src/../h/riscv.hpp ****     __asm__ volatile ("csrr %0, sstatus" : "=r"(value));
 724              		.loc 2 120 5
 121:src/../h/riscv.hpp ****     return value;
 725              		.loc 2 121 5
 121:src/../h/riscv.hpp ****     return value;
 726              		.loc 2 121 56 is_stmt 0
 727              	#APP
 728              	# 121 "src/../h/riscv.hpp" 1
 729              		csrr a5, sstatus
 730              	# 0 "" 2
 731              	#NO_APP
 732 0260 2338F4FA 		sd	a5,-80(s0)
 122:src/../h/riscv.hpp **** }
 733              		.loc 2 122 5 is_stmt 1
 122:src/../h/riscv.hpp **** }
 734              		.loc 2 122 12 is_stmt 0
 735 0264 033904FB 		ld	s2,-80(s0)
 736              	.LVL50:
 737              	.LBE78:
 738              	.LBE77:
 126:src/riscv.cpp ****         if (irq == CONSOLE_IRQ) {
 739              		.loc 1 126 9 is_stmt 1
 126:src/riscv.cpp ****         if (irq == CONSOLE_IRQ) {
 740              		.loc 1 126 29 is_stmt 0
 741 0268 97000000 		call	plic_claim@plt
 741      E7800000 
 742              	.LVL51:
 743 0270 93040500 		mv	s1,a0
 744              	.LVL52:
 127:src/riscv.cpp **** 
 745              		.loc 1 127 9 is_stmt 1
 746              	.LBB79:
 747 0274 9307A000 		li	a5,10
 748 0278 630CF500 		beq	a0,a5,.L35
 749              	.LVL53:
 750              	.L33:
 751              	.LBE79:
 139:src/riscv.cpp ****         wr_sstatus(sstatus);
 752              		.loc 1 139 9
 753              	.LBB82:
 754              	.LBB83:
  86:src/../h/riscv.hpp **** }
GAS LISTING /tmp/cc4PTFYO.s 			page 25


 755              		.loc 2 86 5
  86:src/../h/riscv.hpp **** }
 756              		.loc 2 86 54 is_stmt 0
 757              	#APP
 758              	# 86 "src/../h/riscv.hpp" 1
 759              		csrw sepc, s3
 760              	# 0 "" 2
 761              	.LVL54:
 762              	#NO_APP
 763              	.LBE83:
 764              	.LBE82:
 140:src/riscv.cpp ****         clear_sip(SE);
 765              		.loc 1 140 9 is_stmt 1
 766              	.LBB84:
 767              	.LBB85:
 126:src/../h/riscv.hpp **** }
 768              		.loc 2 126 5
 126:src/../h/riscv.hpp **** }
 769              		.loc 2 126 57 is_stmt 0
 770              	#APP
 771              	# 126 "src/../h/riscv.hpp" 1
 772              		csrw sstatus, s2
 773              	# 0 "" 2
 774              	.LVL55:
 775              	#NO_APP
 776              	.LBE85:
 777              	.LBE84:
 141:src/riscv.cpp **** 
 778              		.loc 1 141 9 is_stmt 1
 779              	.LBB86:
 780              	.LBB87:
 130:src/../h/riscv.hpp **** }
 781              		.loc 2 130 5
 130:src/../h/riscv.hpp **** }
 782              		.loc 2 130 51 is_stmt 0
 783 0284 93070020 		li	a5,512
 784              	#APP
 785              	# 130 "src/../h/riscv.hpp" 1
 131:src/../h/riscv.hpp **** 
 786              		csrc sip, a5
 787              	# 0 "" 2
 788              		.loc 2 131 1
 789              	#NO_APP
 790 028c 6F000007 		j	.L20
 791              	.LVL56:
 792              	.L35:
 793              	.LBE87:
 794              	.LBE86:
 795              	.LBB88:
 796              	.LBB80:
 129:src/riscv.cpp **** 
 797              		.loc 1 129 13 is_stmt 1
 129:src/riscv.cpp **** 
 798              		.loc 1 129 69
 129:src/riscv.cpp **** 
 799              		.loc 1 129 20 is_stmt 0
 800 0290 97070000 		la	a5,CONSOLE_STATUS
GAS LISTING /tmp/cc4PTFYO.s 			page 26


 800      83B70700 
 801 0298 83B70700 		ld	a5,0(a5)
 802 029c 83C70700 		lbu	a5,0(a5)
 129:src/riscv.cpp **** 
 803              		.loc 1 129 69
 804 02a0 93F71700 		andi	a5,a5,1
 805 02a4 638C0702 		beqz	a5,.L34
 129:src/riscv.cpp **** 
 806              		.loc 1 129 101 discriminator 1
 807 02a8 97070000 		la	a5,_ZN9myConsole11inputBufferE
 807      83B70700 
 808 02b0 03B50700 		ld	a0,0(a5)
 809 02b4 97000000 		call	_ZNK13BoundedBuffer4fullEv@plt
 809      E7800000 
 810              	.LVL57:
 129:src/riscv.cpp **** 
 811              		.loc 1 129 69 discriminator 1
 812 02bc 63100502 		bnez	a0,.L34
 813              	.LBB81:
 131:src/riscv.cpp ****                 myConsole::input_putc(c);
 814              		.loc 1 131 17 is_stmt 1
 131:src/riscv.cpp ****                 myConsole::input_putc(c);
 815              		.loc 1 131 26 is_stmt 0
 816 02c0 97070000 		la	a5,CONSOLE_RX_DATA
 816      83B70700 
 817 02c8 83B70700 		ld	a5,0(a5)
 818              	.LVL58:
 132:src/riscv.cpp ****                 // put new char to input buffer.
 819              		.loc 1 132 17 is_stmt 1
 132:src/riscv.cpp ****                 // put new char to input buffer.
 820              		.loc 1 132 38 is_stmt 0
 821 02cc 03C50700 		lbu	a0,0(a5)
 822 02d0 97000000 		call	_ZN9myConsole10input_putcEc@plt
 822      E7800000 
 823              	.LVL59:
 824              	.LBE81:
 129:src/riscv.cpp **** 
 825              		.loc 1 129 13
 826 02d8 6FF09FFB 		j	.L35
 827              	.L34:
 136:src/riscv.cpp ****         }
 828              		.loc 1 136 13 is_stmt 1 discriminator 4
 136:src/riscv.cpp ****         }
 829              		.loc 1 136 26 is_stmt 0 discriminator 4
 830 02dc 13850400 		mv	a0,s1
 831 02e0 97000000 		call	plic_complete@plt
 831      E7800000 
 832              	.LVL60:
 833              	.LBE80:
 834 02e8 6FF05FF9 		j	.L33
 835              	.LVL61:
 836              	.L52:
 837              	.LBE88:
 838              	.LBE74:
 839              	.LBB89:
 840              	.LBB72:
 152:src/riscv.cpp ****             case MEM_ALLOC:
GAS LISTING /tmp/cc4PTFYO.s 			page 27


 841              		.loc 1 152 13 is_stmt 1
 153:src/riscv.cpp ****                 MemoryAllocator::mem_alloc((size_t)a1);
 842              		.loc 1 153 17
 843              		.loc 1 153 43 is_stmt 0
 844 02ec 97000000 		call	_ZN15MemoryAllocator9mem_allocEm@plt
 844      E7800000 
 845              	.LVL62:
 154:src/riscv.cpp ****                 break;
 846              		.loc 1 154 17 is_stmt 1
 847              	.L37:
 155:src/riscv.cpp ****             case MEM_FREE:
 156:src/riscv.cpp ****                 MemoryAllocator::mem_free((void *)a1);
 157:src/riscv.cpp ****                 break;
 158:src/riscv.cpp ****             case THREAD_CREATE:
 159:src/riscv.cpp ****                 TCB::_threadCreate((TCB**)a1, (routine_ptr)a2, (void *)a3, (void *)a4);
 160:src/riscv.cpp ****                 break;
 161:src/riscv.cpp ****             case THREAD_EXIT:
 162:src/riscv.cpp ****                 TCB::_threadExit();
 163:src/riscv.cpp ****                 break;
 164:src/riscv.cpp ****             case THREAD_DISPATCH:
 165:src/riscv.cpp ****                 TCB::time_slice_count = 0;
 166:src/riscv.cpp ****                 TCB::dispatch();
 167:src/riscv.cpp ****                 break;
 168:src/riscv.cpp ****             case SEM_OPEN:
 169:src/riscv.cpp ****                 Sem::open((sem_t*)a1, (unsigned int)a2);
 170:src/riscv.cpp ****                 break;
 171:src/riscv.cpp ****             case SEM_CLOSE:
 172:src/riscv.cpp ****                 Sem::s_close((sem_t)a1); // a1 == handle
 173:src/riscv.cpp ****                 break;
 174:src/riscv.cpp ****             case SEM_WAIT:
 175:src/riscv.cpp ****                 Sem::wait(((sem_t)a1)); // a1 <=> handle
 176:src/riscv.cpp ****                 break;
 177:src/riscv.cpp ****             case SEM_SIGNAL:
 178:src/riscv.cpp ****                 Sem::signal((sem_t)a1); // a1 <=> handle
 179:src/riscv.cpp ****                 break;
 180:src/riscv.cpp ****             case SEM_TIMEDWAIT:
 181:src/riscv.cpp ****                 Sem::timedwait((sem_t)a1,(time_t)a2);
 182:src/riscv.cpp ****                 break;
 183:src/riscv.cpp ****             case SEM_TRYWAIT:
 184:src/riscv.cpp ****                 Sem::trywait((sem_t)a1);
 185:src/riscv.cpp ****                 break;
 186:src/riscv.cpp ****             case TIME_SLEEP:
 187:src/riscv.cpp ****                 Scheduler::time_sleep((thread_t)TCB::running, (time_t)a1);
 188:src/riscv.cpp ****                 break;
 189:src/riscv.cpp ****             case GETC:
 190:src/riscv.cpp ****                 myConsole::input_getc();
 191:src/riscv.cpp ****                 break;
 192:src/riscv.cpp ****             case PUTC:
 193:src/riscv.cpp ****                 myConsole::output_putc((char) a1);
 194:src/riscv.cpp ****                 break;
 195:src/riscv.cpp ****         }
 196:src/riscv.cpp **** 
 197:src/riscv.cpp ****         wr_sepc(sepc);
 848              		.loc 1 197 9
 849              	.LBB68:
 850              	.LBB69:
  86:src/../h/riscv.hpp **** }
GAS LISTING /tmp/cc4PTFYO.s 			page 28


 851              		.loc 2 86 5
  86:src/../h/riscv.hpp **** }
 852              		.loc 2 86 54 is_stmt 0
 853              	#APP
 854              	# 86 "src/../h/riscv.hpp" 1
 855              		csrw sepc, s1
 856              	# 0 "" 2
 857              	.LVL63:
 858              	#NO_APP
 859              	.LBE69:
 860              	.LBE68:
 198:src/riscv.cpp ****         wr_sstatus(sstatus);
 861              		.loc 1 198 9 is_stmt 1
 862              	.LBB70:
 863              	.LBB71:
 126:src/../h/riscv.hpp **** }
 864              		.loc 2 126 5
 126:src/../h/riscv.hpp **** }
 865              		.loc 2 126 57 is_stmt 0
 866              	#APP
 867              	# 126 "src/../h/riscv.hpp" 1
 868              		csrw sstatus, s2
 869              	# 0 "" 2
 870              	.LVL64:
 871              	#NO_APP
 872              	.L20:
 873              	.LBE71:
 874              	.LBE70:
 875              	.LBE72:
 876              	.LBE89:
 877              	.LBE119:
 878              	.LBE122:
 199:src/riscv.cpp **** 
 200:src/riscv.cpp ****     } else {
 201:src/riscv.cpp ****         // INVALID INTERRUPT CODE
 202:src/riscv.cpp ****         myPrintString("Error");
 203:src/riscv.cpp ****     }
 204:src/riscv.cpp **** }
 879              		.loc 1 204 1
 880 02fc 83308106 		ld	ra,104(sp)
 881              		.cfi_remember_state
 882              		.cfi_restore 1
 883 0300 03340106 		ld	s0,96(sp)
 884              		.cfi_restore 8
 885              		.cfi_def_cfa 2, 112
 886 0304 83348105 		ld	s1,88(sp)
 887              		.cfi_restore 9
 888 0308 03390105 		ld	s2,80(sp)
 889              		.cfi_restore 18
 890 030c 83398104 		ld	s3,72(sp)
 891              		.cfi_restore 19
 892 0310 033A0104 		ld	s4,64(sp)
 893              		.cfi_restore 20
 894 0314 13010107 		addi	sp,sp,112
 895              		.cfi_def_cfa_offset 0
 896 0318 67800000 		jr	ra
 897              	.LVL65:
GAS LISTING /tmp/cc4PTFYO.s 			page 29


 898              	.L51:
 899              		.cfi_restore_state
 900              	.LBB123:
 901              	.LBB120:
 902              	.LBB90:
 903              	.LBB73:
 155:src/riscv.cpp ****                 MemoryAllocator::mem_free((void *)a1);
 904              		.loc 1 155 13 is_stmt 1
 156:src/riscv.cpp ****                 break;
 905              		.loc 1 156 17
 156:src/riscv.cpp ****                 break;
 906              		.loc 1 156 42 is_stmt 0
 907 031c 97000000 		call	_ZN15MemoryAllocator8mem_freeEPv@plt
 907      E7800000 
 908              	.LVL66:
 157:src/riscv.cpp ****             case THREAD_CREATE:
 909              		.loc 1 157 17 is_stmt 1
 910 0324 6FF01FFD 		j	.L37
 911              	.LVL67:
 912              	.L50:
 158:src/riscv.cpp ****                 TCB::_threadCreate((TCB**)a1, (routine_ptr)a2, (void *)a3, (void *)a4);
 913              		.loc 1 158 13
 159:src/riscv.cpp ****                 break;
 914              		.loc 1 159 17
 159:src/riscv.cpp ****                 break;
 915              		.loc 1 159 35 is_stmt 0
 916 0328 97000000 		call	_ZN3TCB13_threadCreateEPPS_PFvPvES2_S2_@plt
 916      E7800000 
 917              	.LVL68:
 160:src/riscv.cpp ****             case THREAD_EXIT:
 918              		.loc 1 160 17 is_stmt 1
 919 0330 6FF05FFC 		j	.L37
 920              	.LVL69:
 921              	.L49:
 161:src/riscv.cpp ****                 TCB::_threadExit();
 922              		.loc 1 161 13
 162:src/riscv.cpp ****                 break;
 923              		.loc 1 162 17
 162:src/riscv.cpp ****                 break;
 924              		.loc 1 162 33 is_stmt 0
 925 0334 97000000 		call	_ZN3TCB11_threadExitEv@plt
 925      E7800000 
 926              	.LVL70:
 163:src/riscv.cpp ****             case THREAD_DISPATCH:
 927              		.loc 1 163 17 is_stmt 1
 928 033c 6FF09FFB 		j	.L37
 929              	.LVL71:
 930              	.L48:
 164:src/riscv.cpp ****                 TCB::time_slice_count = 0;
 931              		.loc 1 164 13
 165:src/riscv.cpp ****                 TCB::dispatch();
 932              		.loc 1 165 17
 165:src/riscv.cpp ****                 TCB::dispatch();
 933              		.loc 1 165 39 is_stmt 0
 934 0340 97070000 		la	a5,_ZN3TCB16time_slice_countE
 934      83B70700 
 935 0348 23B00700 		sd	zero,0(a5)
GAS LISTING /tmp/cc4PTFYO.s 			page 30


 166:src/riscv.cpp ****                 break;
 936              		.loc 1 166 17 is_stmt 1
 166:src/riscv.cpp ****                 break;
 937              		.loc 1 166 30 is_stmt 0
 938 034c 97000000 		call	_ZN3TCB8dispatchEv@plt
 938      E7800000 
 939              	.LVL72:
 167:src/riscv.cpp ****             case SEM_OPEN:
 940              		.loc 1 167 17 is_stmt 1
 941 0354 6FF01FFA 		j	.L37
 942              	.LVL73:
 943              	.L47:
 168:src/riscv.cpp ****                 Sem::open((sem_t*)a1, (unsigned int)a2);
 944              		.loc 1 168 13
 169:src/riscv.cpp ****                 break;
 945              		.loc 1 169 17
 169:src/riscv.cpp ****                 break;
 946              		.loc 1 169 26 is_stmt 0
 947 0358 9B850500 		sext.w	a1,a1
 948              	.LVL74:
 949 035c 97000000 		call	_ZN3Sem4openEPPS_j@plt
 949      E7800000 
 950              	.LVL75:
 170:src/riscv.cpp ****             case SEM_CLOSE:
 951              		.loc 1 170 17 is_stmt 1
 952 0364 6FF01FF9 		j	.L37
 953              	.LVL76:
 954              	.L46:
 171:src/riscv.cpp ****                 Sem::s_close((sem_t)a1); // a1 == handle
 955              		.loc 1 171 13
 172:src/riscv.cpp ****                 break;
 956              		.loc 1 172 17
 172:src/riscv.cpp ****                 break;
 957              		.loc 1 172 29 is_stmt 0
 958 0368 97000000 		call	_ZN3Sem7s_closeEPS_@plt
 958      E7800000 
 959              	.LVL77:
 173:src/riscv.cpp ****             case SEM_WAIT:
 960              		.loc 1 173 17 is_stmt 1
 961 0370 6FF05FF8 		j	.L37
 962              	.LVL78:
 963              	.L45:
 174:src/riscv.cpp ****                 Sem::wait(((sem_t)a1)); // a1 <=> handle
 964              		.loc 1 174 13
 175:src/riscv.cpp ****                 break;
 965              		.loc 1 175 17
 175:src/riscv.cpp ****                 break;
 966              		.loc 1 175 26 is_stmt 0
 967 0374 97000000 		call	_ZN3Sem4waitEPS_@plt
 967      E7800000 
 968              	.LVL79:
 176:src/riscv.cpp ****             case SEM_SIGNAL:
 969              		.loc 1 176 17 is_stmt 1
 970 037c 6FF09FF7 		j	.L37
 971              	.LVL80:
 972              	.L44:
 177:src/riscv.cpp ****                 Sem::signal((sem_t)a1); // a1 <=> handle
GAS LISTING /tmp/cc4PTFYO.s 			page 31


 973              		.loc 1 177 13
 178:src/riscv.cpp ****                 break;
 974              		.loc 1 178 17
 178:src/riscv.cpp ****                 break;
 975              		.loc 1 178 28 is_stmt 0
 976 0380 97000000 		call	_ZN3Sem6signalEPS_@plt
 976      E7800000 
 977              	.LVL81:
 179:src/riscv.cpp ****             case SEM_TIMEDWAIT:
 978              		.loc 1 179 17 is_stmt 1
 979 0388 6FF0DFF6 		j	.L37
 980              	.LVL82:
 981              	.L43:
 180:src/riscv.cpp ****                 Sem::timedwait((sem_t)a1,(time_t)a2);
 982              		.loc 1 180 13
 181:src/riscv.cpp ****                 break;
 983              		.loc 1 181 17
 181:src/riscv.cpp ****                 break;
 984              		.loc 1 181 31 is_stmt 0
 985 038c 97000000 		call	_ZN3Sem9timedwaitEPS_m@plt
 985      E7800000 
 986              	.LVL83:
 182:src/riscv.cpp ****             case SEM_TRYWAIT:
 987              		.loc 1 182 17 is_stmt 1
 988 0394 6FF01FF6 		j	.L37
 989              	.LVL84:
 990              	.L42:
 183:src/riscv.cpp ****                 Sem::trywait((sem_t)a1);
 991              		.loc 1 183 13
 184:src/riscv.cpp ****                 break;
 992              		.loc 1 184 17
 184:src/riscv.cpp ****                 break;
 993              		.loc 1 184 29 is_stmt 0
 994 0398 97000000 		call	_ZN3Sem7trywaitEPS_@plt
 994      E7800000 
 995              	.LVL85:
 185:src/riscv.cpp ****             case TIME_SLEEP:
 996              		.loc 1 185 17 is_stmt 1
 997 03a0 6FF05FF5 		j	.L37
 998              	.LVL86:
 999              	.L41:
 186:src/riscv.cpp ****                 Scheduler::time_sleep((thread_t)TCB::running, (time_t)a1);
 1000              		.loc 1 186 13
 187:src/riscv.cpp ****                 break;
 1001              		.loc 1 187 17
 187:src/riscv.cpp ****                 break;
 1002              		.loc 1 187 38 is_stmt 0
 1003 03a4 93050500 		mv	a1,a0
 1004              	.LVL87:
 1005 03a8 97070000 		la	a5,_ZN3TCB7runningE
 1005      83B70700 
 1006 03b0 03B50700 		ld	a0,0(a5)
 1007              	.LVL88:
 1008 03b4 97000000 		call	_ZN9Scheduler10time_sleepEP3TCBm@plt
 1008      E7800000 
 1009              	.LVL89:
 188:src/riscv.cpp ****             case GETC:
GAS LISTING /tmp/cc4PTFYO.s 			page 32


 1010              		.loc 1 188 17 is_stmt 1
 1011 03bc 6FF09FF3 		j	.L37
 1012              	.LVL90:
 1013              	.L40:
 189:src/riscv.cpp ****                 myConsole::input_getc();
 1014              		.loc 1 189 13
 190:src/riscv.cpp ****                 break;
 1015              		.loc 1 190 17
 190:src/riscv.cpp ****                 break;
 1016              		.loc 1 190 38 is_stmt 0
 1017 03c0 97000000 		call	_ZN9myConsole10input_getcEv@plt
 1017      E7800000 
 1018              	.LVL91:
 191:src/riscv.cpp ****             case PUTC:
 1019              		.loc 1 191 17 is_stmt 1
 1020 03c8 6FF0DFF2 		j	.L37
 1021              	.LVL92:
 1022              	.L38:
 192:src/riscv.cpp ****                 myConsole::output_putc((char) a1);
 1023              		.loc 1 192 13
 193:src/riscv.cpp ****                 break;
 1024              		.loc 1 193 17
 193:src/riscv.cpp ****                 break;
 1025              		.loc 1 193 39 is_stmt 0
 1026 03cc 1375F50F 		andi	a0,a0,0xff
 1027              	.LVL93:
 1028 03d0 97000000 		call	_ZN9myConsole11output_putcEc@plt
 1028      E7800000 
 1029              	.LVL94:
 194:src/riscv.cpp ****         }
 1030              		.loc 1 194 17 is_stmt 1
 1031 03d8 6FF0DFF1 		j	.L37
 1032              	.LVL95:
 1033              	.L36:
 1034              	.LBE73:
 202:src/riscv.cpp ****     }
 1035              		.loc 1 202 9
 202:src/riscv.cpp ****     }
 1036              		.loc 1 202 22 is_stmt 0
 1037 03dc 17050000 		lla	a0,.LC0
 1037      13050500 
 1038              	.LVL96:
 1039 03e4 97000000 		call	_Z13myPrintStringPKc@plt
 1039      E7800000 
 1040              	.LVL97:
 1041              	.LBE90:
 1042              	.LBE120:
 1043              	.LBE123:
 1044              		.loc 1 204 1
 1045 03ec 6FF01FF1 		j	.L20
 1046              		.cfi_endproc
 1047              	.LFE35:
 1049              	.Letext0:
 1050              		.file 6 "src/../lib/hw.h"
 1051              		.file 7 "src/../h/syscall_c.hpp"
 1052              		.file 8 "src/../h/semaphore.hpp"
 1053              		.file 9 "src/../h/Memoryallocator.hpp"
GAS LISTING /tmp/cc4PTFYO.s 			page 33


 1054              		.file 10 "src/../h/BoundedBuffer.hpp"
 1055              		.file 11 "src/../h/Console.hpp"
 1056              		.file 12 "src/../h/print.hpp"
GAS LISTING /tmp/cc4PTFYO.s 			page 34


DEFINED SYMBOLS
                            *ABS*:0000000000000000 riscv.cpp
     /tmp/cc4PTFYO.s:9      .text:0000000000000000 _ZN5RISCV10popSppSpieEv
     /tmp/cc4PTFYO.s:13     .text:0000000000000000 .L0 
     /tmp/cc4PTFYO.s:14     .text:0000000000000000 .L0 
     /tmp/cc4PTFYO.s:15     .text:0000000000000004 .L0 
     /tmp/cc4PTFYO.s:17     .text:0000000000000008 .L0 
     /tmp/cc4PTFYO.s:19     .text:000000000000000c .L0 
     /tmp/cc4PTFYO.s:21     .text:000000000000000c .L0 
     /tmp/cc4PTFYO.s:22     .text:000000000000000c .L0 
     /tmp/cc4PTFYO.s:26     .text:000000000000001c .L0 
     /tmp/cc4PTFYO.s:33     .text:0000000000000028 .L0 
     /tmp/cc4PTFYO.s:34     .text:0000000000000028 .L0 
     /tmp/cc4PTFYO.s:35     .text:0000000000000028 .L0 
     /tmp/cc4PTFYO.s:46     .text:0000000000000030 .L0 
       src/riscv.cpp:20     .text:0000000000000030 .L0 
     /tmp/cc4PTFYO.s:52     .text:0000000000000034 .L0 
       src/riscv.cpp:21     .text:0000000000000034 .L0 
     /tmp/cc4PTFYO.s:58     .text:0000000000000038 .L0 
     /tmp/cc4PTFYO.s:59     .text:000000000000003c .L0 
     /tmp/cc4PTFYO.s:60     .text:000000000000003c .L0 
     /tmp/cc4PTFYO.s:62     .text:0000000000000040 .L0 
     /tmp/cc4PTFYO.s:64     .text:0000000000000044 .L0 
     /tmp/cc4PTFYO.s:70     .text:0000000000000044 _ZN5RISCV12return_valueEm
     /tmp/cc4PTFYO.s:73     .text:0000000000000044 .L0 
     /tmp/cc4PTFYO.s:75     .text:0000000000000044 .L0 
     /tmp/cc4PTFYO.s:76     .text:0000000000000048 .L0 
     /tmp/cc4PTFYO.s:78     .text:000000000000004c .L0 
     /tmp/cc4PTFYO.s:80     .text:0000000000000050 .L0 
     /tmp/cc4PTFYO.s:82     .text:0000000000000050 .L0 
     /tmp/cc4PTFYO.s:83     .text:0000000000000050 .L0 
     /tmp/cc4PTFYO.s:84     .text:0000000000000054 .L0 
     /tmp/cc4PTFYO.s:85     .text:0000000000000054 .L0 
     /tmp/cc4PTFYO.s:87     .text:0000000000000058 .L0 
     /tmp/cc4PTFYO.s:89     .text:000000000000005c .L0 
     /tmp/cc4PTFYO.s:96     .text._ZN4ListI3TCBE6removeEPS0_:0000000000000000 _ZN4ListI3TCBE6removeEPS0_
     /tmp/cc4PTFYO.s:100    .text._ZN4ListI3TCBE6removeEPS0_:0000000000000000 .L0 
     /tmp/cc4PTFYO.s:102    .text._ZN4ListI3TCBE6removeEPS0_:0000000000000000 .L0 
     /tmp/cc4PTFYO.s:105    .text._ZN4ListI3TCBE6removeEPS0_:0000000000000004 .L0 
     /tmp/cc4PTFYO.s:108    .text._ZN4ListI3TCBE6removeEPS0_:0000000000000008 .L0 
     /tmp/cc4PTFYO.s:112    .text._ZN4ListI3TCBE6removeEPS0_:000000000000000c .L0 
     /tmp/cc4PTFYO.s:114    .text._ZN4ListI3TCBE6removeEPS0_:0000000000000010 .L0 
     /tmp/cc4PTFYO.s:116    .text._ZN4ListI3TCBE6removeEPS0_:0000000000000014 .L0 
     /tmp/cc4PTFYO.s:119    .text._ZN4ListI3TCBE6removeEPS0_:0000000000000018 .L0 
     /tmp/cc4PTFYO.s:121    .text._ZN4ListI3TCBE6removeEPS0_:000000000000001c .L0 
     /tmp/cc4PTFYO.s:124    .text._ZN4ListI3TCBE6removeEPS0_:0000000000000020 .L0 
     /tmp/cc4PTFYO.s:127    .text._ZN4ListI3TCBE6removeEPS0_:0000000000000024 .L0 
     /tmp/cc4PTFYO.s:128    .text._ZN4ListI3TCBE6removeEPS0_:0000000000000028 .L0 
     /tmp/cc4PTFYO.s:131    .text._ZN4ListI3TCBE6removeEPS0_:0000000000000030 .L0 
     /tmp/cc4PTFYO.s:132    .text._ZN4ListI3TCBE6removeEPS0_:0000000000000030 .L0 
     /tmp/cc4PTFYO.s:134    .text._ZN4ListI3TCBE6removeEPS0_:0000000000000034 .L0 
     /tmp/cc4PTFYO.s:136    .text._ZN4ListI3TCBE6removeEPS0_:0000000000000034 .L0 
     /tmp/cc4PTFYO.s:138    .text._ZN4ListI3TCBE6removeEPS0_:0000000000000038 .L0 
     /tmp/cc4PTFYO.s:140    .text._ZN4ListI3TCBE6removeEPS0_:000000000000003c .L0 
     /tmp/cc4PTFYO.s:142    .text._ZN4ListI3TCBE6removeEPS0_:0000000000000040 .L0 
     /tmp/cc4PTFYO.s:144    .text._ZN4ListI3TCBE6removeEPS0_:0000000000000044 .L0 
     /tmp/cc4PTFYO.s:147    .text._ZN4ListI3TCBE6removeEPS0_:0000000000000048 .L0 
GAS LISTING /tmp/cc4PTFYO.s 			page 35


     /tmp/cc4PTFYO.s:149    .text._ZN4ListI3TCBE6removeEPS0_:000000000000004c .L0 
     /tmp/cc4PTFYO.s:152    .text._ZN4ListI3TCBE6removeEPS0_:0000000000000050 .L0 
     /tmp/cc4PTFYO.s:155    .text._ZN4ListI3TCBE6removeEPS0_:0000000000000058 .L0 
     /tmp/cc4PTFYO.s:156    .text._ZN4ListI3TCBE6removeEPS0_:000000000000005c .L0 
     /tmp/cc4PTFYO.s:157    .text._ZN4ListI3TCBE6removeEPS0_:000000000000005c .L0 
     /tmp/cc4PTFYO.s:159    .text._ZN4ListI3TCBE6removeEPS0_:0000000000000060 .L0 
     /tmp/cc4PTFYO.s:160    .text._ZN4ListI3TCBE6removeEPS0_:0000000000000060 .L0 
     /tmp/cc4PTFYO.s:162    .text._ZN4ListI3TCBE6removeEPS0_:0000000000000064 .L0 
     /tmp/cc4PTFYO.s:166    .text._ZN4ListI3TCBE6removeEPS0_:0000000000000068 .L0 
     /tmp/cc4PTFYO.s:168    .text._ZN4ListI3TCBE6removeEPS0_:0000000000000068 .L0 
     /tmp/cc4PTFYO.s:172    .text._ZN4ListI3TCBE6removeEPS0_:0000000000000070 .L0 
     /tmp/cc4PTFYO.s:174    .text._ZN4ListI3TCBE6removeEPS0_:0000000000000074 .L0 
     /tmp/cc4PTFYO.s:178    .text._ZN4ListI3TCBE6removeEPS0_:000000000000007c .L0 
     /tmp/cc4PTFYO.s:181    .text._ZN4ListI3TCBE6removeEPS0_:0000000000000084 .L0 
     /tmp/cc4PTFYO.s:182    .text._ZN4ListI3TCBE6removeEPS0_:0000000000000084 .L0 
     /tmp/cc4PTFYO.s:183    .text._ZN4ListI3TCBE6removeEPS0_:0000000000000084 .L0 
     /tmp/cc4PTFYO.s:185    .text._ZN4ListI3TCBE6removeEPS0_:0000000000000088 .L0 
     /tmp/cc4PTFYO.s:196    .text:000000000000005c _ZN5RISCV16handle_interruptEv
     /tmp/cc4PTFYO.s:199    .text:000000000000005c .L0 
     /tmp/cc4PTFYO.s:200    .text:000000000000005c .L0 
     /tmp/cc4PTFYO.s:201    .text:0000000000000060 .L0 
     /tmp/cc4PTFYO.s:208    .text:0000000000000078 .L0 
     /tmp/cc4PTFYO.s:209    .text:0000000000000078 .L0 
     /tmp/cc4PTFYO.s:210    .text:0000000000000078 .L0 
     /tmp/cc4PTFYO.s:211    .text:0000000000000078 .L0 
     /tmp/cc4PTFYO.s:212    .text:0000000000000078 .L0 
     /tmp/cc4PTFYO.s:213    .text:0000000000000078 .L0 
     /tmp/cc4PTFYO.s:215    .text:000000000000007c .L0 
     /tmp/cc4PTFYO.s:217    .text:000000000000007c .L0 
     /tmp/cc4PTFYO.s:218    .text:000000000000007c .L0 
       src/riscv.cpp:34     .text:000000000000007c .L0 
     /tmp/cc4PTFYO.s:225    .text:0000000000000080 .L0 
       src/riscv.cpp:35     .text:0000000000000080 .L0 
     /tmp/cc4PTFYO.s:231    .text:0000000000000084 .L0 
       src/riscv.cpp:36     .text:0000000000000084 .L0 
     /tmp/cc4PTFYO.s:237    .text:0000000000000088 .L0 
       src/riscv.cpp:37     .text:0000000000000088 .L0 
     /tmp/cc4PTFYO.s:243    .text:000000000000008c .L0 
       src/riscv.cpp:38     .text:000000000000008c .L0 
     /tmp/cc4PTFYO.s:252    .text:0000000000000090 .L0 
     /tmp/cc4PTFYO.s:253    .text:0000000000000090 .L0 
     /tmp/cc4PTFYO.s:254    .text:0000000000000090 .L0 
  src/../h/riscv.hpp:71     .text:0000000000000090 .L0 
     /tmp/cc4PTFYO.s:262    .text:0000000000000098 .L0 
     /tmp/cc4PTFYO.s:263    .text:0000000000000098 .L0 
     /tmp/cc4PTFYO.s:269    .text:000000000000009c .L0 
     /tmp/cc4PTFYO.s:277    .text:00000000000000ac .L0 
     /tmp/cc4PTFYO.s:287    .text:00000000000000bc .L0 
     /tmp/cc4PTFYO.s:288    .text:00000000000000bc .L0 
     /tmp/cc4PTFYO.s:291    .text:00000000000000c0 .L0 
     /tmp/cc4PTFYO.s:297    .text:00000000000000c8 .L0 
     /tmp/cc4PTFYO.s:298    .text:00000000000000c8 .L0 
     /tmp/cc4PTFYO.s:299    .text:00000000000000c8 .L0 
  src/../h/riscv.hpp:81     .text:00000000000000c8 .L0 
     /tmp/cc4PTFYO.s:307    .text:00000000000000d0 .L0 
     /tmp/cc4PTFYO.s:308    .text:00000000000000d0 .L0 
     /tmp/cc4PTFYO.s:312    .text:00000000000000d4 .L0 
GAS LISTING /tmp/cc4PTFYO.s 			page 36


     /tmp/cc4PTFYO.s:317    .text:00000000000000d8 .L0 
     /tmp/cc4PTFYO.s:318    .text:00000000000000d8 .L0 
     /tmp/cc4PTFYO.s:319    .text:00000000000000d8 .L0 
  src/../h/riscv.hpp:121    .text:00000000000000d8 .L0 
     /tmp/cc4PTFYO.s:327    .text:00000000000000e0 .L0 
     /tmp/cc4PTFYO.s:328    .text:00000000000000e0 .L0 
     /tmp/cc4PTFYO.s:333    .text:00000000000000e4 .L0 
     /tmp/cc4PTFYO.s:423    .text:0000000000000108 .L0 
     /tmp/cc4PTFYO.s:424    .text:0000000000000108 .L0 
     /tmp/cc4PTFYO.s:425    .text:0000000000000108 .L0 
     /tmp/cc4PTFYO.s:439    .text:0000000000000110 .L0 
     /tmp/cc4PTFYO.s:440    .text:0000000000000110 .L0 
     /tmp/cc4PTFYO.s:441    .text:0000000000000110 .L0 
     /tmp/cc4PTFYO.s:446    .text:000000000000011c .L0 
     /tmp/cc4PTFYO.s:449    .text:0000000000000120 .L0 
     /tmp/cc4PTFYO.s:450    .text:0000000000000120 .L0 
     /tmp/cc4PTFYO.s:452    .text:0000000000000124 .L0 
     /tmp/cc4PTFYO.s:457    .text:000000000000012c .L0 
     /tmp/cc4PTFYO.s:458    .text:000000000000012c .L0 
     /tmp/cc4PTFYO.s:459    .text:000000000000012c .L0 
     /tmp/cc4PTFYO.s:462    .text:0000000000000130 .L0 
     /tmp/cc4PTFYO.s:463    .text:0000000000000130 .L0 
     /tmp/cc4PTFYO.s:465    .text:0000000000000134 .L0 
     /tmp/cc4PTFYO.s:467    .text:0000000000000138 .L0 
     /tmp/cc4PTFYO.s:468    .text:0000000000000138 .L0 
     /tmp/cc4PTFYO.s:470    .text:000000000000013c .L0 
     /tmp/cc4PTFYO.s:471    .text:000000000000013c .L0 
     /tmp/cc4PTFYO.s:475    .text:0000000000000148 .L0 
     /tmp/cc4PTFYO.s:476    .text:0000000000000148 .L0 
     /tmp/cc4PTFYO.s:479    .text:000000000000014c .L0 
     /tmp/cc4PTFYO.s:480    .text:000000000000014c .L0 
     /tmp/cc4PTFYO.s:483    .text:0000000000000150 .L0 
     /tmp/cc4PTFYO.s:484    .text:0000000000000150 .L0 
     /tmp/cc4PTFYO.s:487    .text:0000000000000154 .L0 
     /tmp/cc4PTFYO.s:491    .text:0000000000000158 .L0 
     /tmp/cc4PTFYO.s:492    .text:0000000000000158 .L0 
     /tmp/cc4PTFYO.s:500    .text:0000000000000164 .L0 
     /tmp/cc4PTFYO.s:501    .text:0000000000000164 .L0 
     /tmp/cc4PTFYO.s:511    .text:0000000000000174 .L0 
     /tmp/cc4PTFYO.s:512    .text:0000000000000174 .L0 
     /tmp/cc4PTFYO.s:517    .text:0000000000000178 .L0 
     /tmp/cc4PTFYO.s:519    .text:000000000000017c .L0 
     /tmp/cc4PTFYO.s:522    .text:0000000000000180 .L0 
     /tmp/cc4PTFYO.s:523    .text:0000000000000180 .L0 
     /tmp/cc4PTFYO.s:526    .text:0000000000000184 .L0 
     /tmp/cc4PTFYO.s:527    .text:0000000000000184 .L0 
     /tmp/cc4PTFYO.s:529    .text:0000000000000188 .L0 
     /tmp/cc4PTFYO.s:531    .text:000000000000018c .L0 
     /tmp/cc4PTFYO.s:532    .text:000000000000018c .L0 
     /tmp/cc4PTFYO.s:535    .text:0000000000000190 .L0 
     /tmp/cc4PTFYO.s:536    .text:0000000000000190 .L0 
     /tmp/cc4PTFYO.s:538    .text:0000000000000194 .L0 
     /tmp/cc4PTFYO.s:540    .text:0000000000000198 .L0 
     /tmp/cc4PTFYO.s:542    .text:000000000000019c .L0 
     /tmp/cc4PTFYO.s:543    .text:000000000000019c .L0 
     /tmp/cc4PTFYO.s:546    .text:00000000000001a0 .L0 
     /tmp/cc4PTFYO.s:547    .text:00000000000001a0 .L0 
GAS LISTING /tmp/cc4PTFYO.s 			page 37


     /tmp/cc4PTFYO.s:552    .text:00000000000001b0 .L0 
     /tmp/cc4PTFYO.s:553    .text:00000000000001b0 .L0 
     /tmp/cc4PTFYO.s:555    .text:00000000000001b4 .L0 
     /tmp/cc4PTFYO.s:558    .text:00000000000001bc .L0 
     /tmp/cc4PTFYO.s:559    .text:00000000000001bc .L0 
     /tmp/cc4PTFYO.s:561    .text:00000000000001c0 .L0 
     /tmp/cc4PTFYO.s:564    .text:00000000000001c8 .L0 
     /tmp/cc4PTFYO.s:565    .text:00000000000001c8 .L0 
     /tmp/cc4PTFYO.s:567    .text:00000000000001cc .L0 
     /tmp/cc4PTFYO.s:568    .text:00000000000001cc .L0 
     /tmp/cc4PTFYO.s:572    .text:00000000000001d8 .L0 
     /tmp/cc4PTFYO.s:579    .text:00000000000001dc .L0 
     /tmp/cc4PTFYO.s:580    .text:00000000000001dc .L0 
     /tmp/cc4PTFYO.s:584    .text:00000000000001e0 .L0 
     /tmp/cc4PTFYO.s:587    .text:00000000000001e4 .L0 
     /tmp/cc4PTFYO.s:588    .text:00000000000001e4 .L0 
     /tmp/cc4PTFYO.s:592    .text:00000000000001e8 .L0 
     /tmp/cc4PTFYO.s:593    .text:00000000000001e8 .L0 
     /tmp/cc4PTFYO.s:602    .text:00000000000001f0 .L0 
     /tmp/cc4PTFYO.s:603    .text:00000000000001f0 .L0 
     /tmp/cc4PTFYO.s:609    .text:0000000000000204 .L0 
     /tmp/cc4PTFYO.s:610    .text:0000000000000204 .L0 
     /tmp/cc4PTFYO.s:617    .text:0000000000000210 .L0 
     /tmp/cc4PTFYO.s:618    .text:0000000000000210 .L0 
     /tmp/cc4PTFYO.s:623    .text:0000000000000214 .L0 
     /tmp/cc4PTFYO.s:628    .text:0000000000000218 .L0 
     /tmp/cc4PTFYO.s:629    .text:0000000000000218 .L0 
     /tmp/cc4PTFYO.s:630    .text:0000000000000218 .L0 
  src/../h/riscv.hpp:81     .text:0000000000000218 .L0 
     /tmp/cc4PTFYO.s:638    .text:0000000000000220 .L0 
     /tmp/cc4PTFYO.s:639    .text:0000000000000220 .L0 
     /tmp/cc4PTFYO.s:646    .text:0000000000000224 .L0 
     /tmp/cc4PTFYO.s:647    .text:0000000000000224 .L0 
     /tmp/cc4PTFYO.s:648    .text:0000000000000224 .L0 
  src/../h/riscv.hpp:121    .text:0000000000000224 .L0 
     /tmp/cc4PTFYO.s:656    .text:000000000000022c .L0 
     /tmp/cc4PTFYO.s:657    .text:000000000000022c .L0 
     /tmp/cc4PTFYO.s:662    .text:0000000000000230 .L0 
     /tmp/cc4PTFYO.s:663    .text:0000000000000230 .L0 
     /tmp/cc4PTFYO.s:666    .text:000000000000023c .L0 
     /tmp/cc4PTFYO.s:667    .text:000000000000023c .L0 
     /tmp/cc4PTFYO.s:672    .text:0000000000000244 .L0 
     /tmp/cc4PTFYO.s:673    .text:0000000000000244 .L0 
  src/../h/riscv.hpp:86     .text:0000000000000244 .L0 
     /tmp/cc4PTFYO.s:685    .text:0000000000000248 .L0 
     /tmp/cc4PTFYO.s:686    .text:0000000000000248 .L0 
  src/../h/riscv.hpp:126    .text:0000000000000248 .L0 
     /tmp/cc4PTFYO.s:693    .text:000000000000024c .L0 
     /tmp/cc4PTFYO.s:706    .text:0000000000000250 .L0 
     /tmp/cc4PTFYO.s:707    .text:0000000000000250 .L0 
     /tmp/cc4PTFYO.s:708    .text:0000000000000250 .L0 
  src/../h/riscv.hpp:81     .text:0000000000000250 .L0 
     /tmp/cc4PTFYO.s:716    .text:0000000000000258 .L0 
     /tmp/cc4PTFYO.s:717    .text:0000000000000258 .L0 
     /tmp/cc4PTFYO.s:724    .text:000000000000025c .L0 
     /tmp/cc4PTFYO.s:725    .text:000000000000025c .L0 
     /tmp/cc4PTFYO.s:726    .text:000000000000025c .L0 
GAS LISTING /tmp/cc4PTFYO.s 			page 38


  src/../h/riscv.hpp:121    .text:000000000000025c .L0 
     /tmp/cc4PTFYO.s:734    .text:0000000000000264 .L0 
     /tmp/cc4PTFYO.s:735    .text:0000000000000264 .L0 
     /tmp/cc4PTFYO.s:740    .text:0000000000000268 .L0 
     /tmp/cc4PTFYO.s:741    .text:0000000000000268 .L0 
     /tmp/cc4PTFYO.s:747    .text:0000000000000274 .L0 
     /tmp/cc4PTFYO.s:755    .text:000000000000027c .L0 
     /tmp/cc4PTFYO.s:756    .text:000000000000027c .L0 
  src/../h/riscv.hpp:86     .text:000000000000027c .L0 
     /tmp/cc4PTFYO.s:768    .text:0000000000000280 .L0 
     /tmp/cc4PTFYO.s:769    .text:0000000000000280 .L0 
  src/../h/riscv.hpp:126    .text:0000000000000280 .L0 
     /tmp/cc4PTFYO.s:781    .text:0000000000000284 .L0 
     /tmp/cc4PTFYO.s:782    .text:0000000000000284 .L0 
     /tmp/cc4PTFYO.s:783    .text:0000000000000284 .L0 
     /tmp/cc4PTFYO.s:790    .text:000000000000028c .L0 
     /tmp/cc4PTFYO.s:798    .text:0000000000000290 .L0 
     /tmp/cc4PTFYO.s:799    .text:0000000000000290 .L0 
     /tmp/cc4PTFYO.s:800    .text:0000000000000290 .L0 
     /tmp/cc4PTFYO.s:804    .text:00000000000002a0 .L0 
     /tmp/cc4PTFYO.s:807    .text:00000000000002a8 .L0 
     /tmp/cc4PTFYO.s:812    .text:00000000000002bc .L0 
     /tmp/cc4PTFYO.s:815    .text:00000000000002c0 .L0 
     /tmp/cc4PTFYO.s:816    .text:00000000000002c0 .L0 
     /tmp/cc4PTFYO.s:820    .text:00000000000002cc .L0 
     /tmp/cc4PTFYO.s:821    .text:00000000000002cc .L0 
     /tmp/cc4PTFYO.s:826    .text:00000000000002d8 .L0 
     /tmp/cc4PTFYO.s:829    .text:00000000000002dc .L0 
     /tmp/cc4PTFYO.s:830    .text:00000000000002dc .L0 
     /tmp/cc4PTFYO.s:842    .text:00000000000002ec .L0 
     /tmp/cc4PTFYO.s:843    .text:00000000000002ec .L0 
     /tmp/cc4PTFYO.s:844    .text:00000000000002ec .L0 
     /tmp/cc4PTFYO.s:848    .text:00000000000002f4 .L0 
     /tmp/cc4PTFYO.s:851    .text:00000000000002f4 .L0 
     /tmp/cc4PTFYO.s:852    .text:00000000000002f4 .L0 
  src/../h/riscv.hpp:86     .text:00000000000002f4 .L0 
     /tmp/cc4PTFYO.s:864    .text:00000000000002f8 .L0 
     /tmp/cc4PTFYO.s:865    .text:00000000000002f8 .L0 
  src/../h/riscv.hpp:126    .text:00000000000002f8 .L0 
     /tmp/cc4PTFYO.s:880    .text:00000000000002fc .L0 
     /tmp/cc4PTFYO.s:881    .text:0000000000000300 .L0 
     /tmp/cc4PTFYO.s:882    .text:0000000000000300 .L0 
     /tmp/cc4PTFYO.s:884    .text:0000000000000304 .L0 
     /tmp/cc4PTFYO.s:885    .text:0000000000000304 .L0 
     /tmp/cc4PTFYO.s:887    .text:0000000000000308 .L0 
     /tmp/cc4PTFYO.s:889    .text:000000000000030c .L0 
     /tmp/cc4PTFYO.s:891    .text:0000000000000310 .L0 
     /tmp/cc4PTFYO.s:893    .text:0000000000000314 .L0 
     /tmp/cc4PTFYO.s:895    .text:0000000000000318 .L0 
     /tmp/cc4PTFYO.s:899    .text:000000000000031c .L0 
     /tmp/cc4PTFYO.s:905    .text:000000000000031c .L0 
     /tmp/cc4PTFYO.s:906    .text:000000000000031c .L0 
     /tmp/cc4PTFYO.s:907    .text:000000000000031c .L0 
     /tmp/cc4PTFYO.s:910    .text:0000000000000324 .L0 
     /tmp/cc4PTFYO.s:914    .text:0000000000000328 .L0 
     /tmp/cc4PTFYO.s:915    .text:0000000000000328 .L0 
     /tmp/cc4PTFYO.s:916    .text:0000000000000328 .L0 
GAS LISTING /tmp/cc4PTFYO.s 			page 39


     /tmp/cc4PTFYO.s:919    .text:0000000000000330 .L0 
     /tmp/cc4PTFYO.s:923    .text:0000000000000334 .L0 
     /tmp/cc4PTFYO.s:924    .text:0000000000000334 .L0 
     /tmp/cc4PTFYO.s:925    .text:0000000000000334 .L0 
     /tmp/cc4PTFYO.s:928    .text:000000000000033c .L0 
     /tmp/cc4PTFYO.s:932    .text:0000000000000340 .L0 
     /tmp/cc4PTFYO.s:933    .text:0000000000000340 .L0 
     /tmp/cc4PTFYO.s:934    .text:0000000000000340 .L0 
     /tmp/cc4PTFYO.s:937    .text:000000000000034c .L0 
     /tmp/cc4PTFYO.s:938    .text:000000000000034c .L0 
     /tmp/cc4PTFYO.s:941    .text:0000000000000354 .L0 
     /tmp/cc4PTFYO.s:945    .text:0000000000000358 .L0 
     /tmp/cc4PTFYO.s:946    .text:0000000000000358 .L0 
     /tmp/cc4PTFYO.s:947    .text:0000000000000358 .L0 
     /tmp/cc4PTFYO.s:952    .text:0000000000000364 .L0 
     /tmp/cc4PTFYO.s:956    .text:0000000000000368 .L0 
     /tmp/cc4PTFYO.s:957    .text:0000000000000368 .L0 
     /tmp/cc4PTFYO.s:958    .text:0000000000000368 .L0 
     /tmp/cc4PTFYO.s:961    .text:0000000000000370 .L0 
     /tmp/cc4PTFYO.s:965    .text:0000000000000374 .L0 
     /tmp/cc4PTFYO.s:966    .text:0000000000000374 .L0 
     /tmp/cc4PTFYO.s:967    .text:0000000000000374 .L0 
     /tmp/cc4PTFYO.s:970    .text:000000000000037c .L0 
     /tmp/cc4PTFYO.s:974    .text:0000000000000380 .L0 
     /tmp/cc4PTFYO.s:975    .text:0000000000000380 .L0 
     /tmp/cc4PTFYO.s:976    .text:0000000000000380 .L0 
     /tmp/cc4PTFYO.s:979    .text:0000000000000388 .L0 
     /tmp/cc4PTFYO.s:983    .text:000000000000038c .L0 
     /tmp/cc4PTFYO.s:984    .text:000000000000038c .L0 
     /tmp/cc4PTFYO.s:985    .text:000000000000038c .L0 
     /tmp/cc4PTFYO.s:988    .text:0000000000000394 .L0 
     /tmp/cc4PTFYO.s:992    .text:0000000000000398 .L0 
     /tmp/cc4PTFYO.s:993    .text:0000000000000398 .L0 
     /tmp/cc4PTFYO.s:994    .text:0000000000000398 .L0 
     /tmp/cc4PTFYO.s:997    .text:00000000000003a0 .L0 
     /tmp/cc4PTFYO.s:1001   .text:00000000000003a4 .L0 
     /tmp/cc4PTFYO.s:1002   .text:00000000000003a4 .L0 
     /tmp/cc4PTFYO.s:1003   .text:00000000000003a4 .L0 
     /tmp/cc4PTFYO.s:1011   .text:00000000000003bc .L0 
     /tmp/cc4PTFYO.s:1015   .text:00000000000003c0 .L0 
     /tmp/cc4PTFYO.s:1016   .text:00000000000003c0 .L0 
     /tmp/cc4PTFYO.s:1017   .text:00000000000003c0 .L0 
     /tmp/cc4PTFYO.s:1020   .text:00000000000003c8 .L0 
     /tmp/cc4PTFYO.s:1024   .text:00000000000003cc .L0 
     /tmp/cc4PTFYO.s:1025   .text:00000000000003cc .L0 
     /tmp/cc4PTFYO.s:1026   .text:00000000000003cc .L0 
     /tmp/cc4PTFYO.s:1031   .text:00000000000003d8 .L0 
     /tmp/cc4PTFYO.s:1036   .text:00000000000003dc .L0 
     /tmp/cc4PTFYO.s:1037   .text:00000000000003dc .L0 
     /tmp/cc4PTFYO.s:1045   .text:00000000000003ec .L0 
     /tmp/cc4PTFYO.s:1046   .text:00000000000003f0 .L0 
     /tmp/cc4PTFYO.s:1057   .text:00000000000003f0 .L0 
     /tmp/cc4PTFYO.s:188    .text._ZN4ListI3TCBE6removeEPS0_:0000000000000088 .L0 
     /tmp/cc4PTFYO.s:22     .text:000000000000000c .L0 
     /tmp/cc4PTFYO.s:26     .text:000000000000001c .L0 
     /tmp/cc4PTFYO.s:345    .rodata:0000000000000000 .L39
     /tmp/cc4PTFYO.s:336    .text:00000000000000f0 .L0 
GAS LISTING /tmp/cc4PTFYO.s 			page 40


     /tmp/cc4PTFYO.s:441    .text:0000000000000110 .L0 
     /tmp/cc4PTFYO.s:492    .text:0000000000000158 .L0 
     /tmp/cc4PTFYO.s:501    .text:0000000000000164 .L0 
     /tmp/cc4PTFYO.s:603    .text:00000000000001f0 .L0 
     /tmp/cc4PTFYO.s:610    .text:0000000000000204 .L0 
     /tmp/cc4PTFYO.s:663    .text:0000000000000230 .L0 
     /tmp/cc4PTFYO.s:800    .text:0000000000000290 .L0 
     /tmp/cc4PTFYO.s:807    .text:00000000000002a8 .L0 
     /tmp/cc4PTFYO.s:816    .text:00000000000002c0 .L0 
     /tmp/cc4PTFYO.s:934    .text:0000000000000340 .L0 
     /tmp/cc4PTFYO.s:1005   .text:00000000000003a8 .L0 
     /tmp/cc4PTFYO.s:190    .rodata.str1.8:0000000000000000 .LC0
     /tmp/cc4PTFYO.s:1037   .text:00000000000003dc .L0 
     /tmp/cc4PTFYO.s:42     .text:0000000000000030 .L2
     /tmp/cc4PTFYO.s:415    .text:0000000000000108 .L54
     /tmp/cc4PTFYO.s:695    .text:0000000000000250 .L55
     /tmp/cc4PTFYO.s:1033   .text:00000000000003dc .L36
     /tmp/cc4PTFYO.s:847    .text:00000000000002f4 .L37
     /tmp/cc4PTFYO.s:495    .text:0000000000000164 .L22
     /tmp/cc4PTFYO.s:489    .text:0000000000000158 .L23
     /tmp/cc4PTFYO.s:456    .text:000000000000012c .L24
     /tmp/cc4PTFYO.s:582    .text:00000000000001e0 .L30
     /tmp/cc4PTFYO.s:574    .text:00000000000001dc .L27
     /tmp/cc4PTFYO.s:506    .text:0000000000000174 .L28
     /tmp/cc4PTFYO.s:514    .text:0000000000000178 .L26
     /tmp/cc4PTFYO.s:597    .text:00000000000001f0 .L25
     /tmp/cc4PTFYO.s:872    .text:00000000000002fc .L20
     /tmp/cc4PTFYO.s:792    .text:0000000000000290 .L35
     /tmp/cc4PTFYO.s:827    .text:00000000000002dc .L34
     /tmp/cc4PTFYO.s:750    .text:000000000000027c .L33
     /tmp/cc4PTFYO.s:180    .text._ZN4ListI3TCBE6removeEPS0_:0000000000000084 .L14
     /tmp/cc4PTFYO.s:125    .text._ZN4ListI3TCBE6removeEPS0_:0000000000000024 .L17
     /tmp/cc4PTFYO.s:110    .text._ZN4ListI3TCBE6removeEPS0_:000000000000000c .L12
     /tmp/cc4PTFYO.s:170    .text._ZN4ListI3TCBE6removeEPS0_:0000000000000070 .L9
     /tmp/cc4PTFYO.s:165    .text._ZN4ListI3TCBE6removeEPS0_:0000000000000068 .L18
     /tmp/cc4PTFYO.s:176    .text._ZN4ListI3TCBE6removeEPS0_:000000000000007c .L19
     /tmp/cc4PTFYO.s:145    .text._ZN4ListI3TCBE6removeEPS0_:0000000000000048 .L10
     /tmp/cc4PTFYO.s:150    .text._ZN4ListI3TCBE6removeEPS0_:0000000000000050 .L11
     /tmp/cc4PTFYO.s:836    .text:00000000000002ec .L52
     /tmp/cc4PTFYO.s:898    .text:000000000000031c .L51
     /tmp/cc4PTFYO.s:912    .text:0000000000000328 .L50
     /tmp/cc4PTFYO.s:921    .text:0000000000000334 .L49
     /tmp/cc4PTFYO.s:930    .text:0000000000000340 .L48
     /tmp/cc4PTFYO.s:943    .text:0000000000000358 .L47
     /tmp/cc4PTFYO.s:954    .text:0000000000000368 .L46
     /tmp/cc4PTFYO.s:963    .text:0000000000000374 .L45
     /tmp/cc4PTFYO.s:972    .text:0000000000000380 .L44
     /tmp/cc4PTFYO.s:981    .text:000000000000038c .L43
     /tmp/cc4PTFYO.s:990    .text:0000000000000398 .L42
     /tmp/cc4PTFYO.s:999    .text:00000000000003a4 .L41
     /tmp/cc4PTFYO.s:1013   .text:00000000000003c0 .L40
     /tmp/cc4PTFYO.s:1022   .text:00000000000003cc .L38
     /tmp/cc4PTFYO.s:3603   .debug_abbrev:0000000000000000 .Ldebug_abbrev0
     /tmp/cc4PTFYO.s:6208   .debug_str:0000000000000c95 .LASF260
     /tmp/cc4PTFYO.s:6280   .debug_str:0000000000000f45 .LASF261
     /tmp/cc4PTFYO.s:5920   .debug_str:0000000000000458 .LASF262
     /tmp/cc4PTFYO.s:5736   .debug_ranges:0000000000000000 .Ldebug_ranges0
GAS LISTING /tmp/cc4PTFYO.s 			page 41


     /tmp/cc4PTFYO.s:5770   .debug_line:0000000000000000 .Ldebug_line0
     /tmp/cc4PTFYO.s:5954   .debug_str:0000000000000557 .LASF0
     /tmp/cc4PTFYO.s:5994   .debug_str:000000000000064c .LASF1
     /tmp/cc4PTFYO.s:6126   .debug_str:0000000000000a09 .LASF2
     /tmp/cc4PTFYO.s:6140   .debug_str:0000000000000aa8 .LASF4
     /tmp/cc4PTFYO.s:5970   .debug_str:00000000000005c9 .LASF3
     /tmp/cc4PTFYO.s:5788   .debug_str:0000000000000064 .LASF5
     /tmp/cc4PTFYO.s:6088   .debug_str:0000000000000920 .LASF6
     /tmp/cc4PTFYO.s:6078   .debug_str:00000000000008be .LASF7
     /tmp/cc4PTFYO.s:5980   .debug_str:0000000000000606 .LASF8
     /tmp/cc4PTFYO.s:5916   .debug_str:000000000000043c .LASF9
     /tmp/cc4PTFYO.s:5928   .debug_str:00000000000004a8 .LASF10
     /tmp/cc4PTFYO.s:5836   .debug_str:00000000000001c8 .LASF11
     /tmp/cc4PTFYO.s:5902   .debug_str:00000000000003e8 .LASF12
     /tmp/cc4PTFYO.s:5856   .debug_str:000000000000026e .LASF13
     /tmp/cc4PTFYO.s:5834   .debug_str:00000000000001b8 .LASF14
     /tmp/cc4PTFYO.s:6182   .debug_str:0000000000000be0 .LASF15
     /tmp/cc4PTFYO.s:5894   .debug_str:0000000000000387 .LASF16
     /tmp/cc4PTFYO.s:6164   .debug_str:0000000000000b4f .LASF17
     /tmp/cc4PTFYO.s:6278   .debug_str:0000000000000f3f .LASF83
     /tmp/cc4PTFYO.s:5966   .debug_str:00000000000005ad .LASF22
     /tmp/cc4PTFYO.s:6014   .debug_str:00000000000006ef .LASF18
     /tmp/cc4PTFYO.s:6036   .debug_str:0000000000000794 .LASF19
     /tmp/cc4PTFYO.s:5824   .debug_str:0000000000000178 .LASF20
     /tmp/cc4PTFYO.s:5812   .debug_str:000000000000011c .LASF21
     /tmp/cc4PTFYO.s:5782   .debug_str:0000000000000041 .LASF23
     /tmp/cc4PTFYO.s:6104   .debug_str:0000000000000988 .LASF24
     /tmp/cc4PTFYO.s:5870   .debug_str:00000000000002db .LASF25
     /tmp/cc4PTFYO.s:5872   .debug_str:00000000000002e8 .LASF26
     /tmp/cc4PTFYO.s:6118   .debug_str:00000000000009c4 .LASF28
     /tmp/cc4PTFYO.s:5880   .debug_str:000000000000030e .LASF27
     /tmp/cc4PTFYO.s:6128   .debug_str:0000000000000a17 .LASF29
     /tmp/cc4PTFYO.s:5820   .debug_str:0000000000000167 .LASF30
     /tmp/cc4PTFYO.s:6236   .debug_str:0000000000000e1a .LASF31
     /tmp/cc4PTFYO.s:5926   .debug_str:000000000000049f .LASF32
     /tmp/cc4PTFYO.s:5838   .debug_str:00000000000001d7 .LASF33
     /tmp/cc4PTFYO.s:6240   .debug_str:0000000000000e47 .LASF92
     /tmp/cc4PTFYO.s:6192   .debug_str:0000000000000c1b .LASF94
     /tmp/cc4PTFYO.s:6116   .debug_str:00000000000009ba .LASF34
     /tmp/cc4PTFYO.s:6312   .debug_str:0000000000001052 .LASF36
     /tmp/cc4PTFYO.s:6188   .debug_str:0000000000000c09 .LASF38
     /tmp/cc4PTFYO.s:6086   .debug_str:000000000000090a .LASF40
     /tmp/cc4PTFYO.s:6262   .debug_str:0000000000000ed8 .LASF35
     /tmp/cc4PTFYO.s:6264   .debug_str:0000000000000ee0 .LASF37
     /tmp/cc4PTFYO.s:6152   .debug_str:0000000000000b01 .LASF39
     /tmp/cc4PTFYO.s:6310   .debug_str:000000000000103e .LASF41
     /tmp/cc4PTFYO.s:5830   .debug_str:000000000000019a .LASF42
     /tmp/cc4PTFYO.s:6298   .debug_str:0000000000000fdc .LASF43
     /tmp/cc4PTFYO.s:6006   .debug_str:00000000000006a9 .LASF44
     /tmp/cc4PTFYO.s:6198   .debug_str:0000000000000c5a .LASF45
     /tmp/cc4PTFYO.s:6100   .debug_str:0000000000000971 .LASF46
     /tmp/cc4PTFYO.s:6016   .debug_str:00000000000006f8 .LASF47
     /tmp/cc4PTFYO.s:6268   .debug_str:0000000000000eff .LASF48
     /tmp/cc4PTFYO.s:6082   .debug_str:00000000000008dc .LASF49
     /tmp/cc4PTFYO.s:6060   .debug_str:000000000000085b .LASF50
     /tmp/cc4PTFYO.s:6030   .debug_str:0000000000000762 .LASF51
     /tmp/cc4PTFYO.s:5898   .debug_str:00000000000003b9 .LASF52
GAS LISTING /tmp/cc4PTFYO.s 			page 42


     /tmp/cc4PTFYO.s:6176   .debug_str:0000000000000bb4 .LASF53
     /tmp/cc4PTFYO.s:6226   .debug_str:0000000000000dd2 .LASF54
     /tmp/cc4PTFYO.s:5848   .debug_str:000000000000022e .LASF55
     /tmp/cc4PTFYO.s:6276   .debug_str:0000000000000f34 .LASF56
     /tmp/cc4PTFYO.s:6244   .debug_str:0000000000000e6a .LASF57
     /tmp/cc4PTFYO.s:5978   .debug_str:00000000000005fc .LASF58
     /tmp/cc4PTFYO.s:6242   .debug_str:0000000000000e54 .LASF59
     /tmp/cc4PTFYO.s:6222   .debug_str:0000000000000db6 .LASF60
     /tmp/cc4PTFYO.s:6224   .debug_str:0000000000000dbe .LASF61
     /tmp/cc4PTFYO.s:5866   .debug_str:00000000000002bf .LASF62
     /tmp/cc4PTFYO.s:6296   .debug_str:0000000000000fc3 .LASF63
     /tmp/cc4PTFYO.s:6108   .debug_str:0000000000000999 .LASF64
     /tmp/cc4PTFYO.s:6012   .debug_str:00000000000006d7 .LASF65
     /tmp/cc4PTFYO.s:5940   .debug_str:0000000000000501 .LASF66
     /tmp/cc4PTFYO.s:5886   .debug_str:0000000000000333 .LASF67
     /tmp/cc4PTFYO.s:6218   .debug_str:0000000000000da4 .LASF263
     /tmp/cc4PTFYO.s:6308   .debug_str:0000000000001034 .LASF68
     /tmp/cc4PTFYO.s:5910   .debug_str:0000000000000412 .LASF69
     /tmp/cc4PTFYO.s:6162   .debug_str:0000000000000b41 .LASF70
     /tmp/cc4PTFYO.s:6096   .debug_str:000000000000095d .LASF71
     /tmp/cc4PTFYO.s:5868   .debug_str:00000000000002cb .LASF72
     /tmp/cc4PTFYO.s:5840   .debug_str:00000000000001ec .LASF73
     /tmp/cc4PTFYO.s:5786   .debug_str:000000000000005a .LASF74
     /tmp/cc4PTFYO.s:6054   .debug_str:0000000000000826 .LASF75
     /tmp/cc4PTFYO.s:6138   .debug_str:0000000000000a9d .LASF76
     /tmp/cc4PTFYO.s:6214   .debug_str:0000000000000d7f .LASF77
     /tmp/cc4PTFYO.s:6124   .debug_str:00000000000009fd .LASF78
     /tmp/cc4PTFYO.s:6286   .debug_str:0000000000000f74 .LASF79
     /tmp/cc4PTFYO.s:5974   .debug_str:00000000000005e7 .LASF80
     /tmp/cc4PTFYO.s:6046   .debug_str:00000000000007fd .LASF81
     /tmp/cc4PTFYO.s:6258   .debug_str:0000000000000ec5 .LASF82
     /tmp/cc4PTFYO.s:5884   .debug_str:000000000000032d .LASF84
     /tmp/cc4PTFYO.s:5982   .debug_str:0000000000000619 .LASF85
     /tmp/cc4PTFYO.s:5842   .debug_str:00000000000001f5 .LASF86
     /tmp/cc4PTFYO.s:6098   .debug_str:0000000000000969 .LASF87
     /tmp/cc4PTFYO.s:5818   .debug_str:000000000000015e .LASF88
     /tmp/cc4PTFYO.s:6024   .debug_str:0000000000000740 .LASF89
     /tmp/cc4PTFYO.s:6190   .debug_str:0000000000000c13 .LASF161
     /tmp/cc4PTFYO.s:6270   .debug_str:0000000000000f08 .LASF90
     /tmp/cc4PTFYO.s:6210   .debug_str:0000000000000d59 .LASF91
     /tmp/cc4PTFYO.s:6206   .debug_str:0000000000000c8d .LASF145
     /tmp/cc4PTFYO.s:5826   .debug_str:0000000000000180 .LASF93
     /tmp/cc4PTFYO.s:5900   .debug_str:00000000000003c0 .LASF95
     /tmp/cc4PTFYO.s:5998   .debug_str:0000000000000671 .LASF96
     /tmp/cc4PTFYO.s:5806   .debug_str:00000000000000db .LASF97
     /tmp/cc4PTFYO.s:5876   .debug_str:0000000000000300 .LASF98
     /tmp/cc4PTFYO.s:5846   .debug_str:000000000000021b .LASF99
     /tmp/cc4PTFYO.s:6002   .debug_str:0000000000000697 .LASF102
     /tmp/cc4PTFYO.s:6248   .debug_str:0000000000000e8c .LASF104
     /tmp/cc4PTFYO.s:5792   .debug_str:0000000000000070 .LASF100
     /tmp/cc4PTFYO.s:6008   .debug_str:00000000000006b2 .LASF101
     /tmp/cc4PTFYO.s:5934   .debug_str:00000000000004d3 .LASF103
     /tmp/cc4PTFYO.s:6186   .debug_str:0000000000000bf3 .LASF105
     /tmp/cc4PTFYO.s:6028   .debug_str:000000000000075b .LASF106
     /tmp/cc4PTFYO.s:5858   .debug_str:000000000000027e .LASF107
     /tmp/cc4PTFYO.s:6142   .debug_str:0000000000000aaf .LASF108
     /tmp/cc4PTFYO.s:5784   .debug_str:000000000000004e .LASF109
GAS LISTING /tmp/cc4PTFYO.s 			page 43


     /tmp/cc4PTFYO.s:6300   .debug_str:0000000000000ff1 .LASF110
     /tmp/cc4PTFYO.s:5922   .debug_str:0000000000000476 .LASF111
     /tmp/cc4PTFYO.s:5780   .debug_str:0000000000000031 .LASF112
     /tmp/cc4PTFYO.s:6066   .debug_str:000000000000087f .LASF113
     /tmp/cc4PTFYO.s:6154   .debug_str:0000000000000b09 .LASF114
     /tmp/cc4PTFYO.s:6122   .debug_str:00000000000009ec .LASF115
     /tmp/cc4PTFYO.s:5810   .debug_str:0000000000000111 .LASF116
     /tmp/cc4PTFYO.s:6132   .debug_str:0000000000000a4a .LASF117
     /tmp/cc4PTFYO.s:5984   .debug_str:0000000000000622 .LASF118
     /tmp/cc4PTFYO.s:5882   .debug_str:000000000000031f .LASF119
     /tmp/cc4PTFYO.s:6112   .debug_str:00000000000009a9 .LASF120
     /tmp/cc4PTFYO.s:5874   .debug_str:00000000000002f8 .LASF121
     /tmp/cc4PTFYO.s:6068   .debug_str:000000000000088c .LASF122
     /tmp/cc4PTFYO.s:6158   .debug_str:0000000000000b1f .LASF123
     /tmp/cc4PTFYO.s:6230   .debug_str:0000000000000de9 .LASF124
     /tmp/cc4PTFYO.s:6044   .debug_str:00000000000007ef .LASF125
     /tmp/cc4PTFYO.s:6304   .debug_str:0000000000001006 .LASF184
     /tmp/cc4PTFYO.s:5864   .debug_str:00000000000002b1 .LASF156
     /tmp/cc4PTFYO.s:5816   .debug_str:0000000000000136 .LASF158
     /tmp/cc4PTFYO.s:6250   .debug_str:0000000000000ea5 .LASF198
     /tmp/cc4PTFYO.s:5796   .debug_str:0000000000000088 .LASF200
     /tmp/cc4PTFYO.s:6070   .debug_str:0000000000000891 .LASF126
     /tmp/cc4PTFYO.s:6216   .debug_str:0000000000000d8d .LASF127
     /tmp/cc4PTFYO.s:6282   .debug_str:0000000000000f53 .LASF128
     /tmp/cc4PTFYO.s:5878   .debug_str:0000000000000309 .LASF129
     /tmp/cc4PTFYO.s:5956   .debug_str:0000000000000564 .LASF130
     /tmp/cc4PTFYO.s:6184   .debug_str:0000000000000bec .LASF131
     /tmp/cc4PTFYO.s:6092   .debug_str:000000000000092f .LASF132
     /tmp/cc4PTFYO.s:6150   .debug_str:0000000000000af7 .LASF133
     /tmp/cc4PTFYO.s:5968   .debug_str:00000000000005b4 .LASF134
     /tmp/cc4PTFYO.s:6072   .debug_str:000000000000089d .LASF135
     /tmp/cc4PTFYO.s:5912   .debug_str:000000000000041b .LASF136
     /tmp/cc4PTFYO.s:6256   .debug_str:0000000000000ebd .LASF137
     /tmp/cc4PTFYO.s:5854   .debug_str:000000000000025a .LASF138
     /tmp/cc4PTFYO.s:6062   .debug_str:0000000000000862 .LASF139
     /tmp/cc4PTFYO.s:6026   .debug_str:0000000000000748 .LASF140
     /tmp/cc4PTFYO.s:5936   .debug_str:00000000000004de .LASF141
     /tmp/cc4PTFYO.s:5964   .debug_str:0000000000000599 .LASF142
     /tmp/cc4PTFYO.s:5918   .debug_str:000000000000044c .LASF143
     /tmp/cc4PTFYO.s:6178   .debug_str:0000000000000bc7 .LASF144
     /tmp/cc4PTFYO.s:6114   .debug_str:00000000000009b4 .LASF146
     /tmp/cc4PTFYO.s:6004   .debug_str:00000000000006a4 .LASF147
     /tmp/cc4PTFYO.s:6018   .debug_str:000000000000070d .LASF207
     /tmp/cc4PTFYO.s:5952   .debug_str:0000000000000551 .LASF148
     /tmp/cc4PTFYO.s:5976   .debug_str:00000000000005ec .LASF149
     /tmp/cc4PTFYO.s:6294   .debug_str:0000000000000fbb .LASF150
     /tmp/cc4PTFYO.s:6144   .debug_str:0000000000000ab4 .LASF151
     /tmp/cc4PTFYO.s:5944   .debug_str:000000000000051f .LASF152
     /tmp/cc4PTFYO.s:5790   .debug_str:000000000000006b .LASF153
     /tmp/cc4PTFYO.s:6090   .debug_str:0000000000000927 .LASF154
     /tmp/cc4PTFYO.s:5772   .debug_str:0000000000000000 .LASF155
     /tmp/cc4PTFYO.s:6302   .debug_str:0000000000000ffe .LASF157
     /tmp/cc4PTFYO.s:6056   .debug_str:000000000000082f .LASF159
     /tmp/cc4PTFYO.s:6080   .debug_str:00000000000008d1 .LASF264
     /tmp/cc4PTFYO.s:6058   .debug_str:0000000000000843 .LASF265
     /tmp/cc4PTFYO.s:6074   .debug_str:00000000000008a7 .LASF160
     /tmp/cc4PTFYO.s:5828   .debug_str:000000000000018e .LASF162
GAS LISTING /tmp/cc4PTFYO.s 			page 44


     /tmp/cc4PTFYO.s:5774   .debug_str:000000000000000b .LASF163
     /tmp/cc4PTFYO.s:5992   .debug_str:0000000000000647 .LASF164
     /tmp/cc4PTFYO.s:5804   .debug_str:00000000000000c2 .LASF165
     /tmp/cc4PTFYO.s:5938   .debug_str:00000000000004e6 .LASF166
     /tmp/cc4PTFYO.s:6266   .debug_str:0000000000000ef4 .LASF266
     /tmp/cc4PTFYO.s:6284   .debug_str:0000000000000f59 .LASF267
     /tmp/cc4PTFYO.s:6200   .debug_str:0000000000000c6f .LASF167
     /tmp/cc4PTFYO.s:5800   .debug_str:00000000000000aa .LASF168
     /tmp/cc4PTFYO.s:5960   .debug_str:000000000000057a .LASF169
     /tmp/cc4PTFYO.s:6134   .debug_str:0000000000000a56 .LASF170
     /tmp/cc4PTFYO.s:6246   .debug_str:0000000000000e82 .LASF171
     /tmp/cc4PTFYO.s:5892   .debug_str:0000000000000378 .LASF172
     /tmp/cc4PTFYO.s:6042   .debug_str:00000000000007c8 .LASF173
     /tmp/cc4PTFYO.s:6038   .debug_str:000000000000079d .LASF174
     /tmp/cc4PTFYO.s:6232   .debug_str:0000000000000df1 .LASF175
     /tmp/cc4PTFYO.s:5948   .debug_str:000000000000053d .LASF176
     /tmp/cc4PTFYO.s:6040   .debug_str:00000000000007a7 .LASF177
     /tmp/cc4PTFYO.s:5950   .debug_str:0000000000000546 .LASF178
     /tmp/cc4PTFYO.s:5972   .debug_str:00000000000005db .LASF179
     /tmp/cc4PTFYO.s:6110   .debug_str:00000000000009a4 .LASF180
     /tmp/cc4PTFYO.s:5914   .debug_str:0000000000000432 .LASF181
     /tmp/cc4PTFYO.s:5986   .debug_str:000000000000062e .LASF182
     /tmp/cc4PTFYO.s:6000   .debug_str:0000000000000677 .LASF183
     /tmp/cc4PTFYO.s:6292   .debug_str:0000000000000fa7 .LASF268
     /tmp/cc4PTFYO.s:5946   .debug_str:0000000000000525 .LASF185
     /tmp/cc4PTFYO.s:5990   .debug_str:0000000000000642 .LASF186
     /tmp/cc4PTFYO.s:5888   .debug_str:000000000000034b .LASF187
     /tmp/cc4PTFYO.s:5850   .debug_str:0000000000000246 .LASF188
     /tmp/cc4PTFYO.s:6146   .debug_str:0000000000000ac6 .LASF189
     /tmp/cc4PTFYO.s:6120   .debug_str:00000000000009e1 .LASF190
     /tmp/cc4PTFYO.s:5808   .debug_str:00000000000000f0 .LASF191
     /tmp/cc4PTFYO.s:5814   .debug_str:0000000000000124 .LASF192
     /tmp/cc4PTFYO.s:5942   .debug_str:000000000000050c .LASF193
     /tmp/cc4PTFYO.s:5832   .debug_str:00000000000001a3 .LASF194
     /tmp/cc4PTFYO.s:6228   .debug_str:0000000000000ddd .LASF195
     /tmp/cc4PTFYO.s:5924   .debug_str:0000000000000482 .LASF196
     /tmp/cc4PTFYO.s:6288   .debug_str:0000000000000f7f .LASF197
     /tmp/cc4PTFYO.s:6234   .debug_str:0000000000000e12 .LASF199
     /tmp/cc4PTFYO.s:6064   .debug_str:0000000000000867 .LASF201
     /tmp/cc4PTFYO.s:6156   .debug_str:0000000000000b12 .LASF202
     /tmp/cc4PTFYO.s:6050   .debug_str:0000000000000807 .LASF203
     /tmp/cc4PTFYO.s:6260   .debug_str:0000000000000ece .LASF204
     /tmp/cc4PTFYO.s:6048   .debug_str:0000000000000802 .LASF205
     /tmp/cc4PTFYO.s:6166   .debug_str:0000000000000b65 .LASF206
     /tmp/cc4PTFYO.s:5890   .debug_str:0000000000000360 .LASF208
     /tmp/cc4PTFYO.s:5962   .debug_str:0000000000000584 .LASF225
     /tmp/cc4PTFYO.s:6290   .debug_str:0000000000000f91 .LASF209
     /tmp/cc4PTFYO.s:6272   .debug_str:0000000000000f10 .LASF210
     /tmp/cc4PTFYO.s:5862   .debug_str:00000000000002ac .LASF212
     /tmp/cc4PTFYO.s:5988   .debug_str:000000000000063d .LASF211
     /tmp/cc4PTFYO.s:5778   .debug_str:0000000000000016 .LASF213
     /tmp/cc4PTFYO.s:6204   .debug_str:0000000000000c88 .LASF214
     /tmp/cc4PTFYO.s:5932   .debug_str:00000000000004ce .LASF215
     /tmp/cc4PTFYO.s:5776   .debug_str:0000000000000010 .LASF216
     /tmp/cc4PTFYO.s:5822   .debug_str:0000000000000171 .LASF217
     /tmp/cc4PTFYO.s:6094   .debug_str:0000000000000942 .LASF218
     /tmp/cc4PTFYO.s:6202   .debug_str:0000000000000c7d .LASF219
GAS LISTING /tmp/cc4PTFYO.s 			page 45


     /tmp/cc4PTFYO.s:5852   .debug_str:000000000000024c .LASF220
     /tmp/cc4PTFYO.s:6052   .debug_str:000000000000080f .LASF221
     /tmp/cc4PTFYO.s:5904   .debug_str:00000000000003f7 .LASF222
     /tmp/cc4PTFYO.s:6172   .debug_str:0000000000000b98 .LASF223
     /tmp/cc4PTFYO.s:6084   .debug_str:00000000000008f1 .LASF224
     /tmp/cc4PTFYO.s:6168   .debug_str:0000000000000b78 .LASF226
     /tmp/cc4PTFYO.s:6022   .debug_str:0000000000000724 .LASF227
     /tmp/cc4PTFYO.s:6174   .debug_str:0000000000000baf .LASF228
     /tmp/cc4PTFYO.s:6148   .debug_str:0000000000000adc .LASF229
     /tmp/cc4PTFYO.s:6238   .debug_str:0000000000000e30 .LASF230
     /tmp/cc4PTFYO.s:5930   .debug_str:00000000000004b6 .LASF231
     /tmp/cc4PTFYO.s:5798   .debug_str:000000000000009a .LASF232
     /tmp/cc4PTFYO.s:6032   .debug_str:0000000000000775 .LASF233
     /tmp/cc4PTFYO.s:5906   .debug_str:0000000000000406 .LASF234
     /tmp/cc4PTFYO.s:6194   .debug_str:0000000000000c35 .LASF235
     /tmp/cc4PTFYO.s:5802   .debug_str:00000000000000b8 .LASF236
     /tmp/cc4PTFYO.s:6034   .debug_str:0000000000000784 .LASF237
     /tmp/cc4PTFYO.s:6212   .debug_str:0000000000000d5e .LASF238
     /tmp/cc4PTFYO.s:5996   .debug_str:000000000000065f .LASF239
     /tmp/cc4PTFYO.s:6136   .debug_str:0000000000000a88 .LASF240
     /tmp/cc4PTFYO.s:6220   .debug_str:0000000000000daa .LASF241
     /tmp/cc4PTFYO.s:5794   .debug_str:000000000000007b .LASF242
     /tmp/cc4PTFYO.s:6010   .debug_str:00000000000006c8 .LASF243
     /tmp/cc4PTFYO.s:6196   .debug_str:0000000000000c3a .LASF244
     /tmp/cc4PTFYO.s:6252   .debug_str:0000000000000ead .LASF245
     /tmp/cc4PTFYO.s:5896   .debug_str:000000000000039d .LASF246
     /tmp/cc4PTFYO.s:6180   .debug_str:0000000000000bd4 .LASF247
     /tmp/cc4PTFYO.s:5860   .debug_str:000000000000028f .LASF248
     /tmp/cc4PTFYO.s:6106   .debug_str:000000000000098d .LASF249
     /tmp/cc4PTFYO.s:5844   .debug_str:00000000000001fe .LASF250
     /tmp/cc4PTFYO.s:6306   .debug_str:0000000000001029 .LASF251
     /tmp/cc4PTFYO.s:6160   .debug_str:0000000000000b25 .LASF252
     /tmp/cc4PTFYO.s:97     .text._ZN4ListI3TCBE6removeEPS0_:0000000000000000 .LFB39
     /tmp/cc4PTFYO.s:186    .text._ZN4ListI3TCBE6removeEPS0_:0000000000000088 .LFE39
     /tmp/cc4PTFYO.s:5908   .debug_str:000000000000040d .LASF269
     /tmp/cc4PTFYO.s:5037   .debug_loc:0000000000000000 .LLST1
     /tmp/cc4PTFYO.s:5059   .debug_loc:000000000000005f .LLST2
     /tmp/cc4PTFYO.s:5077   .debug_loc:00000000000000ab .LLST3
     /tmp/cc4PTFYO.s:5958   .debug_str:0000000000000575 .LASF253
     /tmp/cc4PTFYO.s:5101   .debug_loc:000000000000011b .LLST4
     /tmp/cc4PTFYO.s:153    .text._ZN4ListI3TCBE6removeEPS0_:0000000000000058 .LVL9
     /tmp/cc4PTFYO.s:197    .text:000000000000005c .LFB35
     /tmp/cc4PTFYO.s:1047   .text:00000000000003f0 .LFE35
     /tmp/cc4PTFYO.s:5121   .debug_loc:0000000000000178 .LLST5
     /tmp/cc4PTFYO.s:5192   .debug_loc:00000000000002cb .LLST6
     /tmp/cc4PTFYO.s:5267   .debug_loc:0000000000000431 .LLST7
     /tmp/cc4PTFYO.s:5338   .debug_loc:0000000000000584 .LLST8
     /tmp/cc4PTFYO.s:5409   .debug_loc:00000000000006d7 .LLST9
     /tmp/cc4PTFYO.s:6170   .debug_str:0000000000000b91 .LASF254
     /tmp/cc4PTFYO.s:5480   .debug_loc:000000000000082a .LLST10
     /tmp/cc4PTFYO.s:447    .text:0000000000000120 .LBB98
     /tmp/cc4PTFYO.s:496    .text:0000000000000164 .LBE98
     /tmp/cc4PTFYO.s:5507   .debug_loc:000000000000089d .LLST23
     /tmp/cc4PTFYO.s:460    .text:0000000000000130 .LBB99
     /tmp/cc4PTFYO.s:485    .text:0000000000000154 .LBE99
     /tmp/cc4PTFYO.s:5522   .debug_loc:00000000000008e6 .LLST24
     /tmp/cc4PTFYO.s:473    .text:0000000000000148 .LVL24
GAS LISTING /tmp/cc4PTFYO.s 			page 46


     /tmp/cc4PTFYO.s:499    .text:0000000000000164 .LBB100
     /tmp/cc4PTFYO.s:600    .text:00000000000001f0 .LBE100
     /tmp/cc4PTFYO.s:5529   .debug_loc:0000000000000909 .LLST25
     /tmp/cc4PTFYO.s:5536   .debug_loc:000000000000092c .LLST26
     /tmp/cc4PTFYO.s:5551   .debug_loc:0000000000000975 .LLST27
     /tmp/cc4PTFYO.s:5562   .debug_loc:00000000000009ab .LLST28
     /tmp/cc4PTFYO.s:550    .text:00000000000001b0 .LVL35
     /tmp/cc4PTFYO.s:570    .text:00000000000001d8 .LVL36
     /tmp/cc4PTFYO.s:624    .text:0000000000000218 .LBB110
     /tmp/cc4PTFYO.s:698    .text:0000000000000250 .LBE110
     /tmp/cc4PTFYO.s:5573   .debug_loc:00000000000009e1 .LLST30
     /tmp/cc4PTFYO.s:5580   .debug_loc:0000000000000a04 .LLST31
     /tmp/cc4PTFYO.s:626    .text:0000000000000218 .LBB111
     /tmp/cc4PTFYO.s:642    .text:0000000000000224 .LBE111
     /tmp/cc4PTFYO.s:644    .text:0000000000000224 .LBB113
     /tmp/cc4PTFYO.s:660    .text:0000000000000230 .LBE113
     /tmp/cc4PTFYO.s:670    .text:0000000000000244 .LBB115
     /tmp/cc4PTFYO.s:681    .text:0000000000000248 .LBE115
     /tmp/cc4PTFYO.s:5587   .debug_loc:0000000000000a27 .LLST32
     /tmp/cc4PTFYO.s:683    .text:0000000000000248 .LBB117
     /tmp/cc4PTFYO.s:697    .text:0000000000000250 .LBE117
     /tmp/cc4PTFYO.s:5594   .debug_loc:0000000000000a4a .LLST33
     /tmp/cc4PTFYO.s:668    .text:0000000000000244 .LVL46
     /tmp/cc4PTFYO.s:702    .text:0000000000000250 .LBB74
     /tmp/cc4PTFYO.s:838    .text:00000000000002ec .LBE74
     /tmp/cc4PTFYO.s:5601   .debug_loc:0000000000000a6d .LLST15
     /tmp/cc4PTFYO.s:5608   .debug_loc:0000000000000a90 .LLST16
     /tmp/cc4PTFYO.s:5615   .debug_loc:0000000000000ab3 .LLST17
     /tmp/cc4PTFYO.s:813    .text:00000000000002c0 .LBB81
     /tmp/cc4PTFYO.s:824    .text:00000000000002d8 .LBE81
     /tmp/cc4PTFYO.s:5622   .debug_loc:0000000000000ad6 .LLST18
     /tmp/cc4PTFYO.s:823    .text:00000000000002d8 .LVL59
     /tmp/cc4PTFYO.s:704    .text:0000000000000250 .LBB75
     /tmp/cc4PTFYO.s:720    .text:000000000000025c .LBE75
     /tmp/cc4PTFYO.s:722    .text:000000000000025c .LBB77
     /tmp/cc4PTFYO.s:738    .text:0000000000000268 .LBE77
     /tmp/cc4PTFYO.s:753    .text:000000000000027c .LBB82
     /tmp/cc4PTFYO.s:764    .text:0000000000000280 .LBE82
     /tmp/cc4PTFYO.s:5630   .debug_loc:0000000000000afa .LLST19
     /tmp/cc4PTFYO.s:766    .text:0000000000000280 .LBB84
     /tmp/cc4PTFYO.s:777    .text:0000000000000284 .LBE84
     /tmp/cc4PTFYO.s:5637   .debug_loc:0000000000000b1d .LLST20
     /tmp/cc4PTFYO.s:779    .text:0000000000000284 .LBB86
     /tmp/cc4PTFYO.s:794    .text:0000000000000290 .LBE86
     /tmp/cc4PTFYO.s:5644   .debug_loc:0000000000000b40 .LLST21
     /tmp/cc4PTFYO.s:742    .text:0000000000000270 .LVL51
     /tmp/cc4PTFYO.s:810    .text:00000000000002bc .LVL57
     /tmp/cc4PTFYO.s:832    .text:00000000000002e8 .LVL60
     /tmp/cc4PTFYO.s:5653   .debug_loc:0000000000000b66 .LLST11
     /tmp/cc4PTFYO.s:5668   .debug_loc:0000000000000baf .LLST12
     /tmp/cc4PTFYO.s:295    .text:00000000000000c8 .LBB64
     /tmp/cc4PTFYO.s:310    .text:00000000000000d4 .LBE64
     /tmp/cc4PTFYO.s:315    .text:00000000000000d8 .LBB66
     /tmp/cc4PTFYO.s:331    .text:00000000000000e4 .LBE66
     /tmp/cc4PTFYO.s:849    .text:00000000000002f4 .LBB68
     /tmp/cc4PTFYO.s:860    .text:00000000000002f8 .LBE68
     /tmp/cc4PTFYO.s:5683   .debug_loc:0000000000000bf8 .LLST13
GAS LISTING /tmp/cc4PTFYO.s 			page 47


     /tmp/cc4PTFYO.s:862    .text:00000000000002f8 .LBB70
     /tmp/cc4PTFYO.s:874    .text:00000000000002fc .LBE70
     /tmp/cc4PTFYO.s:5690   .debug_loc:0000000000000c1b .LLST14
     /tmp/cc4PTFYO.s:845    .text:00000000000002f4 .LVL62
     /tmp/cc4PTFYO.s:908    .text:0000000000000324 .LVL66
     /tmp/cc4PTFYO.s:917    .text:0000000000000330 .LVL68
     /tmp/cc4PTFYO.s:926    .text:000000000000033c .LVL70
     /tmp/cc4PTFYO.s:939    .text:0000000000000354 .LVL72
     /tmp/cc4PTFYO.s:950    .text:0000000000000364 .LVL75
     /tmp/cc4PTFYO.s:959    .text:0000000000000370 .LVL77
     /tmp/cc4PTFYO.s:968    .text:000000000000037c .LVL79
     /tmp/cc4PTFYO.s:977    .text:0000000000000388 .LVL81
     /tmp/cc4PTFYO.s:986    .text:0000000000000394 .LVL83
     /tmp/cc4PTFYO.s:995    .text:00000000000003a0 .LVL85
     /tmp/cc4PTFYO.s:1009   .text:00000000000003bc .LVL89
     /tmp/cc4PTFYO.s:1018   .text:00000000000003c8 .LVL91
     /tmp/cc4PTFYO.s:1029   .text:00000000000003d8 .LVL94
     /tmp/cc4PTFYO.s:250    .text:0000000000000090 .LBB58
     /tmp/cc4PTFYO.s:266    .text:000000000000009c .LBE58
     /tmp/cc4PTFYO.s:421    .text:0000000000000108 .LBB93
     /tmp/cc4PTFYO.s:433    .text:0000000000000110 .LBE93
     /tmp/cc4PTFYO.s:5697   .debug_loc:0000000000000c3e .LLST22
     /tmp/cc4PTFYO.s:436    .text:0000000000000110 .LBB96
     /tmp/cc4PTFYO.s:444    .text:000000000000011c .LBE96
     /tmp/cc4PTFYO.s:613    .text:0000000000000210 .LBB108
     /tmp/cc4PTFYO.s:621    .text:0000000000000214 .LBE108
     /tmp/cc4PTFYO.s:5705   .debug_loc:0000000000000c62 .LLST29
     /tmp/cc4PTFYO.s:1040   .text:00000000000003ec .LVL97
     /tmp/cc4PTFYO.s:71     .text:0000000000000044 .LFB34
     /tmp/cc4PTFYO.s:90     .text:000000000000005c .LFE34
     /tmp/cc4PTFYO.s:10     .text:0000000000000000 .LFB33
     /tmp/cc4PTFYO.s:65     .text:0000000000000044 .LFE33
     /tmp/cc4PTFYO.s:30     .text:0000000000000028 .LBB56
     /tmp/cc4PTFYO.s:44     .text:0000000000000030 .LBE56
     /tmp/cc4PTFYO.s:5712   .debug_loc:0000000000000c85 .LLST0
     /tmp/cc4PTFYO.s:6254   .debug_str:0000000000000eb8 .LASF255
     /tmp/cc4PTFYO.s:6076   .debug_str:00000000000008b7 .LASF270
     /tmp/cc4PTFYO.s:6020   .debug_str:0000000000000719 .LASF256
     /tmp/cc4PTFYO.s:6274   .debug_str:0000000000000f26 .LASF257
     /tmp/cc4PTFYO.s:6130   .debug_str:0000000000000a35 .LASF258
     /tmp/cc4PTFYO.s:6102   .debug_str:000000000000097a .LASF259
     /tmp/cc4PTFYO.s:101    .text._ZN4ListI3TCBE6removeEPS0_:0000000000000000 .LVL3
     /tmp/cc4PTFYO.s:106    .text._ZN4ListI3TCBE6removeEPS0_:0000000000000008 .LVL5
     /tmp/cc4PTFYO.s:164    .text._ZN4ListI3TCBE6removeEPS0_:0000000000000068 .LVL10
     /tmp/cc4PTFYO.s:103    .text._ZN4ListI3TCBE6removeEPS0_:0000000000000004 .LVL4
     /tmp/cc4PTFYO.s:109    .text._ZN4ListI3TCBE6removeEPS0_:000000000000000c .LVL6
     /tmp/cc4PTFYO.s:117    .text._ZN4ListI3TCBE6removeEPS0_:0000000000000018 .LVL7
     /tmp/cc4PTFYO.s:122    .text._ZN4ListI3TCBE6removeEPS0_:0000000000000020 .LVL8
     /tmp/cc4PTFYO.s:223    .text:0000000000000080 .LVL11
     /tmp/cc4PTFYO.s:455    .text:000000000000012c .LVL23
     /tmp/cc4PTFYO.s:694    .text:0000000000000250 .LVL48
     /tmp/cc4PTFYO.s:835    .text:00000000000002ec .LVL61
     /tmp/cc4PTFYO.s:897    .text:000000000000031c .LVL65
     /tmp/cc4PTFYO.s:911    .text:0000000000000328 .LVL67
     /tmp/cc4PTFYO.s:920    .text:0000000000000334 .LVL69
     /tmp/cc4PTFYO.s:929    .text:0000000000000340 .LVL71
     /tmp/cc4PTFYO.s:942    .text:0000000000000358 .LVL73
GAS LISTING /tmp/cc4PTFYO.s 			page 48


     /tmp/cc4PTFYO.s:953    .text:0000000000000368 .LVL76
     /tmp/cc4PTFYO.s:962    .text:0000000000000374 .LVL78
     /tmp/cc4PTFYO.s:971    .text:0000000000000380 .LVL80
     /tmp/cc4PTFYO.s:980    .text:000000000000038c .LVL82
     /tmp/cc4PTFYO.s:989    .text:0000000000000398 .LVL84
     /tmp/cc4PTFYO.s:998    .text:00000000000003a4 .LVL86
     /tmp/cc4PTFYO.s:1012   .text:00000000000003c0 .LVL90
     /tmp/cc4PTFYO.s:1021   .text:00000000000003cc .LVL92
     /tmp/cc4PTFYO.s:1032   .text:00000000000003dc .LVL95
     /tmp/cc4PTFYO.s:229    .text:0000000000000084 .LVL12
     /tmp/cc4PTFYO.s:1007   .text:00000000000003b4 .LVL88
     /tmp/cc4PTFYO.s:1027   .text:00000000000003d0 .LVL93
     /tmp/cc4PTFYO.s:1038   .text:00000000000003e4 .LVL96
     /tmp/cc4PTFYO.s:235    .text:0000000000000088 .LVL13
     /tmp/cc4PTFYO.s:948    .text:000000000000035c .LVL74
     /tmp/cc4PTFYO.s:1004   .text:00000000000003a8 .LVL87
     /tmp/cc4PTFYO.s:241    .text:000000000000008c .LVL14
     /tmp/cc4PTFYO.s:247    .text:0000000000000090 .LVL15
     /tmp/cc4PTFYO.s:264    .text:000000000000009c .LVL16
     /tmp/cc4PTFYO.s:289    .text:00000000000000c0 .LVL17
     /tmp/cc4PTFYO.s:337    .text:00000000000000f8 .LVL20
     /tmp/cc4PTFYO.s:414    .text:0000000000000108 .LVL21
     /tmp/cc4PTFYO.s:482    .text:0000000000000150 .LVL26
     /tmp/cc4PTFYO.s:488    .text:0000000000000158 .LVL27
     /tmp/cc4PTFYO.s:494    .text:0000000000000164 .LVL28
     /tmp/cc4PTFYO.s:477    .text:000000000000014c .LVL25
     /tmp/cc4PTFYO.s:503    .text:0000000000000170 .LVL29
     /tmp/cc4PTFYO.s:505    .text:0000000000000174 .LVL30
     /tmp/cc4PTFYO.s:533    .text:0000000000000190 .LVL33
     /tmp/cc4PTFYO.s:573    .text:00000000000001dc .LVL37
     /tmp/cc4PTFYO.s:581    .text:00000000000001e0 .LVL38
     /tmp/cc4PTFYO.s:589    .text:00000000000001e8 .LVL39
     /tmp/cc4PTFYO.s:596    .text:00000000000001f0 .LVL41
     /tmp/cc4PTFYO.s:594    .text:00000000000001ec .LVL40
     /tmp/cc4PTFYO.s:513    .text:0000000000000178 .LVL31
     /tmp/cc4PTFYO.s:524    .text:0000000000000184 .LVL32
     /tmp/cc4PTFYO.s:640    .text:0000000000000224 .LVL44
     /tmp/cc4PTFYO.s:658    .text:0000000000000230 .LVL45
     /tmp/cc4PTFYO.s:678    .text:0000000000000248 .LVL47
     /tmp/cc4PTFYO.s:718    .text:000000000000025c .LVL49
     /tmp/cc4PTFYO.s:736    .text:0000000000000268 .LVL50
     /tmp/cc4PTFYO.s:744    .text:0000000000000274 .LVL52
     /tmp/cc4PTFYO.s:749    .text:000000000000027c .LVL53
     /tmp/cc4PTFYO.s:818    .text:00000000000002cc .LVL58
     /tmp/cc4PTFYO.s:761    .text:0000000000000280 .LVL54
     /tmp/cc4PTFYO.s:774    .text:0000000000000284 .LVL55
     /tmp/cc4PTFYO.s:791    .text:0000000000000290 .LVL56
     /tmp/cc4PTFYO.s:313    .text:00000000000000d8 .LVL18
     /tmp/cc4PTFYO.s:870    .text:00000000000002fc .LVL64
     /tmp/cc4PTFYO.s:329    .text:00000000000000e4 .LVL19
     /tmp/cc4PTFYO.s:857    .text:00000000000002f8 .LVL63
     /tmp/cc4PTFYO.s:430    .text:0000000000000110 .LVL22
     /tmp/cc4PTFYO.s:612    .text:0000000000000210 .LVL42
     /tmp/cc4PTFYO.s:619    .text:0000000000000214 .LVL43
     /tmp/cc4PTFYO.s:29     .text:0000000000000028 .LVL0
     /tmp/cc4PTFYO.s:40     .text:0000000000000030 .LVL1
     /tmp/cc4PTFYO.s:1058   .debug_info:0000000000000000 .Ldebug_info0
GAS LISTING /tmp/cc4PTFYO.s 			page 49


     /tmp/cc4PTFYO.s:5      .text:0000000000000000 .Ltext0
     /tmp/cc4PTFYO.s:1049   .text:00000000000003f0 .Letext0
     /tmp/cc4PTFYO.s:293    .text:00000000000000c8 .LBB63
     /tmp/cc4PTFYO.s:416    .text:0000000000000108 .LBE63
     /tmp/cc4PTFYO.s:840    .text:00000000000002ec .LBB72
     /tmp/cc4PTFYO.s:875    .text:00000000000002fc .LBE72
     /tmp/cc4PTFYO.s:903    .text:000000000000031c .LBB73
     /tmp/cc4PTFYO.s:1034   .text:00000000000003dc .LBE73
     /tmp/cc4PTFYO.s:507    .text:0000000000000174 .LBB101
     /tmp/cc4PTFYO.s:577    .text:00000000000001dc .LBE101
     /tmp/cc4PTFYO.s:585    .text:00000000000001e4 .LBB106
     /tmp/cc4PTFYO.s:599    .text:00000000000001f0 .LBE106
     /tmp/cc4PTFYO.s:508    .text:0000000000000174 .LBB102
     /tmp/cc4PTFYO.s:576    .text:00000000000001dc .LBE102
     /tmp/cc4PTFYO.s:591    .text:00000000000001e8 .LBB105
     /tmp/cc4PTFYO.s:598    .text:00000000000001f0 .LBE105
     /tmp/cc4PTFYO.s:509    .text:0000000000000174 .LBB103
     /tmp/cc4PTFYO.s:515    .text:0000000000000178 .LBE103
     /tmp/cc4PTFYO.s:520    .text:0000000000000180 .LBB104
     /tmp/cc4PTFYO.s:575    .text:00000000000001dc .LBE104

UNDEFINED SYMBOLS
_ZN3TCB7runningE
_Z14handleNewCharsPv
_ZdlPv
_ZN9Scheduler12first_sleepyE
_ZN9Scheduler3putEP3TCB
_ZN3Sem5firstE
_ZN3TCB16time_slice_countE
_ZN3TCB8dispatchEv
plic_claim
CONSOLE_STATUS
_ZN9myConsole11inputBufferE
_ZNK13BoundedBuffer4fullEv
CONSOLE_RX_DATA
_ZN9myConsole10input_putcEc
plic_complete
_ZN15MemoryAllocator9mem_allocEm
_ZN15MemoryAllocator8mem_freeEPv
_ZN3TCB13_threadCreateEPPS_PFvPvES2_S2_
_ZN3TCB11_threadExitEv
_ZN3Sem4openEPPS_j
_ZN3Sem7s_closeEPS_
_ZN3Sem4waitEPS_
_ZN3Sem6signalEPS_
_ZN3Sem9timedwaitEPS_m
_ZN3Sem7trywaitEPS_
_ZN9Scheduler10time_sleepEP3TCBm
_ZN9myConsole10input_getcEv
_ZN9myConsole11output_putcEc
_Z13myPrintStringPKc
