GAS LISTING /tmp/ccGDMg6O.s 			page 1


   1              		.file	"Scheduler.cpp"
   2              		.option pic
   3              		.option norelax
   4              		.text
   5              	.Ltext0:
   6              		.align	2
   7              		.globl	_ZN9Scheduler3getEv
   9              	_ZN9Scheduler3getEv:
  10              	.LFB25:
  11              		.file 1 "src/Scheduler.cpp"
   1:src/Scheduler.cpp **** 
   2:src/Scheduler.cpp **** #include "../h/Scheduler.hpp"
   3:src/Scheduler.cpp **** 
   4:src/Scheduler.cpp **** Scheduler::Elem* Scheduler::head = nullptr;
   5:src/Scheduler.cpp **** Scheduler::Elem* Scheduler::tail = nullptr;
   6:src/Scheduler.cpp **** 
   7:src/Scheduler.cpp **** TCB *Scheduler::get() {
  12              		.loc 1 7 23
  13              		.cfi_startproc
  14 0000 130101FE 		addi	sp,sp,-32
  15              		.cfi_def_cfa_offset 32
  16 0004 233C1100 		sd	ra,24(sp)
  17 0008 23388100 		sd	s0,16(sp)
  18 000c 23349100 		sd	s1,8(sp)
  19              		.cfi_offset 1, -8
  20              		.cfi_offset 8, -16
  21              		.cfi_offset 9, -24
  22 0010 13040102 		addi	s0,sp,32
  23              		.cfi_def_cfa 8, 0
   8:src/Scheduler.cpp ****     if (!head) return nullptr;
  24              		.loc 1 8 5
  25              		.loc 1 8 9 is_stmt 0
  26 0014 17050000 		ld	a0,.LANCHOR0
  26      03350500 
  27              		.loc 1 8 5
  28 001c 63020504 		beqz	a0,.L4
   9:src/Scheduler.cpp ****     Elem* removed = head;
  29              		.loc 1 9 5 is_stmt 1
  30              	.LVL0:
  10:src/Scheduler.cpp ****     head = head -> next;
  31              		.loc 1 10 5
  32              		.loc 1 10 20 is_stmt 0
  33 0020 83378500 		ld	a5,8(a0)
  34              		.loc 1 10 10
  35 0024 17070000 		sd	a5,.LANCHOR0,a4
  35      2330F700 
  11:src/Scheduler.cpp ****     if (!head) tail = nullptr;
  36              		.loc 1 11 5 is_stmt 1
  37 002c 63840702 		beqz	a5,.L6
  38              	.L3:
  12:src/Scheduler.cpp ****     TCB *ret = removed -> data;
  39              		.loc 1 12 5
  40              		.loc 1 12 10 is_stmt 0
  41 0030 83340500 		ld	s1,0(a0)
  42              	.LVL1:
  13:src/Scheduler.cpp ****     delete removed;
  43              		.loc 1 13 5 is_stmt 1
GAS LISTING /tmp/ccGDMg6O.s 			page 2


  44              		.loc 1 13 12 is_stmt 0
  45 0034 97000000 		call	_ZdlPv@plt
  45      E7800000 
  46              	.LVL2:
  14:src/Scheduler.cpp ****     return ret;
  47              		.loc 1 14 5 is_stmt 1
  48              	.L1:
  15:src/Scheduler.cpp **** }
  49              		.loc 1 15 1 is_stmt 0
  50 003c 13850400 		mv	a0,s1
  51 0040 83308101 		ld	ra,24(sp)
  52              		.cfi_remember_state
  53              		.cfi_restore 1
  54 0044 03340101 		ld	s0,16(sp)
  55              		.cfi_restore 8
  56              		.cfi_def_cfa 2, 32
  57 0048 83348100 		ld	s1,8(sp)
  58              		.cfi_restore 9
  59 004c 13010102 		addi	sp,sp,32
  60              		.cfi_def_cfa_offset 0
  61 0050 67800000 		jr	ra
  62              	.LVL3:
  63              	.L6:
  64              		.cfi_restore_state
  11:src/Scheduler.cpp ****     TCB *ret = removed -> data;
  65              		.loc 1 11 16 is_stmt 1 discriminator 1
  11:src/Scheduler.cpp ****     TCB *ret = removed -> data;
  66              		.loc 1 11 21 is_stmt 0 discriminator 1
  67 0054 97070000 		sd	zero,.LANCHOR0+8,a5
  67      23B00700 
  68 005c 6FF05FFD 		j	.L3
  69              	.LVL4:
  70              	.L4:
   8:src/Scheduler.cpp ****     Elem* removed = head;
  71              		.loc 1 8 23
  72 0060 93040500 		mv	s1,a0
  73 0064 6FF09FFD 		j	.L1
  74              		.cfi_endproc
  75              	.LFE25:
  77              		.align	2
  78              		.globl	_ZN9Scheduler3putEP3TCB
  80              	_ZN9Scheduler3putEP3TCB:
  81              	.LFB26:
  16:src/Scheduler.cpp **** 
  17:src/Scheduler.cpp **** void Scheduler::put(TCB *newTCB) {
  82              		.loc 1 17 34 is_stmt 1
  83              		.cfi_startproc
  84              	.LVL5:
  85 0068 130101FE 		addi	sp,sp,-32
  86              		.cfi_def_cfa_offset 32
  87 006c 233C1100 		sd	ra,24(sp)
  88 0070 23388100 		sd	s0,16(sp)
  89 0074 23349100 		sd	s1,8(sp)
  90              		.cfi_offset 1, -8
  91              		.cfi_offset 8, -16
  92              		.cfi_offset 9, -24
  93 0078 13040102 		addi	s0,sp,32
GAS LISTING /tmp/ccGDMg6O.s 			page 3


  94              		.cfi_def_cfa 8, 0
  95 007c 93040500 		mv	s1,a0
  18:src/Scheduler.cpp **** 
  19:src/Scheduler.cpp ****     Elem* newElem = new Elem(newTCB, nullptr);
  96              		.loc 1 19 5
  97              		.loc 1 19 45 is_stmt 0
  98 0080 13050001 		li	a0,16
  99              	.LVL6:
 100 0084 97000000 		call	_Znwm@plt
 100      E7800000 
 101              	.LVL7:
 102              	.LBB5:
 103              	.LBB6:
 104              		.file 2 "src/../h/Scheduler.hpp"
   1:src/../h/Scheduler.hpp **** 
   2:src/../h/Scheduler.hpp **** #ifndef PROJECT_BASE_SCHEDULER_HPP
   3:src/../h/Scheduler.hpp **** #define PROJECT_BASE_SCHEDULER_HPP
   4:src/../h/Scheduler.hpp **** 
   5:src/../h/Scheduler.hpp **** #include "thread.hpp"
   6:src/../h/Scheduler.hpp **** 
   7:src/../h/Scheduler.hpp **** class Scheduler {
   8:src/../h/Scheduler.hpp **** 
   9:src/../h/Scheduler.hpp **** public:
  10:src/../h/Scheduler.hpp ****     static void init_scheduler() {};
  11:src/../h/Scheduler.hpp **** 
  12:src/../h/Scheduler.hpp ****     static TCB* get();
  13:src/../h/Scheduler.hpp ****     static void put(TCB*);
  14:src/../h/Scheduler.hpp ****     static TCB* peek();
  15:src/../h/Scheduler.hpp ****     static bool empty();
  16:src/../h/Scheduler.hpp **** 
  17:src/../h/Scheduler.hpp ****     static void put_to_sleep(TCB*, time_t );
  18:src/../h/Scheduler.hpp **** 
  19:src/../h/Scheduler.hpp ****     void* operator new(size_t);
  20:src/../h/Scheduler.hpp ****     void operator delete(void *);
  21:src/../h/Scheduler.hpp **** 
  22:src/../h/Scheduler.hpp ****     Scheduler(const Scheduler&) = delete;
  23:src/../h/Scheduler.hpp **** 
  24:src/../h/Scheduler.hpp **** private:
  25:src/../h/Scheduler.hpp **** 
  26:src/../h/Scheduler.hpp ****     Scheduler() = default;
  27:src/../h/Scheduler.hpp **** 
  28:src/../h/Scheduler.hpp ****     struct Elem {
  29:src/../h/Scheduler.hpp ****         friend class Scheduler;
  30:src/../h/Scheduler.hpp ****         TCB* data;
  31:src/../h/Scheduler.hpp ****         Elem* next;
  32:src/../h/Scheduler.hpp ****         Elem(TCB *data, Elem* next) : data(data), next(next) {}
 105              		.loc 2 32 60
 106 008c 23309500 		sd	s1,0(a0)
 107 0090 23340500 		sd	zero,8(a0)
 108              	.LVL8:
 109              	.LBE6:
 110              	.LBE5:
  20:src/Scheduler.cpp ****     if (tail) tail = tail -> next = newElem;
 111              		.loc 1 20 5 is_stmt 1
 112              		.loc 1 20 13 is_stmt 0
 113 0094 97070000 		ld	a5,.LANCHOR0+8
 113      83B70700 
GAS LISTING /tmp/ccGDMg6O.s 			page 4


 114              		.loc 1 20 5
 115 009c 63820702 		beqz	a5,.L8
 116              		.loc 1 20 15 is_stmt 1 discriminator 1
 117              		.loc 1 20 35 is_stmt 0 discriminator 1
 118 00a0 23B4A700 		sd	a0,8(a5)
 119              		.loc 1 20 20 discriminator 1
 120 00a4 97070000 		sd	a0,.LANCHOR0+8,a5
 120      23B0A700 
 121              	.L7:
  21:src/Scheduler.cpp ****     else head = tail = newElem;
  22:src/Scheduler.cpp **** }
 122              		.loc 1 22 1
 123 00ac 83308101 		ld	ra,24(sp)
 124              		.cfi_remember_state
 125              		.cfi_restore 1
 126 00b0 03340101 		ld	s0,16(sp)
 127              		.cfi_restore 8
 128              		.cfi_def_cfa 2, 32
 129 00b4 83348100 		ld	s1,8(sp)
 130              		.cfi_restore 9
 131              	.LVL9:
 132 00b8 13010102 		addi	sp,sp,32
 133              		.cfi_def_cfa_offset 0
 134 00bc 67800000 		jr	ra
 135              	.LVL10:
 136              	.L8:
 137              		.cfi_restore_state
  21:src/Scheduler.cpp ****     else head = tail = newElem;
 138              		.loc 1 21 10 is_stmt 1
  21:src/Scheduler.cpp ****     else head = tail = newElem;
 139              		.loc 1 21 22 is_stmt 0
 140 00c0 97070000 		lla	a5,.LANCHOR0
 140      93870700 
 141 00c8 23B4A700 		sd	a0,8(a5)
  21:src/Scheduler.cpp ****     else head = tail = newElem;
 142              		.loc 1 21 15
 143 00cc 23B0A700 		sd	a0,0(a5)
 144              		.loc 1 22 1
 145 00d0 6FF0DFFD 		j	.L7
 146              		.cfi_endproc
 147              	.LFE26:
 149              		.align	2
 150              		.globl	_ZN9Scheduler4peekEv
 152              	_ZN9Scheduler4peekEv:
 153              	.LFB27:
  23:src/Scheduler.cpp **** 
  24:src/Scheduler.cpp **** TCB* Scheduler::peek() {
 154              		.loc 1 24 24 is_stmt 1
 155              		.cfi_startproc
 156 00d4 130101FF 		addi	sp,sp,-16
 157              		.cfi_def_cfa_offset 16
 158 00d8 23348100 		sd	s0,8(sp)
 159              		.cfi_offset 8, -8
 160 00dc 13040101 		addi	s0,sp,16
 161              		.cfi_def_cfa 8, 0
  25:src/Scheduler.cpp ****     if (!head) return nullptr;
 162              		.loc 1 25 5
GAS LISTING /tmp/ccGDMg6O.s 			page 5


 163              		.loc 1 25 9 is_stmt 0
 164 00e0 17050000 		ld	a0,.LANCHOR0
 164      03350500 
 165              		.loc 1 25 5
 166 00e8 63040500 		beqz	a0,.L11
  26:src/Scheduler.cpp ****     return head -> data;}
 167              		.loc 1 26 5 is_stmt 1
 168              		.loc 1 26 20 is_stmt 0
 169 00ec 03350500 		ld	a0,0(a0)
 170              	.L11:
 171              		.loc 1 26 25
 172 00f0 03348100 		ld	s0,8(sp)
 173              		.cfi_restore 8
 174              		.cfi_def_cfa 2, 16
 175 00f4 13010101 		addi	sp,sp,16
 176              		.cfi_def_cfa_offset 0
 177 00f8 67800000 		jr	ra
 178              		.cfi_endproc
 179              	.LFE27:
 181              		.align	2
 182              		.globl	_ZN9Scheduler5emptyEv
 184              	_ZN9Scheduler5emptyEv:
 185              	.LFB28:
  27:src/Scheduler.cpp **** 
  28:src/Scheduler.cpp **** bool Scheduler::empty() {
 186              		.loc 1 28 25 is_stmt 1
 187              		.cfi_startproc
 188 00fc 130101FF 		addi	sp,sp,-16
 189              		.cfi_def_cfa_offset 16
 190 0100 23341100 		sd	ra,8(sp)
 191 0104 23308100 		sd	s0,0(sp)
 192              		.cfi_offset 1, -8
 193              		.cfi_offset 8, -16
 194 0108 13040101 		addi	s0,sp,16
 195              		.cfi_def_cfa 8, 0
  29:src/Scheduler.cpp ****     return peek() == nullptr;
 196              		.loc 1 29 5
 197              		.loc 1 29 16 is_stmt 0
 198 010c 97000000 		call	_ZN9Scheduler4peekEv
 198      E7800000 
 199              	.LVL11:
  30:src/Scheduler.cpp **** }
 200              		.loc 1 30 1
 201 0114 13351500 		seqz	a0,a0
 202 0118 83308100 		ld	ra,8(sp)
 203              		.cfi_restore 1
 204 011c 03340100 		ld	s0,0(sp)
 205              		.cfi_restore 8
 206              		.cfi_def_cfa 2, 16
 207 0120 13010101 		addi	sp,sp,16
 208              		.cfi_def_cfa_offset 0
 209 0124 67800000 		jr	ra
 210              		.cfi_endproc
 211              	.LFE28:
 213              		.align	2
 214              		.globl	_ZN9Scheduler12put_to_sleepEP3TCBm
 216              	_ZN9Scheduler12put_to_sleepEP3TCBm:
GAS LISTING /tmp/ccGDMg6O.s 			page 6


 217              	.LFB29:
  31:src/Scheduler.cpp **** 
  32:src/Scheduler.cpp **** void Scheduler::put_to_sleep(TCB *, time_t) {
 218              		.loc 1 32 45 is_stmt 1
 219              		.cfi_startproc
 220 0128 130101FF 		addi	sp,sp,-16
 221              		.cfi_def_cfa_offset 16
 222 012c 23348100 		sd	s0,8(sp)
 223              		.cfi_offset 8, -8
 224 0130 13040101 		addi	s0,sp,16
 225              		.cfi_def_cfa 8, 0
  33:src/Scheduler.cpp ****     // ...
  34:src/Scheduler.cpp **** }
 226              		.loc 1 34 1 is_stmt 0
 227 0134 03348100 		ld	s0,8(sp)
 228              		.cfi_restore 8
 229              		.cfi_def_cfa 2, 16
 230 0138 13010101 		addi	sp,sp,16
 231              		.cfi_def_cfa_offset 0
 232 013c 67800000 		jr	ra
 233              		.cfi_endproc
 234              	.LFE29:
 236              		.align	2
 237              		.globl	_ZN9SchedulernwEm
 239              	_ZN9SchedulernwEm:
 240              	.LFB30:
  35:src/Scheduler.cpp **** 
  36:src/Scheduler.cpp **** void *Scheduler::operator new(size_t size) {
 241              		.loc 1 36 44 is_stmt 1
 242              		.cfi_startproc
 243              	.LVL12:
 244 0140 130101FF 		addi	sp,sp,-16
 245              		.cfi_def_cfa_offset 16
 246 0144 23341100 		sd	ra,8(sp)
 247 0148 23308100 		sd	s0,0(sp)
 248              		.cfi_offset 1, -8
 249              		.cfi_offset 8, -16
 250 014c 13040101 		addi	s0,sp,16
 251              		.cfi_def_cfa 8, 0
  37:src/Scheduler.cpp ****     size_t blocks = (size + sizeof(MemoryAllocator::MemoryBlock) + MEM_BLOCK_SIZE - 1) / MEM_BLOCK_
 252              		.loc 1 37 5
 253              		.loc 1 37 83 is_stmt 0
 254 0150 13057505 		addi	a0,a0,87
 255              	.LVL13:
  38:src/Scheduler.cpp ****     return MemoryAllocator::mem_alloc(blocks);
 256              		.loc 1 38 5 is_stmt 1
 257              		.loc 1 38 38 is_stmt 0
 258 0154 13556500 		srli	a0,a0,6
 259              	.LVL14:
 260 0158 97000000 		call	_ZN15MemoryAllocator9mem_allocEm@plt
 260      E7800000 
 261              	.LVL15:
  39:src/Scheduler.cpp **** }
 262              		.loc 1 39 1
 263 0160 83308100 		ld	ra,8(sp)
 264              		.cfi_restore 1
 265 0164 03340100 		ld	s0,0(sp)
GAS LISTING /tmp/ccGDMg6O.s 			page 7


 266              		.cfi_restore 8
 267              		.cfi_def_cfa 2, 16
 268 0168 13010101 		addi	sp,sp,16
 269              		.cfi_def_cfa_offset 0
 270 016c 67800000 		jr	ra
 271              		.cfi_endproc
 272              	.LFE30:
 274              		.align	2
 275              		.globl	_ZN9SchedulerdlEPv
 277              	_ZN9SchedulerdlEPv:
 278              	.LFB31:
  40:src/Scheduler.cpp **** 
  41:src/Scheduler.cpp **** void Scheduler::operator delete(void *ptr) {
 279              		.loc 1 41 44 is_stmt 1
 280              		.cfi_startproc
 281              	.LVL16:
 282 0170 130101FF 		addi	sp,sp,-16
 283              		.cfi_def_cfa_offset 16
 284 0174 23341100 		sd	ra,8(sp)
 285 0178 23308100 		sd	s0,0(sp)
 286              		.cfi_offset 1, -8
 287              		.cfi_offset 8, -16
 288 017c 13040101 		addi	s0,sp,16
 289              		.cfi_def_cfa 8, 0
  42:src/Scheduler.cpp ****     MemoryAllocator::mem_free(ptr);
 290              		.loc 1 42 5
 291              		.loc 1 42 30 is_stmt 0
 292 0180 97000000 		call	_ZN15MemoryAllocator8mem_freeEPKv@plt
 292      E7800000 
 293              	.LVL17:
  43:src/Scheduler.cpp **** }
 294              		.loc 1 43 1
 295 0188 83308100 		ld	ra,8(sp)
 296              		.cfi_restore 1
 297 018c 03340100 		ld	s0,0(sp)
 298              		.cfi_restore 8
 299              		.cfi_def_cfa 2, 16
 300 0190 13010101 		addi	sp,sp,16
 301              		.cfi_def_cfa_offset 0
 302 0194 67800000 		jr	ra
 303              		.cfi_endproc
 304              	.LFE31:
 306              		.globl	_ZN9Scheduler4tailE
 307              		.globl	_ZN9Scheduler4headE
 308              		.bss
 309              		.align	3
 310              		.set	.LANCHOR0,. + 0
 313              	_ZN9Scheduler4headE:
 314 0000 00000000 		.zero	8
 314      00000000 
 317              	_ZN9Scheduler4tailE:
 318 0008 00000000 		.zero	8
 318      00000000 
 319              		.text
 320              	.Letext0:
 321              		.file 3 "src/../h/../lib/hw.h"
 322              		.file 4 "src/../h/../h/Memoryallocator.hpp"
GAS LISTING /tmp/ccGDMg6O.s 			page 8


 323              		.file 5 "src/../h/thread.hpp"
GAS LISTING /tmp/ccGDMg6O.s 			page 9


DEFINED SYMBOLS
                            *ABS*:0000000000000000 Scheduler.cpp
     /tmp/ccGDMg6O.s:9      .text:0000000000000000 _ZN9Scheduler3getEv
     /tmp/ccGDMg6O.s:13     .text:0000000000000000 .L0 
     /tmp/ccGDMg6O.s:14     .text:0000000000000000 .L0 
     /tmp/ccGDMg6O.s:15     .text:0000000000000004 .L0 
     /tmp/ccGDMg6O.s:19     .text:0000000000000010 .L0 
     /tmp/ccGDMg6O.s:20     .text:0000000000000010 .L0 
     /tmp/ccGDMg6O.s:21     .text:0000000000000010 .L0 
     /tmp/ccGDMg6O.s:23     .text:0000000000000014 .L0 
     /tmp/ccGDMg6O.s:25     .text:0000000000000014 .L0 
     /tmp/ccGDMg6O.s:26     .text:0000000000000014 .L0 
     /tmp/ccGDMg6O.s:28     .text:000000000000001c .L0 
     /tmp/ccGDMg6O.s:31     .text:0000000000000020 .L0 
     /tmp/ccGDMg6O.s:32     .text:0000000000000020 .L0 
     /tmp/ccGDMg6O.s:33     .text:0000000000000020 .L0 
     /tmp/ccGDMg6O.s:35     .text:0000000000000024 .L0 
     /tmp/ccGDMg6O.s:37     .text:000000000000002c .L0 
     /tmp/ccGDMg6O.s:40     .text:0000000000000030 .L0 
     /tmp/ccGDMg6O.s:41     .text:0000000000000030 .L0 
     /tmp/ccGDMg6O.s:44     .text:0000000000000034 .L0 
     /tmp/ccGDMg6O.s:45     .text:0000000000000034 .L0 
     /tmp/ccGDMg6O.s:49     .text:000000000000003c .L0 
     /tmp/ccGDMg6O.s:50     .text:000000000000003c .L0 
     /tmp/ccGDMg6O.s:52     .text:0000000000000044 .L0 
     /tmp/ccGDMg6O.s:53     .text:0000000000000044 .L0 
     /tmp/ccGDMg6O.s:55     .text:0000000000000048 .L0 
     /tmp/ccGDMg6O.s:56     .text:0000000000000048 .L0 
     /tmp/ccGDMg6O.s:58     .text:000000000000004c .L0 
     /tmp/ccGDMg6O.s:60     .text:0000000000000050 .L0 
     /tmp/ccGDMg6O.s:64     .text:0000000000000054 .L0 
     /tmp/ccGDMg6O.s:66     .text:0000000000000054 .L0 
     /tmp/ccGDMg6O.s:67     .text:0000000000000054 .L0 
     /tmp/ccGDMg6O.s:72     .text:0000000000000060 .L0 
     /tmp/ccGDMg6O.s:74     .text:0000000000000068 .L0 
     /tmp/ccGDMg6O.s:80     .text:0000000000000068 _ZN9Scheduler3putEP3TCB
     /tmp/ccGDMg6O.s:83     .text:0000000000000068 .L0 
     /tmp/ccGDMg6O.s:85     .text:0000000000000068 .L0 
     /tmp/ccGDMg6O.s:86     .text:000000000000006c .L0 
     /tmp/ccGDMg6O.s:90     .text:0000000000000078 .L0 
     /tmp/ccGDMg6O.s:91     .text:0000000000000078 .L0 
     /tmp/ccGDMg6O.s:92     .text:0000000000000078 .L0 
     /tmp/ccGDMg6O.s:94     .text:000000000000007c .L0 
     /tmp/ccGDMg6O.s:97     .text:0000000000000080 .L0 
     /tmp/ccGDMg6O.s:98     .text:0000000000000080 .L0 
     /tmp/ccGDMg6O.s:106    .text:000000000000008c .L0 
     /tmp/ccGDMg6O.s:112    .text:0000000000000094 .L0 
     /tmp/ccGDMg6O.s:113    .text:0000000000000094 .L0 
     /tmp/ccGDMg6O.s:115    .text:000000000000009c .L0 
     /tmp/ccGDMg6O.s:117    .text:00000000000000a0 .L0 
     /tmp/ccGDMg6O.s:118    .text:00000000000000a0 .L0 
     /tmp/ccGDMg6O.s:120    .text:00000000000000a4 .L0 
     /tmp/ccGDMg6O.s:123    .text:00000000000000ac .L0 
     /tmp/ccGDMg6O.s:124    .text:00000000000000b0 .L0 
     /tmp/ccGDMg6O.s:125    .text:00000000000000b0 .L0 
     /tmp/ccGDMg6O.s:127    .text:00000000000000b4 .L0 
     /tmp/ccGDMg6O.s:128    .text:00000000000000b4 .L0 
GAS LISTING /tmp/ccGDMg6O.s 			page 10


     /tmp/ccGDMg6O.s:130    .text:00000000000000b8 .L0 
     /tmp/ccGDMg6O.s:133    .text:00000000000000bc .L0 
     /tmp/ccGDMg6O.s:137    .text:00000000000000c0 .L0 
     /tmp/ccGDMg6O.s:139    .text:00000000000000c0 .L0 
     /tmp/ccGDMg6O.s:140    .text:00000000000000c0 .L0 
     /tmp/ccGDMg6O.s:143    .text:00000000000000cc .L0 
     /tmp/ccGDMg6O.s:145    .text:00000000000000d0 .L0 
     /tmp/ccGDMg6O.s:146    .text:00000000000000d4 .L0 
     /tmp/ccGDMg6O.s:152    .text:00000000000000d4 _ZN9Scheduler4peekEv
     /tmp/ccGDMg6O.s:155    .text:00000000000000d4 .L0 
     /tmp/ccGDMg6O.s:156    .text:00000000000000d4 .L0 
     /tmp/ccGDMg6O.s:157    .text:00000000000000d8 .L0 
     /tmp/ccGDMg6O.s:159    .text:00000000000000dc .L0 
     /tmp/ccGDMg6O.s:161    .text:00000000000000e0 .L0 
     /tmp/ccGDMg6O.s:163    .text:00000000000000e0 .L0 
     /tmp/ccGDMg6O.s:164    .text:00000000000000e0 .L0 
     /tmp/ccGDMg6O.s:166    .text:00000000000000e8 .L0 
     /tmp/ccGDMg6O.s:168    .text:00000000000000ec .L0 
     /tmp/ccGDMg6O.s:169    .text:00000000000000ec .L0 
     /tmp/ccGDMg6O.s:172    .text:00000000000000f0 .L0 
     /tmp/ccGDMg6O.s:173    .text:00000000000000f4 .L0 
     /tmp/ccGDMg6O.s:174    .text:00000000000000f4 .L0 
     /tmp/ccGDMg6O.s:176    .text:00000000000000f8 .L0 
     /tmp/ccGDMg6O.s:178    .text:00000000000000fc .L0 
     /tmp/ccGDMg6O.s:184    .text:00000000000000fc _ZN9Scheduler5emptyEv
     /tmp/ccGDMg6O.s:187    .text:00000000000000fc .L0 
     /tmp/ccGDMg6O.s:188    .text:00000000000000fc .L0 
     /tmp/ccGDMg6O.s:189    .text:0000000000000100 .L0 
     /tmp/ccGDMg6O.s:192    .text:0000000000000108 .L0 
     /tmp/ccGDMg6O.s:193    .text:0000000000000108 .L0 
     /tmp/ccGDMg6O.s:195    .text:000000000000010c .L0 
     /tmp/ccGDMg6O.s:197    .text:000000000000010c .L0 
     /tmp/ccGDMg6O.s:198    .text:000000000000010c .L0 
     /tmp/ccGDMg6O.s:201    .text:0000000000000114 .L0 
     /tmp/ccGDMg6O.s:203    .text:000000000000011c .L0 
     /tmp/ccGDMg6O.s:205    .text:0000000000000120 .L0 
     /tmp/ccGDMg6O.s:206    .text:0000000000000120 .L0 
     /tmp/ccGDMg6O.s:208    .text:0000000000000124 .L0 
     /tmp/ccGDMg6O.s:210    .text:0000000000000128 .L0 
     /tmp/ccGDMg6O.s:216    .text:0000000000000128 _ZN9Scheduler12put_to_sleepEP3TCBm
     /tmp/ccGDMg6O.s:219    .text:0000000000000128 .L0 
     /tmp/ccGDMg6O.s:220    .text:0000000000000128 .L0 
     /tmp/ccGDMg6O.s:221    .text:000000000000012c .L0 
     /tmp/ccGDMg6O.s:223    .text:0000000000000130 .L0 
     /tmp/ccGDMg6O.s:225    .text:0000000000000134 .L0 
     /tmp/ccGDMg6O.s:227    .text:0000000000000134 .L0 
     /tmp/ccGDMg6O.s:228    .text:0000000000000138 .L0 
     /tmp/ccGDMg6O.s:229    .text:0000000000000138 .L0 
     /tmp/ccGDMg6O.s:231    .text:000000000000013c .L0 
     /tmp/ccGDMg6O.s:233    .text:0000000000000140 .L0 
     /tmp/ccGDMg6O.s:239    .text:0000000000000140 _ZN9SchedulernwEm
     /tmp/ccGDMg6O.s:242    .text:0000000000000140 .L0 
     /tmp/ccGDMg6O.s:244    .text:0000000000000140 .L0 
     /tmp/ccGDMg6O.s:245    .text:0000000000000144 .L0 
     /tmp/ccGDMg6O.s:248    .text:000000000000014c .L0 
     /tmp/ccGDMg6O.s:249    .text:000000000000014c .L0 
     /tmp/ccGDMg6O.s:251    .text:0000000000000150 .L0 
GAS LISTING /tmp/ccGDMg6O.s 			page 11


     /tmp/ccGDMg6O.s:253    .text:0000000000000150 .L0 
     /tmp/ccGDMg6O.s:254    .text:0000000000000150 .L0 
     /tmp/ccGDMg6O.s:257    .text:0000000000000154 .L0 
     /tmp/ccGDMg6O.s:258    .text:0000000000000154 .L0 
     /tmp/ccGDMg6O.s:263    .text:0000000000000160 .L0 
     /tmp/ccGDMg6O.s:264    .text:0000000000000164 .L0 
     /tmp/ccGDMg6O.s:266    .text:0000000000000168 .L0 
     /tmp/ccGDMg6O.s:267    .text:0000000000000168 .L0 
     /tmp/ccGDMg6O.s:269    .text:000000000000016c .L0 
     /tmp/ccGDMg6O.s:271    .text:0000000000000170 .L0 
     /tmp/ccGDMg6O.s:277    .text:0000000000000170 _ZN9SchedulerdlEPv
     /tmp/ccGDMg6O.s:280    .text:0000000000000170 .L0 
     /tmp/ccGDMg6O.s:282    .text:0000000000000170 .L0 
     /tmp/ccGDMg6O.s:283    .text:0000000000000174 .L0 
     /tmp/ccGDMg6O.s:286    .text:000000000000017c .L0 
     /tmp/ccGDMg6O.s:287    .text:000000000000017c .L0 
     /tmp/ccGDMg6O.s:289    .text:0000000000000180 .L0 
     /tmp/ccGDMg6O.s:291    .text:0000000000000180 .L0 
     /tmp/ccGDMg6O.s:292    .text:0000000000000180 .L0 
     /tmp/ccGDMg6O.s:295    .text:0000000000000188 .L0 
     /tmp/ccGDMg6O.s:296    .text:000000000000018c .L0 
     /tmp/ccGDMg6O.s:298    .text:0000000000000190 .L0 
     /tmp/ccGDMg6O.s:299    .text:0000000000000190 .L0 
     /tmp/ccGDMg6O.s:301    .text:0000000000000194 .L0 
     /tmp/ccGDMg6O.s:303    .text:0000000000000198 .L0 
     /tmp/ccGDMg6O.s:317    .bss:0000000000000008 _ZN9Scheduler4tailE
     /tmp/ccGDMg6O.s:313    .bss:0000000000000000 _ZN9Scheduler4headE
     /tmp/ccGDMg6O.s:310    .bss:0000000000000000 .LANCHOR0
     /tmp/ccGDMg6O.s:324    .text:0000000000000198 .L0 
     /tmp/ccGDMg6O.s:26     .text:0000000000000014 .L0 
     /tmp/ccGDMg6O.s:35     .text:0000000000000024 .L0 
     /tmp/ccGDMg6O.s:67     .text:0000000000000054 .L0 
     /tmp/ccGDMg6O.s:113    .text:0000000000000094 .L0 
     /tmp/ccGDMg6O.s:120    .text:00000000000000a4 .L0 
     /tmp/ccGDMg6O.s:140    .text:00000000000000c0 .L0 
     /tmp/ccGDMg6O.s:164    .text:00000000000000e0 .L0 
     /tmp/ccGDMg6O.s:70     .text:0000000000000060 .L4
     /tmp/ccGDMg6O.s:63     .text:0000000000000054 .L6
     /tmp/ccGDMg6O.s:38     .text:0000000000000030 .L3
     /tmp/ccGDMg6O.s:48     .text:000000000000003c .L1
     /tmp/ccGDMg6O.s:136    .text:00000000000000c0 .L8
     /tmp/ccGDMg6O.s:121    .text:00000000000000ac .L7
     /tmp/ccGDMg6O.s:170    .text:00000000000000f0 .L11
     /tmp/ccGDMg6O.s:1428   .debug_abbrev:0000000000000000 .Ldebug_abbrev0
     /tmp/ccGDMg6O.s:2851   .debug_str:0000000000000620 .LASF119
     /tmp/ccGDMg6O.s:2737   .debug_str:00000000000002fa .LASF120
     /tmp/ccGDMg6O.s:2721   .debug_str:000000000000025b .LASF121
     /tmp/ccGDMg6O.s:5      .text:0000000000000000 .Ltext0
     /tmp/ccGDMg6O.s:320    .text:0000000000000198 .Letext0
     /tmp/ccGDMg6O.s:2639   .debug_line:0000000000000000 .Ldebug_line0
     /tmp/ccGDMg6O.s:2733   .debug_str:00000000000002dd .LASF0
     /tmp/ccGDMg6O.s:2757   .debug_str:000000000000036e .LASF1
     /tmp/ccGDMg6O.s:2811   .debug_str:00000000000004fe .LASF2
     /tmp/ccGDMg6O.s:2817   .debug_str:000000000000054a .LASF4
     /tmp/ccGDMg6O.s:2741   .debug_str:0000000000000316 .LASF3
     /tmp/ccGDMg6O.s:2647   .debug_str:000000000000003a .LASF5
     /tmp/ccGDMg6O.s:2797   .debug_str:0000000000000494 .LASF6
GAS LISTING /tmp/ccGDMg6O.s 			page 12


     /tmp/ccGDMg6O.s:2795   .debug_str:0000000000000481 .LASF7
     /tmp/ccGDMg6O.s:2745   .debug_str:0000000000000334 .LASF8
     /tmp/ccGDMg6O.s:2719   .debug_str:000000000000024b .LASF9
     /tmp/ccGDMg6O.s:2727   .debug_str:000000000000029d .LASF10
     /tmp/ccGDMg6O.s:2675   .debug_str:000000000000012f .LASF11
     /tmp/ccGDMg6O.s:2713   .debug_str:000000000000022d .LASF12
     /tmp/ccGDMg6O.s:2687   .debug_str:000000000000017b .LASF13
     /tmp/ccGDMg6O.s:2673   .debug_str:000000000000011f .LASF14
     /tmp/ccGDMg6O.s:2837   .debug_str:00000000000005cb .LASF15
     /tmp/ccGDMg6O.s:2705   .debug_str:00000000000001e2 .LASF16
     /tmp/ccGDMg6O.s:2829   .debug_str:0000000000000594 .LASF17
     /tmp/ccGDMg6O.s:2791   .debug_str:000000000000044c .LASF21
     /tmp/ccGDMg6O.s:2667   .debug_str:00000000000000df .LASF37
     /tmp/ccGDMg6O.s:2677   .debug_str:000000000000013e .LASF18
     /tmp/ccGDMg6O.s:2657   .debug_str:000000000000009b .LASF19
     /tmp/ccGDMg6O.s:2755   .debug_str:0000000000000369 .LASF20
     /tmp/ccGDMg6O.s:2655   .debug_str:0000000000000082 .LASF22
     /tmp/ccGDMg6O.s:2827   .debug_str:0000000000000579 .LASF23
     /tmp/ccGDMg6O.s:2875   .debug_str:000000000000076f .LASF53
     /tmp/ccGDMg6O.s:2881   .debug_str:000000000000079c .LASF55
     /tmp/ccGDMg6O.s:2847   .debug_str:000000000000060a .LASF24
     /tmp/ccGDMg6O.s:2653   .debug_str:0000000000000074 .LASF25
     /tmp/ccGDMg6O.s:2739   .debug_str:000000000000030c .LASF45
     /tmp/ccGDMg6O.s:2815   .debug_str:0000000000000518 .LASF47
     /tmp/ccGDMg6O.s:2867   .debug_str:0000000000000734 .LASF39
     /tmp/ccGDMg6O.s:2773   .debug_str:00000000000003d7 .LASF59
     /tmp/ccGDMg6O.s:2793   .debug_str:000000000000045c .LASF61
     /tmp/ccGDMg6O.s:2775   .debug_str:00000000000003e4 .LASF26
     /tmp/ccGDMg6O.s:2649   .debug_str:0000000000000041 .LASF27
     /tmp/ccGDMg6O.s:2843   .debug_str:00000000000005f6 .LASF28
     /tmp/ccGDMg6O.s:2799   .debug_str:000000000000049b .LASF29
     /tmp/ccGDMg6O.s:2641   .debug_str:0000000000000000 .LASF49
     /tmp/ccGDMg6O.s:2661   .debug_str:00000000000000ab .LASF51
     /tmp/ccGDMg6O.s:2803   .debug_str:00000000000004d2 .LASF30
     /tmp/ccGDMg6O.s:2743   .debug_str:0000000000000328 .LASF31
     /tmp/ccGDMg6O.s:2703   .debug_str:00000000000001dc .LASF122
     /tmp/ccGDMg6O.s:2747   .debug_str:0000000000000347 .LASF32
     /tmp/ccGDMg6O.s:2681   .debug_str:0000000000000157 .LASF33
     /tmp/ccGDMg6O.s:2853   .debug_str:00000000000006e4 .LASF34
     /tmp/ccGDMg6O.s:2663   .debug_str:00000000000000c8 .LASF35
     /tmp/ccGDMg6O.s:2769   .debug_str:00000000000003c8 .LASF36
     /tmp/ccGDMg6O.s:2683   .debug_str:0000000000000160 .LASF38
     /tmp/ccGDMg6O.s:2849   .debug_str:0000000000000618 .LASF40
     /tmp/ccGDMg6O.s:2887   .debug_str:00000000000007e9 .LASF41
     /tmp/ccGDMg6O.s:2873   .debug_str:000000000000075f .LASF42
     /tmp/ccGDMg6O.s:2665   .debug_str:00000000000000d1 .LASF43
     /tmp/ccGDMg6O.s:2711   .debug_str:0000000000000205 .LASF44
     /tmp/ccGDMg6O.s:2759   .debug_str:0000000000000381 .LASF46
     /tmp/ccGDMg6O.s:2763   .debug_str:0000000000000394 .LASF48
     /tmp/ccGDMg6O.s:2697   .debug_str:00000000000001bf .LASF50
     /tmp/ccGDMg6O.s:2685   .debug_str:0000000000000168 .LASF52
     /tmp/ccGDMg6O.s:2821   .debug_str:0000000000000556 .LASF54
     /tmp/ccGDMg6O.s:2825   .debug_str:0000000000000565 .LASF56
     /tmp/ccGDMg6O.s:2761   .debug_str:0000000000000387 .LASF57
     /tmp/ccGDMg6O.s:2869   .debug_str:000000000000073e .LASF58
     /tmp/ccGDMg6O.s:2857   .debug_str:0000000000000702 .LASF60
     /tmp/ccGDMg6O.s:2765   .debug_str:00000000000003a9 .LASF62
GAS LISTING /tmp/ccGDMg6O.s 			page 13


     /tmp/ccGDMg6O.s:2845   .debug_str:00000000000005ff .LASF63
     /tmp/ccGDMg6O.s:2839   .debug_str:00000000000005d7 .LASF64
     /tmp/ccGDMg6O.s:2771   .debug_str:00000000000003d0 .LASF65
     /tmp/ccGDMg6O.s:2689   .debug_str:000000000000018b .LASF66
     /tmp/ccGDMg6O.s:2819   .debug_str:0000000000000551 .LASF67
     /tmp/ccGDMg6O.s:2645   .debug_str:000000000000002e .LASF68
     /tmp/ccGDMg6O.s:2893   .debug_str:0000000000000808 .LASF69
     /tmp/ccGDMg6O.s:2725   .debug_str:0000000000000291 .LASF70
     /tmp/ccGDMg6O.s:2735   .debug_str:00000000000002ea .LASF71
     /tmp/ccGDMg6O.s:2787   .debug_str:0000000000000438 .LASF72
     /tmp/ccGDMg6O.s:2767   .debug_str:00000000000003bf .LASF73
     /tmp/ccGDMg6O.s:2809   .debug_str:00000000000004ed .LASF74
     /tmp/ccGDMg6O.s:2659   .debug_str:00000000000000a0 .LASF75
     /tmp/ccGDMg6O.s:2813   .debug_str:000000000000050c .LASF76
     /tmp/ccGDMg6O.s:2691   .debug_str:000000000000019c .LASF77
     /tmp/ccGDMg6O.s:2701   .debug_str:00000000000001ce .LASF78
     /tmp/ccGDMg6O.s:2807   .debug_str:00000000000004e2 .LASF79
     /tmp/ccGDMg6O.s:2695   .debug_str:00000000000001b7 .LASF80
     /tmp/ccGDMg6O.s:2891   .debug_str:0000000000000803 .LASF81
     /tmp/ccGDMg6O.s:2823   .debug_str:000000000000055f .LASF82
     /tmp/ccGDMg6O.s:2859   .debug_str:000000000000070d .LASF83
     /tmp/ccGDMg6O.s:2779   .debug_str:0000000000000411 .LASF84
     /tmp/ccGDMg6O.s:2841   .debug_str:00000000000005ed .LASF85
     /tmp/ccGDMg6O.s:2895   .debug_str:0000000000000815 .LASF97
     /tmp/ccGDMg6O.s:2693   .debug_str:00000000000001a9 .LASF91
     /tmp/ccGDMg6O.s:2643   .debug_str:0000000000000006 .LASF93
     /tmp/ccGDMg6O.s:2871   .debug_str:0000000000000757 .LASF123
     /tmp/ccGDMg6O.s:2651   .debug_str:0000000000000062 .LASF124
     /tmp/ccGDMg6O.s:2877   .debug_str:000000000000077a .LASF86
     /tmp/ccGDMg6O.s:2855   .debug_str:00000000000006eb .LASF87
     /tmp/ccGDMg6O.s:2805   .debug_str:00000000000004dd .LASF88
     /tmp/ccGDMg6O.s:2717   .debug_str:0000000000000241 .LASF89
     /tmp/ccGDMg6O.s:2865   .debug_str:000000000000072f .LASF92
     /tmp/ccGDMg6O.s:2751   .debug_str:000000000000035f .LASF90
     /tmp/ccGDMg6O.s:2731   .debug_str:00000000000002be .LASF94
     /tmp/ccGDMg6O.s:2749   .debug_str:0000000000000350 .LASF95
     /tmp/ccGDMg6O.s:2883   .debug_str:00000000000007b7 .LASF96
     /tmp/ccGDMg6O.s:2889   .debug_str:00000000000007ef .LASF125
     /tmp/ccGDMg6O.s:2723   .debug_str:0000000000000279 .LASF98
     /tmp/ccGDMg6O.s:2753   .debug_str:0000000000000364 .LASF99
     /tmp/ccGDMg6O.s:2801   .debug_str:00000000000004bd .LASF100
     /tmp/ccGDMg6O.s:2699   .debug_str:00000000000001c8 .LASF101
     /tmp/ccGDMg6O.s:2879   .debug_str:0000000000000786 .LASF102
     /tmp/ccGDMg6O.s:2785   .debug_str:000000000000042b .LASF103
     /tmp/ccGDMg6O.s:2777   .debug_str:00000000000003ee .LASF104
     /tmp/ccGDMg6O.s:2861   .debug_str:0000000000000715 .LASF105
     /tmp/ccGDMg6O.s:2729   .debug_str:00000000000002ab .LASF106
     /tmp/ccGDMg6O.s:2669   .debug_str:00000000000000eb .LASF107
     /tmp/ccGDMg6O.s:2885   .debug_str:00000000000007d7 .LASF108
     /tmp/ccGDMg6O.s:2783   .debug_str:0000000000000426 .LASF109
     /tmp/ccGDMg6O.s:2835   .debug_str:00000000000005c6 .LASF110
     /tmp/ccGDMg6O.s:2679   .debug_str:0000000000000143 .LASF111
     /tmp/ccGDMg6O.s:2833   .debug_str:00000000000005b2 .LASF112
     /tmp/ccGDMg6O.s:278    .text:0000000000000170 .LFB31
     /tmp/ccGDMg6O.s:304    .text:0000000000000198 .LFE31
     /tmp/ccGDMg6O.s:2504   .debug_loc:0000000000000000 .LLST8
     /tmp/ccGDMg6O.s:293    .text:0000000000000188 .LVL17
GAS LISTING /tmp/ccGDMg6O.s 			page 14


     /tmp/ccGDMg6O.s:240    .text:0000000000000140 .LFB30
     /tmp/ccGDMg6O.s:272    .text:0000000000000170 .LFE30
     /tmp/ccGDMg6O.s:2518   .debug_loc:0000000000000039 .LLST6
     /tmp/ccGDMg6O.s:2781   .debug_str:000000000000041f .LASF113
     /tmp/ccGDMg6O.s:2538   .debug_loc:0000000000000088 .LLST7
     /tmp/ccGDMg6O.s:261    .text:0000000000000160 .LVL15
     /tmp/ccGDMg6O.s:217    .text:0000000000000128 .LFB29
     /tmp/ccGDMg6O.s:234    .text:0000000000000140 .LFE29
     /tmp/ccGDMg6O.s:185    .text:00000000000000fc .LFB28
     /tmp/ccGDMg6O.s:211    .text:0000000000000128 .LFE28
     /tmp/ccGDMg6O.s:199    .text:0000000000000114 .LVL11
     /tmp/ccGDMg6O.s:153    .text:00000000000000d4 .LFB27
     /tmp/ccGDMg6O.s:179    .text:00000000000000fc .LFE27
     /tmp/ccGDMg6O.s:81     .text:0000000000000068 .LFB26
     /tmp/ccGDMg6O.s:147    .text:00000000000000d4 .LFE26
     /tmp/ccGDMg6O.s:2707   .debug_str:00000000000001f8 .LASF114
     /tmp/ccGDMg6O.s:2564   .debug_loc:00000000000000dc .LLST2
     /tmp/ccGDMg6O.s:2831   .debug_str:00000000000005aa .LASF115
     /tmp/ccGDMg6O.s:102    .text:000000000000008c .LBB5
     /tmp/ccGDMg6O.s:110    .text:0000000000000094 .LBE5
     /tmp/ccGDMg6O.s:2586   .debug_loc:000000000000013b .LLST3
     /tmp/ccGDMg6O.s:2594   .debug_loc:000000000000015f .LLST4
     /tmp/ccGDMg6O.s:2601   .debug_loc:0000000000000182 .LLST5
     /tmp/ccGDMg6O.s:101    .text:000000000000008c .LVL7
     /tmp/ccGDMg6O.s:10     .text:0000000000000000 .LFB25
     /tmp/ccGDMg6O.s:75     .text:0000000000000068 .LFE25
     /tmp/ccGDMg6O.s:2863   .debug_str:0000000000000727 .LASF116
     /tmp/ccGDMg6O.s:2608   .debug_loc:00000000000001a5 .LLST0
     /tmp/ccGDMg6O.s:2619   .debug_loc:00000000000001db .LLST1
     /tmp/ccGDMg6O.s:46     .text:000000000000003c .LVL2
     /tmp/ccGDMg6O.s:2715   .debug_str:000000000000023c .LASF126
     /tmp/ccGDMg6O.s:2671   .debug_str:0000000000000100 .LASF127
     /tmp/ccGDMg6O.s:2709   .debug_str:00000000000001ff .LASF117
     /tmp/ccGDMg6O.s:2789   .debug_str:0000000000000445 .LASF118
     /tmp/ccGDMg6O.s:281    .text:0000000000000170 .LVL16
     /tmp/ccGDMg6O.s:243    .text:0000000000000140 .LVL12
     /tmp/ccGDMg6O.s:255    .text:0000000000000154 .LVL13
     /tmp/ccGDMg6O.s:259    .text:0000000000000158 .LVL14
     /tmp/ccGDMg6O.s:84     .text:0000000000000068 .LVL5
     /tmp/ccGDMg6O.s:99     .text:0000000000000084 .LVL6
     /tmp/ccGDMg6O.s:131    .text:00000000000000b8 .LVL9
     /tmp/ccGDMg6O.s:135    .text:00000000000000c0 .LVL10
     /tmp/ccGDMg6O.s:108    .text:0000000000000094 .LVL8
     /tmp/ccGDMg6O.s:30     .text:0000000000000020 .LVL0
     /tmp/ccGDMg6O.s:62     .text:0000000000000054 .LVL3
     /tmp/ccGDMg6O.s:69     .text:0000000000000060 .LVL4
     /tmp/ccGDMg6O.s:42     .text:0000000000000034 .LVL1
     /tmp/ccGDMg6O.s:325    .debug_info:0000000000000000 .Ldebug_info0

UNDEFINED SYMBOLS
_ZdlPv
_Znwm
_ZN15MemoryAllocator9mem_allocEm
_ZN15MemoryAllocator8mem_freeEPKv
