GAS LISTING /tmp/cc4CkiQ4.s 			page 1


   1              		.file	"Scheduler.cpp"
   2              		.option pic
   3              		.option norelax
   4              		.text
   5              	.Ltext0:
   6              		.align	2
   7              		.globl	_Z11idleWrapperPv
   9              	_Z11idleWrapperPv:
  10              	.LFB24:
  11              		.file 1 "src/Scheduler.cpp"
   1:src/Scheduler.cpp **** 
   2:src/Scheduler.cpp **** #include "../h/Scheduler.hpp"
   3:src/Scheduler.cpp **** 
   4:src/Scheduler.cpp **** TCB* Scheduler::first = nullptr;
   5:src/Scheduler.cpp **** TCB* Scheduler::last  = nullptr;
   6:src/Scheduler.cpp **** TCB* Scheduler::first_sleepy = nullptr;
   7:src/Scheduler.cpp **** TCB* Scheduler::idle = nullptr;
   8:src/Scheduler.cpp **** 
   9:src/Scheduler.cpp **** [[noreturn]] void idleWrapper(void*) {
  12              		.loc 1 9 38
  13              		.cfi_startproc
  14 0000 130101FF 		addi	sp,sp,-16
  15              		.cfi_def_cfa_offset 16
  16 0004 23348100 		sd	s0,8(sp)
  17              		.cfi_offset 8, -8
  18 0008 13040101 		addi	s0,sp,16
  19              		.cfi_def_cfa 8, 0
  20              	.L2:
  10:src/Scheduler.cpp ****     // nothing to do
  11:src/Scheduler.cpp ****     while (true);
  21              		.loc 1 11 5 discriminator 1
  22              		.loc 1 11 5 discriminator 1
  23 000c 6F000000 		j	.L2
  24              		.cfi_endproc
  25              	.LFE24:
  27              		.align	2
  28              		.globl	_ZN9Scheduler3getEv
  30              	_ZN9Scheduler3getEv:
  31              	.LFB25:
  12:src/Scheduler.cpp **** }
  13:src/Scheduler.cpp **** 
  14:src/Scheduler.cpp **** TCB *Scheduler::get() {
  32              		.loc 1 14 23
  33              		.cfi_startproc
  34 0010 130101FF 		addi	sp,sp,-16
  35              		.cfi_def_cfa_offset 16
  36 0014 23348100 		sd	s0,8(sp)
  37              		.cfi_offset 8, -8
  38 0018 13040101 		addi	s0,sp,16
  39              		.cfi_def_cfa 8, 0
  15:src/Scheduler.cpp **** 
  16:src/Scheduler.cpp ****     if (!first) return idle; // idle thread
  40              		.loc 1 16 5
  41              		.loc 1 16 9 is_stmt 0
  42 001c 17050000 		ld	a0,.LANCHOR0
  42      03350500 
  43              		.loc 1 16 5
GAS LISTING /tmp/cc4CkiQ4.s 			page 2


  44 0024 63020502 		beqz	a0,.L9
  17:src/Scheduler.cpp **** 
  18:src/Scheduler.cpp ****     TCB* tcb = first;
  45              		.loc 1 18 5 is_stmt 1
  46              	.LVL0:
  19:src/Scheduler.cpp **** 
  20:src/Scheduler.cpp ****     first = first -> next_ready;
  47              		.loc 1 20 5
  48              		.loc 1 20 22 is_stmt 0
  49 0028 83378500 		ld	a5,8(a0)
  50              		.loc 1 20 11
  51 002c 17070000 		sd	a5,.LANCHOR0,a4
  51      2330F700 
  21:src/Scheduler.cpp ****     if (!first) last = nullptr;
  52              		.loc 1 21 5 is_stmt 1
  53 0034 63800702 		beqz	a5,.L10
  54              	.L7:
  22:src/Scheduler.cpp ****     tcb -> next_ready = nullptr;
  55              		.loc 1 22 5
  56              		.loc 1 22 23 is_stmt 0
  57 0038 23340500 		sd	zero,8(a0)
  23:src/Scheduler.cpp **** 
  24:src/Scheduler.cpp ****     return tcb;
  58              		.loc 1 24 5 is_stmt 1
  59              	.LVL1:
  60              	.L4:
  25:src/Scheduler.cpp **** 
  26:src/Scheduler.cpp **** }
  61              		.loc 1 26 1 is_stmt 0
  62 003c 03348100 		ld	s0,8(sp)
  63              		.cfi_remember_state
  64              		.cfi_restore 8
  65              		.cfi_def_cfa 2, 16
  66 0040 13010101 		addi	sp,sp,16
  67              		.cfi_def_cfa_offset 0
  68 0044 67800000 		jr	ra
  69              	.L9:
  70              		.cfi_restore_state
  16:src/Scheduler.cpp **** 
  71              		.loc 1 16 17 is_stmt 1 discriminator 1
  16:src/Scheduler.cpp **** 
  72              		.loc 1 16 24 is_stmt 0 discriminator 1
  73 0048 17050000 		ld	a0,.LANCHOR0+8
  73      03350500 
  74 0050 6FF0DFFE 		j	.L4
  75              	.LVL2:
  76              	.L10:
  21:src/Scheduler.cpp ****     tcb -> next_ready = nullptr;
  77              		.loc 1 21 17 is_stmt 1 discriminator 1
  21:src/Scheduler.cpp ****     tcb -> next_ready = nullptr;
  78              		.loc 1 21 22 is_stmt 0 discriminator 1
  79 0054 97070000 		sd	zero,.LANCHOR0+16,a5
  79      23B00700 
  80 005c 6FF0DFFD 		j	.L7
  81              		.cfi_endproc
  82              	.LFE25:
  84              		.align	2
GAS LISTING /tmp/cc4CkiQ4.s 			page 3


  85              		.globl	_ZN9Scheduler3putEP3TCB
  87              	_ZN9Scheduler3putEP3TCB:
  88              	.LFB26:
  27:src/Scheduler.cpp **** 
  28:src/Scheduler.cpp **** void Scheduler::put(TCB *newTCB) {
  89              		.loc 1 28 34 is_stmt 1
  90              		.cfi_startproc
  91              	.LVL3:
  92 0060 130101FF 		addi	sp,sp,-16
  93              		.cfi_def_cfa_offset 16
  94 0064 23348100 		sd	s0,8(sp)
  95              		.cfi_offset 8, -8
  96 0068 13040101 		addi	s0,sp,16
  97              		.cfi_def_cfa 8, 0
  29:src/Scheduler.cpp **** 
  30:src/Scheduler.cpp ****     if (newTCB == idle) {
  98              		.loc 1 30 5
  99              		.loc 1 30 16 is_stmt 0
 100 006c 97070000 		ld	a5,.LANCHOR0+8
 100      83B70700 
 101              		.loc 1 30 5
 102 0074 6388A702 		beq	a5,a0,.L16
  31:src/Scheduler.cpp ****         idle->current_state = TCB::RUNNABLE;
  32:src/Scheduler.cpp ****         return;
  33:src/Scheduler.cpp ****     }
  34:src/Scheduler.cpp ****     if (!first) first = last = newTCB;
 103              		.loc 1 34 5 is_stmt 1
 104              		.loc 1 34 9 is_stmt 0
 105 0078 97070000 		ld	a5,.LANCHOR0
 105      83B70700 
 106              		.loc 1 34 5
 107 0080 63860702 		beqz	a5,.L17
  35:src/Scheduler.cpp ****     else last = last -> next_ready = newTCB;
 108              		.loc 1 35 10 is_stmt 1
 109              		.loc 1 35 25 is_stmt 0
 110 0084 97070000 		lla	a5,.LANCHOR0
 110      93870700 
 111 008c 03B70701 		ld	a4,16(a5)
 112              		.loc 1 35 36
 113 0090 2334A700 		sd	a0,8(a4)
 114              		.loc 1 35 15
 115 0094 23B8A700 		sd	a0,16(a5)
 116              	.L11:
  36:src/Scheduler.cpp **** 
  37:src/Scheduler.cpp **** }
 117              		.loc 1 37 1
 118 0098 03348100 		ld	s0,8(sp)
 119              		.cfi_remember_state
 120              		.cfi_restore 8
 121              		.cfi_def_cfa 2, 16
 122 009c 13010101 		addi	sp,sp,16
 123              		.cfi_def_cfa_offset 0
 124 00a0 67800000 		jr	ra
 125              	.L16:
 126              		.cfi_restore_state
  31:src/Scheduler.cpp ****         return;
 127              		.loc 1 31 9 is_stmt 1
GAS LISTING /tmp/cc4CkiQ4.s 			page 4


  31:src/Scheduler.cpp ****         return;
 128              		.loc 1 31 29 is_stmt 0
 129 00a4 23A40706 		sw	zero,104(a5)
  32:src/Scheduler.cpp ****     }
 130              		.loc 1 32 9 is_stmt 1
 131 00a8 6FF01FFF 		j	.L11
 132              	.L17:
  34:src/Scheduler.cpp ****     else last = last -> next_ready = newTCB;
 133              		.loc 1 34 17 discriminator 1
  34:src/Scheduler.cpp ****     else last = last -> next_ready = newTCB;
 134              		.loc 1 34 30 is_stmt 0 discriminator 1
 135 00ac 97070000 		lla	a5,.LANCHOR0
 135      93870700 
 136 00b4 23B8A700 		sd	a0,16(a5)
  34:src/Scheduler.cpp ****     else last = last -> next_ready = newTCB;
 137              		.loc 1 34 23 discriminator 1
 138 00b8 23B0A700 		sd	a0,0(a5)
 139 00bc 6FF0DFFD 		j	.L11
 140              		.cfi_endproc
 141              	.LFE26:
 143              		.align	2
 144              		.globl	_ZN9Scheduler4peekEv
 146              	_ZN9Scheduler4peekEv:
 147              	.LFB27:
  38:src/Scheduler.cpp **** 
  39:src/Scheduler.cpp **** TCB* Scheduler::peek() {
 148              		.loc 1 39 24 is_stmt 1
 149              		.cfi_startproc
 150 00c0 130101FF 		addi	sp,sp,-16
 151              		.cfi_def_cfa_offset 16
 152 00c4 23348100 		sd	s0,8(sp)
 153              		.cfi_offset 8, -8
 154 00c8 13040101 		addi	s0,sp,16
 155              		.cfi_def_cfa 8, 0
  40:src/Scheduler.cpp ****     if (!first) return nullptr;
 156              		.loc 1 40 5
  41:src/Scheduler.cpp ****     return first;
  42:src/Scheduler.cpp **** }
 157              		.loc 1 42 1 is_stmt 0
 158 00cc 17050000 		ld	a0,.LANCHOR0
 158      03350500 
 159 00d4 03348100 		ld	s0,8(sp)
 160              		.cfi_restore 8
 161              		.cfi_def_cfa 2, 16
 162 00d8 13010101 		addi	sp,sp,16
 163              		.cfi_def_cfa_offset 0
 164 00dc 67800000 		jr	ra
 165              		.cfi_endproc
 166              	.LFE27:
 168              		.align	2
 169              		.globl	_ZN9Scheduler5emptyEv
 171              	_ZN9Scheduler5emptyEv:
 172              	.LFB28:
  43:src/Scheduler.cpp **** 
  44:src/Scheduler.cpp **** bool Scheduler::empty() {
 173              		.loc 1 44 25 is_stmt 1
 174              		.cfi_startproc
GAS LISTING /tmp/cc4CkiQ4.s 			page 5


 175 00e0 130101FF 		addi	sp,sp,-16
 176              		.cfi_def_cfa_offset 16
 177 00e4 23348100 		sd	s0,8(sp)
 178              		.cfi_offset 8, -8
 179 00e8 13040101 		addi	s0,sp,16
 180              		.cfi_def_cfa 8, 0
  45:src/Scheduler.cpp ****     return first != nullptr;
 181              		.loc 1 45 5
  46:src/Scheduler.cpp **** }
 182              		.loc 1 46 1 is_stmt 0
 183 00ec 17050000 		ld	a0,.LANCHOR0
 183      03350500 
 184 00f4 3335A000 		snez	a0,a0
 185 00f8 03348100 		ld	s0,8(sp)
 186              		.cfi_restore 8
 187              		.cfi_def_cfa 2, 16
 188 00fc 13010101 		addi	sp,sp,16
 189              		.cfi_def_cfa_offset 0
 190 0100 67800000 		jr	ra
 191              		.cfi_endproc
 192              	.LFE28:
 194              		.align	2
 195              		.globl	_ZN9SchedulernwEm
 197              	_ZN9SchedulernwEm:
 198              	.LFB30:
  47:src/Scheduler.cpp **** 
  48:src/Scheduler.cpp **** int Scheduler::time_sleep(TCB *tcb, time_t time) {
  49:src/Scheduler.cpp **** 
  50:src/Scheduler.cpp ****     if (time == 0) return -1;
  51:src/Scheduler.cpp **** 
  52:src/Scheduler.cpp ****     if (!first_sleepy) {
  53:src/Scheduler.cpp ****         first_sleepy = tcb;
  54:src/Scheduler.cpp ****         tcb -> sleeping_time = time;
  55:src/Scheduler.cpp ****         s_yield();
  56:src/Scheduler.cpp ****         return 0;
  57:src/Scheduler.cpp ****     }
  58:src/Scheduler.cpp **** 
  59:src/Scheduler.cpp ****     TCB* prev = nullptr, *curr = first_sleepy; // insert between
  60:src/Scheduler.cpp ****     time_t time_sum = 0;
  61:src/Scheduler.cpp **** 
  62:src/Scheduler.cpp ****     while (curr) {
  63:src/Scheduler.cpp **** 
  64:src/Scheduler.cpp ****         if (time_sum + curr->sleeping_time > time) {
  65:src/Scheduler.cpp **** 
  66:src/Scheduler.cpp ****             // time_sum = previous thread sleep time
  67:src/Scheduler.cpp ****             // insert new sleeping thread
  68:src/Scheduler.cpp ****             // new time  <= time - time_sum
  69:src/Scheduler.cpp ****             // new next  <= curr
  70:src/Scheduler.cpp ****             // prev next <= new
  71:src/Scheduler.cpp **** 
  72:src/Scheduler.cpp ****             if (prev) prev -> next_sleepy = tcb;
  73:src/Scheduler.cpp ****             else first_sleepy = tcb;
  74:src/Scheduler.cpp **** 
  75:src/Scheduler.cpp ****             tcb -> next_sleepy = curr;
  76:src/Scheduler.cpp ****             tcb -> sleeping_time = time - time_sum;
  77:src/Scheduler.cpp **** 
  78:src/Scheduler.cpp ****             // change next time (curr)
GAS LISTING /tmp/cc4CkiQ4.s 			page 6


  79:src/Scheduler.cpp **** 
  80:src/Scheduler.cpp ****             curr -> sleeping_time -= tcb -> sleeping_time;
  81:src/Scheduler.cpp **** 
  82:src/Scheduler.cpp ****             s_yield();
  83:src/Scheduler.cpp **** 
  84:src/Scheduler.cpp ****             return 0;
  85:src/Scheduler.cpp ****         }
  86:src/Scheduler.cpp **** 
  87:src/Scheduler.cpp ****         time_sum += curr -> sleeping_time;
  88:src/Scheduler.cpp ****         prev = curr;
  89:src/Scheduler.cpp ****         curr = curr -> next_sleepy;
  90:src/Scheduler.cpp ****     }
  91:src/Scheduler.cpp **** 
  92:src/Scheduler.cpp ****     // insert at the end, has previous
  93:src/Scheduler.cpp ****     tcb -> sleeping_time = time - time_sum;
  94:src/Scheduler.cpp ****     if (prev) prev -> next_sleepy = tcb;
  95:src/Scheduler.cpp **** 
  96:src/Scheduler.cpp ****     s_yield();
  97:src/Scheduler.cpp ****     return 0;
  98:src/Scheduler.cpp **** 
  99:src/Scheduler.cpp **** 
 100:src/Scheduler.cpp **** }
 101:src/Scheduler.cpp **** 
 102:src/Scheduler.cpp **** void *Scheduler::operator new(size_t size) {
 199              		.loc 1 102 44 is_stmt 1
 200              		.cfi_startproc
 201              	.LVL4:
 202 0104 130101FF 		addi	sp,sp,-16
 203              		.cfi_def_cfa_offset 16
 204 0108 23341100 		sd	ra,8(sp)
 205 010c 23308100 		sd	s0,0(sp)
 206              		.cfi_offset 1, -8
 207              		.cfi_offset 8, -16
 208 0110 13040101 		addi	s0,sp,16
 209              		.cfi_def_cfa 8, 0
 103:src/Scheduler.cpp ****     size_t blocks = (size + sizeof(MemoryAllocator::MemoryBlock) + MEM_BLOCK_SIZE - 1) / MEM_BLOCK_
 210              		.loc 1 103 5
 211              		.loc 1 103 83 is_stmt 0
 212 0114 13057505 		addi	a0,a0,87
 213              	.LVL5:
 104:src/Scheduler.cpp ****     return MemoryAllocator::mem_alloc(blocks);
 214              		.loc 1 104 5 is_stmt 1
 215              		.loc 1 104 38 is_stmt 0
 216 0118 13556500 		srli	a0,a0,6
 217              	.LVL6:
 218 011c 97000000 		call	_ZN15MemoryAllocator9mem_allocEm@plt
 218      E7800000 
 219              	.LVL7:
 105:src/Scheduler.cpp **** }
 220              		.loc 1 105 1
 221 0124 83308100 		ld	ra,8(sp)
 222              		.cfi_restore 1
 223 0128 03340100 		ld	s0,0(sp)
 224              		.cfi_restore 8
 225              		.cfi_def_cfa 2, 16
 226 012c 13010101 		addi	sp,sp,16
 227              		.cfi_def_cfa_offset 0
GAS LISTING /tmp/cc4CkiQ4.s 			page 7


 228 0130 67800000 		jr	ra
 229              		.cfi_endproc
 230              	.LFE30:
 232              		.align	2
 233              		.globl	_ZN9SchedulerdlEPv
 235              	_ZN9SchedulerdlEPv:
 236              	.LFB31:
 106:src/Scheduler.cpp **** 
 107:src/Scheduler.cpp **** void Scheduler::operator delete(void *ptr) {
 237              		.loc 1 107 44 is_stmt 1
 238              		.cfi_startproc
 239              	.LVL8:
 240 0134 130101FF 		addi	sp,sp,-16
 241              		.cfi_def_cfa_offset 16
 242 0138 23341100 		sd	ra,8(sp)
 243 013c 23308100 		sd	s0,0(sp)
 244              		.cfi_offset 1, -8
 245              		.cfi_offset 8, -16
 246 0140 13040101 		addi	s0,sp,16
 247              		.cfi_def_cfa 8, 0
 108:src/Scheduler.cpp ****     MemoryAllocator::mem_free(ptr);
 248              		.loc 1 108 5
 249              		.loc 1 108 30 is_stmt 0
 250 0144 97000000 		call	_ZN15MemoryAllocator8mem_freeEPv@plt
 250      E7800000 
 251              	.LVL9:
 109:src/Scheduler.cpp **** }
 252              		.loc 1 109 1
 253 014c 83308100 		ld	ra,8(sp)
 254              		.cfi_restore 1
 255 0150 03340100 		ld	s0,0(sp)
 256              		.cfi_restore 8
 257              		.cfi_def_cfa 2, 16
 258 0154 13010101 		addi	sp,sp,16
 259              		.cfi_def_cfa_offset 0
 260 0158 67800000 		jr	ra
 261              		.cfi_endproc
 262              	.LFE31:
 264              		.align	2
 265              		.globl	_ZN9Scheduler7s_yieldEv
 267              	_ZN9Scheduler7s_yieldEv:
 268              	.LFB32:
 110:src/Scheduler.cpp **** 
 111:src/Scheduler.cpp **** void Scheduler::s_yield() {
 269              		.loc 1 111 27 is_stmt 1
 270              		.cfi_startproc
 271 015c 130101FE 		addi	sp,sp,-32
 272              		.cfi_def_cfa_offset 32
 273 0160 233C1100 		sd	ra,24(sp)
 274 0164 23388100 		sd	s0,16(sp)
 275 0168 23349100 		sd	s1,8(sp)
 276 016c 23302101 		sd	s2,0(sp)
 277              		.cfi_offset 1, -8
 278              		.cfi_offset 8, -16
 279              		.cfi_offset 9, -24
 280              		.cfi_offset 18, -32
 281 0170 13040102 		addi	s0,sp,32
GAS LISTING /tmp/cc4CkiQ4.s 			page 8


 282              		.cfi_def_cfa 8, 0
 112:src/Scheduler.cpp **** 
 113:src/Scheduler.cpp ****     TCB* oldRunning = TCB::running;
 283              		.loc 1 113 5
 284              		.loc 1 113 10 is_stmt 0
 285 0174 17090000 		la	s2,_ZN3TCB7runningE
 285      03390900 
 286 017c 83340900 		ld	s1,0(s2)
 287              	.LVL10:
 114:src/Scheduler.cpp ****     oldRunning -> current_state = TCB::SLEEPING;
 288              		.loc 1 114 5 is_stmt 1
 289              		.loc 1 114 33 is_stmt 0
 290 0180 93071000 		li	a5,1
 291 0184 23A4F406 		sw	a5,104(s1)
 115:src/Scheduler.cpp **** 
 116:src/Scheduler.cpp ****     TCB::running = get(); // Scheduler::get
 292              		.loc 1 116 5 is_stmt 1
 293              		.loc 1 116 23 is_stmt 0
 294 0188 97000000 		call	_ZN9Scheduler3getEv
 294      E7800000 
 295              	.LVL11:
 296 0190 93050500 		mv	a1,a0
 297              		.loc 1 116 18
 298 0194 2330A900 		sd	a0,0(s2)
 117:src/Scheduler.cpp ****     TCB::yield(oldRunning, TCB::running);
 299              		.loc 1 117 5 is_stmt 1
 300              		.loc 1 117 15 is_stmt 0
 301 0198 13850400 		mv	a0,s1
 302 019c 97000000 		call	_ZN3TCB5yieldEPS_S0_@plt
 302      E7800000 
 303              	.LVL12:
 118:src/Scheduler.cpp **** 
 119:src/Scheduler.cpp **** }
 304              		.loc 1 119 1
 305 01a4 83308101 		ld	ra,24(sp)
 306              		.cfi_restore 1
 307 01a8 03340101 		ld	s0,16(sp)
 308              		.cfi_restore 8
 309              		.cfi_def_cfa 2, 32
 310 01ac 83348100 		ld	s1,8(sp)
 311              		.cfi_restore 9
 312              	.LVL13:
 313 01b0 03390100 		ld	s2,0(sp)
 314              		.cfi_restore 18
 315 01b4 13010102 		addi	sp,sp,32
 316              		.cfi_def_cfa_offset 0
 317 01b8 67800000 		jr	ra
 318              		.cfi_endproc
 319              	.LFE32:
 321              		.align	2
 322              		.globl	_ZN9Scheduler10time_sleepEP3TCBm
 324              	_ZN9Scheduler10time_sleepEP3TCBm:
 325              	.LFB29:
  48:src/Scheduler.cpp **** 
 326              		.loc 1 48 50 is_stmt 1
 327              		.cfi_startproc
 328              	.LVL14:
GAS LISTING /tmp/cc4CkiQ4.s 			page 9


  50:src/Scheduler.cpp **** 
 329              		.loc 1 50 5
 330 01bc 6386050C 		beqz	a1,.L36
  48:src/Scheduler.cpp **** 
 331              		.loc 1 48 50 is_stmt 0
 332 01c0 130101FF 		addi	sp,sp,-16
 333              		.cfi_def_cfa_offset 16
 334 01c4 23341100 		sd	ra,8(sp)
 335 01c8 23308100 		sd	s0,0(sp)
 336              		.cfi_offset 1, -8
 337              		.cfi_offset 8, -16
 338 01cc 13040101 		addi	s0,sp,16
 339              		.cfi_def_cfa 8, 0
  52:src/Scheduler.cpp ****         first_sleepy = tcb;
 340              		.loc 1 52 5 is_stmt 1
  52:src/Scheduler.cpp ****         first_sleepy = tcb;
 341              		.loc 1 52 9 is_stmt 0
 342 01d0 97070000 		ld	a5,.LANCHOR0+24
 342      83B70700 
  52:src/Scheduler.cpp ****         first_sleepy = tcb;
 343              		.loc 1 52 5
 344 01d8 63860702 		beqz	a5,.L42
  60:src/Scheduler.cpp **** 
 345              		.loc 1 60 12
 346 01dc 93060000 		li	a3,0
  59:src/Scheduler.cpp ****     time_t time_sum = 0;
 347              		.loc 1 59 10
 348 01e0 13060000 		li	a2,0
 349              	.L30:
 350              	.LVL15:
  62:src/Scheduler.cpp **** 
 351              		.loc 1 62 5 is_stmt 1
  62:src/Scheduler.cpp **** 
 352              		.loc 1 62 12
 353 01e4 638C0706 		beqz	a5,.L31
  64:src/Scheduler.cpp **** 
 354              		.loc 1 64 9
  64:src/Scheduler.cpp **** 
 355              		.loc 1 64 30 is_stmt 0
 356 01e8 03B70702 		ld	a4,32(a5)
  64:src/Scheduler.cpp **** 
 357              		.loc 1 64 22
 358 01ec 3307D700 		add	a4,a4,a3
  64:src/Scheduler.cpp **** 
 359              		.loc 1 64 9
 360 01f0 63E8E502 		bgtu	a4,a1,.L43
  87:src/Scheduler.cpp ****         prev = curr;
 361              		.loc 1 87 9 is_stmt 1
 362              	.LVL16:
  88:src/Scheduler.cpp ****         curr = curr -> next_sleepy;
 363              		.loc 1 88 9
  89:src/Scheduler.cpp ****     }
 364              		.loc 1 89 9
  87:src/Scheduler.cpp ****         prev = curr;
 365              		.loc 1 87 18 is_stmt 0
 366 01f4 93060700 		mv	a3,a4
  88:src/Scheduler.cpp ****         curr = curr -> next_sleepy;
GAS LISTING /tmp/cc4CkiQ4.s 			page 10


 367              		.loc 1 88 14
 368 01f8 13860700 		mv	a2,a5
  89:src/Scheduler.cpp ****     }
 369              		.loc 1 89 14
 370 01fc 83B70701 		ld	a5,16(a5)
 371              	.LVL17:
  62:src/Scheduler.cpp **** 
 372              		.loc 1 62 5
 373 0200 6FF05FFE 		j	.L30
 374              	.LVL18:
 375              	.L42:
  53:src/Scheduler.cpp ****         tcb -> sleeping_time = time;
 376              		.loc 1 53 9 is_stmt 1
  53:src/Scheduler.cpp ****         tcb -> sleeping_time = time;
 377              		.loc 1 53 22 is_stmt 0
 378 0204 97070000 		sd	a0,.LANCHOR0+24,a5
 378      23B0A700 
  54:src/Scheduler.cpp ****         s_yield();
 379              		.loc 1 54 9 is_stmt 1
  54:src/Scheduler.cpp ****         s_yield();
 380              		.loc 1 54 30 is_stmt 0
 381 020c 2330B502 		sd	a1,32(a0)
  55:src/Scheduler.cpp ****         return 0;
 382              		.loc 1 55 9 is_stmt 1
  55:src/Scheduler.cpp ****         return 0;
 383              		.loc 1 55 16 is_stmt 0
 384 0210 97000000 		call	_ZN9Scheduler7s_yieldEv
 384      E7800000 
 385              	.LVL19:
  56:src/Scheduler.cpp ****     }
 386              		.loc 1 56 9 is_stmt 1
  56:src/Scheduler.cpp ****     }
 387              		.loc 1 56 16 is_stmt 0
 388 0218 13050000 		li	a0,0
 389 021c 6F00C005 		j	.L29
 390              	.LVL20:
 391              	.L43:
  72:src/Scheduler.cpp ****             else first_sleepy = tcb;
 392              		.loc 1 72 13 is_stmt 1
 393 0220 63080602 		beqz	a2,.L33
  72:src/Scheduler.cpp ****             else first_sleepy = tcb;
 394              		.loc 1 72 23 discriminator 1
  72:src/Scheduler.cpp ****             else first_sleepy = tcb;
 395              		.loc 1 72 43 is_stmt 0 discriminator 1
 396 0224 2338A600 		sd	a0,16(a2)
 397              	.L34:
  75:src/Scheduler.cpp ****             tcb -> sleeping_time = time - time_sum;
 398              		.loc 1 75 13 is_stmt 1
  75:src/Scheduler.cpp ****             tcb -> sleeping_time = time - time_sum;
 399              		.loc 1 75 32 is_stmt 0
 400 0228 2338F500 		sd	a5,16(a0)
  76:src/Scheduler.cpp **** 
 401              		.loc 1 76 13 is_stmt 1
  76:src/Scheduler.cpp **** 
 402              		.loc 1 76 41 is_stmt 0
 403 022c B386D540 		sub	a3,a1,a3
 404              	.LVL21:
GAS LISTING /tmp/cc4CkiQ4.s 			page 11


  76:src/Scheduler.cpp **** 
 405              		.loc 1 76 34
 406 0230 2330D502 		sd	a3,32(a0)
  80:src/Scheduler.cpp **** 
 407              		.loc 1 80 13 is_stmt 1
  80:src/Scheduler.cpp **** 
 408              		.loc 1 80 35 is_stmt 0
 409 0234 83B50702 		ld	a1,32(a5)
 410              	.LVL22:
 411 0238 B386D540 		sub	a3,a1,a3
 412 023c 23B0D702 		sd	a3,32(a5)
  82:src/Scheduler.cpp **** 
 413              		.loc 1 82 13 is_stmt 1
  82:src/Scheduler.cpp **** 
 414              		.loc 1 82 20 is_stmt 0
 415 0240 97000000 		call	_ZN9Scheduler7s_yieldEv
 415      E7800000 
 416              	.LVL23:
  84:src/Scheduler.cpp ****         }
 417              		.loc 1 84 13 is_stmt 1
  84:src/Scheduler.cpp ****         }
 418              		.loc 1 84 20 is_stmt 0
 419 0248 13050000 		li	a0,0
 420 024c 6F00C002 		j	.L29
 421              	.LVL24:
 422              	.L33:
  73:src/Scheduler.cpp **** 
 423              		.loc 1 73 18 is_stmt 1
  73:src/Scheduler.cpp **** 
 424              		.loc 1 73 31 is_stmt 0
 425 0250 17070000 		sd	a0,.LANCHOR0+24,a4
 425      2330A700 
 426 0258 6FF01FFD 		j	.L34
 427              	.L31:
  93:src/Scheduler.cpp ****     if (prev) prev -> next_sleepy = tcb;
 428              		.loc 1 93 5 is_stmt 1
  93:src/Scheduler.cpp ****     if (prev) prev -> next_sleepy = tcb;
 429              		.loc 1 93 33 is_stmt 0
 430 025c B386D540 		sub	a3,a1,a3
 431              	.LVL25:
  93:src/Scheduler.cpp ****     if (prev) prev -> next_sleepy = tcb;
 432              		.loc 1 93 26
 433 0260 2330D502 		sd	a3,32(a0)
  94:src/Scheduler.cpp **** 
 434              		.loc 1 94 5 is_stmt 1
 435 0264 63040600 		beqz	a2,.L35
  94:src/Scheduler.cpp **** 
 436              		.loc 1 94 15 discriminator 1
  94:src/Scheduler.cpp **** 
 437              		.loc 1 94 35 is_stmt 0 discriminator 1
 438 0268 2338A600 		sd	a0,16(a2)
 439              	.L35:
  96:src/Scheduler.cpp ****     return 0;
 440              		.loc 1 96 5 is_stmt 1
  96:src/Scheduler.cpp ****     return 0;
 441              		.loc 1 96 12 is_stmt 0
 442 026c 97000000 		call	_ZN9Scheduler7s_yieldEv
GAS LISTING /tmp/cc4CkiQ4.s 			page 12


 442      E7800000 
 443              	.LVL26:
  97:src/Scheduler.cpp **** 
 444              		.loc 1 97 5 is_stmt 1
  97:src/Scheduler.cpp **** 
 445              		.loc 1 97 12 is_stmt 0
 446 0274 13050000 		li	a0,0
 447              	.L29:
 100:src/Scheduler.cpp **** 
 448              		.loc 1 100 1
 449 0278 83308100 		ld	ra,8(sp)
 450              		.cfi_restore 1
 451 027c 03340100 		ld	s0,0(sp)
 452              		.cfi_restore 8
 453              		.cfi_def_cfa 2, 16
 454 0280 13010101 		addi	sp,sp,16
 455              		.cfi_def_cfa_offset 0
 456 0284 67800000 		jr	ra
 457              	.LVL27:
 458              	.L36:
  50:src/Scheduler.cpp **** 
 459              		.loc 1 50 28
 460 0288 1305F0FF 		li	a0,-1
 461              	.LVL28:
 100:src/Scheduler.cpp **** 
 462              		.loc 1 100 1
 463 028c 67800000 		ret
 464              		.cfi_endproc
 465              	.LFE29:
 467              		.align	2
 468              		.globl	_ZN9Scheduler14init_schedulerEv
 470              	_ZN9Scheduler14init_schedulerEv:
 471              	.LFB33:
 120:src/Scheduler.cpp **** 
 121:src/Scheduler.cpp **** void Scheduler::init_scheduler() {
 472              		.loc 1 121 34 is_stmt 1
 473              		.cfi_startproc
 474 0290 130101FF 		addi	sp,sp,-16
 475              		.cfi_def_cfa_offset 16
 476 0294 23341100 		sd	ra,8(sp)
 477 0298 23308100 		sd	s0,0(sp)
 478              		.cfi_offset 1, -8
 479              		.cfi_offset 8, -16
 480 029c 13040101 		addi	s0,sp,16
 481              		.cfi_def_cfa 8, 0
 122:src/Scheduler.cpp ****     thread_create(&idle, idleWrapper, nullptr);
 482              		.loc 1 122 5
 483              		.loc 1 122 18 is_stmt 0
 484 02a0 13060000 		li	a2,0
 485 02a4 97050000 		lla	a1,_Z11idleWrapperPv
 485      93850500 
 486 02ac 17050000 		lla	a0,.LANCHOR0+8
 486      13050500 
 487 02b4 97000000 		call	_Z13thread_createPP3TCBPFvPvES2_@plt
 487      E7800000 
 488              	.LVL29:
 123:src/Scheduler.cpp **** }
GAS LISTING /tmp/cc4CkiQ4.s 			page 13


 489              		.loc 1 123 1
 490 02bc 83308100 		ld	ra,8(sp)
 491              		.cfi_restore 1
 492 02c0 03340100 		ld	s0,0(sp)
 493              		.cfi_restore 8
 494              		.cfi_def_cfa 2, 16
 495 02c4 13010101 		addi	sp,sp,16
 496              		.cfi_def_cfa_offset 0
 497 02c8 67800000 		jr	ra
 498              		.cfi_endproc
 499              	.LFE33:
 501              		.globl	_ZN9Scheduler4idleE
 502              		.globl	_ZN9Scheduler12first_sleepyE
 503              		.globl	_ZN9Scheduler4lastE
 504              		.globl	_ZN9Scheduler5firstE
 505              		.bss
 506              		.align	3
 507              		.set	.LANCHOR0,. + 0
 510              	_ZN9Scheduler5firstE:
 511 0000 00000000 		.zero	8
 511      00000000 
 514              	_ZN9Scheduler4idleE:
 515 0008 00000000 		.zero	8
 515      00000000 
 518              	_ZN9Scheduler4lastE:
 519 0010 00000000 		.zero	8
 519      00000000 
 522              	_ZN9Scheduler12first_sleepyE:
 523 0018 00000000 		.zero	8
 523      00000000 
 524              		.text
 525              	.Letext0:
 526              		.file 2 "src/../h/../lib/hw.h"
 527              		.file 3 "src/../h/../h/Memoryallocator.hpp"
 528              		.file 4 "src/../h/thread.hpp"
 529              		.file 5 "src/../h/Scheduler.hpp"
 530              		.file 6 "src/../h/../h/syscall_c.hpp"
GAS LISTING /tmp/cc4CkiQ4.s 			page 14

