GAS LISTING /tmp/cc1dmrhu.s 			page 1


   1              		.file	"Scheduler.cpp"
   2              		.option pic
   3              		.option norelax
   4              		.text
   5              	.Ltext0:
   6              		.align	2
   7              		.globl	_ZN9Scheduler3getEv
   9              	_ZN9Scheduler3getEv:
  10              	.LFB23:
  11              		.file 1 "src/Scheduler.cpp"
   1:src/Scheduler.cpp **** 
   2:src/Scheduler.cpp **** #include "../h/Scheduler.hpp"
   3:src/Scheduler.cpp **** 
   4:src/Scheduler.cpp **** TCB* Scheduler::first = nullptr;
   5:src/Scheduler.cpp **** TCB* Scheduler::last  = nullptr;
   6:src/Scheduler.cpp **** TCB* Scheduler::first_sleepy = nullptr;
   7:src/Scheduler.cpp **** 
   8:src/Scheduler.cpp **** TCB *Scheduler::get() {
  12              		.loc 1 8 23
  13              		.cfi_startproc
  14 0000 130101FF 		addi	sp,sp,-16
  15              		.cfi_def_cfa_offset 16
  16 0004 23348100 		sd	s0,8(sp)
  17              		.cfi_offset 8, -8
  18 0008 13040101 		addi	s0,sp,16
  19              		.cfi_def_cfa 8, 0
   9:src/Scheduler.cpp **** 
  10:src/Scheduler.cpp ****     if (!first) return nullptr;
  20              		.loc 1 10 5
  21              		.loc 1 10 9 is_stmt 0
  22 000c 17050000 		ld	a0,.LANCHOR0
  22      03350500 
  23              		.loc 1 10 5
  24 0014 630C0500 		beqz	a0,.L1
  11:src/Scheduler.cpp ****     TCB* tcb = first;
  25              		.loc 1 11 5 is_stmt 1
  26              	.LVL0:
  12:src/Scheduler.cpp **** 
  13:src/Scheduler.cpp ****     first = first -> next_ready;
  27              		.loc 1 13 5
  28              		.loc 1 13 22 is_stmt 0
  29 0018 83378500 		ld	a5,8(a0)
  30              		.loc 1 13 11
  31 001c 17070000 		sd	a5,.LANCHOR0,a4
  31      2330F700 
  14:src/Scheduler.cpp ****     if (!first) last = nullptr;
  32              		.loc 1 14 5 is_stmt 1
  33 0024 638A0700 		beqz	a5,.L5
  34              	.L3:
  15:src/Scheduler.cpp ****     tcb -> next_ready = nullptr;
  35              		.loc 1 15 5
  36              		.loc 1 15 23 is_stmt 0
  37 0028 23340500 		sd	zero,8(a0)
  16:src/Scheduler.cpp **** 
  17:src/Scheduler.cpp ****     return tcb;
  38              		.loc 1 17 5 is_stmt 1
  39              	.LVL1:
GAS LISTING /tmp/cc1dmrhu.s 			page 2


  40              	.L1:
  18:src/Scheduler.cpp **** }
  41              		.loc 1 18 1 is_stmt 0
  42 002c 03348100 		ld	s0,8(sp)
  43              		.cfi_remember_state
  44              		.cfi_restore 8
  45              		.cfi_def_cfa 2, 16
  46 0030 13010101 		addi	sp,sp,16
  47              		.cfi_def_cfa_offset 0
  48 0034 67800000 		jr	ra
  49              	.LVL2:
  50              	.L5:
  51              		.cfi_restore_state
  14:src/Scheduler.cpp ****     tcb -> next_ready = nullptr;
  52              		.loc 1 14 17 is_stmt 1 discriminator 1
  14:src/Scheduler.cpp ****     tcb -> next_ready = nullptr;
  53              		.loc 1 14 22 is_stmt 0 discriminator 1
  54 0038 97070000 		sd	zero,.LANCHOR0+8,a5
  54      23B00700 
  55 0040 6FF09FFE 		j	.L3
  56              		.cfi_endproc
  57              	.LFE23:
  59              		.align	2
  60              		.globl	_ZN9Scheduler3putEP3TCB
  62              	_ZN9Scheduler3putEP3TCB:
  63              	.LFB24:
  19:src/Scheduler.cpp **** 
  20:src/Scheduler.cpp **** void Scheduler::put(TCB *newTCB) {
  64              		.loc 1 20 34 is_stmt 1
  65              		.cfi_startproc
  66              	.LVL3:
  67 0044 130101FF 		addi	sp,sp,-16
  68              		.cfi_def_cfa_offset 16
  69 0048 23348100 		sd	s0,8(sp)
  70              		.cfi_offset 8, -8
  71 004c 13040101 		addi	s0,sp,16
  72              		.cfi_def_cfa 8, 0
  21:src/Scheduler.cpp **** 
  22:src/Scheduler.cpp ****     if (!first) first = last = newTCB;
  73              		.loc 1 22 5
  74              		.loc 1 22 9 is_stmt 0
  75 0050 97070000 		ld	a5,.LANCHOR0
  75      83B70700 
  76              		.loc 1 22 5
  77 0058 63820702 		beqz	a5,.L10
  23:src/Scheduler.cpp ****     else last = last -> next_ready = newTCB;
  78              		.loc 1 23 10 is_stmt 1
  79              		.loc 1 23 25 is_stmt 0
  80 005c 97070000 		lla	a5,.LANCHOR0
  80      93870700 
  81 0064 03B78700 		ld	a4,8(a5)
  82              		.loc 1 23 36
  83 0068 2334A700 		sd	a0,8(a4)
  84              		.loc 1 23 15
  85 006c 23B4A700 		sd	a0,8(a5)
  86              	.L6:
  24:src/Scheduler.cpp **** }
GAS LISTING /tmp/cc1dmrhu.s 			page 3


  87              		.loc 1 24 1
  88 0070 03348100 		ld	s0,8(sp)
  89              		.cfi_remember_state
  90              		.cfi_restore 8
  91              		.cfi_def_cfa 2, 16
  92 0074 13010101 		addi	sp,sp,16
  93              		.cfi_def_cfa_offset 0
  94 0078 67800000 		jr	ra
  95              	.L10:
  96              		.cfi_restore_state
  22:src/Scheduler.cpp ****     else last = last -> next_ready = newTCB;
  97              		.loc 1 22 17 is_stmt 1 discriminator 1
  22:src/Scheduler.cpp ****     else last = last -> next_ready = newTCB;
  98              		.loc 1 22 30 is_stmt 0 discriminator 1
  99 007c 97070000 		lla	a5,.LANCHOR0
  99      93870700 
 100 0084 23B4A700 		sd	a0,8(a5)
  22:src/Scheduler.cpp ****     else last = last -> next_ready = newTCB;
 101              		.loc 1 22 23 discriminator 1
 102 0088 23B0A700 		sd	a0,0(a5)
 103 008c 6FF05FFE 		j	.L6
 104              		.cfi_endproc
 105              	.LFE24:
 107              		.align	2
 108              		.globl	_ZN9Scheduler4peekEv
 110              	_ZN9Scheduler4peekEv:
 111              	.LFB25:
  25:src/Scheduler.cpp **** 
  26:src/Scheduler.cpp **** TCB* Scheduler::peek() {
 112              		.loc 1 26 24 is_stmt 1
 113              		.cfi_startproc
 114 0090 130101FF 		addi	sp,sp,-16
 115              		.cfi_def_cfa_offset 16
 116 0094 23348100 		sd	s0,8(sp)
 117              		.cfi_offset 8, -8
 118 0098 13040101 		addi	s0,sp,16
 119              		.cfi_def_cfa 8, 0
  27:src/Scheduler.cpp ****     if (!first) return nullptr;
 120              		.loc 1 27 5
  28:src/Scheduler.cpp ****     return first;
  29:src/Scheduler.cpp **** }
 121              		.loc 1 29 1 is_stmt 0
 122 009c 17050000 		ld	a0,.LANCHOR0
 122      03350500 
 123 00a4 03348100 		ld	s0,8(sp)
 124              		.cfi_restore 8
 125              		.cfi_def_cfa 2, 16
 126 00a8 13010101 		addi	sp,sp,16
 127              		.cfi_def_cfa_offset 0
 128 00ac 67800000 		jr	ra
 129              		.cfi_endproc
 130              	.LFE25:
 132              		.align	2
 133              		.globl	_ZN9Scheduler5emptyEv
 135              	_ZN9Scheduler5emptyEv:
 136              	.LFB26:
  30:src/Scheduler.cpp **** 
GAS LISTING /tmp/cc1dmrhu.s 			page 4


  31:src/Scheduler.cpp **** bool Scheduler::empty() {
 137              		.loc 1 31 25 is_stmt 1
 138              		.cfi_startproc
 139 00b0 130101FF 		addi	sp,sp,-16
 140              		.cfi_def_cfa_offset 16
 141 00b4 23348100 		sd	s0,8(sp)
 142              		.cfi_offset 8, -8
 143 00b8 13040101 		addi	s0,sp,16
 144              		.cfi_def_cfa 8, 0
  32:src/Scheduler.cpp ****     return first != nullptr;
 145              		.loc 1 32 5
  33:src/Scheduler.cpp **** }
 146              		.loc 1 33 1 is_stmt 0
 147 00bc 17050000 		ld	a0,.LANCHOR0
 147      03350500 
 148 00c4 3335A000 		snez	a0,a0
 149 00c8 03348100 		ld	s0,8(sp)
 150              		.cfi_restore 8
 151              		.cfi_def_cfa 2, 16
 152 00cc 13010101 		addi	sp,sp,16
 153              		.cfi_def_cfa_offset 0
 154 00d0 67800000 		jr	ra
 155              		.cfi_endproc
 156              	.LFE26:
 158              		.align	2
 159              		.globl	_ZN9SchedulernwEm
 161              	_ZN9SchedulernwEm:
 162              	.LFB28:
  34:src/Scheduler.cpp **** 
  35:src/Scheduler.cpp **** int Scheduler::time_sleep(TCB *tcb, time_t time) {
  36:src/Scheduler.cpp **** 
  37:src/Scheduler.cpp ****     if (time == 0) return -1;
  38:src/Scheduler.cpp **** 
  39:src/Scheduler.cpp ****     if (!first_sleepy) {
  40:src/Scheduler.cpp ****         first_sleepy = tcb;
  41:src/Scheduler.cpp ****         tcb -> sleeping_time = time;
  42:src/Scheduler.cpp ****         s_yield();
  43:src/Scheduler.cpp ****         return 0;
  44:src/Scheduler.cpp ****     }
  45:src/Scheduler.cpp **** 
  46:src/Scheduler.cpp ****     TCB* prev = nullptr, *curr = first_sleepy; // insert between
  47:src/Scheduler.cpp ****     time_t time_sum = 0;
  48:src/Scheduler.cpp **** 
  49:src/Scheduler.cpp ****     while (curr) {
  50:src/Scheduler.cpp **** 
  51:src/Scheduler.cpp ****         if (time_sum + curr->sleeping_time > time) {
  52:src/Scheduler.cpp **** 
  53:src/Scheduler.cpp ****             // time_sum = previous thread sleep time
  54:src/Scheduler.cpp ****             // insert new sleeping thread
  55:src/Scheduler.cpp ****             // new time  <= time - time_sum
  56:src/Scheduler.cpp ****             // new next  <= curr
  57:src/Scheduler.cpp ****             // prev next <= new
  58:src/Scheduler.cpp **** 
  59:src/Scheduler.cpp ****             if (prev) prev -> next_sleepy = tcb;
  60:src/Scheduler.cpp ****             else first_sleepy = tcb;
  61:src/Scheduler.cpp **** 
  62:src/Scheduler.cpp ****             tcb -> next_sleepy = curr;
GAS LISTING /tmp/cc1dmrhu.s 			page 5


  63:src/Scheduler.cpp ****             tcb -> sleeping_time = time - time_sum;
  64:src/Scheduler.cpp **** 
  65:src/Scheduler.cpp ****             // change next time (curr)
  66:src/Scheduler.cpp **** 
  67:src/Scheduler.cpp ****             curr -> sleeping_time -= tcb -> sleeping_time;
  68:src/Scheduler.cpp **** 
  69:src/Scheduler.cpp ****             s_yield();
  70:src/Scheduler.cpp **** 
  71:src/Scheduler.cpp ****             return 0;
  72:src/Scheduler.cpp ****         }
  73:src/Scheduler.cpp **** 
  74:src/Scheduler.cpp ****         time_sum += curr -> sleeping_time;
  75:src/Scheduler.cpp ****         prev = curr;
  76:src/Scheduler.cpp ****         curr = curr -> next_sleepy;
  77:src/Scheduler.cpp ****     }
  78:src/Scheduler.cpp **** 
  79:src/Scheduler.cpp ****     // insert at the end, has previous
  80:src/Scheduler.cpp ****     tcb -> sleeping_time = time - time_sum;
  81:src/Scheduler.cpp ****     if (prev) prev -> next_sleepy = tcb;
  82:src/Scheduler.cpp **** 
  83:src/Scheduler.cpp ****     s_yield();
  84:src/Scheduler.cpp ****     return 0;
  85:src/Scheduler.cpp **** 
  86:src/Scheduler.cpp **** 
  87:src/Scheduler.cpp **** }
  88:src/Scheduler.cpp **** 
  89:src/Scheduler.cpp **** void *Scheduler::operator new(size_t size) {
 163              		.loc 1 89 44 is_stmt 1
 164              		.cfi_startproc
 165              	.LVL4:
 166 00d4 130101FF 		addi	sp,sp,-16
 167              		.cfi_def_cfa_offset 16
 168 00d8 23341100 		sd	ra,8(sp)
 169 00dc 23308100 		sd	s0,0(sp)
 170              		.cfi_offset 1, -8
 171              		.cfi_offset 8, -16
 172 00e0 13040101 		addi	s0,sp,16
 173              		.cfi_def_cfa 8, 0
  90:src/Scheduler.cpp ****     size_t blocks = (size + sizeof(MemoryAllocator::MemoryBlock) + MEM_BLOCK_SIZE - 1) / MEM_BLOCK_
 174              		.loc 1 90 5
 175              		.loc 1 90 83 is_stmt 0
 176 00e4 13057505 		addi	a0,a0,87
 177              	.LVL5:
  91:src/Scheduler.cpp ****     return MemoryAllocator::mem_alloc(blocks);
 178              		.loc 1 91 5 is_stmt 1
 179              		.loc 1 91 38 is_stmt 0
 180 00e8 13556500 		srli	a0,a0,6
 181              	.LVL6:
 182 00ec 97000000 		call	_ZN15MemoryAllocator9mem_allocEm@plt
 182      E7800000 
 183              	.LVL7:
  92:src/Scheduler.cpp **** }
 184              		.loc 1 92 1
 185 00f4 83308100 		ld	ra,8(sp)
 186              		.cfi_restore 1
 187 00f8 03340100 		ld	s0,0(sp)
 188              		.cfi_restore 8
GAS LISTING /tmp/cc1dmrhu.s 			page 6


 189              		.cfi_def_cfa 2, 16
 190 00fc 13010101 		addi	sp,sp,16
 191              		.cfi_def_cfa_offset 0
 192 0100 67800000 		jr	ra
 193              		.cfi_endproc
 194              	.LFE28:
 196              		.align	2
 197              		.globl	_ZN9SchedulerdlEPv
 199              	_ZN9SchedulerdlEPv:
 200              	.LFB29:
  93:src/Scheduler.cpp **** 
  94:src/Scheduler.cpp **** void Scheduler::operator delete(void *ptr) {
 201              		.loc 1 94 44 is_stmt 1
 202              		.cfi_startproc
 203              	.LVL8:
 204 0104 130101FF 		addi	sp,sp,-16
 205              		.cfi_def_cfa_offset 16
 206 0108 23341100 		sd	ra,8(sp)
 207 010c 23308100 		sd	s0,0(sp)
 208              		.cfi_offset 1, -8
 209              		.cfi_offset 8, -16
 210 0110 13040101 		addi	s0,sp,16
 211              		.cfi_def_cfa 8, 0
  95:src/Scheduler.cpp ****     MemoryAllocator::mem_free(ptr);
 212              		.loc 1 95 5
 213              		.loc 1 95 30 is_stmt 0
 214 0114 97000000 		call	_ZN15MemoryAllocator8mem_freeEPv@plt
 214      E7800000 
 215              	.LVL9:
  96:src/Scheduler.cpp **** }
 216              		.loc 1 96 1
 217 011c 83308100 		ld	ra,8(sp)
 218              		.cfi_restore 1
 219 0120 03340100 		ld	s0,0(sp)
 220              		.cfi_restore 8
 221              		.cfi_def_cfa 2, 16
 222 0124 13010101 		addi	sp,sp,16
 223              		.cfi_def_cfa_offset 0
 224 0128 67800000 		jr	ra
 225              		.cfi_endproc
 226              	.LFE29:
 228              		.align	2
 229              		.globl	_ZN9Scheduler7s_yieldEv
 231              	_ZN9Scheduler7s_yieldEv:
 232              	.LFB30:
  97:src/Scheduler.cpp **** 
  98:src/Scheduler.cpp **** void Scheduler::s_yield() {
 233              		.loc 1 98 27 is_stmt 1
 234              		.cfi_startproc
 235 012c 130101FE 		addi	sp,sp,-32
 236              		.cfi_def_cfa_offset 32
 237 0130 233C1100 		sd	ra,24(sp)
 238 0134 23388100 		sd	s0,16(sp)
 239 0138 23349100 		sd	s1,8(sp)
 240 013c 23302101 		sd	s2,0(sp)
 241              		.cfi_offset 1, -8
 242              		.cfi_offset 8, -16
GAS LISTING /tmp/cc1dmrhu.s 			page 7


 243              		.cfi_offset 9, -24
 244              		.cfi_offset 18, -32
 245 0140 13040102 		addi	s0,sp,32
 246              		.cfi_def_cfa 8, 0
  99:src/Scheduler.cpp **** 
 100:src/Scheduler.cpp ****     TCB* oldRunning = TCB::running;
 247              		.loc 1 100 5
 248              		.loc 1 100 10 is_stmt 0
 249 0144 17090000 		la	s2,_ZN3TCB7runningE
 249      03390900 
 250 014c 83340900 		ld	s1,0(s2)
 251              	.LVL10:
 101:src/Scheduler.cpp ****     oldRunning -> current_state = TCB::SLEEPING;
 252              		.loc 1 101 5 is_stmt 1
 253              		.loc 1 101 33 is_stmt 0
 254 0150 93071000 		li	a5,1
 255 0154 23A4F406 		sw	a5,104(s1)
 102:src/Scheduler.cpp **** 
 103:src/Scheduler.cpp ****     TCB::running = get(); // Scheduler::get
 256              		.loc 1 103 5 is_stmt 1
 257              		.loc 1 103 23 is_stmt 0
 258 0158 97000000 		call	_ZN9Scheduler3getEv
 258      E7800000 
 259              	.LVL11:
 260 0160 93050500 		mv	a1,a0
 261              		.loc 1 103 18
 262 0164 2330A900 		sd	a0,0(s2)
 104:src/Scheduler.cpp ****     TCB::yield(oldRunning, TCB::running);
 263              		.loc 1 104 5 is_stmt 1
 264              		.loc 1 104 15 is_stmt 0
 265 0168 13850400 		mv	a0,s1
 266 016c 97000000 		call	_ZN3TCB5yieldEPS_S0_@plt
 266      E7800000 
 267              	.LVL12:
 105:src/Scheduler.cpp **** 
 106:src/Scheduler.cpp **** }
 268              		.loc 1 106 1
 269 0174 83308101 		ld	ra,24(sp)
 270              		.cfi_restore 1
 271 0178 03340101 		ld	s0,16(sp)
 272              		.cfi_restore 8
 273              		.cfi_def_cfa 2, 32
 274 017c 83348100 		ld	s1,8(sp)
 275              		.cfi_restore 9
 276              	.LVL13:
 277 0180 03390100 		ld	s2,0(sp)
 278              		.cfi_restore 18
 279 0184 13010102 		addi	sp,sp,32
 280              		.cfi_def_cfa_offset 0
 281 0188 67800000 		jr	ra
 282              		.cfi_endproc
 283              	.LFE30:
 285              		.align	2
 286              		.globl	_ZN9Scheduler10time_sleepEP3TCBm
 288              	_ZN9Scheduler10time_sleepEP3TCBm:
 289              	.LFB27:
  35:src/Scheduler.cpp **** 
GAS LISTING /tmp/cc1dmrhu.s 			page 8


 290              		.loc 1 35 50 is_stmt 1
 291              		.cfi_startproc
 292              	.LVL14:
  37:src/Scheduler.cpp **** 
 293              		.loc 1 37 5
 294 018c 6386050C 		beqz	a1,.L29
  35:src/Scheduler.cpp **** 
 295              		.loc 1 35 50 is_stmt 0
 296 0190 130101FF 		addi	sp,sp,-16
 297              		.cfi_def_cfa_offset 16
 298 0194 23341100 		sd	ra,8(sp)
 299 0198 23308100 		sd	s0,0(sp)
 300              		.cfi_offset 1, -8
 301              		.cfi_offset 8, -16
 302 019c 13040101 		addi	s0,sp,16
 303              		.cfi_def_cfa 8, 0
  39:src/Scheduler.cpp ****         first_sleepy = tcb;
 304              		.loc 1 39 5 is_stmt 1
  39:src/Scheduler.cpp ****         first_sleepy = tcb;
 305              		.loc 1 39 9 is_stmt 0
 306 01a0 97070000 		ld	a5,.LANCHOR0+16
 306      83B70700 
  39:src/Scheduler.cpp ****         first_sleepy = tcb;
 307              		.loc 1 39 5
 308 01a8 63860702 		beqz	a5,.L35
  47:src/Scheduler.cpp **** 
 309              		.loc 1 47 12
 310 01ac 93060000 		li	a3,0
  46:src/Scheduler.cpp ****     time_t time_sum = 0;
 311              		.loc 1 46 10
 312 01b0 13060000 		li	a2,0
 313              	.L23:
 314              	.LVL15:
  49:src/Scheduler.cpp **** 
 315              		.loc 1 49 5 is_stmt 1
  49:src/Scheduler.cpp **** 
 316              		.loc 1 49 12
 317 01b4 638C0706 		beqz	a5,.L24
  51:src/Scheduler.cpp **** 
 318              		.loc 1 51 9
  51:src/Scheduler.cpp **** 
 319              		.loc 1 51 30 is_stmt 0
 320 01b8 03B70702 		ld	a4,32(a5)
  51:src/Scheduler.cpp **** 
 321              		.loc 1 51 22
 322 01bc 3307D700 		add	a4,a4,a3
  51:src/Scheduler.cpp **** 
 323              		.loc 1 51 9
 324 01c0 63E8E502 		bgtu	a4,a1,.L36
  74:src/Scheduler.cpp ****         prev = curr;
 325              		.loc 1 74 9 is_stmt 1
 326              	.LVL16:
  75:src/Scheduler.cpp ****         curr = curr -> next_sleepy;
 327              		.loc 1 75 9
  76:src/Scheduler.cpp ****     }
 328              		.loc 1 76 9
  74:src/Scheduler.cpp ****         prev = curr;
GAS LISTING /tmp/cc1dmrhu.s 			page 9


 329              		.loc 1 74 18 is_stmt 0
 330 01c4 93060700 		mv	a3,a4
  75:src/Scheduler.cpp ****         curr = curr -> next_sleepy;
 331              		.loc 1 75 14
 332 01c8 13860700 		mv	a2,a5
  76:src/Scheduler.cpp ****     }
 333              		.loc 1 76 14
 334 01cc 83B70701 		ld	a5,16(a5)
 335              	.LVL17:
  49:src/Scheduler.cpp **** 
 336              		.loc 1 49 5
 337 01d0 6FF05FFE 		j	.L23
 338              	.LVL18:
 339              	.L35:
  40:src/Scheduler.cpp ****         tcb -> sleeping_time = time;
 340              		.loc 1 40 9 is_stmt 1
  40:src/Scheduler.cpp ****         tcb -> sleeping_time = time;
 341              		.loc 1 40 22 is_stmt 0
 342 01d4 97070000 		sd	a0,.LANCHOR0+16,a5
 342      23B0A700 
  41:src/Scheduler.cpp ****         s_yield();
 343              		.loc 1 41 9 is_stmt 1
  41:src/Scheduler.cpp ****         s_yield();
 344              		.loc 1 41 30 is_stmt 0
 345 01dc 2330B502 		sd	a1,32(a0)
  42:src/Scheduler.cpp ****         return 0;
 346              		.loc 1 42 9 is_stmt 1
  42:src/Scheduler.cpp ****         return 0;
 347              		.loc 1 42 16 is_stmt 0
 348 01e0 97000000 		call	_ZN9Scheduler7s_yieldEv
 348      E7800000 
 349              	.LVL19:
  43:src/Scheduler.cpp ****     }
 350              		.loc 1 43 9 is_stmt 1
  43:src/Scheduler.cpp ****     }
 351              		.loc 1 43 16 is_stmt 0
 352 01e8 13050000 		li	a0,0
 353 01ec 6F00C005 		j	.L22
 354              	.LVL20:
 355              	.L36:
  59:src/Scheduler.cpp ****             else first_sleepy = tcb;
 356              		.loc 1 59 13 is_stmt 1
 357 01f0 63080602 		beqz	a2,.L26
  59:src/Scheduler.cpp ****             else first_sleepy = tcb;
 358              		.loc 1 59 23 discriminator 1
  59:src/Scheduler.cpp ****             else first_sleepy = tcb;
 359              		.loc 1 59 43 is_stmt 0 discriminator 1
 360 01f4 2338A600 		sd	a0,16(a2)
 361              	.L27:
  62:src/Scheduler.cpp ****             tcb -> sleeping_time = time - time_sum;
 362              		.loc 1 62 13 is_stmt 1
  62:src/Scheduler.cpp ****             tcb -> sleeping_time = time - time_sum;
 363              		.loc 1 62 32 is_stmt 0
 364 01f8 2338F500 		sd	a5,16(a0)
  63:src/Scheduler.cpp **** 
 365              		.loc 1 63 13 is_stmt 1
  63:src/Scheduler.cpp **** 
GAS LISTING /tmp/cc1dmrhu.s 			page 10


 366              		.loc 1 63 41 is_stmt 0
 367 01fc B386D540 		sub	a3,a1,a3
 368              	.LVL21:
  63:src/Scheduler.cpp **** 
 369              		.loc 1 63 34
 370 0200 2330D502 		sd	a3,32(a0)
  67:src/Scheduler.cpp **** 
 371              		.loc 1 67 13 is_stmt 1
  67:src/Scheduler.cpp **** 
 372              		.loc 1 67 35 is_stmt 0
 373 0204 83B50702 		ld	a1,32(a5)
 374              	.LVL22:
 375 0208 B386D540 		sub	a3,a1,a3
 376 020c 23B0D702 		sd	a3,32(a5)
  69:src/Scheduler.cpp **** 
 377              		.loc 1 69 13 is_stmt 1
  69:src/Scheduler.cpp **** 
 378              		.loc 1 69 20 is_stmt 0
 379 0210 97000000 		call	_ZN9Scheduler7s_yieldEv
 379      E7800000 
 380              	.LVL23:
  71:src/Scheduler.cpp ****         }
 381              		.loc 1 71 13 is_stmt 1
  71:src/Scheduler.cpp ****         }
 382              		.loc 1 71 20 is_stmt 0
 383 0218 13050000 		li	a0,0
 384 021c 6F00C002 		j	.L22
 385              	.LVL24:
 386              	.L26:
  60:src/Scheduler.cpp **** 
 387              		.loc 1 60 18 is_stmt 1
  60:src/Scheduler.cpp **** 
 388              		.loc 1 60 31 is_stmt 0
 389 0220 17070000 		sd	a0,.LANCHOR0+16,a4
 389      2330A700 
 390 0228 6FF01FFD 		j	.L27
 391              	.L24:
  80:src/Scheduler.cpp ****     if (prev) prev -> next_sleepy = tcb;
 392              		.loc 1 80 5 is_stmt 1
  80:src/Scheduler.cpp ****     if (prev) prev -> next_sleepy = tcb;
 393              		.loc 1 80 33 is_stmt 0
 394 022c B386D540 		sub	a3,a1,a3
 395              	.LVL25:
  80:src/Scheduler.cpp ****     if (prev) prev -> next_sleepy = tcb;
 396              		.loc 1 80 26
 397 0230 2330D502 		sd	a3,32(a0)
  81:src/Scheduler.cpp **** 
 398              		.loc 1 81 5 is_stmt 1
 399 0234 63040600 		beqz	a2,.L28
  81:src/Scheduler.cpp **** 
 400              		.loc 1 81 15 discriminator 1
  81:src/Scheduler.cpp **** 
 401              		.loc 1 81 35 is_stmt 0 discriminator 1
 402 0238 2338A600 		sd	a0,16(a2)
 403              	.L28:
  83:src/Scheduler.cpp ****     return 0;
 404              		.loc 1 83 5 is_stmt 1
GAS LISTING /tmp/cc1dmrhu.s 			page 11


  83:src/Scheduler.cpp ****     return 0;
 405              		.loc 1 83 12 is_stmt 0
 406 023c 97000000 		call	_ZN9Scheduler7s_yieldEv
 406      E7800000 
 407              	.LVL26:
  84:src/Scheduler.cpp **** 
 408              		.loc 1 84 5 is_stmt 1
  84:src/Scheduler.cpp **** 
 409              		.loc 1 84 12 is_stmt 0
 410 0244 13050000 		li	a0,0
 411              	.L22:
  87:src/Scheduler.cpp **** 
 412              		.loc 1 87 1
 413 0248 83308100 		ld	ra,8(sp)
 414              		.cfi_restore 1
 415 024c 03340100 		ld	s0,0(sp)
 416              		.cfi_restore 8
 417              		.cfi_def_cfa 2, 16
 418 0250 13010101 		addi	sp,sp,16
 419              		.cfi_def_cfa_offset 0
 420 0254 67800000 		jr	ra
 421              	.LVL27:
 422              	.L29:
  37:src/Scheduler.cpp **** 
 423              		.loc 1 37 28
 424 0258 1305F0FF 		li	a0,-1
 425              	.LVL28:
  87:src/Scheduler.cpp **** 
 426              		.loc 1 87 1
 427 025c 67800000 		ret
 428              		.cfi_endproc
 429              	.LFE27:
 431              		.globl	_ZN9Scheduler12first_sleepyE
 432              		.globl	_ZN9Scheduler4lastE
 433              		.globl	_ZN9Scheduler5firstE
 434              		.bss
 435              		.align	3
 436              		.set	.LANCHOR0,. + 0
 439              	_ZN9Scheduler5firstE:
 440 0000 00000000 		.zero	8
 440      00000000 
 443              	_ZN9Scheduler4lastE:
 444 0008 00000000 		.zero	8
 444      00000000 
 447              	_ZN9Scheduler12first_sleepyE:
 448 0010 00000000 		.zero	8
 448      00000000 
 449              		.text
 450              	.Letext0:
 451              		.file 2 "src/../h/../lib/hw.h"
 452              		.file 3 "src/../h/../h/Memoryallocator.hpp"
 453              		.file 4 "src/../h/thread.hpp"
 454              		.file 5 "src/../h/Scheduler.hpp"
 455              		.file 6 "src/../h/../h/syscall_c.hpp"
GAS LISTING /tmp/cc1dmrhu.s 			page 12


DEFINED SYMBOLS
                            *ABS*:0000000000000000 Scheduler.cpp
     /tmp/cc1dmrhu.s:9      .text:0000000000000000 _ZN9Scheduler3getEv
     /tmp/cc1dmrhu.s:13     .text:0000000000000000 .L0 
     /tmp/cc1dmrhu.s:14     .text:0000000000000000 .L0 
     /tmp/cc1dmrhu.s:15     .text:0000000000000004 .L0 
     /tmp/cc1dmrhu.s:17     .text:0000000000000008 .L0 
     /tmp/cc1dmrhu.s:19     .text:000000000000000c .L0 
     /tmp/cc1dmrhu.s:21     .text:000000000000000c .L0 
     /tmp/cc1dmrhu.s:22     .text:000000000000000c .L0 
     /tmp/cc1dmrhu.s:24     .text:0000000000000014 .L0 
     /tmp/cc1dmrhu.s:27     .text:0000000000000018 .L0 
     /tmp/cc1dmrhu.s:28     .text:0000000000000018 .L0 
     /tmp/cc1dmrhu.s:29     .text:0000000000000018 .L0 
     /tmp/cc1dmrhu.s:31     .text:000000000000001c .L0 
     /tmp/cc1dmrhu.s:33     .text:0000000000000024 .L0 
     /tmp/cc1dmrhu.s:36     .text:0000000000000028 .L0 
     /tmp/cc1dmrhu.s:37     .text:0000000000000028 .L0 
     /tmp/cc1dmrhu.s:41     .text:000000000000002c .L0 
     /tmp/cc1dmrhu.s:42     .text:000000000000002c .L0 
     /tmp/cc1dmrhu.s:43     .text:0000000000000030 .L0 
     /tmp/cc1dmrhu.s:44     .text:0000000000000030 .L0 
     /tmp/cc1dmrhu.s:45     .text:0000000000000030 .L0 
     /tmp/cc1dmrhu.s:47     .text:0000000000000034 .L0 
     /tmp/cc1dmrhu.s:51     .text:0000000000000038 .L0 
     /tmp/cc1dmrhu.s:53     .text:0000000000000038 .L0 
     /tmp/cc1dmrhu.s:54     .text:0000000000000038 .L0 
     /tmp/cc1dmrhu.s:56     .text:0000000000000044 .L0 
     /tmp/cc1dmrhu.s:62     .text:0000000000000044 _ZN9Scheduler3putEP3TCB
     /tmp/cc1dmrhu.s:65     .text:0000000000000044 .L0 
     /tmp/cc1dmrhu.s:67     .text:0000000000000044 .L0 
     /tmp/cc1dmrhu.s:68     .text:0000000000000048 .L0 
     /tmp/cc1dmrhu.s:70     .text:000000000000004c .L0 
     /tmp/cc1dmrhu.s:72     .text:0000000000000050 .L0 
     /tmp/cc1dmrhu.s:74     .text:0000000000000050 .L0 
     /tmp/cc1dmrhu.s:75     .text:0000000000000050 .L0 
     /tmp/cc1dmrhu.s:77     .text:0000000000000058 .L0 
     /tmp/cc1dmrhu.s:79     .text:000000000000005c .L0 
     /tmp/cc1dmrhu.s:80     .text:000000000000005c .L0 
     /tmp/cc1dmrhu.s:83     .text:0000000000000068 .L0 
     /tmp/cc1dmrhu.s:85     .text:000000000000006c .L0 
     /tmp/cc1dmrhu.s:88     .text:0000000000000070 .L0 
     /tmp/cc1dmrhu.s:89     .text:0000000000000074 .L0 
     /tmp/cc1dmrhu.s:90     .text:0000000000000074 .L0 
     /tmp/cc1dmrhu.s:91     .text:0000000000000074 .L0 
     /tmp/cc1dmrhu.s:93     .text:0000000000000078 .L0 
     /tmp/cc1dmrhu.s:96     .text:000000000000007c .L0 
     /tmp/cc1dmrhu.s:98     .text:000000000000007c .L0 
     /tmp/cc1dmrhu.s:99     .text:000000000000007c .L0 
     /tmp/cc1dmrhu.s:102    .text:0000000000000088 .L0 
     /tmp/cc1dmrhu.s:104    .text:0000000000000090 .L0 
     /tmp/cc1dmrhu.s:110    .text:0000000000000090 _ZN9Scheduler4peekEv
     /tmp/cc1dmrhu.s:113    .text:0000000000000090 .L0 
     /tmp/cc1dmrhu.s:114    .text:0000000000000090 .L0 
     /tmp/cc1dmrhu.s:115    .text:0000000000000094 .L0 
     /tmp/cc1dmrhu.s:117    .text:0000000000000098 .L0 
     /tmp/cc1dmrhu.s:119    .text:000000000000009c .L0 
GAS LISTING /tmp/cc1dmrhu.s 			page 13


     /tmp/cc1dmrhu.s:121    .text:000000000000009c .L0 
     /tmp/cc1dmrhu.s:122    .text:000000000000009c .L0 
     /tmp/cc1dmrhu.s:124    .text:00000000000000a8 .L0 
     /tmp/cc1dmrhu.s:125    .text:00000000000000a8 .L0 
     /tmp/cc1dmrhu.s:127    .text:00000000000000ac .L0 
     /tmp/cc1dmrhu.s:129    .text:00000000000000b0 .L0 
     /tmp/cc1dmrhu.s:135    .text:00000000000000b0 _ZN9Scheduler5emptyEv
     /tmp/cc1dmrhu.s:138    .text:00000000000000b0 .L0 
     /tmp/cc1dmrhu.s:139    .text:00000000000000b0 .L0 
     /tmp/cc1dmrhu.s:140    .text:00000000000000b4 .L0 
     /tmp/cc1dmrhu.s:142    .text:00000000000000b8 .L0 
     /tmp/cc1dmrhu.s:144    .text:00000000000000bc .L0 
     /tmp/cc1dmrhu.s:146    .text:00000000000000bc .L0 
     /tmp/cc1dmrhu.s:147    .text:00000000000000bc .L0 
     /tmp/cc1dmrhu.s:150    .text:00000000000000cc .L0 
     /tmp/cc1dmrhu.s:151    .text:00000000000000cc .L0 
     /tmp/cc1dmrhu.s:153    .text:00000000000000d0 .L0 
     /tmp/cc1dmrhu.s:155    .text:00000000000000d4 .L0 
     /tmp/cc1dmrhu.s:161    .text:00000000000000d4 _ZN9SchedulernwEm
     /tmp/cc1dmrhu.s:164    .text:00000000000000d4 .L0 
     /tmp/cc1dmrhu.s:166    .text:00000000000000d4 .L0 
     /tmp/cc1dmrhu.s:167    .text:00000000000000d8 .L0 
     /tmp/cc1dmrhu.s:170    .text:00000000000000e0 .L0 
     /tmp/cc1dmrhu.s:171    .text:00000000000000e0 .L0 
     /tmp/cc1dmrhu.s:173    .text:00000000000000e4 .L0 
     /tmp/cc1dmrhu.s:175    .text:00000000000000e4 .L0 
     /tmp/cc1dmrhu.s:176    .text:00000000000000e4 .L0 
     /tmp/cc1dmrhu.s:179    .text:00000000000000e8 .L0 
     /tmp/cc1dmrhu.s:180    .text:00000000000000e8 .L0 
     /tmp/cc1dmrhu.s:185    .text:00000000000000f4 .L0 
     /tmp/cc1dmrhu.s:186    .text:00000000000000f8 .L0 
     /tmp/cc1dmrhu.s:188    .text:00000000000000fc .L0 
     /tmp/cc1dmrhu.s:189    .text:00000000000000fc .L0 
     /tmp/cc1dmrhu.s:191    .text:0000000000000100 .L0 
     /tmp/cc1dmrhu.s:193    .text:0000000000000104 .L0 
     /tmp/cc1dmrhu.s:199    .text:0000000000000104 _ZN9SchedulerdlEPv
     /tmp/cc1dmrhu.s:202    .text:0000000000000104 .L0 
     /tmp/cc1dmrhu.s:204    .text:0000000000000104 .L0 
     /tmp/cc1dmrhu.s:205    .text:0000000000000108 .L0 
     /tmp/cc1dmrhu.s:208    .text:0000000000000110 .L0 
     /tmp/cc1dmrhu.s:209    .text:0000000000000110 .L0 
     /tmp/cc1dmrhu.s:211    .text:0000000000000114 .L0 
     /tmp/cc1dmrhu.s:213    .text:0000000000000114 .L0 
     /tmp/cc1dmrhu.s:214    .text:0000000000000114 .L0 
     /tmp/cc1dmrhu.s:217    .text:000000000000011c .L0 
     /tmp/cc1dmrhu.s:218    .text:0000000000000120 .L0 
     /tmp/cc1dmrhu.s:220    .text:0000000000000124 .L0 
     /tmp/cc1dmrhu.s:221    .text:0000000000000124 .L0 
     /tmp/cc1dmrhu.s:223    .text:0000000000000128 .L0 
     /tmp/cc1dmrhu.s:225    .text:000000000000012c .L0 
     /tmp/cc1dmrhu.s:231    .text:000000000000012c _ZN9Scheduler7s_yieldEv
     /tmp/cc1dmrhu.s:234    .text:000000000000012c .L0 
     /tmp/cc1dmrhu.s:235    .text:000000000000012c .L0 
     /tmp/cc1dmrhu.s:236    .text:0000000000000130 .L0 
     /tmp/cc1dmrhu.s:241    .text:0000000000000140 .L0 
     /tmp/cc1dmrhu.s:242    .text:0000000000000140 .L0 
     /tmp/cc1dmrhu.s:243    .text:0000000000000140 .L0 
GAS LISTING /tmp/cc1dmrhu.s 			page 14


     /tmp/cc1dmrhu.s:244    .text:0000000000000140 .L0 
     /tmp/cc1dmrhu.s:246    .text:0000000000000144 .L0 
     /tmp/cc1dmrhu.s:248    .text:0000000000000144 .L0 
     /tmp/cc1dmrhu.s:249    .text:0000000000000144 .L0 
     /tmp/cc1dmrhu.s:253    .text:0000000000000150 .L0 
     /tmp/cc1dmrhu.s:254    .text:0000000000000150 .L0 
     /tmp/cc1dmrhu.s:257    .text:0000000000000158 .L0 
     /tmp/cc1dmrhu.s:258    .text:0000000000000158 .L0 
     /tmp/cc1dmrhu.s:262    .text:0000000000000164 .L0 
     /tmp/cc1dmrhu.s:264    .text:0000000000000168 .L0 
     /tmp/cc1dmrhu.s:265    .text:0000000000000168 .L0 
     /tmp/cc1dmrhu.s:269    .text:0000000000000174 .L0 
     /tmp/cc1dmrhu.s:270    .text:0000000000000178 .L0 
     /tmp/cc1dmrhu.s:272    .text:000000000000017c .L0 
     /tmp/cc1dmrhu.s:273    .text:000000000000017c .L0 
     /tmp/cc1dmrhu.s:275    .text:0000000000000180 .L0 
     /tmp/cc1dmrhu.s:278    .text:0000000000000184 .L0 
     /tmp/cc1dmrhu.s:280    .text:0000000000000188 .L0 
     /tmp/cc1dmrhu.s:282    .text:000000000000018c .L0 
     /tmp/cc1dmrhu.s:288    .text:000000000000018c _ZN9Scheduler10time_sleepEP3TCBm
     /tmp/cc1dmrhu.s:291    .text:000000000000018c .L0 
     /tmp/cc1dmrhu.s:293    .text:000000000000018c .L0 
     /tmp/cc1dmrhu.s:294    .text:000000000000018c .L0 
     /tmp/cc1dmrhu.s:296    .text:0000000000000190 .L0 
     /tmp/cc1dmrhu.s:297    .text:0000000000000194 .L0 
     /tmp/cc1dmrhu.s:300    .text:000000000000019c .L0 
     /tmp/cc1dmrhu.s:301    .text:000000000000019c .L0 
     /tmp/cc1dmrhu.s:303    .text:00000000000001a0 .L0 
     /tmp/cc1dmrhu.s:305    .text:00000000000001a0 .L0 
     /tmp/cc1dmrhu.s:306    .text:00000000000001a0 .L0 
     /tmp/cc1dmrhu.s:308    .text:00000000000001a8 .L0 
     /tmp/cc1dmrhu.s:310    .text:00000000000001ac .L0 
     /tmp/cc1dmrhu.s:312    .text:00000000000001b0 .L0 
     /tmp/cc1dmrhu.s:316    .text:00000000000001b4 .L0 
     /tmp/cc1dmrhu.s:317    .text:00000000000001b4 .L0 
     /tmp/cc1dmrhu.s:319    .text:00000000000001b8 .L0 
     /tmp/cc1dmrhu.s:320    .text:00000000000001b8 .L0 
     /tmp/cc1dmrhu.s:322    .text:00000000000001bc .L0 
     /tmp/cc1dmrhu.s:324    .text:00000000000001c0 .L0 
     /tmp/cc1dmrhu.s:327    .text:00000000000001c4 .L0 
     /tmp/cc1dmrhu.s:328    .text:00000000000001c4 .L0 
     /tmp/cc1dmrhu.s:329    .text:00000000000001c4 .L0 
     /tmp/cc1dmrhu.s:330    .text:00000000000001c4 .L0 
     /tmp/cc1dmrhu.s:332    .text:00000000000001c8 .L0 
     /tmp/cc1dmrhu.s:334    .text:00000000000001cc .L0 
     /tmp/cc1dmrhu.s:337    .text:00000000000001d0 .L0 
     /tmp/cc1dmrhu.s:341    .text:00000000000001d4 .L0 
     /tmp/cc1dmrhu.s:342    .text:00000000000001d4 .L0 
     /tmp/cc1dmrhu.s:344    .text:00000000000001dc .L0 
     /tmp/cc1dmrhu.s:345    .text:00000000000001dc .L0 
     /tmp/cc1dmrhu.s:347    .text:00000000000001e0 .L0 
     /tmp/cc1dmrhu.s:348    .text:00000000000001e0 .L0 
     /tmp/cc1dmrhu.s:351    .text:00000000000001e8 .L0 
     /tmp/cc1dmrhu.s:352    .text:00000000000001e8 .L0 
     /tmp/cc1dmrhu.s:357    .text:00000000000001f0 .L0 
     /tmp/cc1dmrhu.s:359    .text:00000000000001f4 .L0 
     /tmp/cc1dmrhu.s:360    .text:00000000000001f4 .L0 
GAS LISTING /tmp/cc1dmrhu.s 			page 15


     /tmp/cc1dmrhu.s:363    .text:00000000000001f8 .L0 
     /tmp/cc1dmrhu.s:364    .text:00000000000001f8 .L0 
     /tmp/cc1dmrhu.s:366    .text:00000000000001fc .L0 
     /tmp/cc1dmrhu.s:367    .text:00000000000001fc .L0 
     /tmp/cc1dmrhu.s:370    .text:0000000000000200 .L0 
     /tmp/cc1dmrhu.s:372    .text:0000000000000204 .L0 
     /tmp/cc1dmrhu.s:373    .text:0000000000000204 .L0 
     /tmp/cc1dmrhu.s:378    .text:0000000000000210 .L0 
     /tmp/cc1dmrhu.s:379    .text:0000000000000210 .L0 
     /tmp/cc1dmrhu.s:382    .text:0000000000000218 .L0 
     /tmp/cc1dmrhu.s:383    .text:0000000000000218 .L0 
     /tmp/cc1dmrhu.s:388    .text:0000000000000220 .L0 
     /tmp/cc1dmrhu.s:389    .text:0000000000000220 .L0 
     /tmp/cc1dmrhu.s:393    .text:000000000000022c .L0 
     /tmp/cc1dmrhu.s:394    .text:000000000000022c .L0 
     /tmp/cc1dmrhu.s:397    .text:0000000000000230 .L0 
     /tmp/cc1dmrhu.s:399    .text:0000000000000234 .L0 
     /tmp/cc1dmrhu.s:401    .text:0000000000000238 .L0 
     /tmp/cc1dmrhu.s:402    .text:0000000000000238 .L0 
     /tmp/cc1dmrhu.s:405    .text:000000000000023c .L0 
     /tmp/cc1dmrhu.s:406    .text:000000000000023c .L0 
     /tmp/cc1dmrhu.s:409    .text:0000000000000244 .L0 
     /tmp/cc1dmrhu.s:410    .text:0000000000000244 .L0 
     /tmp/cc1dmrhu.s:413    .text:0000000000000248 .L0 
     /tmp/cc1dmrhu.s:414    .text:000000000000024c .L0 
     /tmp/cc1dmrhu.s:416    .text:0000000000000250 .L0 
     /tmp/cc1dmrhu.s:417    .text:0000000000000250 .L0 
     /tmp/cc1dmrhu.s:419    .text:0000000000000254 .L0 
     /tmp/cc1dmrhu.s:424    .text:0000000000000258 .L0 
     /tmp/cc1dmrhu.s:427    .text:000000000000025c .L0 
     /tmp/cc1dmrhu.s:428    .text:0000000000000260 .L0 
     /tmp/cc1dmrhu.s:447    .bss:0000000000000010 _ZN9Scheduler12first_sleepyE
     /tmp/cc1dmrhu.s:443    .bss:0000000000000008 _ZN9Scheduler4lastE
     /tmp/cc1dmrhu.s:439    .bss:0000000000000000 _ZN9Scheduler5firstE
     /tmp/cc1dmrhu.s:436    .bss:0000000000000000 .LANCHOR0
     /tmp/cc1dmrhu.s:456    .text:0000000000000260 .L0 
     /tmp/cc1dmrhu.s:22     .text:000000000000000c .L0 
     /tmp/cc1dmrhu.s:31     .text:000000000000001c .L0 
     /tmp/cc1dmrhu.s:54     .text:0000000000000038 .L0 
     /tmp/cc1dmrhu.s:75     .text:0000000000000050 .L0 
     /tmp/cc1dmrhu.s:80     .text:000000000000005c .L0 
     /tmp/cc1dmrhu.s:99     .text:000000000000007c .L0 
     /tmp/cc1dmrhu.s:122    .text:000000000000009c .L0 
     /tmp/cc1dmrhu.s:147    .text:00000000000000bc .L0 
     /tmp/cc1dmrhu.s:249    .text:0000000000000144 .L0 
     /tmp/cc1dmrhu.s:306    .text:00000000000001a0 .L0 
     /tmp/cc1dmrhu.s:342    .text:00000000000001d4 .L0 
     /tmp/cc1dmrhu.s:389    .text:0000000000000220 .L0 
     /tmp/cc1dmrhu.s:40     .text:000000000000002c .L1
     /tmp/cc1dmrhu.s:50     .text:0000000000000038 .L5
     /tmp/cc1dmrhu.s:34     .text:0000000000000028 .L3
     /tmp/cc1dmrhu.s:95     .text:000000000000007c .L10
     /tmp/cc1dmrhu.s:86     .text:0000000000000070 .L6
     /tmp/cc1dmrhu.s:422    .text:0000000000000258 .L29
     /tmp/cc1dmrhu.s:339    .text:00000000000001d4 .L35
     /tmp/cc1dmrhu.s:391    .text:000000000000022c .L24
     /tmp/cc1dmrhu.s:355    .text:00000000000001f0 .L36
GAS LISTING /tmp/cc1dmrhu.s 			page 16


     /tmp/cc1dmrhu.s:313    .text:00000000000001b4 .L23
     /tmp/cc1dmrhu.s:411    .text:0000000000000248 .L22
     /tmp/cc1dmrhu.s:386    .text:0000000000000220 .L26
     /tmp/cc1dmrhu.s:361    .text:00000000000001f8 .L27
     /tmp/cc1dmrhu.s:403    .text:000000000000023c .L28
     /tmp/cc1dmrhu.s:1514   .debug_abbrev:0000000000000000 .Ldebug_abbrev0
     /tmp/cc1dmrhu.s:2962   .debug_str:0000000000000609 .LASF115
     /tmp/cc1dmrhu.s:2850   .debug_str:00000000000002f8 .LASF116
     /tmp/cc1dmrhu.s:2836   .debug_str:000000000000027d .LASF117
     /tmp/cc1dmrhu.s:5      .text:0000000000000000 .Ltext0
     /tmp/cc1dmrhu.s:450    .text:0000000000000260 .Letext0
     /tmp/cc1dmrhu.s:2754   .debug_line:0000000000000000 .Ldebug_line0
     /tmp/cc1dmrhu.s:2848   .debug_str:00000000000002eb .LASF0
     /tmp/cc1dmrhu.s:2872   .debug_str:000000000000037c .LASF1
     /tmp/cc1dmrhu.s:2928   .debug_str:00000000000004ff .LASF2
     /tmp/cc1dmrhu.s:2936   .debug_str:0000000000000550 .LASF4
     /tmp/cc1dmrhu.s:2856   .debug_str:000000000000031d .LASF3
     /tmp/cc1dmrhu.s:2762   .debug_str:0000000000000044 .LASF5
     /tmp/cc1dmrhu.s:2912   .debug_str:00000000000004b3 .LASF6
     /tmp/cc1dmrhu.s:2908   .debug_str:000000000000049b .LASF7
     /tmp/cc1dmrhu.s:2860   .debug_str:000000000000033b .LASF8
     /tmp/cc1dmrhu.s:2834   .debug_str:000000000000026d .LASF9
     /tmp/cc1dmrhu.s:2842   .debug_str:00000000000002b2 .LASF10
     /tmp/cc1dmrhu.s:2790   .debug_str:0000000000000130 .LASF11
     /tmp/cc1dmrhu.s:2828   .debug_str:0000000000000248 .LASF12
     /tmp/cc1dmrhu.s:2802   .debug_str:0000000000000185 .LASF13
     /tmp/cc1dmrhu.s:2788   .debug_str:0000000000000120 .LASF14
     /tmp/cc1dmrhu.s:2950   .debug_str:00000000000005bd .LASF15
     /tmp/cc1dmrhu.s:2822   .debug_str:0000000000000203 .LASF16
     /tmp/cc1dmrhu.s:2948   .debug_str:00000000000005a7 .LASF17
     /tmp/cc1dmrhu.s:2906   .debug_str:000000000000048b .LASF21
     /tmp/cc1dmrhu.s:2784   .debug_str:00000000000000ff .LASF36
     /tmp/cc1dmrhu.s:2792   .debug_str:000000000000013f .LASF18
     /tmp/cc1dmrhu.s:2772   .debug_str:00000000000000a5 .LASF19
     /tmp/cc1dmrhu.s:2870   .debug_str:0000000000000377 .LASF20
     /tmp/cc1dmrhu.s:2770   .debug_str:000000000000008c .LASF22
     /tmp/cc1dmrhu.s:2946   .debug_str:000000000000058c .LASF23
     /tmp/cc1dmrhu.s:2980   .debug_str:000000000000072f .LASF118
     /tmp/cc1dmrhu.s:2990   .debug_str:0000000000000778 .LASF119
     /tmp/cc1dmrhu.s:2958   .debug_str:00000000000005f3 .LASF24
     /tmp/cc1dmrhu.s:2768   .debug_str:000000000000007e .LASF25
     /tmp/cc1dmrhu.s:2852   .debug_str:000000000000030a .LASF26
     /tmp/cc1dmrhu.s:2934   .debug_str:000000000000051e .LASF28
     /tmp/cc1dmrhu.s:2974   .debug_str:0000000000000704 .LASF40
     /tmp/cc1dmrhu.s:2820   .debug_str:00000000000001f4 .LASF50
     /tmp/cc1dmrhu.s:2894   .debug_str:0000000000000415 .LASF52
     /tmp/cc1dmrhu.s:2890   .debug_str:00000000000003ea .LASF42
     /tmp/cc1dmrhu.s:2764   .debug_str:000000000000004b .LASF44
     /tmp/cc1dmrhu.s:2954   .debug_str:00000000000005df .LASF27
     /tmp/cc1dmrhu.s:2892   .debug_str:00000000000003f4 .LASF29
     /tmp/cc1dmrhu.s:2916   .debug_str:00000000000004c2 .LASF30
     /tmp/cc1dmrhu.s:2816   .debug_str:00000000000001d9 .LASF120
     /tmp/cc1dmrhu.s:2862   .debug_str:000000000000034e .LASF31
     /tmp/cc1dmrhu.s:2794   .debug_str:0000000000000144 .LASF32
     /tmp/cc1dmrhu.s:2914   .debug_str:00000000000004ba .LASF33
     /tmp/cc1dmrhu.s:2780   .debug_str:00000000000000e8 .LASF34
     /tmp/cc1dmrhu.s:2886   .debug_str:00000000000003db .LASF35
GAS LISTING /tmp/cc1dmrhu.s 			page 17


     /tmp/cc1dmrhu.s:2796   .debug_str:000000000000014d .LASF37
     /tmp/cc1dmrhu.s:2984   .debug_str:0000000000000746 .LASF38
     /tmp/cc1dmrhu.s:2964   .debug_str:00000000000006cd .LASF39
     /tmp/cc1dmrhu.s:2960   .debug_str:0000000000000601 .LASF41
     /tmp/cc1dmrhu.s:2782   .debug_str:00000000000000f1 .LASF43
     /tmp/cc1dmrhu.s:2826   .debug_str:0000000000000220 .LASF45
     /tmp/cc1dmrhu.s:2874   .debug_str:000000000000038f .LASF46
     /tmp/cc1dmrhu.s:2878   .debug_str:00000000000003a2 .LASF47
     /tmp/cc1dmrhu.s:2810   .debug_str:00000000000001bc .LASF76
     /tmp/cc1dmrhu.s:2798   .debug_str:0000000000000155 .LASF78
     /tmp/cc1dmrhu.s:2876   .debug_str:0000000000000395 .LASF48
     /tmp/cc1dmrhu.s:2976   .debug_str:000000000000070e .LASF49
     /tmp/cc1dmrhu.s:2968   .debug_str:00000000000006e9 .LASF51
     /tmp/cc1dmrhu.s:2882   .debug_str:00000000000003bc .LASF53
     /tmp/cc1dmrhu.s:2956   .debug_str:00000000000005e8 .LASF54
     /tmp/cc1dmrhu.s:2952   .debug_str:00000000000005c9 .LASF55
     /tmp/cc1dmrhu.s:2888   .debug_str:00000000000003e3 .LASF56
     /tmp/cc1dmrhu.s:2804   .debug_str:0000000000000195 .LASF57
     /tmp/cc1dmrhu.s:2938   .debug_str:0000000000000557 .LASF58
     /tmp/cc1dmrhu.s:2760   .debug_str:0000000000000038 .LASF59
     /tmp/cc1dmrhu.s:3000   .debug_str:00000000000007de .LASF60
     /tmp/cc1dmrhu.s:2838   .debug_str:000000000000029b .LASF61
     /tmp/cc1dmrhu.s:2756   .debug_str:0000000000000000 .LASF62
     /tmp/cc1dmrhu.s:2902   .debug_str:0000000000000469 .LASF63
     /tmp/cc1dmrhu.s:2884   .debug_str:00000000000003d2 .LASF64
     /tmp/cc1dmrhu.s:2926   .debug_str:00000000000004ee .LASF65
     /tmp/cc1dmrhu.s:2776   .debug_str:00000000000000cb .LASF66
     /tmp/cc1dmrhu.s:2932   .debug_str:0000000000000512 .LASF67
     /tmp/cc1dmrhu.s:2864   .debug_str:0000000000000357 .LASF68
     /tmp/cc1dmrhu.s:2814   .debug_str:00000000000001cb .LASF69
     /tmp/cc1dmrhu.s:2920   .debug_str:00000000000004d2 .LASF70
     /tmp/cc1dmrhu.s:2808   .debug_str:00000000000001b4 .LASF71
     /tmp/cc1dmrhu.s:2998   .debug_str:00000000000007d9 .LASF72
     /tmp/cc1dmrhu.s:2944   .debug_str:0000000000000586 .LASF73
     /tmp/cc1dmrhu.s:2970   .debug_str:00000000000006f4 .LASF74
     /tmp/cc1dmrhu.s:2896   .debug_str:000000000000043c .LASF75
     /tmp/cc1dmrhu.s:3002   .debug_str:00000000000007eb .LASF85
     /tmp/cc1dmrhu.s:2806   .debug_str:00000000000001a6 .LASF121
     /tmp/cc1dmrhu.s:2758   .debug_str:0000000000000010 .LASF122
     /tmp/cc1dmrhu.s:2978   .debug_str:0000000000000727 .LASF99
     /tmp/cc1dmrhu.s:2766   .debug_str:000000000000006c .LASF101
     /tmp/cc1dmrhu.s:2982   .debug_str:000000000000073a .LASF77
     /tmp/cc1dmrhu.s:2966   .debug_str:00000000000006d2 .LASF79
     /tmp/cc1dmrhu.s:2858   .debug_str:000000000000032f .LASF80
     /tmp/cc1dmrhu.s:2918   .debug_str:00000000000004cd .LASF81
     /tmp/cc1dmrhu.s:2832   .debug_str:0000000000000263 .LASF82
     /tmp/cc1dmrhu.s:2866   .debug_str:0000000000000363 .LASF83
     /tmp/cc1dmrhu.s:2992   .debug_str:0000000000000793 .LASF84
     /tmp/cc1dmrhu.s:2996   .debug_str:00000000000007c5 .LASF123
     /tmp/cc1dmrhu.s:2846   .debug_str:00000000000002d3 .LASF86
     /tmp/cc1dmrhu.s:2868   .debug_str:0000000000000372 .LASF87
     /tmp/cc1dmrhu.s:2818   .debug_str:00000000000001df .LASF88
     /tmp/cc1dmrhu.s:2812   .debug_str:00000000000001c5 .LASF89
     /tmp/cc1dmrhu.s:2986   .debug_str:000000000000074e .LASF90
     /tmp/cc1dmrhu.s:2924   .debug_str:00000000000004e3 .LASF91
     /tmp/cc1dmrhu.s:2774   .debug_str:00000000000000aa .LASF92
     /tmp/cc1dmrhu.s:2778   .debug_str:00000000000000d6 .LASF93
GAS LISTING /tmp/cc1dmrhu.s 			page 18


     /tmp/cc1dmrhu.s:2844   .debug_str:00000000000002c0 .LASF94
     /tmp/cc1dmrhu.s:2786   .debug_str:000000000000010b .LASF95
     /tmp/cc1dmrhu.s:2830   .debug_str:0000000000000257 .LASF96
     /tmp/cc1dmrhu.s:2940   .debug_str:000000000000055c .LASF97
     /tmp/cc1dmrhu.s:2994   .debug_str:00000000000007b3 .LASF98
     /tmp/cc1dmrhu.s:2972   .debug_str:00000000000006fc .LASF100
     /tmp/cc1dmrhu.s:2900   .debug_str:0000000000000451 .LASF102
     /tmp/cc1dmrhu.s:2922   .debug_str:00000000000004dd .LASF103
     /tmp/cc1dmrhu.s:2880   .debug_str:00000000000003b7 .LASF104
     /tmp/cc1dmrhu.s:2942   .debug_str:0000000000000579 .LASF105
     /tmp/cc1dmrhu.s:2904   .debug_str:0000000000000476 .LASF106
     /tmp/cc1dmrhu.s:2988   .debug_str:0000000000000764 .LASF107
     /tmp/cc1dmrhu.s:2800   .debug_str:0000000000000168 .LASF108
     /tmp/cc1dmrhu.s:232    .text:000000000000012c .LFB30
     /tmp/cc1dmrhu.s:283    .text:000000000000018c .LFE30
     /tmp/cc1dmrhu.s:2840   .debug_str:00000000000002a7 .LASF109
     /tmp/cc1dmrhu.s:2510   .debug_loc:0000000000000000 .LLST4
     /tmp/cc1dmrhu.s:259    .text:0000000000000160 .LVL11
     /tmp/cc1dmrhu.s:267    .text:0000000000000174 .LVL12
     /tmp/cc1dmrhu.s:200    .text:0000000000000104 .LFB29
     /tmp/cc1dmrhu.s:226    .text:000000000000012c .LFE29
     /tmp/cc1dmrhu.s:2517   .debug_loc:0000000000000023 .LLST3
     /tmp/cc1dmrhu.s:215    .text:000000000000011c .LVL9
     /tmp/cc1dmrhu.s:162    .text:00000000000000d4 .LFB28
     /tmp/cc1dmrhu.s:194    .text:0000000000000104 .LFE28
     /tmp/cc1dmrhu.s:2531   .debug_loc:000000000000005c .LLST1
     /tmp/cc1dmrhu.s:2898   .debug_str:000000000000044a .LASF110
     /tmp/cc1dmrhu.s:2551   .debug_loc:00000000000000ab .LLST2
     /tmp/cc1dmrhu.s:183    .text:00000000000000f4 .LVL7
     /tmp/cc1dmrhu.s:289    .text:000000000000018c .LFB27
     /tmp/cc1dmrhu.s:429    .text:0000000000000260 .LFE27
     /tmp/cc1dmrhu.s:2577   .debug_loc:00000000000000ff .LLST5
     /tmp/cc1dmrhu.s:2910   .debug_str:00000000000004ae .LASF111
     /tmp/cc1dmrhu.s:2624   .debug_loc:00000000000001b3 .LLST6
     /tmp/cc1dmrhu.s:2664   .debug_loc:0000000000000251 .LLST7
     /tmp/cc1dmrhu.s:2930   .debug_str:000000000000050d .LASF112
     /tmp/cc1dmrhu.s:2687   .debug_loc:00000000000002c0 .LLST8
     /tmp/cc1dmrhu.s:2854   .debug_str:0000000000000314 .LASF113
     /tmp/cc1dmrhu.s:2711   .debug_loc:0000000000000330 .LLST9
     /tmp/cc1dmrhu.s:349    .text:00000000000001e8 .LVL19
     /tmp/cc1dmrhu.s:380    .text:0000000000000218 .LVL23
     /tmp/cc1dmrhu.s:407    .text:0000000000000244 .LVL26
     /tmp/cc1dmrhu.s:136    .text:00000000000000b0 .LFB26
     /tmp/cc1dmrhu.s:156    .text:00000000000000d4 .LFE26
     /tmp/cc1dmrhu.s:111    .text:0000000000000090 .LFB25
     /tmp/cc1dmrhu.s:130    .text:00000000000000b0 .LFE25
     /tmp/cc1dmrhu.s:63     .text:0000000000000044 .LFB24
     /tmp/cc1dmrhu.s:105    .text:0000000000000090 .LFE24
     /tmp/cc1dmrhu.s:2824   .debug_str:0000000000000219 .LASF114
     /tmp/cc1dmrhu.s:10     .text:0000000000000000 .LFB23
     /tmp/cc1dmrhu.s:57     .text:0000000000000044 .LFE23
     /tmp/cc1dmrhu.s:2730   .debug_loc:000000000000038c .LLST0
     /tmp/cc1dmrhu.s:251    .text:0000000000000150 .LVL10
     /tmp/cc1dmrhu.s:276    .text:0000000000000180 .LVL13
     /tmp/cc1dmrhu.s:203    .text:0000000000000104 .LVL8
     /tmp/cc1dmrhu.s:165    .text:00000000000000d4 .LVL4
     /tmp/cc1dmrhu.s:177    .text:00000000000000e8 .LVL5
GAS LISTING /tmp/cc1dmrhu.s 			page 19


     /tmp/cc1dmrhu.s:181    .text:00000000000000ec .LVL6
     /tmp/cc1dmrhu.s:292    .text:000000000000018c .LVL14
     /tmp/cc1dmrhu.s:354    .text:00000000000001f0 .LVL20
     /tmp/cc1dmrhu.s:385    .text:0000000000000220 .LVL24
     /tmp/cc1dmrhu.s:421    .text:0000000000000258 .LVL27
     /tmp/cc1dmrhu.s:425    .text:000000000000025c .LVL28
     /tmp/cc1dmrhu.s:374    .text:0000000000000208 .LVL22
     /tmp/cc1dmrhu.s:314    .text:00000000000001b4 .LVL15
     /tmp/cc1dmrhu.s:326    .text:00000000000001c4 .LVL16
     /tmp/cc1dmrhu.s:335    .text:00000000000001d0 .LVL17
     /tmp/cc1dmrhu.s:338    .text:00000000000001d4 .LVL18
     /tmp/cc1dmrhu.s:368    .text:0000000000000200 .LVL21
     /tmp/cc1dmrhu.s:395    .text:0000000000000230 .LVL25
     /tmp/cc1dmrhu.s:26     .text:0000000000000018 .LVL0
     /tmp/cc1dmrhu.s:39     .text:000000000000002c .LVL1
     /tmp/cc1dmrhu.s:49     .text:0000000000000038 .LVL2
     /tmp/cc1dmrhu.s:457    .debug_info:0000000000000000 .Ldebug_info0

UNDEFINED SYMBOLS
_ZN15MemoryAllocator9mem_allocEm
_ZN15MemoryAllocator8mem_freeEPv
_ZN3TCB7runningE
_ZN3TCB5yieldEPS_S0_
