GAS LISTING /tmp/cctlGkjI.s 			page 1


   1              		.file	"Scheduler.cpp"
   2              		.option pic
   3              		.option norelax
   4              		.text
   5              	.Ltext0:
   6              		.align	2
   7              		.globl	_ZN9Scheduler3getEv
   9              	_ZN9Scheduler3getEv:
  10              	.LFB25:
  11              		.file 1 "src/Scheduler.cpp"
   1:src/Scheduler.cpp **** 
   2:src/Scheduler.cpp **** #include "../h/Scheduler.hpp"
   3:src/Scheduler.cpp **** 
   4:src/Scheduler.cpp **** List<TCB> Scheduler::list;
   5:src/Scheduler.cpp **** 
   6:src/Scheduler.cpp **** TCB *Scheduler::get() {
  12              		.loc 1 6 23
  13              		.cfi_startproc
  14 0000 130101FE 		addi	sp,sp,-32
  15              		.cfi_def_cfa_offset 32
  16 0004 233C1100 		sd	ra,24(sp)
  17 0008 23388100 		sd	s0,16(sp)
  18 000c 23349100 		sd	s1,8(sp)
  19              		.cfi_offset 1, -8
  20              		.cfi_offset 8, -16
  21              		.cfi_offset 9, -24
  22 0010 13040102 		addi	s0,sp,32
  23              		.cfi_def_cfa 8, 0
   7:src/Scheduler.cpp ****     return list.removeFirst();
  24              		.loc 1 7 5
  25              	.LVL0:
  26              	.LBB14:
  27              	.LBB15:
  28              		.file 2 "src/../h/List.hpp"
   1:src/../h/List.hpp **** //
   2:src/../h/List.hpp **** // Created by os on 4/14/24.
   3:src/../h/List.hpp **** //
   4:src/../h/List.hpp **** 
   5:src/../h/List.hpp **** #ifndef PROJECT_BASE_LIST_HPP
   6:src/../h/List.hpp **** #define PROJECT_BASE_LIST_HPP
   7:src/../h/List.hpp **** 
   8:src/../h/List.hpp **** template<typename T>
   9:src/../h/List.hpp **** class List {
  10:src/../h/List.hpp **** 
  11:src/../h/List.hpp **** private:
  12:src/../h/List.hpp ****     struct Elem {
  13:src/../h/List.hpp ****         T* data;
  14:src/../h/List.hpp ****         Elem* next;
  15:src/../h/List.hpp **** 
  16:src/../h/List.hpp ****         Elem(T *data, Elem* next) : data(data), next(next) {}
  17:src/../h/List.hpp ****     };
  18:src/../h/List.hpp **** 
  19:src/../h/List.hpp ****     Elem *head = nullptr, *tail = nullptr;
  20:src/../h/List.hpp **** 
  21:src/../h/List.hpp **** public:
  22:src/../h/List.hpp **** 
  23:src/../h/List.hpp ****     List() = default;
GAS LISTING /tmp/cctlGkjI.s 			page 2


  24:src/../h/List.hpp ****     List(const List<T> &) = delete;
  25:src/../h/List.hpp ****     List<T> operator=(const List<T> &) = delete;
  26:src/../h/List.hpp **** 
  27:src/../h/List.hpp ****     /// dodavanje na pocetak po potrebi
  28:src/../h/List.hpp **** 
  29:src/../h/List.hpp ****     void add(T *newData) {
  30:src/../h/List.hpp ****         Elem* newElem = new Elem(newData, nullptr);
  31:src/../h/List.hpp ****         if (tail) tail = tail -> next = newElem;
  32:src/../h/List.hpp ****         head = tail = newElem;
  33:src/../h/List.hpp ****     }
  34:src/../h/List.hpp **** 
  35:src/../h/List.hpp ****     T* peek() {
  36:src/../h/List.hpp ****         if (!head) return nullptr;
  37:src/../h/List.hpp ****         return head -> data;
  38:src/../h/List.hpp ****     }
  39:src/../h/List.hpp **** 
  40:src/../h/List.hpp ****     T* removeFirst() {
  41:src/../h/List.hpp ****         if (!head) return nullptr;
  29              		.loc 2 41 14 is_stmt 0
  30 0014 17050000 		ld	a0,.LANCHOR0
  30      03350500 
  31              		.loc 2 41 9
  32 001c 63020504 		beqz	a0,.L4
  33              	.LVL1:
  42:src/../h/List.hpp ****         Elem* removed = head;
  43:src/../h/List.hpp ****         head = head -> next;
  34              		.loc 2 43 24
  35 0020 83378500 		ld	a5,8(a0)
  36              		.loc 2 43 9
  37 0024 17070000 		sd	a5,.LANCHOR0,a4
  37      2330F700 
  44:src/../h/List.hpp ****         if (!head) tail = nullptr;
  38              		.loc 2 44 9
  39 002c 63840702 		beqz	a5,.L6
  40              	.L3:
  45:src/../h/List.hpp ****         T *ret = removed -> data;
  41              		.loc 2 45 12
  42 0030 83340500 		ld	s1,0(a0)
  43              	.LVL2:
  46:src/../h/List.hpp ****         delete removed;
  44              		.loc 2 46 9
  45 0034 97000000 		call	_ZdlPv@plt
  45      E7800000 
  46              	.LVL3:
  47              	.L1:
  48              	.LBE15:
  49              	.LBE14:
   8:src/Scheduler.cpp **** }
  50              		.loc 1 8 1
  51 003c 13850400 		mv	a0,s1
  52 0040 83308101 		ld	ra,24(sp)
  53              		.cfi_remember_state
  54              		.cfi_restore 1
  55 0044 03340101 		ld	s0,16(sp)
  56              		.cfi_restore 8
  57              		.cfi_def_cfa 2, 32
  58 0048 83348100 		ld	s1,8(sp)
GAS LISTING /tmp/cctlGkjI.s 			page 3


  59              		.cfi_restore 9
  60 004c 13010102 		addi	sp,sp,32
  61              		.cfi_def_cfa_offset 0
  62 0050 67800000 		jr	ra
  63              	.LVL4:
  64              	.L6:
  65              		.cfi_restore_state
  66              	.LBB17:
  67              	.LBB16:
  44:src/../h/List.hpp ****         T *ret = removed -> data;
  68              		.loc 2 44 20
  69 0054 97070000 		sd	zero,.LANCHOR0+8,a5
  69      23B00700 
  70 005c 6FF05FFD 		j	.L3
  71              	.LVL5:
  72              	.L4:
  41:src/../h/List.hpp ****         Elem* removed = head;
  73              		.loc 2 41 27
  74 0060 93040500 		mv	s1,a0
  75              	.LVL6:
  76              	.LBE16:
  77              	.LBE17:
   7:src/Scheduler.cpp **** }
  78              		.loc 1 7 29
  79 0064 6FF09FFD 		j	.L1
  80              		.cfi_endproc
  81              	.LFE25:
  83              		.align	2
  84              		.globl	_ZN9Scheduler3putEP3TCB
  86              	_ZN9Scheduler3putEP3TCB:
  87              	.LFB26:
   9:src/Scheduler.cpp **** 
  10:src/Scheduler.cpp **** void Scheduler::put(TCB *newTCB) {
  88              		.loc 1 10 34 is_stmt 1
  89              		.cfi_startproc
  90              	.LVL7:
  91 0068 130101FE 		addi	sp,sp,-32
  92              		.cfi_def_cfa_offset 32
  93 006c 233C1100 		sd	ra,24(sp)
  94 0070 23388100 		sd	s0,16(sp)
  95 0074 23349100 		sd	s1,8(sp)
  96              		.cfi_offset 1, -8
  97              		.cfi_offset 8, -16
  98              		.cfi_offset 9, -24
  99 0078 13040102 		addi	s0,sp,32
 100              		.cfi_def_cfa 8, 0
 101 007c 93040500 		mv	s1,a0
  11:src/Scheduler.cpp ****     list.add(newTCB);
 102              		.loc 1 11 5
 103              	.LVL8:
 104              	.LBB18:
 105              	.LBB19:
  30:src/../h/List.hpp ****         if (tail) tail = tail -> next = newElem;
 106              		.loc 2 30 25 is_stmt 0
 107 0080 13050001 		li	a0,16
 108              	.LVL9:
 109 0084 97000000 		call	_Znwm@plt
GAS LISTING /tmp/cctlGkjI.s 			page 4


 109      E7800000 
 110              	.LVL10:
 111              	.LBB20:
 112              	.LBB21:
  16:src/../h/List.hpp ****     };
 113              		.loc 2 16 58
 114 008c 23309500 		sd	s1,0(a0)
 115 0090 23340500 		sd	zero,8(a0)
 116              	.LVL11:
 117              	.LBE21:
 118              	.LBE20:
  31:src/../h/List.hpp ****         head = tail = newElem;
 119              		.loc 2 31 13
 120 0094 97070000 		ld	a5,.LANCHOR0+8
 120      83B70700 
  31:src/../h/List.hpp ****         head = tail = newElem;
 121              		.loc 2 31 9
 122 009c 63840700 		beqz	a5,.L8
  31:src/../h/List.hpp ****         head = tail = newElem;
 123              		.loc 2 31 19
 124 00a0 23B4A700 		sd	a0,8(a5)
 125              	.L8:
  32:src/../h/List.hpp ****     }
 126              		.loc 2 32 9
 127 00a4 97070000 		lla	a5,.LANCHOR0
 127      93870700 
 128 00ac 23B4A700 		sd	a0,8(a5)
 129 00b0 23B0A700 		sd	a0,0(a5)
 130              	.LVL12:
 131              	.LBE19:
 132              	.LBE18:
  12:src/Scheduler.cpp **** }
 133              		.loc 1 12 1
 134 00b4 83308101 		ld	ra,24(sp)
 135              		.cfi_restore 1
 136 00b8 03340101 		ld	s0,16(sp)
 137              		.cfi_restore 8
 138              		.cfi_def_cfa 2, 32
 139 00bc 83348100 		ld	s1,8(sp)
 140              		.cfi_restore 9
 141              	.LVL13:
 142 00c0 13010102 		addi	sp,sp,32
 143              		.cfi_def_cfa_offset 0
 144 00c4 67800000 		jr	ra
 145              		.cfi_endproc
 146              	.LFE26:
 148              		.align	2
 149              		.globl	_ZN9Scheduler5emptyEv
 151              	_ZN9Scheduler5emptyEv:
 152              	.LFB27:
  13:src/Scheduler.cpp **** 
  14:src/Scheduler.cpp **** bool Scheduler::empty() {
 153              		.loc 1 14 25 is_stmt 1
 154              		.cfi_startproc
 155 00c8 130101FF 		addi	sp,sp,-16
 156              		.cfi_def_cfa_offset 16
 157 00cc 23348100 		sd	s0,8(sp)
GAS LISTING /tmp/cctlGkjI.s 			page 5


 158              		.cfi_offset 8, -8
 159 00d0 13040101 		addi	s0,sp,16
 160              		.cfi_def_cfa 8, 0
  15:src/Scheduler.cpp ****     return list.peek() == nullptr;
 161              		.loc 1 15 5
 162              	.LVL14:
 163              	.LBB22:
 164              	.LBB23:
  36:src/../h/List.hpp ****         return head -> data;
 165              		.loc 2 36 14 is_stmt 0
 166 00d4 17050000 		ld	a0,.LANCHOR0
 166      03350500 
  36:src/../h/List.hpp ****         return head -> data;
 167              		.loc 2 36 9
 168 00dc 63040500 		beqz	a0,.L11
  37:src/../h/List.hpp ****     }
 169              		.loc 2 37 24
 170 00e0 03350500 		ld	a0,0(a0)
 171              	.L11:
 172              	.LVL15:
 173              	.LBE23:
 174              	.LBE22:
  16:src/Scheduler.cpp **** }
 175              		.loc 1 16 1
 176 00e4 13351500 		seqz	a0,a0
 177 00e8 03348100 		ld	s0,8(sp)
 178              		.cfi_restore 8
 179              		.cfi_def_cfa 2, 16
 180 00ec 13010101 		addi	sp,sp,16
 181              		.cfi_def_cfa_offset 0
 182 00f0 67800000 		jr	ra
 183              		.cfi_endproc
 184              	.LFE27:
 186              		.align	2
 187              		.globl	_ZN9SchedulernwEm
 189              	_ZN9SchedulernwEm:
 190              	.LFB28:
  17:src/Scheduler.cpp **** 
  18:src/Scheduler.cpp **** void *Scheduler::operator new(size_t size) {
 191              		.loc 1 18 44 is_stmt 1
 192              		.cfi_startproc
 193              	.LVL16:
 194 00f4 130101FF 		addi	sp,sp,-16
 195              		.cfi_def_cfa_offset 16
 196 00f8 23341100 		sd	ra,8(sp)
 197 00fc 23308100 		sd	s0,0(sp)
 198              		.cfi_offset 1, -8
 199              		.cfi_offset 8, -16
 200 0100 13040101 		addi	s0,sp,16
 201              		.cfi_def_cfa 8, 0
  19:src/Scheduler.cpp ****     size_t blocks = (size + sizeof(MemoryAllocator::MemoryBlock) + MEM_BLOCK_SIZE - 1) / MEM_BLOCK_
 202              		.loc 1 19 5
 203              		.loc 1 19 83 is_stmt 0
 204 0104 13057505 		addi	a0,a0,87
 205              	.LVL17:
  20:src/Scheduler.cpp ****     return MemoryAllocator::mem_alloc(blocks);
 206              		.loc 1 20 5 is_stmt 1
GAS LISTING /tmp/cctlGkjI.s 			page 6


 207              		.loc 1 20 38 is_stmt 0
 208 0108 13556500 		srli	a0,a0,6
 209              	.LVL18:
 210 010c 97000000 		call	_ZN15MemoryAllocator9mem_allocEm@plt
 210      E7800000 
 211              	.LVL19:
  21:src/Scheduler.cpp **** }
 212              		.loc 1 21 1
 213 0114 83308100 		ld	ra,8(sp)
 214              		.cfi_restore 1
 215 0118 03340100 		ld	s0,0(sp)
 216              		.cfi_restore 8
 217              		.cfi_def_cfa 2, 16
 218 011c 13010101 		addi	sp,sp,16
 219              		.cfi_def_cfa_offset 0
 220 0120 67800000 		jr	ra
 221              		.cfi_endproc
 222              	.LFE28:
 224              		.align	2
 225              		.globl	_ZN9SchedulerdlEPv
 227              	_ZN9SchedulerdlEPv:
 228              	.LFB29:
  22:src/Scheduler.cpp **** 
  23:src/Scheduler.cpp **** void Scheduler::operator delete(void *ptr) {
 229              		.loc 1 23 44 is_stmt 1
 230              		.cfi_startproc
 231              	.LVL20:
 232 0124 130101FF 		addi	sp,sp,-16
 233              		.cfi_def_cfa_offset 16
 234 0128 23341100 		sd	ra,8(sp)
 235 012c 23308100 		sd	s0,0(sp)
 236              		.cfi_offset 1, -8
 237              		.cfi_offset 8, -16
 238 0130 13040101 		addi	s0,sp,16
 239              		.cfi_def_cfa 8, 0
  24:src/Scheduler.cpp ****     MemoryAllocator::mem_free(ptr);
 240              		.loc 1 24 5
 241              		.loc 1 24 30 is_stmt 0
 242 0134 97000000 		call	_ZN15MemoryAllocator8mem_freeEPKv@plt
 242      E7800000 
 243              	.LVL21:
  25:src/Scheduler.cpp **** }
 244              		.loc 1 25 1
 245 013c 83308100 		ld	ra,8(sp)
 246              		.cfi_restore 1
 247 0140 03340100 		ld	s0,0(sp)
 248              		.cfi_restore 8
 249              		.cfi_def_cfa 2, 16
 250 0144 13010101 		addi	sp,sp,16
 251              		.cfi_def_cfa_offset 0
 252 0148 67800000 		jr	ra
 253              		.cfi_endproc
 254              	.LFE29:
 256              		.globl	_ZN9Scheduler4listE
 257              		.bss
 258              		.align	3
 259              		.set	.LANCHOR0,. + 0
GAS LISTING /tmp/cctlGkjI.s 			page 7


 262              	_ZN9Scheduler4listE:
 263 0000 00000000 		.zero	16
 263      00000000 
 263      00000000 
 263      00000000 
 264              		.text
 265              	.Letext0:
 266              		.file 3 "src/../h/../lib/hw.h"
 267              		.file 4 "src/../h/../h/Memoryallocator.hpp"
 268              		.file 5 "src/../h/thread.hpp"
 269              		.file 6 "src/../h/Scheduler.hpp"
GAS LISTING /tmp/cctlGkjI.s 			page 8


DEFINED SYMBOLS
                            *ABS*:0000000000000000 Scheduler.cpp
     /tmp/cctlGkjI.s:9      .text:0000000000000000 _ZN9Scheduler3getEv
     /tmp/cctlGkjI.s:13     .text:0000000000000000 .L0 
     /tmp/cctlGkjI.s:14     .text:0000000000000000 .L0 
     /tmp/cctlGkjI.s:15     .text:0000000000000004 .L0 
     /tmp/cctlGkjI.s:19     .text:0000000000000010 .L0 
     /tmp/cctlGkjI.s:20     .text:0000000000000010 .L0 
     /tmp/cctlGkjI.s:21     .text:0000000000000010 .L0 
     /tmp/cctlGkjI.s:23     .text:0000000000000014 .L0 
     /tmp/cctlGkjI.s:29     .text:0000000000000014 .L0 
     /tmp/cctlGkjI.s:30     .text:0000000000000014 .L0 
     /tmp/cctlGkjI.s:32     .text:000000000000001c .L0 
     /tmp/cctlGkjI.s:35     .text:0000000000000020 .L0 
     /tmp/cctlGkjI.s:37     .text:0000000000000024 .L0 
     /tmp/cctlGkjI.s:39     .text:000000000000002c .L0 
     /tmp/cctlGkjI.s:42     .text:0000000000000030 .L0 
     /tmp/cctlGkjI.s:45     .text:0000000000000034 .L0 
     /tmp/cctlGkjI.s:51     .text:000000000000003c .L0 
     /tmp/cctlGkjI.s:53     .text:0000000000000044 .L0 
     /tmp/cctlGkjI.s:54     .text:0000000000000044 .L0 
     /tmp/cctlGkjI.s:56     .text:0000000000000048 .L0 
     /tmp/cctlGkjI.s:57     .text:0000000000000048 .L0 
     /tmp/cctlGkjI.s:59     .text:000000000000004c .L0 
     /tmp/cctlGkjI.s:61     .text:0000000000000050 .L0 
     /tmp/cctlGkjI.s:65     .text:0000000000000054 .L0 
     /tmp/cctlGkjI.s:69     .text:0000000000000054 .L0 
     /tmp/cctlGkjI.s:74     .text:0000000000000060 .L0 
     /tmp/cctlGkjI.s:79     .text:0000000000000064 .L0 
     /tmp/cctlGkjI.s:80     .text:0000000000000068 .L0 
     /tmp/cctlGkjI.s:86     .text:0000000000000068 _ZN9Scheduler3putEP3TCB
     /tmp/cctlGkjI.s:89     .text:0000000000000068 .L0 
     /tmp/cctlGkjI.s:91     .text:0000000000000068 .L0 
     /tmp/cctlGkjI.s:92     .text:000000000000006c .L0 
     /tmp/cctlGkjI.s:96     .text:0000000000000078 .L0 
     /tmp/cctlGkjI.s:97     .text:0000000000000078 .L0 
     /tmp/cctlGkjI.s:98     .text:0000000000000078 .L0 
     /tmp/cctlGkjI.s:100    .text:000000000000007c .L0 
     /tmp/cctlGkjI.s:106    .text:0000000000000080 .L0 
     /tmp/cctlGkjI.s:107    .text:0000000000000080 .L0 
     /tmp/cctlGkjI.s:114    .text:000000000000008c .L0 
     /tmp/cctlGkjI.s:120    .text:0000000000000094 .L0 
     /tmp/cctlGkjI.s:122    .text:000000000000009c .L0 
     /tmp/cctlGkjI.s:124    .text:00000000000000a0 .L0 
     /tmp/cctlGkjI.s:127    .text:00000000000000a4 .L0 
     /tmp/cctlGkjI.s:134    .text:00000000000000b4 .L0 
     /tmp/cctlGkjI.s:135    .text:00000000000000b8 .L0 
     /tmp/cctlGkjI.s:137    .text:00000000000000bc .L0 
     /tmp/cctlGkjI.s:138    .text:00000000000000bc .L0 
     /tmp/cctlGkjI.s:140    .text:00000000000000c0 .L0 
     /tmp/cctlGkjI.s:143    .text:00000000000000c4 .L0 
     /tmp/cctlGkjI.s:145    .text:00000000000000c8 .L0 
     /tmp/cctlGkjI.s:151    .text:00000000000000c8 _ZN9Scheduler5emptyEv
     /tmp/cctlGkjI.s:154    .text:00000000000000c8 .L0 
     /tmp/cctlGkjI.s:155    .text:00000000000000c8 .L0 
     /tmp/cctlGkjI.s:156    .text:00000000000000cc .L0 
     /tmp/cctlGkjI.s:158    .text:00000000000000d0 .L0 
GAS LISTING /tmp/cctlGkjI.s 			page 9


     /tmp/cctlGkjI.s:160    .text:00000000000000d4 .L0 
     /tmp/cctlGkjI.s:165    .text:00000000000000d4 .L0 
     /tmp/cctlGkjI.s:166    .text:00000000000000d4 .L0 
     /tmp/cctlGkjI.s:168    .text:00000000000000dc .L0 
     /tmp/cctlGkjI.s:170    .text:00000000000000e0 .L0 
     /tmp/cctlGkjI.s:176    .text:00000000000000e4 .L0 
     /tmp/cctlGkjI.s:178    .text:00000000000000ec .L0 
     /tmp/cctlGkjI.s:179    .text:00000000000000ec .L0 
     /tmp/cctlGkjI.s:181    .text:00000000000000f0 .L0 
     /tmp/cctlGkjI.s:183    .text:00000000000000f4 .L0 
     /tmp/cctlGkjI.s:189    .text:00000000000000f4 _ZN9SchedulernwEm
     /tmp/cctlGkjI.s:192    .text:00000000000000f4 .L0 
     /tmp/cctlGkjI.s:194    .text:00000000000000f4 .L0 
     /tmp/cctlGkjI.s:195    .text:00000000000000f8 .L0 
     /tmp/cctlGkjI.s:198    .text:0000000000000100 .L0 
     /tmp/cctlGkjI.s:199    .text:0000000000000100 .L0 
     /tmp/cctlGkjI.s:201    .text:0000000000000104 .L0 
     /tmp/cctlGkjI.s:203    .text:0000000000000104 .L0 
     /tmp/cctlGkjI.s:204    .text:0000000000000104 .L0 
     /tmp/cctlGkjI.s:207    .text:0000000000000108 .L0 
     /tmp/cctlGkjI.s:208    .text:0000000000000108 .L0 
     /tmp/cctlGkjI.s:213    .text:0000000000000114 .L0 
     /tmp/cctlGkjI.s:214    .text:0000000000000118 .L0 
     /tmp/cctlGkjI.s:216    .text:000000000000011c .L0 
     /tmp/cctlGkjI.s:217    .text:000000000000011c .L0 
     /tmp/cctlGkjI.s:219    .text:0000000000000120 .L0 
     /tmp/cctlGkjI.s:221    .text:0000000000000124 .L0 
     /tmp/cctlGkjI.s:227    .text:0000000000000124 _ZN9SchedulerdlEPv
     /tmp/cctlGkjI.s:230    .text:0000000000000124 .L0 
     /tmp/cctlGkjI.s:232    .text:0000000000000124 .L0 
     /tmp/cctlGkjI.s:233    .text:0000000000000128 .L0 
     /tmp/cctlGkjI.s:236    .text:0000000000000130 .L0 
     /tmp/cctlGkjI.s:237    .text:0000000000000130 .L0 
     /tmp/cctlGkjI.s:239    .text:0000000000000134 .L0 
     /tmp/cctlGkjI.s:241    .text:0000000000000134 .L0 
     /tmp/cctlGkjI.s:242    .text:0000000000000134 .L0 
     /tmp/cctlGkjI.s:245    .text:000000000000013c .L0 
     /tmp/cctlGkjI.s:246    .text:0000000000000140 .L0 
     /tmp/cctlGkjI.s:248    .text:0000000000000144 .L0 
     /tmp/cctlGkjI.s:249    .text:0000000000000144 .L0 
     /tmp/cctlGkjI.s:251    .text:0000000000000148 .L0 
     /tmp/cctlGkjI.s:253    .text:000000000000014c .L0 
     /tmp/cctlGkjI.s:262    .bss:0000000000000000 _ZN9Scheduler4listE
     /tmp/cctlGkjI.s:259    .bss:0000000000000000 .LANCHOR0
     /tmp/cctlGkjI.s:270    .text:000000000000014c .L0 
     /tmp/cctlGkjI.s:30     .text:0000000000000014 .L0 
     /tmp/cctlGkjI.s:37     .text:0000000000000024 .L0 
     /tmp/cctlGkjI.s:69     .text:0000000000000054 .L0 
     /tmp/cctlGkjI.s:120    .text:0000000000000094 .L0 
     /tmp/cctlGkjI.s:127    .text:00000000000000a4 .L0 
     /tmp/cctlGkjI.s:166    .text:00000000000000d4 .L0 
     /tmp/cctlGkjI.s:72     .text:0000000000000060 .L4
     /tmp/cctlGkjI.s:64     .text:0000000000000054 .L6
     /tmp/cctlGkjI.s:40     .text:0000000000000030 .L3
     /tmp/cctlGkjI.s:47     .text:000000000000003c .L1
     /tmp/cctlGkjI.s:125    .text:00000000000000a4 .L8
     /tmp/cctlGkjI.s:171    .text:00000000000000e4 .L11
GAS LISTING /tmp/cctlGkjI.s 			page 10


     /tmp/cctlGkjI.s:1486   .debug_abbrev:0000000000000000 .Ldebug_abbrev0
     /tmp/cctlGkjI.s:3057   .debug_str:0000000000000634 .LASF121
     /tmp/cctlGkjI.s:2937   .debug_str:00000000000002d7 .LASF122
     /tmp/cctlGkjI.s:2923   .debug_str:0000000000000257 .LASF123
     /tmp/cctlGkjI.s:5      .text:0000000000000000 .Ltext0
     /tmp/cctlGkjI.s:265    .text:000000000000014c .Letext0
     /tmp/cctlGkjI.s:2841   .debug_line:0000000000000000 .Ldebug_line0
     /tmp/cctlGkjI.s:2933   .debug_str:00000000000002ba .LASF0
     /tmp/cctlGkjI.s:2957   .debug_str:000000000000034b .LASF1
     /tmp/cctlGkjI.s:3021   .debug_str:0000000000000528 .LASF2
     /tmp/cctlGkjI.s:3029   .debug_str:000000000000057e .LASF4
     /tmp/cctlGkjI.s:2941   .debug_str:00000000000002f3 .LASF3
     /tmp/cctlGkjI.s:2847   .debug_str:000000000000002e .LASF5
     /tmp/cctlGkjI.s:3007   .debug_str:00000000000004bc .LASF6
     /tmp/cctlGkjI.s:3001   .debug_str:0000000000000477 .LASF7
     /tmp/cctlGkjI.s:2945   .debug_str:0000000000000311 .LASF8
     /tmp/cctlGkjI.s:2921   .debug_str:0000000000000247 .LASF9
     /tmp/cctlGkjI.s:2927   .debug_str:0000000000000281 .LASF10
     /tmp/cctlGkjI.s:2875   .debug_str:0000000000000118 .LASF11
     /tmp/cctlGkjI.s:2915   .debug_str:0000000000000229 .LASF12
     /tmp/cctlGkjI.s:2885   .debug_str:0000000000000150 .LASF13
     /tmp/cctlGkjI.s:2873   .debug_str:0000000000000108 .LASF14
     /tmp/cctlGkjI.s:3041   .debug_str:00000000000005d7 .LASF15
     /tmp/cctlGkjI.s:2905   .debug_str:00000000000001c7 .LASF16
     /tmp/cctlGkjI.s:3035   .debug_str:00000000000005a9 .LASF17
     /tmp/cctlGkjI.s:2995   .debug_str:0000000000000436 .LASF21
     /tmp/cctlGkjI.s:2869   .debug_str:00000000000000e7 .LASF37
     /tmp/cctlGkjI.s:2877   .debug_str:0000000000000127 .LASF18
     /tmp/cctlGkjI.s:2859   .debug_str:00000000000000a3 .LASF19
     /tmp/cctlGkjI.s:2955   .debug_str:0000000000000346 .LASF20
     /tmp/cctlGkjI.s:2855   .debug_str:0000000000000076 .LASF22
     /tmp/cctlGkjI.s:3033   .debug_str:000000000000058e .LASF23
     /tmp/cctlGkjI.s:3085   .debug_str:00000000000007aa .LASF53
     /tmp/cctlGkjI.s:3089   .debug_str:00000000000007cb .LASF55
     /tmp/cctlGkjI.s:3053   .debug_str:000000000000061e .LASF24
     /tmp/cctlGkjI.s:2853   .debug_str:0000000000000068 .LASF25
     /tmp/cctlGkjI.s:2939   .debug_str:00000000000002e9 .LASF43
     /tmp/cctlGkjI.s:3027   .debug_str:000000000000054c .LASF45
     /tmp/cctlGkjI.s:3073   .debug_str:0000000000000747 .LASF51
     /tmp/cctlGkjI.s:2973   .debug_str:00000000000003b4 .LASF59
     /tmp/cctlGkjI.s:2999   .debug_str:0000000000000452 .LASF61
     /tmp/cctlGkjI.s:2975   .debug_str:00000000000003c1 .LASF26
     /tmp/cctlGkjI.s:2849   .debug_str:0000000000000035 .LASF27
     /tmp/cctlGkjI.s:3047   .debug_str:0000000000000602 .LASF28
     /tmp/cctlGkjI.s:3009   .debug_str:00000000000004c3 .LASF29
     /tmp/cctlGkjI.s:2843   .debug_str:0000000000000000 .LASF47
     /tmp/cctlGkjI.s:2863   .debug_str:00000000000000b3 .LASF49
     /tmp/cctlGkjI.s:3011   .debug_str:00000000000004e5 .LASF30
     /tmp/cctlGkjI.s:2943   .debug_str:0000000000000305 .LASF31
     /tmp/cctlGkjI.s:2901   .debug_str:00000000000001a9 .LASF124
     /tmp/cctlGkjI.s:2947   .debug_str:0000000000000324 .LASF32
     /tmp/cctlGkjI.s:2879   .debug_str:000000000000012c .LASF33
     /tmp/cctlGkjI.s:3061   .debug_str:000000000000070e .LASF34
     /tmp/cctlGkjI.s:2865   .debug_str:00000000000000d0 .LASF35
     /tmp/cctlGkjI.s:2969   .debug_str:00000000000003a5 .LASF36
     /tmp/cctlGkjI.s:2881   .debug_str:0000000000000135 .LASF38
     /tmp/cctlGkjI.s:3095   .debug_str:0000000000000818 .LASF39
GAS LISTING /tmp/cctlGkjI.s 			page 11


     /tmp/cctlGkjI.s:3081   .debug_str:000000000000077c .LASF40
     /tmp/cctlGkjI.s:2867   .debug_str:00000000000000d9 .LASF41
     /tmp/cctlGkjI.s:2913   .debug_str:0000000000000201 .LASF42
     /tmp/cctlGkjI.s:2959   .debug_str:000000000000035e .LASF44
     /tmp/cctlGkjI.s:2963   .debug_str:0000000000000371 .LASF46
     /tmp/cctlGkjI.s:2895   .debug_str:000000000000018c .LASF48
     /tmp/cctlGkjI.s:2883   .debug_str:000000000000013d .LASF50
     /tmp/cctlGkjI.s:3055   .debug_str:000000000000062c .LASF52
     /tmp/cctlGkjI.s:3031   .debug_str:0000000000000585 .LASF54
     /tmp/cctlGkjI.s:3003   .debug_str:000000000000048a .LASF56
     /tmp/cctlGkjI.s:2961   .debug_str:0000000000000364 .LASF57
     /tmp/cctlGkjI.s:3075   .debug_str:0000000000000751 .LASF58
     /tmp/cctlGkjI.s:3063   .debug_str:0000000000000715 .LASF60
     /tmp/cctlGkjI.s:2965   .debug_str:0000000000000386 .LASF62
     /tmp/cctlGkjI.s:3049   .debug_str:000000000000060b .LASF63
     /tmp/cctlGkjI.s:3043   .debug_str:00000000000005e3 .LASF64
     /tmp/cctlGkjI.s:2971   .debug_str:00000000000003ad .LASF65
     /tmp/cctlGkjI.s:2887   .debug_str:0000000000000160 .LASF66
     /tmp/cctlGkjI.s:3105   .debug_str:000000000000085c .LASF67
     /tmp/cctlGkjI.s:2925   .debug_str:0000000000000275 .LASF68
     /tmp/cctlGkjI.s:2935   .debug_str:00000000000002c7 .LASF69
     /tmp/cctlGkjI.s:2991   .debug_str:0000000000000422 .LASF70
     /tmp/cctlGkjI.s:2967   .debug_str:000000000000039c .LASF71
     /tmp/cctlGkjI.s:3019   .debug_str:0000000000000517 .LASF72
     /tmp/cctlGkjI.s:2861   .debug_str:00000000000000a8 .LASF73
     /tmp/cctlGkjI.s:3025   .debug_str:0000000000000540 .LASF74
     /tmp/cctlGkjI.s:2899   .debug_str:000000000000019b .LASF75
     /tmp/cctlGkjI.s:3015   .debug_str:00000000000004f5 .LASF76
     /tmp/cctlGkjI.s:2893   .debug_str:0000000000000184 .LASF77
     /tmp/cctlGkjI.s:3101   .debug_str:0000000000000837 .LASF78
     /tmp/cctlGkjI.s:3071   .debug_str:0000000000000742 .LASF79
     /tmp/cctlGkjI.s:3065   .debug_str:0000000000000720 .LASF80
     /tmp/cctlGkjI.s:2981   .debug_str:00000000000003f6 .LASF81
     /tmp/cctlGkjI.s:3045   .debug_str:00000000000005f9 .LASF82
     /tmp/cctlGkjI.s:3107   .debug_str:0000000000000869 .LASF87
     /tmp/cctlGkjI.s:2891   .debug_str:0000000000000176 .LASF100
     /tmp/cctlGkjI.s:2845   .debug_str:0000000000000006 .LASF102
     /tmp/cctlGkjI.s:3077   .debug_str:000000000000076a .LASF125
     /tmp/cctlGkjI.s:2851   .debug_str:0000000000000056 .LASF126
     /tmp/cctlGkjI.s:3013   .debug_str:00000000000004f0 .LASF83
     /tmp/cctlGkjI.s:2919   .debug_str:000000000000023d .LASF84
     /tmp/cctlGkjI.s:2949   .debug_str:000000000000032d .LASF85
     /tmp/cctlGkjI.s:3091   .debug_str:00000000000007e6 .LASF86
     /tmp/cctlGkjI.s:3097   .debug_str:000000000000081e .LASF127
     /tmp/cctlGkjI.s:2931   .debug_str:00000000000002a2 .LASF88
     /tmp/cctlGkjI.s:2989   .debug_str:0000000000000415 .LASF89
     /tmp/cctlGkjI.s:2977   .debug_str:00000000000003cb .LASF90
     /tmp/cctlGkjI.s:2897   .debug_str:0000000000000195 .LASF91
     /tmp/cctlGkjI.s:3087   .debug_str:00000000000007b5 .LASF92
     /tmp/cctlGkjI.s:3067   .debug_str:0000000000000728 .LASF93
     /tmp/cctlGkjI.s:2929   .debug_str:000000000000028f .LASF94
     /tmp/cctlGkjI.s:2871   .debug_str:00000000000000f3 .LASF95
     /tmp/cctlGkjI.s:3093   .debug_str:0000000000000806 .LASF96
     /tmp/cctlGkjI.s:3099   .debug_str:0000000000000832 .LASF97
     /tmp/cctlGkjI.s:3079   .debug_str:0000000000000772 .LASF98
     /tmp/cctlGkjI.s:2889   .debug_str:0000000000000171 .LASF101
     /tmp/cctlGkjI.s:2951   .debug_str:000000000000033c .LASF99
GAS LISTING /tmp/cctlGkjI.s 			page 12


     /tmp/cctlGkjI.s:3103   .debug_str:000000000000083d .LASF103
     /tmp/cctlGkjI.s:3039   .debug_str:00000000000005d2 .LASF104
     /tmp/cctlGkjI.s:2987   .debug_str:0000000000000410 .LASF105
     /tmp/cctlGkjI.s:2985   .debug_str:000000000000040b .LASF106
     /tmp/cctlGkjI.s:3037   .debug_str:00000000000005bf .LASF107
     /tmp/cctlGkjI.s:2909   .debug_str:00000000000001e4 .LASF108
     /tmp/cctlGkjI.s:3023   .debug_str:0000000000000536 .LASF128
     /tmp/cctlGkjI.s:3017   .debug_str:0000000000000500 .LASF129
     /tmp/cctlGkjI.s:2903   .debug_str:00000000000001af .LASF130
     /tmp/cctlGkjI.s:2953   .debug_str:0000000000000341 .LASF109
     /tmp/cctlGkjI.s:3059   .debug_str:00000000000006f8 .LASF110
     /tmp/cctlGkjI.s:2997   .debug_str:0000000000000446 .LASF111
     /tmp/cctlGkjI.s:3083   .debug_str:000000000000078c .LASF112
     /tmp/cctlGkjI.s:2857   .debug_str:000000000000008f .LASF131
     /tmp/cctlGkjI.s:2917   .debug_str:0000000000000238 .LASF113
     /tmp/cctlGkjI.s:3005   .debug_str:000000000000049d .LASF132
     /tmp/cctlGkjI.s:3051   .debug_str:0000000000000616 .LASF114
     /tmp/cctlGkjI.s:2979   .debug_str:00000000000003ee .LASF115
     /tmp/cctlGkjI.s:3069   .debug_str:000000000000073a .LASF116
     /tmp/cctlGkjI.s:228    .text:0000000000000124 .LFB29
     /tmp/cctlGkjI.s:254    .text:000000000000014c .LFE29
     /tmp/cctlGkjI.s:2658   .debug_loc:0000000000000000 .LLST12
     /tmp/cctlGkjI.s:243    .text:000000000000013c .LVL21
     /tmp/cctlGkjI.s:190    .text:00000000000000f4 .LFB28
     /tmp/cctlGkjI.s:222    .text:0000000000000124 .LFE28
     /tmp/cctlGkjI.s:2672   .debug_loc:0000000000000039 .LLST10
     /tmp/cctlGkjI.s:2983   .debug_str:0000000000000404 .LASF117
     /tmp/cctlGkjI.s:2692   .debug_loc:0000000000000088 .LLST11
     /tmp/cctlGkjI.s:211    .text:0000000000000114 .LVL19
     /tmp/cctlGkjI.s:152    .text:00000000000000c8 .LFB27
     /tmp/cctlGkjI.s:184    .text:00000000000000f4 .LFE27
     /tmp/cctlGkjI.s:163    .text:00000000000000d4 .LBB22
     /tmp/cctlGkjI.s:174    .text:00000000000000e4 .LBE22
     /tmp/cctlGkjI.s:2718   .debug_loc:00000000000000dc .LLST9
     /tmp/cctlGkjI.s:87     .text:0000000000000068 .LFB26
     /tmp/cctlGkjI.s:146    .text:00000000000000c8 .LFE26
     /tmp/cctlGkjI.s:2907   .debug_str:00000000000001dd .LASF118
     /tmp/cctlGkjI.s:2727   .debug_loc:0000000000000108 .LLST3
     /tmp/cctlGkjI.s:104    .text:0000000000000080 .LBB18
     /tmp/cctlGkjI.s:132    .text:00000000000000b4 .LBE18
     /tmp/cctlGkjI.s:2745   .debug_loc:0000000000000154 .LLST4
     /tmp/cctlGkjI.s:2756   .debug_loc:000000000000018a .LLST5
     /tmp/cctlGkjI.s:111    .text:000000000000008c .LBB20
     /tmp/cctlGkjI.s:118    .text:0000000000000094 .LBE20
     /tmp/cctlGkjI.s:2765   .debug_loc:00000000000001b6 .LLST6
     /tmp/cctlGkjI.s:2773   .debug_loc:00000000000001da .LLST7
     /tmp/cctlGkjI.s:2780   .debug_loc:00000000000001fd .LLST8
     /tmp/cctlGkjI.s:110    .text:000000000000008c .LVL10
     /tmp/cctlGkjI.s:10     .text:0000000000000000 .LFB25
     /tmp/cctlGkjI.s:81     .text:0000000000000068 .LFE25
     /tmp/cctlGkjI.s:26     .text:0000000000000014 .LBB14
     /tmp/cctlGkjI.s:2833   .debug_ranges:0000000000000000 .Ldebug_ranges0
     /tmp/cctlGkjI.s:2787   .debug_loc:0000000000000220 .LLST0
     /tmp/cctlGkjI.s:2802   .debug_loc:0000000000000268 .LLST1
     /tmp/cctlGkjI.s:2813   .debug_loc:000000000000029e .LLST2
     /tmp/cctlGkjI.s:46     .text:000000000000003c .LVL3
     /tmp/cctlGkjI.s:2911   .debug_str:00000000000001fb .LASF119
GAS LISTING /tmp/cctlGkjI.s 			page 13


     /tmp/cctlGkjI.s:2993   .debug_str:000000000000042f .LASF120
     /tmp/cctlGkjI.s:231    .text:0000000000000124 .LVL20
     /tmp/cctlGkjI.s:193    .text:00000000000000f4 .LVL16
     /tmp/cctlGkjI.s:205    .text:0000000000000108 .LVL17
     /tmp/cctlGkjI.s:209    .text:000000000000010c .LVL18
     /tmp/cctlGkjI.s:162    .text:00000000000000d4 .LVL14
     /tmp/cctlGkjI.s:172    .text:00000000000000e4 .LVL15
     /tmp/cctlGkjI.s:90     .text:0000000000000068 .LVL7
     /tmp/cctlGkjI.s:108    .text:0000000000000084 .LVL9
     /tmp/cctlGkjI.s:141    .text:00000000000000c0 .LVL13
     /tmp/cctlGkjI.s:103    .text:0000000000000080 .LVL8
     /tmp/cctlGkjI.s:130    .text:00000000000000b4 .LVL12
     /tmp/cctlGkjI.s:116    .text:0000000000000094 .LVL11
     /tmp/cctlGkjI.s:25     .text:0000000000000014 .LVL0
     /tmp/cctlGkjI.s:63     .text:0000000000000054 .LVL4
     /tmp/cctlGkjI.s:75     .text:0000000000000064 .LVL6
     /tmp/cctlGkjI.s:33     .text:0000000000000020 .LVL1
     /tmp/cctlGkjI.s:71     .text:0000000000000060 .LVL5
     /tmp/cctlGkjI.s:43     .text:0000000000000034 .LVL2
     /tmp/cctlGkjI.s:271    .debug_info:0000000000000000 .Ldebug_info0
     /tmp/cctlGkjI.s:49     .text:000000000000003c .LBE14
     /tmp/cctlGkjI.s:66     .text:0000000000000054 .LBB17
     /tmp/cctlGkjI.s:77     .text:0000000000000064 .LBE17

UNDEFINED SYMBOLS
_ZdlPv
_Znwm
_ZN15MemoryAllocator9mem_allocEm
_ZN15MemoryAllocator8mem_freeEPKv
