GAS LISTING /tmp/ccaJWEE9.s 			page 1


   1              		.file	"semaphore.cpp"
   2              		.option pic
   3              		.option norelax
   4              		.text
   5              	.Ltext0:
   6              		.align	2
   7              		.globl	_ZN3Sem7trywaitEv
   9              	_ZN3Sem7trywaitEv:
  10              	.LFB30:
  11              		.file 1 "src/semaphore.cpp"
   1:src/semaphore.cpp **** 
   2:src/semaphore.cpp **** #include "../h/semaphore.hpp"
   3:src/semaphore.cpp **** 
   4:src/semaphore.cpp **** int Sem::wait() {
   5:src/semaphore.cpp ****     if (isClosed) return SEM_CLOSED;
   6:src/semaphore.cpp ****     if (--value < 0) {
   7:src/semaphore.cpp ****         block();
   8:src/semaphore.cpp ****     }
   9:src/semaphore.cpp ****     return 0;
  10:src/semaphore.cpp **** }
  11:src/semaphore.cpp **** 
  12:src/semaphore.cpp **** int Sem::signal() {
  13:src/semaphore.cpp ****     if (isClosed) return SEM_CLOSED;
  14:src/semaphore.cpp ****     if (++value <= 0) deblock();
  15:src/semaphore.cpp ****     return 0;
  16:src/semaphore.cpp **** }
  17:src/semaphore.cpp **** 
  18:src/semaphore.cpp **** int Sem::trywait() { /// ??????????????????
  12              		.loc 1 18 20
  13              		.cfi_startproc
  14              	.LVL0:
  15 0000 130101FF 		addi	sp,sp,-16
  16              		.cfi_def_cfa_offset 16
  17 0004 23348100 		sd	s0,8(sp)
  18              		.cfi_offset 8, -8
  19 0008 13040101 		addi	s0,sp,16
  20              		.cfi_def_cfa 8, 0
  19:src/semaphore.cpp **** 
  20:src/semaphore.cpp ****     if (isClosed) return SEM_CLOSED; // error code
  21              		.loc 1 20 5
  22              		.loc 1 20 9 is_stmt 0
  23 000c 03474500 		lbu	a4,4(a0)
  24              		.loc 1 20 5
  25 0010 63180702 		bnez	a4,.L3
  26 0014 93070500 		mv	a5,a0
  21:src/semaphore.cpp ****     if (value <= 0) return NEG_VALUE; // no success
  27              		.loc 1 21 5 is_stmt 1
  28              		.loc 1 21 9 is_stmt 0
  29 0018 03270500 		lw	a4,0(a0)
  30              		.loc 1 21 5
  31 001c 6356E002 		blez	a4,.L4
  22:src/semaphore.cpp ****     --value;
  32              		.loc 1 22 5 is_stmt 1
  33 0020 1B07F7FF 		addiw	a4,a4,-1
  34 0024 1B050700 		sext.w	a0,a4
  35              	.LVL1:
  36 0028 23A0E700 		sw	a4,0(a5)
GAS LISTING /tmp/ccaJWEE9.s 			page 2


  23:src/semaphore.cpp ****     if (value == 0) return 0; // sem locked ??
  37              		.loc 1 23 5
  38 002c 63040500 		beqz	a0,.L2
  24:src/semaphore.cpp ****     return 1;                 // sem not locked
  39              		.loc 1 24 12 is_stmt 0
  40 0030 13051000 		li	a0,1
  41              	.LVL2:
  42              	.L2:
  25:src/semaphore.cpp **** }
  43              		.loc 1 25 1
  44 0034 03348100 		ld	s0,8(sp)
  45              		.cfi_remember_state
  46              		.cfi_restore 8
  47              		.cfi_def_cfa 2, 16
  48 0038 13010101 		addi	sp,sp,16
  49              		.cfi_def_cfa_offset 0
  50 003c 67800000 		jr	ra
  51              	.LVL3:
  52              	.L3:
  53              		.cfi_restore_state
  20:src/semaphore.cpp ****     if (value <= 0) return NEG_VALUE; // no success
  54              		.loc 1 20 26
  55 0040 1305D0FF 		li	a0,-3
  56              	.LVL4:
  57 0044 6FF01FFF 		j	.L2
  58              	.LVL5:
  59              	.L4:
  21:src/semaphore.cpp ****     --value;
  60              		.loc 1 21 28
  61 0048 1305E0FF 		li	a0,-2
  62              	.LVL6:
  63 004c 6FF09FFE 		j	.L2
  64              		.cfi_endproc
  65              	.LFE30:
  67              		.align	2
  68              		.globl	_ZN3Sem5blockEv
  70              	_ZN3Sem5blockEv:
  71              	.LFB31:
  26:src/semaphore.cpp **** 
  27:src/semaphore.cpp **** void Sem::block() {
  72              		.loc 1 27 19 is_stmt 1
  73              		.cfi_startproc
  74              	.LVL7:
  75 0050 130101FE 		addi	sp,sp,-32
  76              		.cfi_def_cfa_offset 32
  77 0054 233C1100 		sd	ra,24(sp)
  78 0058 23388100 		sd	s0,16(sp)
  79 005c 23349100 		sd	s1,8(sp)
  80              		.cfi_offset 1, -8
  81              		.cfi_offset 8, -16
  82              		.cfi_offset 9, -24
  83 0060 13040102 		addi	s0,sp,32
  84              		.cfi_def_cfa 8, 0
  28:src/semaphore.cpp **** 
  29:src/semaphore.cpp ****     TCB* oldRunning = TCB::running;
  85              		.loc 1 29 5
  86              		.loc 1 29 10 is_stmt 0
GAS LISTING /tmp/ccaJWEE9.s 			page 3


  87 0064 97070000 		la	a5,_ZN3TCB7runningE
  87      83B70700 
  88 006c 83B40700 		ld	s1,0(a5)
  89              	.LVL8:
  30:src/semaphore.cpp **** 
  31:src/semaphore.cpp ****     if (last) last = last->next_blocked = oldRunning; // with tcb pointers
  90              		.loc 1 31 5 is_stmt 1
  91              		.loc 1 31 9 is_stmt 0
  92 0070 83378500 		ld	a5,8(a0)
  93              		.loc 1 31 5
  94 0074 63860704 		beqz	a5,.L7
  95              		.loc 1 31 15 is_stmt 1 discriminator 1
  96              		.loc 1 31 41 is_stmt 0 discriminator 1
  97 0078 23BC9700 		sd	s1,24(a5)
  98              		.loc 1 31 20 discriminator 1
  99 007c 23349500 		sd	s1,8(a0)
 100              	.L8:
  32:src/semaphore.cpp ****     else first = last = oldRunning;
  33:src/semaphore.cpp **** 
  34:src/semaphore.cpp ****     oldRunning -> current_state = TCB::BLOCKED;
 101              		.loc 1 34 5 is_stmt 1
 102              		.loc 1 34 33 is_stmt 0
 103 0080 93074000 		li	a5,4
 104 0084 23ACF404 		sw	a5,88(s1)
  35:src/semaphore.cpp **** 
  36:src/semaphore.cpp ****     TCB::running = Scheduler::get();
 105              		.loc 1 36 5 is_stmt 1
 106              		.loc 1 36 34 is_stmt 0
 107 0088 97000000 		call	_ZN9Scheduler3getEv@plt
 107      E7800000 
 108              	.LVL9:
 109 0090 93050500 		mv	a1,a0
 110              		.loc 1 36 18
 111 0094 97070000 		la	a5,_ZN3TCB7runningE
 111      83B70700 
 112 009c 23B0A700 		sd	a0,0(a5)
  37:src/semaphore.cpp ****     TCB::yield(oldRunning, TCB::running);
 113              		.loc 1 37 5 is_stmt 1
 114              		.loc 1 37 15 is_stmt 0
 115 00a0 13850400 		mv	a0,s1
 116 00a4 97000000 		call	_ZN3TCB5yieldEPS_S0_@plt
 116      E7800000 
 117              	.LVL10:
  38:src/semaphore.cpp **** }
 118              		.loc 1 38 1
 119 00ac 83308101 		ld	ra,24(sp)
 120              		.cfi_remember_state
 121              		.cfi_restore 1
 122 00b0 03340101 		ld	s0,16(sp)
 123              		.cfi_restore 8
 124              		.cfi_def_cfa 2, 32
 125 00b4 83348100 		ld	s1,8(sp)
 126              		.cfi_restore 9
 127              	.LVL11:
 128 00b8 13010102 		addi	sp,sp,32
 129              		.cfi_def_cfa_offset 0
 130 00bc 67800000 		jr	ra
GAS LISTING /tmp/ccaJWEE9.s 			page 4


 131              	.LVL12:
 132              	.L7:
 133              		.cfi_restore_state
  32:src/semaphore.cpp **** 
 134              		.loc 1 32 10 is_stmt 1
  32:src/semaphore.cpp **** 
 135              		.loc 1 32 23 is_stmt 0
 136 00c0 23349500 		sd	s1,8(a0)
  32:src/semaphore.cpp **** 
 137              		.loc 1 32 16
 138 00c4 23389500 		sd	s1,16(a0)
 139 00c8 6FF09FFB 		j	.L8
 140              		.cfi_endproc
 141              	.LFE31:
 143              		.align	2
 144              		.globl	_ZN3Sem4waitEv
 146              	_ZN3Sem4waitEv:
 147              	.LFB28:
   4:src/semaphore.cpp ****     if (isClosed) return SEM_CLOSED;
 148              		.loc 1 4 17 is_stmt 1
 149              		.cfi_startproc
 150              	.LVL13:
   5:src/semaphore.cpp ****     if (--value < 0) {
 151              		.loc 1 5 5
   5:src/semaphore.cpp ****     if (--value < 0) {
 152              		.loc 1 5 9 is_stmt 0
 153 00cc 83474500 		lbu	a5,4(a0)
   5:src/semaphore.cpp ****     if (--value < 0) {
 154              		.loc 1 5 5
 155 00d0 63960704 		bnez	a5,.L12
   6:src/semaphore.cpp ****         block();
 156              		.loc 1 6 5 is_stmt 1
   6:src/semaphore.cpp ****         block();
 157              		.loc 1 6 11 is_stmt 0
 158 00d4 83270500 		lw	a5,0(a0)
   6:src/semaphore.cpp ****         block();
 159              		.loc 1 6 9
 160 00d8 9B87F7FF 		addiw	a5,a5,-1
   6:src/semaphore.cpp ****         block();
 161              		.loc 1 6 17
 162 00dc 2320F500 		sw	a5,0(a0)
   6:src/semaphore.cpp ****         block();
 163              		.loc 1 6 5
 164 00e0 13970702 		slli	a4,a5,32
 165 00e4 63460700 		bltz	a4,.L18
   9:src/semaphore.cpp **** }
 166              		.loc 1 9 12
 167 00e8 13050000 		li	a0,0
 168              	.LVL14:
  10:src/semaphore.cpp **** 
 169              		.loc 1 10 1
 170 00ec 67800000 		ret
 171              	.LVL15:
 172              	.L18:
   4:src/semaphore.cpp ****     if (isClosed) return SEM_CLOSED;
 173              		.loc 1 4 17
 174 00f0 130101FF 		addi	sp,sp,-16
GAS LISTING /tmp/ccaJWEE9.s 			page 5


 175              		.cfi_def_cfa_offset 16
 176 00f4 23341100 		sd	ra,8(sp)
 177 00f8 23308100 		sd	s0,0(sp)
 178              		.cfi_offset 1, -8
 179              		.cfi_offset 8, -16
 180 00fc 13040101 		addi	s0,sp,16
 181              		.cfi_def_cfa 8, 0
   7:src/semaphore.cpp ****     }
 182              		.loc 1 7 9 is_stmt 1
   7:src/semaphore.cpp ****     }
 183              		.loc 1 7 14 is_stmt 0
 184 0100 97000000 		call	_ZN3Sem5blockEv
 184      E7800000 
 185              	.LVL16:
   9:src/semaphore.cpp **** }
 186              		.loc 1 9 12
 187 0108 13050000 		li	a0,0
  10:src/semaphore.cpp **** 
 188              		.loc 1 10 1
 189 010c 83308100 		ld	ra,8(sp)
 190              		.cfi_restore 1
 191 0110 03340100 		ld	s0,0(sp)
 192              		.cfi_restore 8
 193              		.cfi_def_cfa 2, 16
 194 0114 13010101 		addi	sp,sp,16
 195              		.cfi_def_cfa_offset 0
 196 0118 67800000 		jr	ra
 197              	.LVL17:
 198              	.L12:
   5:src/semaphore.cpp ****     if (--value < 0) {
 199              		.loc 1 5 26
 200 011c 1305D0FF 		li	a0,-3
 201              	.LVL18:
 202 0120 67800000 		ret
 203              		.cfi_endproc
 204              	.LFE28:
 206              		.align	2
 207              		.globl	_ZN3Sem7deblockEv
 209              	_ZN3Sem7deblockEv:
 210              	.LFB32:
  39:src/semaphore.cpp **** 
  40:src/semaphore.cpp **** void Sem::deblock() {
 211              		.loc 1 40 21 is_stmt 1
 212              		.cfi_startproc
 213              	.LVL19:
 214 0124 93070500 		mv	a5,a0
  41:src/semaphore.cpp **** 
  42:src/semaphore.cpp ****     // needs modification for timedWait
  43:src/semaphore.cpp **** 
  44:src/semaphore.cpp ****     if (!first) return;          // blocked empty
 215              		.loc 1 44 5
 216              		.loc 1 44 10 is_stmt 0
 217 0128 03350501 		ld	a0,16(a0)
 218              	.LVL20:
 219              		.loc 1 44 5
 220 012c 63040504 		beqz	a0,.L23
  40:src/semaphore.cpp **** 
GAS LISTING /tmp/ccaJWEE9.s 			page 6


 221              		.loc 1 40 21
 222 0130 130101FF 		addi	sp,sp,-16
 223              		.cfi_def_cfa_offset 16
 224 0134 23341100 		sd	ra,8(sp)
 225 0138 23308100 		sd	s0,0(sp)
 226              		.cfi_offset 1, -8
 227              		.cfi_offset 8, -16
 228 013c 13040101 		addi	s0,sp,16
 229              		.cfi_def_cfa 8, 0
  45:src/semaphore.cpp ****     TCB* t = first;
 230              		.loc 1 45 5 is_stmt 1
 231              	.LVL21:
  46:src/semaphore.cpp ****     first = first -> next_blocked;
 232              		.loc 1 46 5
 233              		.loc 1 46 22 is_stmt 0
 234 0140 03378501 		ld	a4,24(a0)
 235              		.loc 1 46 11
 236 0144 23B8E700 		sd	a4,16(a5)
  47:src/semaphore.cpp ****     if (!first) last = nullptr;
 237              		.loc 1 47 5 is_stmt 1
 238 0148 63020702 		beqz	a4,.L26
 239              	.L21:
  48:src/semaphore.cpp **** 
  49:src/semaphore.cpp ****     t -> next_blocked = nullptr;
 240              		.loc 1 49 5
 241              		.loc 1 49 23 is_stmt 0
 242 014c 233C0500 		sd	zero,24(a0)
  50:src/semaphore.cpp ****     t -> current_state = TCB::RUNNABLE;
 243              		.loc 1 50 5 is_stmt 1
 244              		.loc 1 50 24 is_stmt 0
 245 0150 232C0504 		sw	zero,88(a0)
  51:src/semaphore.cpp ****     Scheduler::put(t);
 246              		.loc 1 51 5 is_stmt 1
 247              		.loc 1 51 19 is_stmt 0
 248 0154 97000000 		call	_ZN9Scheduler3putEP3TCB@plt
 248      E7800000 
 249              	.LVL22:
  52:src/semaphore.cpp **** }
 250              		.loc 1 52 1
 251 015c 83308100 		ld	ra,8(sp)
 252              		.cfi_remember_state
 253              		.cfi_restore 1
 254 0160 03340100 		ld	s0,0(sp)
 255              		.cfi_restore 8
 256              		.cfi_def_cfa 2, 16
 257 0164 13010101 		addi	sp,sp,16
 258              		.cfi_def_cfa_offset 0
 259 0168 67800000 		jr	ra
 260              	.LVL23:
 261              	.L26:
 262              		.cfi_restore_state
  47:src/semaphore.cpp **** 
 263              		.loc 1 47 17 is_stmt 1 discriminator 1
  47:src/semaphore.cpp **** 
 264              		.loc 1 47 22 is_stmt 0 discriminator 1
 265 016c 23B40700 		sd	zero,8(a5)
 266 0170 6FF0DFFD 		j	.L21
GAS LISTING /tmp/ccaJWEE9.s 			page 7


 267              	.LVL24:
 268              	.L23:
 269              		.cfi_def_cfa_register 2
 270              		.cfi_restore 1
 271              		.cfi_restore 8
 272 0174 67800000 		ret
 273              		.cfi_endproc
 274              	.LFE32:
 276              		.align	2
 277              		.globl	_ZN3Sem6signalEv
 279              	_ZN3Sem6signalEv:
 280              	.LFB29:
  12:src/semaphore.cpp ****     if (isClosed) return SEM_CLOSED;
 281              		.loc 1 12 19 is_stmt 1
 282              		.cfi_startproc
 283              	.LVL25:
  13:src/semaphore.cpp ****     if (++value <= 0) deblock();
 284              		.loc 1 13 5
  13:src/semaphore.cpp ****     if (++value <= 0) deblock();
 285              		.loc 1 13 9 is_stmt 0
 286 0178 83474500 		lbu	a5,4(a0)
  13:src/semaphore.cpp ****     if (++value <= 0) deblock();
 287              		.loc 1 13 5
 288 017c 63960704 		bnez	a5,.L29
  14:src/semaphore.cpp ****     return 0;
 289              		.loc 1 14 5 is_stmt 1
  14:src/semaphore.cpp ****     return 0;
 290              		.loc 1 14 11 is_stmt 0
 291 0180 83270500 		lw	a5,0(a0)
  14:src/semaphore.cpp ****     return 0;
 292              		.loc 1 14 9
 293 0184 9B871700 		addiw	a5,a5,1
 294 0188 1B870700 		sext.w	a4,a5
  14:src/semaphore.cpp ****     return 0;
 295              		.loc 1 14 17
 296 018c 2320F500 		sw	a5,0(a0)
  14:src/semaphore.cpp ****     return 0;
 297              		.loc 1 14 5
 298 0190 6356E000 		blez	a4,.L35
  15:src/semaphore.cpp **** }
 299              		.loc 1 15 12
 300 0194 13050000 		li	a0,0
 301              	.LVL26:
  16:src/semaphore.cpp **** 
 302              		.loc 1 16 1
 303 0198 67800000 		ret
 304              	.LVL27:
 305              	.L35:
  12:src/semaphore.cpp ****     if (isClosed) return SEM_CLOSED;
 306              		.loc 1 12 19 discriminator 1
 307 019c 130101FF 		addi	sp,sp,-16
 308              		.cfi_def_cfa_offset 16
 309 01a0 23341100 		sd	ra,8(sp)
 310 01a4 23308100 		sd	s0,0(sp)
 311              		.cfi_offset 1, -8
 312              		.cfi_offset 8, -16
 313 01a8 13040101 		addi	s0,sp,16
GAS LISTING /tmp/ccaJWEE9.s 			page 8


 314              		.cfi_def_cfa 8, 0
  14:src/semaphore.cpp ****     return 0;
 315              		.loc 1 14 23 is_stmt 1 discriminator 1
  14:src/semaphore.cpp ****     return 0;
 316              		.loc 1 14 30 is_stmt 0 discriminator 1
 317 01ac 97000000 		call	_ZN3Sem7deblockEv
 317      E7800000 
 318              	.LVL28:
  15:src/semaphore.cpp **** }
 319              		.loc 1 15 12 discriminator 1
 320 01b4 13050000 		li	a0,0
  16:src/semaphore.cpp **** 
 321              		.loc 1 16 1 discriminator 1
 322 01b8 83308100 		ld	ra,8(sp)
 323              		.cfi_restore 1
 324 01bc 03340100 		ld	s0,0(sp)
 325              		.cfi_restore 8
 326              		.cfi_def_cfa 2, 16
 327 01c0 13010101 		addi	sp,sp,16
 328              		.cfi_def_cfa_offset 0
 329 01c4 67800000 		jr	ra
 330              	.LVL29:
 331              	.L29:
  13:src/semaphore.cpp ****     if (++value <= 0) deblock();
 332              		.loc 1 13 26
 333 01c8 1305D0FF 		li	a0,-3
 334              	.LVL30:
 335 01cc 67800000 		ret
 336              		.cfi_endproc
 337              	.LFE29:
 339              		.align	2
 340              		.globl	_ZN3Sem9timedWaitEm
 342              	_ZN3Sem9timedWaitEm:
 343              	.LFB33:
  53:src/semaphore.cpp **** 
  54:src/semaphore.cpp **** int Sem::timedWait(time_t) {
 344              		.loc 1 54 28 is_stmt 1
 345              		.cfi_startproc
 346              	.LVL31:
 347 01d0 130101FF 		addi	sp,sp,-16
 348              		.cfi_def_cfa_offset 16
 349 01d4 23348100 		sd	s0,8(sp)
 350              		.cfi_offset 8, -8
 351 01d8 13040101 		addi	s0,sp,16
 352              		.cfi_def_cfa 8, 0
  55:src/semaphore.cpp ****     // after timer implementation
  56:src/semaphore.cpp ****     return 0;
 353              		.loc 1 56 5
  57:src/semaphore.cpp **** }
 354              		.loc 1 57 1 is_stmt 0
 355 01dc 13050000 		li	a0,0
 356              	.LVL32:
 357 01e0 03348100 		ld	s0,8(sp)
 358              		.cfi_restore 8
 359              		.cfi_def_cfa 2, 16
 360 01e4 13010101 		addi	sp,sp,16
 361              		.cfi_def_cfa_offset 0
GAS LISTING /tmp/ccaJWEE9.s 			page 9


 362 01e8 67800000 		jr	ra
 363              		.cfi_endproc
 364              	.LFE33:
 366              		.align	2
 367              		.globl	_ZN3Sem4openEPPS_j
 369              	_ZN3Sem4openEPPS_j:
 370              	.LFB34:
  58:src/semaphore.cpp **** 
  59:src/semaphore.cpp **** int Sem::open(sem_t *handle, unsigned int init) { // ne ovde
 371              		.loc 1 59 49 is_stmt 1
 372              		.cfi_startproc
 373              	.LVL33:
 374 01ec 130101FE 		addi	sp,sp,-32
 375              		.cfi_def_cfa_offset 32
 376 01f0 233C1100 		sd	ra,24(sp)
 377 01f4 23388100 		sd	s0,16(sp)
 378 01f8 23349100 		sd	s1,8(sp)
 379 01fc 23302101 		sd	s2,0(sp)
 380              		.cfi_offset 1, -8
 381              		.cfi_offset 8, -16
 382              		.cfi_offset 9, -24
 383              		.cfi_offset 18, -32
 384 0200 13040102 		addi	s0,sp,32
 385              		.cfi_def_cfa 8, 0
 386 0204 93040500 		mv	s1,a0
 387 0208 13890500 		mv	s2,a1
  60:src/semaphore.cpp ****     auto newSem = (sem_t) MemoryAllocator::mem_alloc(sizeof(Sem));
 388              		.loc 1 60 5
 389              		.loc 1 60 53 is_stmt 0
 390 020c 13058001 		li	a0,24
 391              	.LVL34:
 392 0210 97000000 		call	_ZN15MemoryAllocator9mem_allocEm@plt
 392      E7800000 
 393              	.LVL35:
  61:src/semaphore.cpp ****     if (!newSem) return MEMORY_ERR;
 394              		.loc 1 61 5 is_stmt 1
 395 0218 63040502 		beqz	a0,.L40
  62:src/semaphore.cpp ****     newSem -> value = init;
 396              		.loc 1 62 5
 397              		.loc 1 62 21 is_stmt 0
 398 021c 23202501 		sw	s2,0(a0)
  63:src/semaphore.cpp ****     *handle = newSem;
 399              		.loc 1 63 5 is_stmt 1
 400              		.loc 1 63 13 is_stmt 0
 401 0220 23B0A400 		sd	a0,0(s1)
  64:src/semaphore.cpp ****     return 0;
 402              		.loc 1 64 5 is_stmt 1
 403              		.loc 1 64 12 is_stmt 0
 404 0224 13050000 		li	a0,0
 405              	.LVL36:
 406              	.L39:
  65:src/semaphore.cpp **** }
 407              		.loc 1 65 1
 408 0228 83308101 		ld	ra,24(sp)
 409              		.cfi_remember_state
 410              		.cfi_restore 1
 411 022c 03340101 		ld	s0,16(sp)
GAS LISTING /tmp/ccaJWEE9.s 			page 10


 412              		.cfi_restore 8
 413              		.cfi_def_cfa 2, 32
 414 0230 83348100 		ld	s1,8(sp)
 415              		.cfi_restore 9
 416              	.LVL37:
 417 0234 03390100 		ld	s2,0(sp)
 418              		.cfi_restore 18
 419 0238 13010102 		addi	sp,sp,32
 420              		.cfi_def_cfa_offset 0
 421 023c 67800000 		jr	ra
 422              	.LVL38:
 423              	.L40:
 424              		.cfi_restore_state
  61:src/semaphore.cpp ****     newSem -> value = init;
 425              		.loc 1 61 25
 426 0240 1305F0FF 		li	a0,-1
 427              	.LVL39:
 428 0244 6FF05FFE 		j	.L39
 429              		.cfi_endproc
 430              	.LFE34:
 432              		.align	2
 433              		.globl	_ZN3SemdlEPv
 435              	_ZN3SemdlEPv:
 436              	.LFB36:
  66:src/semaphore.cpp **** 
  67:src/semaphore.cpp **** int Sem::s_close(sem_t handle) {
  68:src/semaphore.cpp **** 
  69:src/semaphore.cpp ****     if (!handle) return SEM_CLOSED; // da li je dealociran ?
  70:src/semaphore.cpp **** 
  71:src/semaphore.cpp ****     for (TCB* b = handle->first; b != nullptr; b = b -> next_blocked) {
  72:src/semaphore.cpp ****         b -> current_state = TCB::RUNNABLE;
  73:src/semaphore.cpp ****         Scheduler::put(b);
  74:src/semaphore.cpp ****     } // release all blocked threads
  75:src/semaphore.cpp **** 
  76:src/semaphore.cpp ****     delete handle; //
  77:src/semaphore.cpp **** 
  78:src/semaphore.cpp ****     return 0;
  79:src/semaphore.cpp **** }
  80:src/semaphore.cpp **** 
  81:src/semaphore.cpp **** void Sem::operator delete(void *ptr) {
 437              		.loc 1 81 38 is_stmt 1
 438              		.cfi_startproc
 439              	.LVL40:
 440 0248 130101FF 		addi	sp,sp,-16
 441              		.cfi_def_cfa_offset 16
 442 024c 23341100 		sd	ra,8(sp)
 443 0250 23308100 		sd	s0,0(sp)
 444              		.cfi_offset 1, -8
 445              		.cfi_offset 8, -16
 446 0254 13040101 		addi	s0,sp,16
 447              		.cfi_def_cfa 8, 0
  82:src/semaphore.cpp ****     MemoryAllocator::mem_free(ptr);
 448              		.loc 1 82 5
 449              		.loc 1 82 30 is_stmt 0
 450 0258 97000000 		call	_ZN15MemoryAllocator8mem_freeEPKv@plt
 450      E7800000 
 451              	.LVL41:
GAS LISTING /tmp/ccaJWEE9.s 			page 11


  83:src/semaphore.cpp **** }
 452              		.loc 1 83 1
 453 0260 83308100 		ld	ra,8(sp)
 454              		.cfi_restore 1
 455 0264 03340100 		ld	s0,0(sp)
 456              		.cfi_restore 8
 457              		.cfi_def_cfa 2, 16
 458 0268 13010101 		addi	sp,sp,16
 459              		.cfi_def_cfa_offset 0
 460 026c 67800000 		jr	ra
 461              		.cfi_endproc
 462              	.LFE36:
 464              		.align	2
 465              		.globl	_ZN3Sem7s_closeEPS_
 467              	_ZN3Sem7s_closeEPS_:
 468              	.LFB35:
  67:src/semaphore.cpp **** 
 469              		.loc 1 67 32 is_stmt 1
 470              		.cfi_startproc
 471              	.LVL42:
  69:src/semaphore.cpp **** 
 472              		.loc 1 69 5
 473 0270 63040506 		beqz	a0,.L48
  67:src/semaphore.cpp **** 
 474              		.loc 1 67 32 is_stmt 0
 475 0274 130101FE 		addi	sp,sp,-32
 476              		.cfi_def_cfa_offset 32
 477 0278 233C1100 		sd	ra,24(sp)
 478 027c 23388100 		sd	s0,16(sp)
 479 0280 23349100 		sd	s1,8(sp)
 480 0284 23302101 		sd	s2,0(sp)
 481              		.cfi_offset 1, -8
 482              		.cfi_offset 8, -16
 483              		.cfi_offset 9, -24
 484              		.cfi_offset 18, -32
 485 0288 13040102 		addi	s0,sp,32
 486              		.cfi_def_cfa 8, 0
 487 028c 13090500 		mv	s2,a0
  71:src/semaphore.cpp ****         b -> current_state = TCB::RUNNABLE;
 488              		.loc 1 71 5 is_stmt 1
 489              	.LBB2:
  71:src/semaphore.cpp ****         b -> current_state = TCB::RUNNABLE;
 490              		.loc 1 71 15 is_stmt 0
 491 0290 83340501 		ld	s1,16(a0)
 492              	.LVL43:
 493              	.L47:
  71:src/semaphore.cpp ****         b -> current_state = TCB::RUNNABLE;
 494              		.loc 1 71 36 is_stmt 1 discriminator 3
 495 0294 638E0400 		beqz	s1,.L46
  72:src/semaphore.cpp ****         Scheduler::put(b);
 496              		.loc 1 72 9 discriminator 2
  72:src/semaphore.cpp ****         Scheduler::put(b);
 497              		.loc 1 72 28 is_stmt 0 discriminator 2
 498 0298 23AC0404 		sw	zero,88(s1)
  73:src/semaphore.cpp ****     } // release all blocked threads
 499              		.loc 1 73 9 is_stmt 1 discriminator 2
  73:src/semaphore.cpp ****     } // release all blocked threads
GAS LISTING /tmp/ccaJWEE9.s 			page 12


 500              		.loc 1 73 23 is_stmt 0 discriminator 2
 501 029c 13850400 		mv	a0,s1
 502 02a0 97000000 		call	_ZN9Scheduler3putEP3TCB@plt
 502      E7800000 
 503              	.LVL44:
  71:src/semaphore.cpp ****         b -> current_state = TCB::RUNNABLE;
 504              		.loc 1 71 5 is_stmt 1 discriminator 2
  71:src/semaphore.cpp ****         b -> current_state = TCB::RUNNABLE;
 505              		.loc 1 71 50 is_stmt 0 discriminator 2
 506 02a8 83B48401 		ld	s1,24(s1)
 507              	.LVL45:
  71:src/semaphore.cpp ****         b -> current_state = TCB::RUNNABLE;
 508              		.loc 1 71 5 discriminator 2
 509 02ac 6FF09FFE 		j	.L47
 510              	.L46:
 511              	.LBE2:
  76:src/semaphore.cpp **** 
 512              		.loc 1 76 5 is_stmt 1 discriminator 1
  76:src/semaphore.cpp **** 
 513              		.loc 1 76 12 is_stmt 0 discriminator 1
 514 02b0 13050900 		mv	a0,s2
 515 02b4 97000000 		call	_ZN3SemdlEPv
 515      E7800000 
 516              	.LVL46:
  78:src/semaphore.cpp **** }
 517              		.loc 1 78 5 is_stmt 1 discriminator 1
  78:src/semaphore.cpp **** }
 518              		.loc 1 78 12 is_stmt 0 discriminator 1
 519 02bc 13050000 		li	a0,0
  79:src/semaphore.cpp **** 
 520              		.loc 1 79 1 discriminator 1
 521 02c0 83308101 		ld	ra,24(sp)
 522              		.cfi_restore 1
 523 02c4 03340101 		ld	s0,16(sp)
 524              		.cfi_restore 8
 525              		.cfi_def_cfa 2, 32
 526 02c8 83348100 		ld	s1,8(sp)
 527              		.cfi_restore 9
 528              	.LVL47:
 529 02cc 03390100 		ld	s2,0(sp)
 530              		.cfi_restore 18
 531              	.LVL48:
 532 02d0 13010102 		addi	sp,sp,32
 533              		.cfi_def_cfa_offset 0
 534 02d4 67800000 		jr	ra
 535              	.LVL49:
 536              	.L48:
  69:src/semaphore.cpp **** 
 537              		.loc 1 69 25
 538 02d8 1305D0FF 		li	a0,-3
 539              	.LVL50:
  79:src/semaphore.cpp **** 
 540              		.loc 1 79 1
 541 02dc 67800000 		ret
 542              		.cfi_endproc
 543              	.LFE35:
 545              		.align	2
GAS LISTING /tmp/ccaJWEE9.s 			page 13


 546              		.globl	_ZN3SemnwEm
 548              	_ZN3SemnwEm:
 549              	.LFB37:
  84:src/semaphore.cpp **** 
  85:src/semaphore.cpp **** void *Sem::operator new(size_t size) {
 550              		.loc 1 85 38 is_stmt 1
 551              		.cfi_startproc
 552              	.LVL51:
 553 02e0 130101FF 		addi	sp,sp,-16
 554              		.cfi_def_cfa_offset 16
 555 02e4 23341100 		sd	ra,8(sp)
 556 02e8 23308100 		sd	s0,0(sp)
 557              		.cfi_offset 1, -8
 558              		.cfi_offset 8, -16
 559 02ec 13040101 		addi	s0,sp,16
 560              		.cfi_def_cfa 8, 0
  86:src/semaphore.cpp ****     return MemoryAllocator::mem_alloc((mem_h_size + size + MEM_BLOCK_SIZE - 1) / MEM_BLOCK_SIZE);
 561              		.loc 1 86 5
 562              		.loc 1 86 75 is_stmt 0
 563 02f0 13057505 		addi	a0,a0,87
 564              	.LVL52:
 565              		.loc 1 86 38
 566 02f4 13556500 		srli	a0,a0,6
 567              	.LVL53:
 568 02f8 97000000 		call	_ZN15MemoryAllocator9mem_allocEm@plt
 568      E7800000 
 569              	.LVL54:
  87:src/semaphore.cpp **** }
 570              		.loc 1 87 1
 571 0300 83308100 		ld	ra,8(sp)
 572              		.cfi_restore 1
 573 0304 03340100 		ld	s0,0(sp)
 574              		.cfi_restore 8
 575              		.cfi_def_cfa 2, 16
 576 0308 13010101 		addi	sp,sp,16
 577              		.cfi_def_cfa_offset 0
 578 030c 67800000 		jr	ra
 579              		.cfi_endproc
 580              	.LFE37:
 582              	.Letext0:
 583              		.file 2 "src/../h/../lib/hw.h"
 584              		.file 3 "src/../h/../h/Memoryallocator.hpp"
 585              		.file 4 "src/../h/thread.hpp"
 586              		.file 5 "src/../h/Scheduler.hpp"
 587              		.file 6 "src/../h/semaphore.hpp"
GAS LISTING /tmp/ccaJWEE9.s 			page 14


DEFINED SYMBOLS
                            *ABS*:0000000000000000 semaphore.cpp
     /tmp/ccaJWEE9.s:9      .text:0000000000000000 _ZN3Sem7trywaitEv
     /tmp/ccaJWEE9.s:13     .text:0000000000000000 .L0 
     /tmp/ccaJWEE9.s:15     .text:0000000000000000 .L0 
     /tmp/ccaJWEE9.s:16     .text:0000000000000004 .L0 
     /tmp/ccaJWEE9.s:18     .text:0000000000000008 .L0 
     /tmp/ccaJWEE9.s:20     .text:000000000000000c .L0 
     /tmp/ccaJWEE9.s:22     .text:000000000000000c .L0 
     /tmp/ccaJWEE9.s:23     .text:000000000000000c .L0 
     /tmp/ccaJWEE9.s:25     .text:0000000000000010 .L0 
     /tmp/ccaJWEE9.s:28     .text:0000000000000018 .L0 
     /tmp/ccaJWEE9.s:29     .text:0000000000000018 .L0 
     /tmp/ccaJWEE9.s:31     .text:000000000000001c .L0 
     /tmp/ccaJWEE9.s:33     .text:0000000000000020 .L0 
     /tmp/ccaJWEE9.s:38     .text:000000000000002c .L0 
     /tmp/ccaJWEE9.s:40     .text:0000000000000030 .L0 
     /tmp/ccaJWEE9.s:44     .text:0000000000000034 .L0 
     /tmp/ccaJWEE9.s:45     .text:0000000000000038 .L0 
     /tmp/ccaJWEE9.s:46     .text:0000000000000038 .L0 
     /tmp/ccaJWEE9.s:47     .text:0000000000000038 .L0 
     /tmp/ccaJWEE9.s:49     .text:000000000000003c .L0 
     /tmp/ccaJWEE9.s:53     .text:0000000000000040 .L0 
     /tmp/ccaJWEE9.s:55     .text:0000000000000040 .L0 
     /tmp/ccaJWEE9.s:61     .text:0000000000000048 .L0 
     /tmp/ccaJWEE9.s:64     .text:0000000000000050 .L0 
     /tmp/ccaJWEE9.s:70     .text:0000000000000050 _ZN3Sem5blockEv
     /tmp/ccaJWEE9.s:73     .text:0000000000000050 .L0 
     /tmp/ccaJWEE9.s:75     .text:0000000000000050 .L0 
     /tmp/ccaJWEE9.s:76     .text:0000000000000054 .L0 
     /tmp/ccaJWEE9.s:80     .text:0000000000000060 .L0 
     /tmp/ccaJWEE9.s:81     .text:0000000000000060 .L0 
     /tmp/ccaJWEE9.s:82     .text:0000000000000060 .L0 
     /tmp/ccaJWEE9.s:84     .text:0000000000000064 .L0 
     /tmp/ccaJWEE9.s:86     .text:0000000000000064 .L0 
     /tmp/ccaJWEE9.s:87     .text:0000000000000064 .L0 
     /tmp/ccaJWEE9.s:91     .text:0000000000000070 .L0 
     /tmp/ccaJWEE9.s:92     .text:0000000000000070 .L0 
     /tmp/ccaJWEE9.s:94     .text:0000000000000074 .L0 
     /tmp/ccaJWEE9.s:96     .text:0000000000000078 .L0 
     /tmp/ccaJWEE9.s:97     .text:0000000000000078 .L0 
     /tmp/ccaJWEE9.s:99     .text:000000000000007c .L0 
     /tmp/ccaJWEE9.s:102    .text:0000000000000080 .L0 
     /tmp/ccaJWEE9.s:103    .text:0000000000000080 .L0 
     /tmp/ccaJWEE9.s:106    .text:0000000000000088 .L0 
     /tmp/ccaJWEE9.s:107    .text:0000000000000088 .L0 
     /tmp/ccaJWEE9.s:111    .text:0000000000000094 .L0 
     /tmp/ccaJWEE9.s:114    .text:00000000000000a0 .L0 
     /tmp/ccaJWEE9.s:115    .text:00000000000000a0 .L0 
     /tmp/ccaJWEE9.s:119    .text:00000000000000ac .L0 
     /tmp/ccaJWEE9.s:120    .text:00000000000000b0 .L0 
     /tmp/ccaJWEE9.s:121    .text:00000000000000b0 .L0 
     /tmp/ccaJWEE9.s:123    .text:00000000000000b4 .L0 
     /tmp/ccaJWEE9.s:124    .text:00000000000000b4 .L0 
     /tmp/ccaJWEE9.s:126    .text:00000000000000b8 .L0 
     /tmp/ccaJWEE9.s:129    .text:00000000000000bc .L0 
     /tmp/ccaJWEE9.s:133    .text:00000000000000c0 .L0 
GAS LISTING /tmp/ccaJWEE9.s 			page 15


     /tmp/ccaJWEE9.s:135    .text:00000000000000c0 .L0 
     /tmp/ccaJWEE9.s:136    .text:00000000000000c0 .L0 
     /tmp/ccaJWEE9.s:138    .text:00000000000000c4 .L0 
     /tmp/ccaJWEE9.s:140    .text:00000000000000cc .L0 
     /tmp/ccaJWEE9.s:146    .text:00000000000000cc _ZN3Sem4waitEv
     /tmp/ccaJWEE9.s:149    .text:00000000000000cc .L0 
     /tmp/ccaJWEE9.s:151    .text:00000000000000cc .L0 
     /tmp/ccaJWEE9.s:152    .text:00000000000000cc .L0 
     /tmp/ccaJWEE9.s:153    .text:00000000000000cc .L0 
     /tmp/ccaJWEE9.s:155    .text:00000000000000d0 .L0 
     /tmp/ccaJWEE9.s:157    .text:00000000000000d4 .L0 
     /tmp/ccaJWEE9.s:158    .text:00000000000000d4 .L0 
     /tmp/ccaJWEE9.s:160    .text:00000000000000d8 .L0 
     /tmp/ccaJWEE9.s:162    .text:00000000000000dc .L0 
     /tmp/ccaJWEE9.s:164    .text:00000000000000e0 .L0 
     /tmp/ccaJWEE9.s:167    .text:00000000000000e8 .L0 
     /tmp/ccaJWEE9.s:170    .text:00000000000000ec .L0 
     /tmp/ccaJWEE9.s:174    .text:00000000000000f0 .L0 
     /tmp/ccaJWEE9.s:175    .text:00000000000000f4 .L0 
     /tmp/ccaJWEE9.s:178    .text:00000000000000fc .L0 
     /tmp/ccaJWEE9.s:179    .text:00000000000000fc .L0 
     /tmp/ccaJWEE9.s:181    .text:0000000000000100 .L0 
     /tmp/ccaJWEE9.s:183    .text:0000000000000100 .L0 
     /tmp/ccaJWEE9.s:184    .text:0000000000000100 .L0 
     /tmp/ccaJWEE9.s:187    .text:0000000000000108 .L0 
     /tmp/ccaJWEE9.s:189    .text:000000000000010c .L0 
     /tmp/ccaJWEE9.s:190    .text:0000000000000110 .L0 
     /tmp/ccaJWEE9.s:192    .text:0000000000000114 .L0 
     /tmp/ccaJWEE9.s:193    .text:0000000000000114 .L0 
     /tmp/ccaJWEE9.s:195    .text:0000000000000118 .L0 
     /tmp/ccaJWEE9.s:200    .text:000000000000011c .L0 
     /tmp/ccaJWEE9.s:203    .text:0000000000000124 .L0 
     /tmp/ccaJWEE9.s:209    .text:0000000000000124 _ZN3Sem7deblockEv
     /tmp/ccaJWEE9.s:212    .text:0000000000000124 .L0 
     /tmp/ccaJWEE9.s:214    .text:0000000000000124 .L0 
     /tmp/ccaJWEE9.s:216    .text:0000000000000128 .L0 
     /tmp/ccaJWEE9.s:217    .text:0000000000000128 .L0 
     /tmp/ccaJWEE9.s:220    .text:000000000000012c .L0 
     /tmp/ccaJWEE9.s:222    .text:0000000000000130 .L0 
     /tmp/ccaJWEE9.s:223    .text:0000000000000134 .L0 
     /tmp/ccaJWEE9.s:226    .text:000000000000013c .L0 
     /tmp/ccaJWEE9.s:227    .text:000000000000013c .L0 
     /tmp/ccaJWEE9.s:229    .text:0000000000000140 .L0 
     /tmp/ccaJWEE9.s:232    .text:0000000000000140 .L0 
     /tmp/ccaJWEE9.s:233    .text:0000000000000140 .L0 
     /tmp/ccaJWEE9.s:234    .text:0000000000000140 .L0 
     /tmp/ccaJWEE9.s:236    .text:0000000000000144 .L0 
     /tmp/ccaJWEE9.s:238    .text:0000000000000148 .L0 
     /tmp/ccaJWEE9.s:241    .text:000000000000014c .L0 
     /tmp/ccaJWEE9.s:242    .text:000000000000014c .L0 
     /tmp/ccaJWEE9.s:244    .text:0000000000000150 .L0 
     /tmp/ccaJWEE9.s:245    .text:0000000000000150 .L0 
     /tmp/ccaJWEE9.s:247    .text:0000000000000154 .L0 
     /tmp/ccaJWEE9.s:248    .text:0000000000000154 .L0 
     /tmp/ccaJWEE9.s:251    .text:000000000000015c .L0 
     /tmp/ccaJWEE9.s:252    .text:0000000000000160 .L0 
     /tmp/ccaJWEE9.s:253    .text:0000000000000160 .L0 
GAS LISTING /tmp/ccaJWEE9.s 			page 16


     /tmp/ccaJWEE9.s:255    .text:0000000000000164 .L0 
     /tmp/ccaJWEE9.s:256    .text:0000000000000164 .L0 
     /tmp/ccaJWEE9.s:258    .text:0000000000000168 .L0 
     /tmp/ccaJWEE9.s:262    .text:000000000000016c .L0 
     /tmp/ccaJWEE9.s:264    .text:000000000000016c .L0 
     /tmp/ccaJWEE9.s:265    .text:000000000000016c .L0 
     /tmp/ccaJWEE9.s:269    .text:0000000000000174 .L0 
     /tmp/ccaJWEE9.s:270    .text:0000000000000174 .L0 
     /tmp/ccaJWEE9.s:271    .text:0000000000000174 .L0 
     /tmp/ccaJWEE9.s:273    .text:0000000000000178 .L0 
     /tmp/ccaJWEE9.s:279    .text:0000000000000178 _ZN3Sem6signalEv
     /tmp/ccaJWEE9.s:282    .text:0000000000000178 .L0 
     /tmp/ccaJWEE9.s:284    .text:0000000000000178 .L0 
     /tmp/ccaJWEE9.s:285    .text:0000000000000178 .L0 
     /tmp/ccaJWEE9.s:286    .text:0000000000000178 .L0 
     /tmp/ccaJWEE9.s:288    .text:000000000000017c .L0 
     /tmp/ccaJWEE9.s:290    .text:0000000000000180 .L0 
     /tmp/ccaJWEE9.s:291    .text:0000000000000180 .L0 
     /tmp/ccaJWEE9.s:293    .text:0000000000000184 .L0 
     /tmp/ccaJWEE9.s:296    .text:000000000000018c .L0 
     /tmp/ccaJWEE9.s:298    .text:0000000000000190 .L0 
     /tmp/ccaJWEE9.s:300    .text:0000000000000194 .L0 
     /tmp/ccaJWEE9.s:303    .text:0000000000000198 .L0 
     /tmp/ccaJWEE9.s:307    .text:000000000000019c .L0 
     /tmp/ccaJWEE9.s:308    .text:00000000000001a0 .L0 
     /tmp/ccaJWEE9.s:311    .text:00000000000001a8 .L0 
     /tmp/ccaJWEE9.s:312    .text:00000000000001a8 .L0 
     /tmp/ccaJWEE9.s:314    .text:00000000000001ac .L0 
     /tmp/ccaJWEE9.s:316    .text:00000000000001ac .L0 
     /tmp/ccaJWEE9.s:317    .text:00000000000001ac .L0 
     /tmp/ccaJWEE9.s:320    .text:00000000000001b4 .L0 
     /tmp/ccaJWEE9.s:322    .text:00000000000001b8 .L0 
     /tmp/ccaJWEE9.s:323    .text:00000000000001bc .L0 
     /tmp/ccaJWEE9.s:325    .text:00000000000001c0 .L0 
     /tmp/ccaJWEE9.s:326    .text:00000000000001c0 .L0 
     /tmp/ccaJWEE9.s:328    .text:00000000000001c4 .L0 
     /tmp/ccaJWEE9.s:333    .text:00000000000001c8 .L0 
     /tmp/ccaJWEE9.s:336    .text:00000000000001d0 .L0 
     /tmp/ccaJWEE9.s:342    .text:00000000000001d0 _ZN3Sem9timedWaitEm
     /tmp/ccaJWEE9.s:345    .text:00000000000001d0 .L0 
     /tmp/ccaJWEE9.s:347    .text:00000000000001d0 .L0 
     /tmp/ccaJWEE9.s:348    .text:00000000000001d4 .L0 
     /tmp/ccaJWEE9.s:350    .text:00000000000001d8 .L0 
     /tmp/ccaJWEE9.s:352    .text:00000000000001dc .L0 
     /tmp/ccaJWEE9.s:354    .text:00000000000001dc .L0 
     /tmp/ccaJWEE9.s:355    .text:00000000000001dc .L0 
     /tmp/ccaJWEE9.s:358    .text:00000000000001e4 .L0 
     /tmp/ccaJWEE9.s:359    .text:00000000000001e4 .L0 
     /tmp/ccaJWEE9.s:361    .text:00000000000001e8 .L0 
     /tmp/ccaJWEE9.s:363    .text:00000000000001ec .L0 
     /tmp/ccaJWEE9.s:369    .text:00000000000001ec _ZN3Sem4openEPPS_j
     /tmp/ccaJWEE9.s:372    .text:00000000000001ec .L0 
     /tmp/ccaJWEE9.s:374    .text:00000000000001ec .L0 
     /tmp/ccaJWEE9.s:375    .text:00000000000001f0 .L0 
     /tmp/ccaJWEE9.s:380    .text:0000000000000200 .L0 
     /tmp/ccaJWEE9.s:381    .text:0000000000000200 .L0 
     /tmp/ccaJWEE9.s:382    .text:0000000000000200 .L0 
GAS LISTING /tmp/ccaJWEE9.s 			page 17


     /tmp/ccaJWEE9.s:383    .text:0000000000000200 .L0 
     /tmp/ccaJWEE9.s:385    .text:0000000000000204 .L0 
     /tmp/ccaJWEE9.s:389    .text:000000000000020c .L0 
     /tmp/ccaJWEE9.s:390    .text:000000000000020c .L0 
     /tmp/ccaJWEE9.s:395    .text:0000000000000218 .L0 
     /tmp/ccaJWEE9.s:397    .text:000000000000021c .L0 
     /tmp/ccaJWEE9.s:398    .text:000000000000021c .L0 
     /tmp/ccaJWEE9.s:400    .text:0000000000000220 .L0 
     /tmp/ccaJWEE9.s:401    .text:0000000000000220 .L0 
     /tmp/ccaJWEE9.s:403    .text:0000000000000224 .L0 
     /tmp/ccaJWEE9.s:404    .text:0000000000000224 .L0 
     /tmp/ccaJWEE9.s:408    .text:0000000000000228 .L0 
     /tmp/ccaJWEE9.s:409    .text:000000000000022c .L0 
     /tmp/ccaJWEE9.s:410    .text:000000000000022c .L0 
     /tmp/ccaJWEE9.s:412    .text:0000000000000230 .L0 
     /tmp/ccaJWEE9.s:413    .text:0000000000000230 .L0 
     /tmp/ccaJWEE9.s:415    .text:0000000000000234 .L0 
     /tmp/ccaJWEE9.s:418    .text:0000000000000238 .L0 
     /tmp/ccaJWEE9.s:420    .text:000000000000023c .L0 
     /tmp/ccaJWEE9.s:424    .text:0000000000000240 .L0 
     /tmp/ccaJWEE9.s:426    .text:0000000000000240 .L0 
     /tmp/ccaJWEE9.s:429    .text:0000000000000248 .L0 
     /tmp/ccaJWEE9.s:435    .text:0000000000000248 _ZN3SemdlEPv
     /tmp/ccaJWEE9.s:438    .text:0000000000000248 .L0 
     /tmp/ccaJWEE9.s:440    .text:0000000000000248 .L0 
     /tmp/ccaJWEE9.s:441    .text:000000000000024c .L0 
     /tmp/ccaJWEE9.s:444    .text:0000000000000254 .L0 
     /tmp/ccaJWEE9.s:445    .text:0000000000000254 .L0 
     /tmp/ccaJWEE9.s:447    .text:0000000000000258 .L0 
     /tmp/ccaJWEE9.s:449    .text:0000000000000258 .L0 
     /tmp/ccaJWEE9.s:450    .text:0000000000000258 .L0 
     /tmp/ccaJWEE9.s:453    .text:0000000000000260 .L0 
     /tmp/ccaJWEE9.s:454    .text:0000000000000264 .L0 
     /tmp/ccaJWEE9.s:456    .text:0000000000000268 .L0 
     /tmp/ccaJWEE9.s:457    .text:0000000000000268 .L0 
     /tmp/ccaJWEE9.s:459    .text:000000000000026c .L0 
     /tmp/ccaJWEE9.s:461    .text:0000000000000270 .L0 
     /tmp/ccaJWEE9.s:467    .text:0000000000000270 _ZN3Sem7s_closeEPS_
     /tmp/ccaJWEE9.s:470    .text:0000000000000270 .L0 
     /tmp/ccaJWEE9.s:472    .text:0000000000000270 .L0 
     /tmp/ccaJWEE9.s:473    .text:0000000000000270 .L0 
     /tmp/ccaJWEE9.s:475    .text:0000000000000274 .L0 
     /tmp/ccaJWEE9.s:476    .text:0000000000000278 .L0 
     /tmp/ccaJWEE9.s:481    .text:0000000000000288 .L0 
     /tmp/ccaJWEE9.s:482    .text:0000000000000288 .L0 
     /tmp/ccaJWEE9.s:483    .text:0000000000000288 .L0 
     /tmp/ccaJWEE9.s:484    .text:0000000000000288 .L0 
     /tmp/ccaJWEE9.s:486    .text:000000000000028c .L0 
     /tmp/ccaJWEE9.s:490    .text:0000000000000290 .L0 
     /tmp/ccaJWEE9.s:491    .text:0000000000000290 .L0 
     /tmp/ccaJWEE9.s:495    .text:0000000000000294 .L0 
     /tmp/ccaJWEE9.s:497    .text:0000000000000298 .L0 
     /tmp/ccaJWEE9.s:498    .text:0000000000000298 .L0 
     /tmp/ccaJWEE9.s:500    .text:000000000000029c .L0 
     /tmp/ccaJWEE9.s:501    .text:000000000000029c .L0 
     /tmp/ccaJWEE9.s:505    .text:00000000000002a8 .L0 
     /tmp/ccaJWEE9.s:506    .text:00000000000002a8 .L0 
GAS LISTING /tmp/ccaJWEE9.s 			page 18


     /tmp/ccaJWEE9.s:509    .text:00000000000002ac .L0 
     /tmp/ccaJWEE9.s:513    .text:00000000000002b0 .L0 
     /tmp/ccaJWEE9.s:514    .text:00000000000002b0 .L0 
     /tmp/ccaJWEE9.s:518    .text:00000000000002bc .L0 
     /tmp/ccaJWEE9.s:519    .text:00000000000002bc .L0 
     /tmp/ccaJWEE9.s:521    .text:00000000000002c0 .L0 
     /tmp/ccaJWEE9.s:522    .text:00000000000002c4 .L0 
     /tmp/ccaJWEE9.s:524    .text:00000000000002c8 .L0 
     /tmp/ccaJWEE9.s:525    .text:00000000000002c8 .L0 
     /tmp/ccaJWEE9.s:527    .text:00000000000002cc .L0 
     /tmp/ccaJWEE9.s:530    .text:00000000000002d0 .L0 
     /tmp/ccaJWEE9.s:533    .text:00000000000002d4 .L0 
     /tmp/ccaJWEE9.s:538    .text:00000000000002d8 .L0 
     /tmp/ccaJWEE9.s:541    .text:00000000000002dc .L0 
     /tmp/ccaJWEE9.s:542    .text:00000000000002e0 .L0 
     /tmp/ccaJWEE9.s:548    .text:00000000000002e0 _ZN3SemnwEm
     /tmp/ccaJWEE9.s:551    .text:00000000000002e0 .L0 
     /tmp/ccaJWEE9.s:553    .text:00000000000002e0 .L0 
     /tmp/ccaJWEE9.s:554    .text:00000000000002e4 .L0 
     /tmp/ccaJWEE9.s:557    .text:00000000000002ec .L0 
     /tmp/ccaJWEE9.s:558    .text:00000000000002ec .L0 
     /tmp/ccaJWEE9.s:560    .text:00000000000002f0 .L0 
     /tmp/ccaJWEE9.s:562    .text:00000000000002f0 .L0 
     /tmp/ccaJWEE9.s:563    .text:00000000000002f0 .L0 
     /tmp/ccaJWEE9.s:566    .text:00000000000002f4 .L0 
     /tmp/ccaJWEE9.s:571    .text:0000000000000300 .L0 
     /tmp/ccaJWEE9.s:572    .text:0000000000000304 .L0 
     /tmp/ccaJWEE9.s:574    .text:0000000000000308 .L0 
     /tmp/ccaJWEE9.s:575    .text:0000000000000308 .L0 
     /tmp/ccaJWEE9.s:577    .text:000000000000030c .L0 
     /tmp/ccaJWEE9.s:579    .text:0000000000000310 .L0 
     /tmp/ccaJWEE9.s:588    .text:0000000000000310 .L0 
     /tmp/ccaJWEE9.s:87     .text:0000000000000064 .L0 
     /tmp/ccaJWEE9.s:111    .text:0000000000000094 .L0 
     /tmp/ccaJWEE9.s:52     .text:0000000000000040 .L3
     /tmp/ccaJWEE9.s:59     .text:0000000000000048 .L4
     /tmp/ccaJWEE9.s:42     .text:0000000000000034 .L2
     /tmp/ccaJWEE9.s:132    .text:00000000000000c0 .L7
     /tmp/ccaJWEE9.s:100    .text:0000000000000080 .L8
     /tmp/ccaJWEE9.s:198    .text:000000000000011c .L12
     /tmp/ccaJWEE9.s:172    .text:00000000000000f0 .L18
     /tmp/ccaJWEE9.s:268    .text:0000000000000174 .L23
     /tmp/ccaJWEE9.s:261    .text:000000000000016c .L26
     /tmp/ccaJWEE9.s:239    .text:000000000000014c .L21
     /tmp/ccaJWEE9.s:331    .text:00000000000001c8 .L29
     /tmp/ccaJWEE9.s:305    .text:000000000000019c .L35
     /tmp/ccaJWEE9.s:423    .text:0000000000000240 .L40
     /tmp/ccaJWEE9.s:406    .text:0000000000000228 .L39
     /tmp/ccaJWEE9.s:536    .text:00000000000002d8 .L48
     /tmp/ccaJWEE9.s:510    .text:00000000000002b0 .L46
     /tmp/ccaJWEE9.s:493    .text:0000000000000294 .L47
     /tmp/ccaJWEE9.s:1942   .debug_abbrev:0000000000000000 .Ldebug_abbrev0
     /tmp/ccaJWEE9.s:3555   .debug_str:00000000000006ca .LASF145
     /tmp/ccaJWEE9.s:3461   .debug_str:0000000000000417 .LASF146
     /tmp/ccaJWEE9.s:3401   .debug_str:000000000000027b .LASF147
     /tmp/ccaJWEE9.s:5      .text:0000000000000000 .Ltext0
     /tmp/ccaJWEE9.s:582    .text:0000000000000310 .Letext0
GAS LISTING /tmp/ccaJWEE9.s 			page 19


     /tmp/ccaJWEE9.s:3309   .debug_line:0000000000000000 .Ldebug_line0
     /tmp/ccaJWEE9.s:3423   .debug_str:000000000000032e .LASF0
     /tmp/ccaJWEE9.s:3447   .debug_str:00000000000003b8 .LASF1
     /tmp/ccaJWEE9.s:3513   .debug_str:000000000000059a .LASF2
     /tmp/ccaJWEE9.s:3519   .debug_str:00000000000005e6 .LASF4
     /tmp/ccaJWEE9.s:3429   .debug_str:0000000000000355 .LASF3
     /tmp/ccaJWEE9.s:3319   .debug_str:0000000000000042 .LASF5
     /tmp/ccaJWEE9.s:3495   .debug_str:0000000000000524 .LASF6
     /tmp/ccaJWEE9.s:3493   .debug_str:0000000000000511 .LASF7
     /tmp/ccaJWEE9.s:3435   .debug_str:000000000000037e .LASF8
     /tmp/ccaJWEE9.s:3397   .debug_str:000000000000025f .LASF9
     /tmp/ccaJWEE9.s:3409   .debug_str:00000000000002c8 .LASF10
     /tmp/ccaJWEE9.s:3357   .debug_str:0000000000000154 .LASF11
     /tmp/ccaJWEE9.s:3391   .debug_str:0000000000000241 .LASF12
     /tmp/ccaJWEE9.s:3367   .debug_str:000000000000018c .LASF13
     /tmp/ccaJWEE9.s:3355   .debug_str:0000000000000144 .LASF14
     /tmp/ccaJWEE9.s:3539   .debug_str:000000000000066e .LASF15
     /tmp/ccaJWEE9.s:3385   .debug_str:00000000000001f3 .LASF16
     /tmp/ccaJWEE9.s:3533   .debug_str:0000000000000642 .LASF17
     /tmp/ccaJWEE9.s:3489   .debug_str:00000000000004dc .LASF21
     /tmp/ccaJWEE9.s:3349   .debug_str:000000000000011a .LASF37
     /tmp/ccaJWEE9.s:3359   .debug_str:0000000000000163 .LASF18
     /tmp/ccaJWEE9.s:3331   .debug_str:00000000000000ae .LASF19
     /tmp/ccaJWEE9.s:3445   .debug_str:00000000000003b3 .LASF20
     /tmp/ccaJWEE9.s:3329   .debug_str:0000000000000095 .LASF22
     /tmp/ccaJWEE9.s:3531   .debug_str:0000000000000627 .LASF23
     /tmp/ccaJWEE9.s:3583   .debug_str:0000000000000832 .LASF53
     /tmp/ccaJWEE9.s:3595   .debug_str:0000000000000877 .LASF55
     /tmp/ccaJWEE9.s:3551   .debug_str:00000000000006b4 .LASF24
     /tmp/ccaJWEE9.s:3325   .debug_str:000000000000007c .LASF25
     /tmp/ccaJWEE9.s:3427   .debug_str:000000000000034b .LASF45
     /tmp/ccaJWEE9.s:3517   .debug_str:00000000000005b4 .LASF47
     /tmp/ccaJWEE9.s:3573   .debug_str:00000000000007ef .LASF39
     /tmp/ccaJWEE9.s:3467   .debug_str:0000000000000443 .LASF59
     /tmp/ccaJWEE9.s:3491   .debug_str:00000000000004ec .LASF61
     /tmp/ccaJWEE9.s:3471   .debug_str:0000000000000464 .LASF26
     /tmp/ccaJWEE9.s:3321   .debug_str:0000000000000049 .LASF27
     /tmp/ccaJWEE9.s:3547   .debug_str:00000000000006a0 .LASF28
     /tmp/ccaJWEE9.s:3497   .debug_str:000000000000052b .LASF29
     /tmp/ccaJWEE9.s:3313   .debug_str:0000000000000008 .LASF49
     /tmp/ccaJWEE9.s:3341   .debug_str:00000000000000da .LASF51
     /tmp/ccaJWEE9.s:3501   .debug_str:0000000000000562 .LASF30
     /tmp/ccaJWEE9.s:3431   .debug_str:0000000000000367 .LASF31
     /tmp/ccaJWEE9.s:3383   .debug_str:00000000000001ed .LASF112
     /tmp/ccaJWEE9.s:3437   .debug_str:0000000000000391 .LASF32
     /tmp/ccaJWEE9.s:3361   .debug_str:0000000000000168 .LASF33
     /tmp/ccaJWEE9.s:3557   .debug_str:000000000000078e .LASF34
     /tmp/ccaJWEE9.s:3343   .debug_str:00000000000000f7 .LASF35
     /tmp/ccaJWEE9.s:3311   .debug_str:0000000000000000 .LASF36
     /tmp/ccaJWEE9.s:3363   .debug_str:0000000000000171 .LASF38
     /tmp/ccaJWEE9.s:3553   .debug_str:00000000000006c2 .LASF40
     /tmp/ccaJWEE9.s:3601   .debug_str:00000000000008c4 .LASF41
     /tmp/ccaJWEE9.s:3581   .debug_str:0000000000000822 .LASF42
     /tmp/ccaJWEE9.s:3347   .debug_str:000000000000010c .LASF43
     /tmp/ccaJWEE9.s:3389   .debug_str:0000000000000219 .LASF44
     /tmp/ccaJWEE9.s:3449   .debug_str:00000000000003cb .LASF46
     /tmp/ccaJWEE9.s:3453   .debug_str:00000000000003de .LASF48
GAS LISTING /tmp/ccaJWEE9.s 			page 20


     /tmp/ccaJWEE9.s:3377   .debug_str:00000000000001d0 .LASF50
     /tmp/ccaJWEE9.s:3365   .debug_str:0000000000000179 .LASF52
     /tmp/ccaJWEE9.s:3525   .debug_str:0000000000000604 .LASF54
     /tmp/ccaJWEE9.s:3529   .debug_str:0000000000000613 .LASF56
     /tmp/ccaJWEE9.s:3451   .debug_str:00000000000003d1 .LASF57
     /tmp/ccaJWEE9.s:3575   .debug_str:00000000000007f9 .LASF58
     /tmp/ccaJWEE9.s:3563   .debug_str:00000000000007b1 .LASF60
     /tmp/ccaJWEE9.s:3457   .debug_str:00000000000003f8 .LASF62
     /tmp/ccaJWEE9.s:3549   .debug_str:00000000000006a9 .LASF63
     /tmp/ccaJWEE9.s:3543   .debug_str:0000000000000681 .LASF64
     /tmp/ccaJWEE9.s:3465   .debug_str:000000000000043c .LASF65
     /tmp/ccaJWEE9.s:3369   .debug_str:000000000000019c .LASF66
     /tmp/ccaJWEE9.s:3521   .debug_str:00000000000005ed .LASF67
     /tmp/ccaJWEE9.s:3317   .debug_str:0000000000000036 .LASF68
     /tmp/ccaJWEE9.s:3611   .debug_str:00000000000008f2 .LASF69
     /tmp/ccaJWEE9.s:3405   .debug_str:00000000000002b1 .LASF70
     /tmp/ccaJWEE9.s:3425   .debug_str:000000000000033b .LASF71
     /tmp/ccaJWEE9.s:3487   .debug_str:00000000000004cf .LASF72
     /tmp/ccaJWEE9.s:3459   .debug_str:000000000000040e .LASF73
     /tmp/ccaJWEE9.s:3511   .debug_str:0000000000000589 .LASF74
     /tmp/ccaJWEE9.s:3333   .debug_str:00000000000000b3 .LASF75
     /tmp/ccaJWEE9.s:3515   .debug_str:00000000000005a8 .LASF76
     /tmp/ccaJWEE9.s:3371   .debug_str:00000000000001ad .LASF77
     /tmp/ccaJWEE9.s:3381   .debug_str:00000000000001df .LASF78
     /tmp/ccaJWEE9.s:3507   .debug_str:0000000000000578 .LASF79
     /tmp/ccaJWEE9.s:3375   .debug_str:00000000000001c8 .LASF80
     /tmp/ccaJWEE9.s:3609   .debug_str:00000000000008ed .LASF81
     /tmp/ccaJWEE9.s:3527   .debug_str:000000000000060d .LASF82
     /tmp/ccaJWEE9.s:3565   .debug_str:00000000000007bc .LASF83
     /tmp/ccaJWEE9.s:3477   .debug_str:000000000000049b .LASF84
     /tmp/ccaJWEE9.s:3545   .debug_str:0000000000000697 .LASF85
     /tmp/ccaJWEE9.s:3613   .debug_str:00000000000008ff .LASF97
     /tmp/ccaJWEE9.s:3373   .debug_str:00000000000001ba .LASF91
     /tmp/ccaJWEE9.s:3315   .debug_str:000000000000000e .LASF93
     /tmp/ccaJWEE9.s:3577   .debug_str:0000000000000812 .LASF148
     /tmp/ccaJWEE9.s:3323   .debug_str:000000000000006a .LASF149
     /tmp/ccaJWEE9.s:3585   .debug_str:000000000000083d .LASF86
     /tmp/ccaJWEE9.s:3561   .debug_str:000000000000079a .LASF87
     /tmp/ccaJWEE9.s:3505   .debug_str:0000000000000573 .LASF88
     /tmp/ccaJWEE9.s:3395   .debug_str:0000000000000255 .LASF89
     /tmp/ccaJWEE9.s:3571   .debug_str:00000000000007ea .LASF92
     /tmp/ccaJWEE9.s:3441   .debug_str:00000000000003a9 .LASF90
     /tmp/ccaJWEE9.s:3419   .debug_str:0000000000000309 .LASF94
     /tmp/ccaJWEE9.s:3439   .debug_str:000000000000039a .LASF95
     /tmp/ccaJWEE9.s:3597   .debug_str:0000000000000892 .LASF96
     /tmp/ccaJWEE9.s:3603   .debug_str:00000000000008ca .LASF150
     /tmp/ccaJWEE9.s:3403   .debug_str:0000000000000299 .LASF98
     /tmp/ccaJWEE9.s:3443   .debug_str:00000000000003ae .LASF99
     /tmp/ccaJWEE9.s:3499   .debug_str:000000000000054d .LASF100
     /tmp/ccaJWEE9.s:3379   .debug_str:00000000000001d9 .LASF101
     /tmp/ccaJWEE9.s:3589   .debug_str:0000000000000854 .LASF102
     /tmp/ccaJWEE9.s:3483   .debug_str:00000000000004bd .LASF103
     /tmp/ccaJWEE9.s:3473   .debug_str:000000000000046e .LASF104
     /tmp/ccaJWEE9.s:3567   .debug_str:00000000000007c4 .LASF105
     /tmp/ccaJWEE9.s:3415   .debug_str:00000000000002f0 .LASF106
     /tmp/ccaJWEE9.s:3351   .debug_str:0000000000000126 .LASF107
     /tmp/ccaJWEE9.s:3599   .debug_str:00000000000008b2 .LASF108
GAS LISTING /tmp/ccaJWEE9.s 			page 21


     /tmp/ccaJWEE9.s:3481   .debug_str:00000000000004b8 .LASF109
     /tmp/ccaJWEE9.s:3535   .debug_str:0000000000000658 .LASF110
     /tmp/ccaJWEE9.s:3593   .debug_str:0000000000000871 .LASF111
     /tmp/ccaJWEE9.s:3503   .debug_str:000000000000056d .LASF113
     /tmp/ccaJWEE9.s:3433   .debug_str:0000000000000373 .LASF114
     /tmp/ccaJWEE9.s:3475   .debug_str:0000000000000491 .LASF115
     /tmp/ccaJWEE9.s:3587   .debug_str:0000000000000849 .LASF116
     /tmp/ccaJWEE9.s:3327   .debug_str:000000000000008a .LASF117
     /tmp/ccaJWEE9.s:3559   .debug_str:0000000000000795 .LASF118
     /tmp/ccaJWEE9.s:3479   .debug_str:00000000000004a9 .LASF119
     /tmp/ccaJWEE9.s:3541   .debug_str:000000000000067a .LASF120
     /tmp/ccaJWEE9.s:3537   .debug_str:000000000000065d .LASF121
     /tmp/ccaJWEE9.s:3335   .debug_str:00000000000000be .LASF122
     /tmp/ccaJWEE9.s:3469   .debug_str:0000000000000450 .LASF123
     /tmp/ccaJWEE9.s:3579   .debug_str:000000000000081a .LASF124
     /tmp/ccaJWEE9.s:3411   .debug_str:00000000000002d6 .LASF125
     /tmp/ccaJWEE9.s:3485   .debug_str:00000000000004ca .LASF126
     /tmp/ccaJWEE9.s:3463   .debug_str:0000000000000429 .LASF127
     /tmp/ccaJWEE9.s:3413   .debug_str:00000000000002e8 .LASF128
     /tmp/ccaJWEE9.s:3569   .debug_str:00000000000007d6 .LASF129
     /tmp/ccaJWEE9.s:3399   .debug_str:000000000000026f .LASF130
     /tmp/ccaJWEE9.s:3339   .debug_str:00000000000000cd .LASF131
     /tmp/ccaJWEE9.s:3345   .debug_str:0000000000000100 .LASF151
     /tmp/ccaJWEE9.s:3421   .debug_str:0000000000000328 .LASF132
     /tmp/ccaJWEE9.s:3387   .debug_str:0000000000000209 .LASF133
     /tmp/ccaJWEE9.s:3605   .debug_str:00000000000008de .LASF134
     /tmp/ccaJWEE9.s:3523   .debug_str:00000000000005f2 .LASF135
     /tmp/ccaJWEE9.s:3417   .debug_str:0000000000000303 .LASF136
     /tmp/ccaJWEE9.s:3353   .debug_str:000000000000013b .LASF137
     /tmp/ccaJWEE9.s:3455   .debug_str:00000000000003f3 .LASF138
     /tmp/ccaJWEE9.s:3509   .debug_str:0000000000000583 .LASF139
     /tmp/ccaJWEE9.s:549    .text:00000000000002e0 .LFB37
     /tmp/ccaJWEE9.s:580    .text:0000000000000310 .LFE37
     /tmp/ccaJWEE9.s:2994   .debug_loc:0000000000000000 .LLST14
     /tmp/ccaJWEE9.s:569    .text:0000000000000300 .LVL54
     /tmp/ccaJWEE9.s:436    .text:0000000000000248 .LFB36
     /tmp/ccaJWEE9.s:462    .text:0000000000000270 .LFE36
     /tmp/ccaJWEE9.s:3014   .debug_loc:000000000000004f .LLST11
     /tmp/ccaJWEE9.s:451    .text:0000000000000260 .LVL41
     /tmp/ccaJWEE9.s:468    .text:0000000000000270 .LFB35
     /tmp/ccaJWEE9.s:543    .text:00000000000002e0 .LFE35
     /tmp/ccaJWEE9.s:3591   .debug_str:000000000000086a .LASF140
     /tmp/ccaJWEE9.s:3028   .debug_loc:0000000000000088 .LLST12
     /tmp/ccaJWEE9.s:489    .text:0000000000000290 .LBB2
     /tmp/ccaJWEE9.s:511    .text:00000000000002b0 .LBE2
     /tmp/ccaJWEE9.s:3057   .debug_loc:00000000000000fd .LLST13
     /tmp/ccaJWEE9.s:503    .text:00000000000002a8 .LVL44
     /tmp/ccaJWEE9.s:516    .text:00000000000002bc .LVL46
     /tmp/ccaJWEE9.s:370    .text:00000000000001ec .LFB34
     /tmp/ccaJWEE9.s:430    .text:0000000000000248 .LFE34
     /tmp/ccaJWEE9.s:3064   .debug_loc:0000000000000120 .LLST8
     /tmp/ccaJWEE9.s:3337   .debug_str:00000000000000c8 .LASF141
     /tmp/ccaJWEE9.s:3086   .debug_loc:000000000000017f .LLST9
     /tmp/ccaJWEE9.s:3607   .debug_str:00000000000008e6 .LASF142
     /tmp/ccaJWEE9.s:3100   .debug_loc:00000000000001b8 .LLST10
     /tmp/ccaJWEE9.s:393    .text:0000000000000218 .LVL35
     /tmp/ccaJWEE9.s:343    .text:00000000000001d0 .LFB33
GAS LISTING /tmp/ccaJWEE9.s 			page 22


     /tmp/ccaJWEE9.s:364    .text:00000000000001ec .LFE33
     /tmp/ccaJWEE9.s:3393   .debug_str:0000000000000250 .LASF143
     /tmp/ccaJWEE9.s:3111   .debug_loc:00000000000001ee .LLST7
     /tmp/ccaJWEE9.s:210    .text:0000000000000124 .LFB32
     /tmp/ccaJWEE9.s:274    .text:0000000000000178 .LFE32
     /tmp/ccaJWEE9.s:3125   .debug_loc:0000000000000227 .LLST4
     /tmp/ccaJWEE9.s:3147   .debug_loc:0000000000000286 .LLST5
     /tmp/ccaJWEE9.s:249    .text:000000000000015c .LVL22
     /tmp/ccaJWEE9.s:71     .text:0000000000000050 .LFB31
     /tmp/ccaJWEE9.s:141    .text:00000000000000cc .LFE31
     /tmp/ccaJWEE9.s:3158   .debug_loc:00000000000002bc .LLST1
     /tmp/ccaJWEE9.s:3407   .debug_str:00000000000002bd .LASF144
     /tmp/ccaJWEE9.s:3176   .debug_loc:0000000000000308 .LLST2
     /tmp/ccaJWEE9.s:108    .text:0000000000000090 .LVL9
     /tmp/ccaJWEE9.s:117    .text:00000000000000ac .LVL10
     /tmp/ccaJWEE9.s:10     .text:0000000000000000 .LFB30
     /tmp/ccaJWEE9.s:65     .text:0000000000000050 .LFE30
     /tmp/ccaJWEE9.s:3187   .debug_loc:000000000000033e .LLST0
     /tmp/ccaJWEE9.s:280    .text:0000000000000178 .LFB29
     /tmp/ccaJWEE9.s:337    .text:00000000000001d0 .LFE29
     /tmp/ccaJWEE9.s:3224   .debug_loc:00000000000003d9 .LLST6
     /tmp/ccaJWEE9.s:318    .text:00000000000001b4 .LVL28
     /tmp/ccaJWEE9.s:147    .text:00000000000000cc .LFB28
     /tmp/ccaJWEE9.s:204    .text:0000000000000124 .LFE28
     /tmp/ccaJWEE9.s:3260   .debug_loc:0000000000000464 .LLST3
     /tmp/ccaJWEE9.s:185    .text:0000000000000108 .LVL16
     /tmp/ccaJWEE9.s:552    .text:00000000000002e0 .LVL51
     /tmp/ccaJWEE9.s:564    .text:00000000000002f4 .LVL52
     /tmp/ccaJWEE9.s:567    .text:00000000000002f8 .LVL53
     /tmp/ccaJWEE9.s:439    .text:0000000000000248 .LVL40
     /tmp/ccaJWEE9.s:471    .text:0000000000000270 .LVL42
     /tmp/ccaJWEE9.s:492    .text:0000000000000294 .LVL43
     /tmp/ccaJWEE9.s:531    .text:00000000000002d0 .LVL48
     /tmp/ccaJWEE9.s:535    .text:00000000000002d8 .LVL49
     /tmp/ccaJWEE9.s:539    .text:00000000000002dc .LVL50
     /tmp/ccaJWEE9.s:528    .text:00000000000002cc .LVL47
     /tmp/ccaJWEE9.s:373    .text:00000000000001ec .LVL33
     /tmp/ccaJWEE9.s:391    .text:0000000000000210 .LVL34
     /tmp/ccaJWEE9.s:416    .text:0000000000000234 .LVL37
     /tmp/ccaJWEE9.s:422    .text:0000000000000240 .LVL38
     /tmp/ccaJWEE9.s:405    .text:0000000000000228 .LVL36
     /tmp/ccaJWEE9.s:427    .text:0000000000000244 .LVL39
     /tmp/ccaJWEE9.s:346    .text:00000000000001d0 .LVL31
     /tmp/ccaJWEE9.s:356    .text:00000000000001e0 .LVL32
     /tmp/ccaJWEE9.s:213    .text:0000000000000124 .LVL19
     /tmp/ccaJWEE9.s:218    .text:000000000000012c .LVL20
     /tmp/ccaJWEE9.s:260    .text:000000000000016c .LVL23
     /tmp/ccaJWEE9.s:231    .text:0000000000000140 .LVL21
     /tmp/ccaJWEE9.s:267    .text:0000000000000174 .LVL24
     /tmp/ccaJWEE9.s:74     .text:0000000000000050 .LVL7
     /tmp/ccaJWEE9.s:131    .text:00000000000000c0 .LVL12
     /tmp/ccaJWEE9.s:89     .text:0000000000000070 .LVL8
     /tmp/ccaJWEE9.s:127    .text:00000000000000b8 .LVL11
     /tmp/ccaJWEE9.s:14     .text:0000000000000000 .LVL0
     /tmp/ccaJWEE9.s:35     .text:0000000000000028 .LVL1
     /tmp/ccaJWEE9.s:41     .text:0000000000000034 .LVL2
     /tmp/ccaJWEE9.s:51     .text:0000000000000040 .LVL3
GAS LISTING /tmp/ccaJWEE9.s 			page 23


     /tmp/ccaJWEE9.s:56     .text:0000000000000044 .LVL4
     /tmp/ccaJWEE9.s:58     .text:0000000000000048 .LVL5
     /tmp/ccaJWEE9.s:62     .text:000000000000004c .LVL6
     /tmp/ccaJWEE9.s:283    .text:0000000000000178 .LVL25
     /tmp/ccaJWEE9.s:301    .text:0000000000000198 .LVL26
     /tmp/ccaJWEE9.s:304    .text:000000000000019c .LVL27
     /tmp/ccaJWEE9.s:330    .text:00000000000001c8 .LVL29
     /tmp/ccaJWEE9.s:334    .text:00000000000001cc .LVL30
     /tmp/ccaJWEE9.s:150    .text:00000000000000cc .LVL13
     /tmp/ccaJWEE9.s:168    .text:00000000000000ec .LVL14
     /tmp/ccaJWEE9.s:171    .text:00000000000000f0 .LVL15
     /tmp/ccaJWEE9.s:197    .text:000000000000011c .LVL17
     /tmp/ccaJWEE9.s:201    .text:0000000000000120 .LVL18
     /tmp/ccaJWEE9.s:589    .debug_info:0000000000000000 .Ldebug_info0

UNDEFINED SYMBOLS
_ZN3TCB7runningE
_ZN9Scheduler3getEv
_ZN3TCB5yieldEPS_S0_
_ZN9Scheduler3putEP3TCB
_ZN15MemoryAllocator9mem_allocEm
_ZN15MemoryAllocator8mem_freeEPKv
