GAS LISTING /tmp/ccdzk6Z8.s 			page 1


   1              		.file	"semaphore.cpp"
   2              		.option pic
   3              		.option norelax
   4              		.text
   5              	.Ltext0:
   6              		.align	2
   7              		.globl	_ZN3Sem7trywaitEPS_
   9              	_ZN3Sem7trywaitEPS_:
  10              	.LFB37:
  11              		.file 1 "src/semaphore.cpp"
   1:src/semaphore.cpp **** 
   2:src/semaphore.cpp **** #include "../h/semaphore.hpp"
   3:src/semaphore.cpp **** 
   4:src/semaphore.cpp **** Sem* Sem::first = nullptr;
   5:src/semaphore.cpp **** Sem* Sem::last  = nullptr;
   6:src/semaphore.cpp **** 
   7:src/semaphore.cpp **** 
   8:src/semaphore.cpp **** int Sem::open(sem_t *handle, unsigned int init) {
   9:src/semaphore.cpp **** 
  10:src/semaphore.cpp ****     *handle = new Sem((int)init);
  11:src/semaphore.cpp ****     if (*handle == nullptr) return  -1;
  12:src/semaphore.cpp **** 
  13:src/semaphore.cpp ****     sem_add(*handle); // to Sem list
  14:src/semaphore.cpp **** 
  15:src/semaphore.cpp ****     return 0;
  16:src/semaphore.cpp **** }
  17:src/semaphore.cpp **** 
  18:src/semaphore.cpp **** int Sem::s_close(sem_t handle) {
  19:src/semaphore.cpp **** 
  20:src/semaphore.cpp ****     if (!handle) return -1;
  21:src/semaphore.cpp **** 
  22:src/semaphore.cpp ****     sem_remove(handle); // remove from semaphores list
  23:src/semaphore.cpp **** 
  24:src/semaphore.cpp ****     while (handle->blocked.peek()) {
  25:src/semaphore.cpp ****         handle->deblock();
  26:src/semaphore.cpp ****     }
  27:src/semaphore.cpp **** 
  28:src/semaphore.cpp ****     delete handle;
  29:src/semaphore.cpp ****     return 0;
  30:src/semaphore.cpp **** }
  31:src/semaphore.cpp **** 
  32:src/semaphore.cpp **** int Sem::wait(sem_t handle) {
  33:src/semaphore.cpp ****     if (!handle) return SEM_CLOSED;
  34:src/semaphore.cpp ****     if (--handle->value < 0) {
  35:src/semaphore.cpp **** 
  36:src/semaphore.cpp ****         handle->block();
  37:src/semaphore.cpp ****         if (handle == nullptr) return SEMDEAD;
  38:src/semaphore.cpp ****         // sem deallocated while thread waiting
  39:src/semaphore.cpp ****         // returns here after releasing all threads
  40:src/semaphore.cpp ****     }
  41:src/semaphore.cpp ****     return 0;
  42:src/semaphore.cpp **** }
  43:src/semaphore.cpp **** 
  44:src/semaphore.cpp **** int Sem::signal(sem_t handle) {
  45:src/semaphore.cpp ****     if (!handle) return SEM_CLOSED;
  46:src/semaphore.cpp ****     if (++handle->value<= 0) handle->deblock();
  47:src/semaphore.cpp ****     return 0;
GAS LISTING /tmp/ccdzk6Z8.s 			page 2


  48:src/semaphore.cpp **** }
  49:src/semaphore.cpp **** 
  50:src/semaphore.cpp **** int Sem::trywait(sem_t handle) { /// ??????????????????
  12              		.loc 1 50 32
  13              		.cfi_startproc
  14              	.LVL0:
  51:src/semaphore.cpp **** 
  52:src/semaphore.cpp ****     if (!handle) return SEM_CLOSED; // error code
  15              		.loc 1 52 5
  16 0000 630E0502 		beqz	a0,.L3
  53:src/semaphore.cpp ****     if (handle->value > 0) return sem_wait(handle);
  17              		.loc 1 53 5
  18              		.loc 1 53 17 is_stmt 0
  19 0004 83270500 		lw	a5,0(a0)
  20              		.loc 1 53 5
  21 0008 6346F000 		bgtz	a5,.L9
  54:src/semaphore.cpp ****     return 0; // no success
  22              		.loc 1 54 12
  23 000c 13050000 		li	a0,0
  24              	.LVL1:
  55:src/semaphore.cpp **** }
  25              		.loc 1 55 1
  26 0010 67800000 		ret
  27              	.LVL2:
  28              	.L9:
  50:src/semaphore.cpp **** 
  29              		.loc 1 50 32 discriminator 1
  30 0014 130101FF 		addi	sp,sp,-16
  31              		.cfi_def_cfa_offset 16
  32 0018 23341100 		sd	ra,8(sp)
  33 001c 23308100 		sd	s0,0(sp)
  34              		.cfi_offset 1, -8
  35              		.cfi_offset 8, -16
  36 0020 13040101 		addi	s0,sp,16
  37              		.cfi_def_cfa 8, 0
  53:src/semaphore.cpp ****     return 0; // no success
  38              		.loc 1 53 28 is_stmt 1 discriminator 1
  53:src/semaphore.cpp ****     return 0; // no success
  39              		.loc 1 53 43 is_stmt 0 discriminator 1
  40 0024 97000000 		call	_Z8sem_waitP3Sem@plt
  40      E7800000 
  41              	.LVL3:
  42              		.loc 1 55 1 discriminator 1
  43 002c 83308100 		ld	ra,8(sp)
  44              		.cfi_restore 1
  45 0030 03340100 		ld	s0,0(sp)
  46              		.cfi_restore 8
  47              		.cfi_def_cfa 2, 16
  48 0034 13010101 		addi	sp,sp,16
  49              		.cfi_def_cfa_offset 0
  50 0038 67800000 		jr	ra
  51              	.LVL4:
  52              	.L3:
  52:src/semaphore.cpp ****     if (handle->value > 0) return sem_wait(handle);
  53              		.loc 1 52 25
  54 003c 1305C0FF 		li	a0,-4
  55              	.LVL5:
GAS LISTING /tmp/ccdzk6Z8.s 			page 3


  56 0040 67800000 		ret
  57              		.cfi_endproc
  58              	.LFE37:
  60              		.align	2
  61              		.globl	_ZN3SemdlEPv
  63              	_ZN3SemdlEPv:
  64              	.LFB41:
  56:src/semaphore.cpp **** 
  57:src/semaphore.cpp **** void Sem::block() {
  58:src/semaphore.cpp **** 
  59:src/semaphore.cpp ****     TCB* oldRunning = TCB::running;
  60:src/semaphore.cpp ****     oldRunning -> current_state = TCB::BLOCKED;
  61:src/semaphore.cpp **** 
  62:src/semaphore.cpp ****     blocked.add(oldRunning);
  63:src/semaphore.cpp **** 
  64:src/semaphore.cpp ****     TCB::running = Scheduler::get();
  65:src/semaphore.cpp ****     TCB::yield(oldRunning, TCB::running);
  66:src/semaphore.cpp **** }
  67:src/semaphore.cpp **** 
  68:src/semaphore.cpp **** void Sem::deblock() {
  69:src/semaphore.cpp **** 
  70:src/semaphore.cpp ****     TCB* tcb = blocked.get();
  71:src/semaphore.cpp **** 
  72:src/semaphore.cpp ****     if (!tcb) return; // should not happen
  73:src/semaphore.cpp **** 
  74:src/semaphore.cpp ****     if (tcb->time_on_sem > 0) {
  75:src/semaphore.cpp ****         timedBlock--;
  76:src/semaphore.cpp ****     }
  77:src/semaphore.cpp **** 
  78:src/semaphore.cpp ****     tcb->current_state = TCB::RUNNABLE;
  79:src/semaphore.cpp ****     Scheduler::put(tcb);
  80:src/semaphore.cpp **** 
  81:src/semaphore.cpp **** }
  82:src/semaphore.cpp **** 
  83:src/semaphore.cpp **** int Sem::timedwait(sem_t handle, time_t time) {
  84:src/semaphore.cpp **** 
  85:src/semaphore.cpp ****     // max timeout timer periods
  86:src/semaphore.cpp ****     // success =>  return 0
  87:src/semaphore.cpp ****     // sem deallocated while waiting => -1 (SEMDEAD)
  88:src/semaphore.cpp ****     // time expired => return -2 (TIMEOUT)
  89:src/semaphore.cpp **** 
  90:src/semaphore.cpp ****     if (!handle) return SEM_CLOSED;
  91:src/semaphore.cpp **** 
  92:src/semaphore.cpp ****     if (--(handle->value) < 0) {
  93:src/semaphore.cpp **** 
  94:src/semaphore.cpp ****         TCB::running->time_on_sem = time;
  95:src/semaphore.cpp ****         handle->timedBlock++;
  96:src/semaphore.cpp **** 
  97:src/semaphore.cpp ****         handle->block();
  98:src/semaphore.cpp **** 
  99:src/semaphore.cpp ****         // return address after deblocking
 100:src/semaphore.cpp **** 
 101:src/semaphore.cpp ****         if (!handle) return SEMDEAD;
 102:src/semaphore.cpp **** 
 103:src/semaphore.cpp ****         // time on sem < 0 if timeout
 104:src/semaphore.cpp ****         if (!TCB::running->time_on_sem) return TIMEOUT;
 105:src/semaphore.cpp ****         else TCB::running->time_on_sem = 0;
GAS LISTING /tmp/ccdzk6Z8.s 			page 4


 106:src/semaphore.cpp ****     }
 107:src/semaphore.cpp **** 
 108:src/semaphore.cpp ****     return 0;
 109:src/semaphore.cpp **** }
 110:src/semaphore.cpp **** 
 111:src/semaphore.cpp **** void Sem::operator delete(void *ptr) {
  65              		.loc 1 111 38 is_stmt 1
  66              		.cfi_startproc
  67              	.LVL6:
  68 0044 130101FF 		addi	sp,sp,-16
  69              		.cfi_def_cfa_offset 16
  70 0048 23341100 		sd	ra,8(sp)
  71 004c 23308100 		sd	s0,0(sp)
  72              		.cfi_offset 1, -8
  73              		.cfi_offset 8, -16
  74 0050 13040101 		addi	s0,sp,16
  75              		.cfi_def_cfa 8, 0
 112:src/semaphore.cpp ****     MemoryAllocator::mem_free(ptr);
  76              		.loc 1 112 5
  77              		.loc 1 112 30 is_stmt 0
  78 0054 97000000 		call	_ZN15MemoryAllocator8mem_freeEPv@plt
  78      E7800000 
  79              	.LVL7:
 113:src/semaphore.cpp **** }
  80              		.loc 1 113 1
  81 005c 83308100 		ld	ra,8(sp)
  82              		.cfi_restore 1
  83 0060 03340100 		ld	s0,0(sp)
  84              		.cfi_restore 8
  85              		.cfi_def_cfa 2, 16
  86 0064 13010101 		addi	sp,sp,16
  87              		.cfi_def_cfa_offset 0
  88 0068 67800000 		jr	ra
  89              		.cfi_endproc
  90              	.LFE41:
  92              		.align	2
  93              		.globl	_ZN3SemnwEm
  95              	_ZN3SemnwEm:
  96              	.LFB42:
 114:src/semaphore.cpp **** 
 115:src/semaphore.cpp **** void *Sem::operator new(size_t size) {
  97              		.loc 1 115 38 is_stmt 1
  98              		.cfi_startproc
  99              	.LVL8:
 100 006c 130101FF 		addi	sp,sp,-16
 101              		.cfi_def_cfa_offset 16
 102 0070 23341100 		sd	ra,8(sp)
 103 0074 23308100 		sd	s0,0(sp)
 104              		.cfi_offset 1, -8
 105              		.cfi_offset 8, -16
 106 0078 13040101 		addi	s0,sp,16
 107              		.cfi_def_cfa 8, 0
 116:src/semaphore.cpp ****     return MemoryAllocator::mem_alloc((mem_h_size + size + MEM_BLOCK_SIZE - 1) / MEM_BLOCK_SIZE);
 108              		.loc 1 116 5
 109              		.loc 1 116 75 is_stmt 0
 110 007c 13057505 		addi	a0,a0,87
 111              	.LVL9:
GAS LISTING /tmp/ccdzk6Z8.s 			page 5


 112              		.loc 1 116 38
 113 0080 13556500 		srli	a0,a0,6
 114              	.LVL10:
 115 0084 97000000 		call	_ZN15MemoryAllocator9mem_allocEm@plt
 115      E7800000 
 116              	.LVL11:
 117:src/semaphore.cpp **** }
 117              		.loc 1 117 1
 118 008c 83308100 		ld	ra,8(sp)
 119              		.cfi_restore 1
 120 0090 03340100 		ld	s0,0(sp)
 121              		.cfi_restore 8
 122              		.cfi_def_cfa 2, 16
 123 0094 13010101 		addi	sp,sp,16
 124              		.cfi_def_cfa_offset 0
 125 0098 67800000 		jr	ra
 126              		.cfi_endproc
 127              	.LFE42:
 129              		.align	2
 130              		.globl	_ZNK3Sem9get_valueEv
 132              	_ZNK3Sem9get_valueEv:
 133              	.LFB43:
 118:src/semaphore.cpp **** 
 119:src/semaphore.cpp **** int Sem::get_value() const {return value;}
 134              		.loc 1 119 28 is_stmt 1
 135              		.cfi_startproc
 136              	.LVL12:
 137 009c 130101FF 		addi	sp,sp,-16
 138              		.cfi_def_cfa_offset 16
 139 00a0 23348100 		sd	s0,8(sp)
 140              		.cfi_offset 8, -8
 141 00a4 13040101 		addi	s0,sp,16
 142              		.cfi_def_cfa 8, 0
 143              		.loc 1 119 29
 144              		.loc 1 119 42 is_stmt 0
 145 00a8 03250500 		lw	a0,0(a0)
 146              	.LVL13:
 147 00ac 03348100 		ld	s0,8(sp)
 148              		.cfi_restore 8
 149              		.cfi_def_cfa 2, 16
 150 00b0 13010101 		addi	sp,sp,16
 151              		.cfi_def_cfa_offset 0
 152 00b4 67800000 		jr	ra
 153              		.cfi_endproc
 154              	.LFE43:
 156              		.align	2
 157              		.globl	_ZN3Sem7sem_addEPS_
 159              	_ZN3Sem7sem_addEPS_:
 160              	.LFB44:
 120:src/semaphore.cpp **** 
 121:src/semaphore.cpp **** void Sem::sem_add(Sem* toAdd) {
 161              		.loc 1 121 31 is_stmt 1
 162              		.cfi_startproc
 163              	.LVL14:
 164 00b8 130101FF 		addi	sp,sp,-16
 165              		.cfi_def_cfa_offset 16
 166 00bc 23348100 		sd	s0,8(sp)
GAS LISTING /tmp/ccdzk6Z8.s 			page 6


 167              		.cfi_offset 8, -8
 168 00c0 13040101 		addi	s0,sp,16
 169              		.cfi_def_cfa 8, 0
 122:src/semaphore.cpp **** 
 123:src/semaphore.cpp ****     if (!first) first = last = toAdd;
 170              		.loc 1 123 5
 171              		.loc 1 123 9 is_stmt 0
 172 00c4 97070000 		ld	a5,.LANCHOR0
 172      83B70700 
 173              		.loc 1 123 5
 174 00cc 63820702 		beqz	a5,.L20
 124:src/semaphore.cpp ****     else last = last -> next = toAdd;
 175              		.loc 1 124 10 is_stmt 1
 176              		.loc 1 124 25 is_stmt 0
 177 00d0 97070000 		lla	a5,.LANCHOR0
 177      93870700 
 178 00d8 03B78700 		ld	a4,8(a5)
 179              		.loc 1 124 30
 180 00dc 2334A700 		sd	a0,8(a4)
 181              		.loc 1 124 15
 182 00e0 23B4A700 		sd	a0,8(a5)
 183              	.L16:
 125:src/semaphore.cpp **** 
 126:src/semaphore.cpp **** }
 184              		.loc 1 126 1
 185 00e4 03348100 		ld	s0,8(sp)
 186              		.cfi_remember_state
 187              		.cfi_restore 8
 188              		.cfi_def_cfa 2, 16
 189 00e8 13010101 		addi	sp,sp,16
 190              		.cfi_def_cfa_offset 0
 191 00ec 67800000 		jr	ra
 192              	.L20:
 193              		.cfi_restore_state
 123:src/semaphore.cpp ****     else last = last -> next = toAdd;
 194              		.loc 1 123 17 is_stmt 1 discriminator 1
 123:src/semaphore.cpp ****     else last = last -> next = toAdd;
 195              		.loc 1 123 30 is_stmt 0 discriminator 1
 196 00f0 97070000 		lla	a5,.LANCHOR0
 196      93870700 
 197 00f8 23B4A700 		sd	a0,8(a5)
 123:src/semaphore.cpp ****     else last = last -> next = toAdd;
 198              		.loc 1 123 23 discriminator 1
 199 00fc 23B0A700 		sd	a0,0(a5)
 200 0100 6FF05FFE 		j	.L16
 201              		.cfi_endproc
 202              	.LFE44:
 204              		.align	2
 205              		.globl	_ZN3Sem4openEPPS_j
 207              	_ZN3Sem4openEPPS_j:
 208              	.LFB33:
   8:src/semaphore.cpp **** 
 209              		.loc 1 8 49 is_stmt 1
 210              		.cfi_startproc
 211              	.LVL15:
 212 0104 130101FE 		addi	sp,sp,-32
 213              		.cfi_def_cfa_offset 32
GAS LISTING /tmp/ccdzk6Z8.s 			page 7


 214 0108 233C1100 		sd	ra,24(sp)
 215 010c 23388100 		sd	s0,16(sp)
 216 0110 23349100 		sd	s1,8(sp)
 217 0114 23302101 		sd	s2,0(sp)
 218              		.cfi_offset 1, -8
 219              		.cfi_offset 8, -16
 220              		.cfi_offset 9, -24
 221              		.cfi_offset 18, -32
 222 0118 13040102 		addi	s0,sp,32
 223              		.cfi_def_cfa 8, 0
 224 011c 93040500 		mv	s1,a0
 225 0120 13890500 		mv	s2,a1
  10:src/semaphore.cpp ****     if (*handle == nullptr) return  -1;
 226              		.loc 1 10 5
  10:src/semaphore.cpp ****     if (*handle == nullptr) return  -1;
 227              		.loc 1 10 32 is_stmt 0
 228 0124 13050003 		li	a0,48
 229              	.LVL16:
 230 0128 97000000 		call	_ZN3SemnwEm
 230      E7800000 
 231              	.LVL17:
 232              	.LBB15:
 233              	.LBB16:
 234              		.file 2 "src/../h/semaphore.hpp"
   1:src/../h/semaphore.hpp **** 
   2:src/../h/semaphore.hpp **** #ifndef PROJECT_BASE_SEMAPHORE_HPP
   3:src/../h/semaphore.hpp **** #define PROJECT_BASE_SEMAPHORE_HPP
   4:src/../h/semaphore.hpp **** 
   5:src/../h/semaphore.hpp **** #include "Scheduler.hpp"
   6:src/../h/semaphore.hpp **** #include "thread.hpp"
   7:src/../h/semaphore.hpp **** #include "../lib/hw.h"
   8:src/../h/semaphore.hpp **** #include "List.hpp"
   9:src/../h/semaphore.hpp **** 
  10:src/../h/semaphore.hpp **** class Sem;
  11:src/../h/semaphore.hpp **** typedef Sem* sem_t;
  12:src/../h/semaphore.hpp **** 
  13:src/../h/semaphore.hpp **** class Sem {
  14:src/../h/semaphore.hpp **** public:
  15:src/../h/semaphore.hpp **** 
  16:src/../h/semaphore.hpp ****     friend class RISCV;
  17:src/../h/semaphore.hpp **** 
  18:src/../h/semaphore.hpp ****  // puno praznih pokazivaca, razmisli o listi
  19:src/../h/semaphore.hpp **** 
  20:src/../h/semaphore.hpp ****     enum error {
  21:src/../h/semaphore.hpp ****         MEMORY_ERR = -3,
  22:src/../h/semaphore.hpp ****         SEM_CLOSED = -4,
  23:src/../h/semaphore.hpp ****         SEMDEAD = -1,
  24:src/../h/semaphore.hpp ****         TIMEOUT = -2
  25:src/../h/semaphore.hpp ****     };
  26:src/../h/semaphore.hpp **** 
  27:src/../h/semaphore.hpp ****     static int wait(sem_t);
  28:src/../h/semaphore.hpp ****     static int signal(sem_t);
  29:src/../h/semaphore.hpp **** 
  30:src/../h/semaphore.hpp ****     int get_value() const;
  31:src/../h/semaphore.hpp **** 
  32:src/../h/semaphore.hpp ****     static int timedwait(sem_t, time_t time);
  33:src/../h/semaphore.hpp ****     static int trywait(sem_t);
GAS LISTING /tmp/ccdzk6Z8.s 			page 8


  34:src/../h/semaphore.hpp **** 
  35:src/../h/semaphore.hpp ****     static int open(sem_t* handle, unsigned init);  // ???
  36:src/../h/semaphore.hpp ****     static int s_close(sem_t handle);
  37:src/../h/semaphore.hpp **** 
  38:src/../h/semaphore.hpp ****     void* operator new(size_t size);
  39:src/../h/semaphore.hpp ****     void operator delete(void* ptr);
  40:src/../h/semaphore.hpp **** 
  41:src/../h/semaphore.hpp **** //    static ListSEM semaphores;
  42:src/../h/semaphore.hpp ****     static Sem* first, *last;
  43:src/../h/semaphore.hpp **** 
  44:src/../h/semaphore.hpp **** private:
  45:src/../h/semaphore.hpp **** 
  46:src/../h/semaphore.hpp ****     explicit Sem(int init = 1) : value(init), next(nullptr), blocked() {}
 235              		.loc 2 46 70
 236 0130 23202501 		sw	s2,0(a0)
 237 0134 23340500 		sd	zero,8(a0)
 238              	.LVL18:
 239              	.LBB17:
 240              	.LBB18:
 241              		.file 3 "src/../h/List.hpp"
   1:src/../h/List.hpp **** //
   2:src/../h/List.hpp **** // Created by os on 5/13/24.
   3:src/../h/List.hpp **** //
   4:src/../h/List.hpp **** 
   5:src/../h/List.hpp **** #ifndef PROJECT_BASE_LIST_HPP
   6:src/../h/List.hpp **** #define PROJECT_BASE_LIST_HPP
   7:src/../h/List.hpp **** #include "thread.hpp"
   8:src/../h/List.hpp **** 
   9:src/../h/List.hpp **** extern void printInteger(uint64);
  10:src/../h/List.hpp **** 
  11:src/../h/List.hpp **** template <typename T>
  12:src/../h/List.hpp **** class List {
  13:src/../h/List.hpp **** 
  14:src/../h/List.hpp **** public:
  15:src/../h/List.hpp **** 
  16:src/../h/List.hpp ****     friend class RISCV;
  17:src/../h/List.hpp **** 
  18:src/../h/List.hpp ****     List() : head(nullptr), tail(nullptr) {};
 242              		.loc 3 18 41
 243 0138 23380500 		sd	zero,16(a0)
 244 013c 233C0500 		sd	zero,24(a0)
 245 0140 23200502 		sw	zero,32(a0)
 246              	.LVL19:
 247              	.LBE18:
 248              	.LBE17:
 249              		.loc 2 46 70
 250 0144 23240502 		sw	zero,40(a0)
 251              	.LVL20:
 252              	.LBE16:
 253              	.LBE15:
  10:src/semaphore.cpp ****     if (*handle == nullptr) return  -1;
 254              		.loc 1 10 13
 255 0148 23B0A400 		sd	a0,0(s1)
  11:src/semaphore.cpp **** 
 256              		.loc 1 11 5 is_stmt 1
 257 014c 63040502 		beqz	a0,.L23
  13:src/semaphore.cpp **** 
GAS LISTING /tmp/ccdzk6Z8.s 			page 9


 258              		.loc 1 13 5
  13:src/semaphore.cpp **** 
 259              		.loc 1 13 12 is_stmt 0
 260 0150 97000000 		call	_ZN3Sem7sem_addEPS_
 260      E7800000 
 261              	.LVL21:
  15:src/semaphore.cpp **** }
 262              		.loc 1 15 5 is_stmt 1
  15:src/semaphore.cpp **** }
 263              		.loc 1 15 12 is_stmt 0
 264 0158 13050000 		li	a0,0
 265              	.L22:
  16:src/semaphore.cpp **** 
 266              		.loc 1 16 1
 267 015c 83308101 		ld	ra,24(sp)
 268              		.cfi_remember_state
 269              		.cfi_restore 1
 270 0160 03340101 		ld	s0,16(sp)
 271              		.cfi_restore 8
 272              		.cfi_def_cfa 2, 32
 273 0164 83348100 		ld	s1,8(sp)
 274              		.cfi_restore 9
 275              	.LVL22:
 276 0168 03390100 		ld	s2,0(sp)
 277              		.cfi_restore 18
 278 016c 13010102 		addi	sp,sp,32
 279              		.cfi_def_cfa_offset 0
 280 0170 67800000 		jr	ra
 281              	.LVL23:
 282              	.L23:
 283              		.cfi_restore_state
  11:src/semaphore.cpp **** 
 284              		.loc 1 11 38
 285 0174 1305F0FF 		li	a0,-1
 286 0178 6FF05FFE 		j	.L22
 287              		.cfi_endproc
 288              	.LFE33:
 290              		.align	2
 291              		.globl	_ZN3Sem10sem_removeEPS_
 293              	_ZN3Sem10sem_removeEPS_:
 294              	.LFB45:
 127:src/semaphore.cpp **** 
 128:src/semaphore.cpp **** void Sem::sem_remove(Sem* toDelete) {
 295              		.loc 1 128 37 is_stmt 1
 296              		.cfi_startproc
 297              	.LVL24:
 298 017c 130101FF 		addi	sp,sp,-16
 299              		.cfi_def_cfa_offset 16
 300 0180 23348100 		sd	s0,8(sp)
 301              		.cfi_offset 8, -8
 302 0184 13040101 		addi	s0,sp,16
 303              		.cfi_def_cfa 8, 0
 129:src/semaphore.cpp **** 
 130:src/semaphore.cpp ****     Sem* prev = nullptr, *s = nullptr;
 304              		.loc 1 130 5
 305              	.LVL25:
 131:src/semaphore.cpp **** 
GAS LISTING /tmp/ccdzk6Z8.s 			page 10


 132:src/semaphore.cpp ****     for (s = first; s; s = s->next) {
 306              		.loc 1 132 5
 307              		.loc 1 132 12 is_stmt 0
 308 0188 97070000 		ld	a5,.LANCHOR0
 308      83B70700 
 309              	.LVL26:
 130:src/semaphore.cpp **** 
 310              		.loc 1 130 10
 311 0190 13070000 		li	a4,0
 312              	.LVL27:
 313              	.L30:
 314              		.loc 1 132 21 is_stmt 1 discriminator 1
 315 0194 63820702 		beqz	a5,.L25
 133:src/semaphore.cpp ****         if (s == toDelete) {
 316              		.loc 1 133 9
 317 0198 6388A700 		beq	a5,a0,.L32
 134:src/semaphore.cpp ****             if (prev) prev->next = s->next;
 135:src/semaphore.cpp ****             else first = last = s;
 136:src/semaphore.cpp ****             s->next = nullptr;
 137:src/semaphore.cpp ****             return;
 138:src/semaphore.cpp ****         }
 139:src/semaphore.cpp ****         prev = s;
 318              		.loc 1 139 9 discriminator 2
 319              	.LVL28:
 132:src/semaphore.cpp ****         if (s == toDelete) {
 320              		.loc 1 132 5 discriminator 2
 321              		.loc 1 139 14 is_stmt 0 discriminator 2
 322 019c 13870700 		mv	a4,a5
 132:src/semaphore.cpp ****         if (s == toDelete) {
 323              		.loc 1 132 26 discriminator 2
 324 01a0 83B78700 		ld	a5,8(a5)
 325              	.LVL29:
 132:src/semaphore.cpp ****         if (s == toDelete) {
 326              		.loc 1 132 5 discriminator 2
 327 01a4 6FF01FFF 		j	.L30
 328              	.L32:
 134:src/semaphore.cpp ****             if (prev) prev->next = s->next;
 329              		.loc 1 134 13 is_stmt 1
 330 01a8 630E0700 		beqz	a4,.L28
 134:src/semaphore.cpp ****             if (prev) prev->next = s->next;
 331              		.loc 1 134 23 discriminator 1
 134:src/semaphore.cpp ****             if (prev) prev->next = s->next;
 332              		.loc 1 134 39 is_stmt 0 discriminator 1
 333 01ac 83B68700 		ld	a3,8(a5)
 134:src/semaphore.cpp ****             if (prev) prev->next = s->next;
 334              		.loc 1 134 34 discriminator 1
 335 01b0 2334D700 		sd	a3,8(a4)
 336              	.LVL30:
 337              	.L29:
 136:src/semaphore.cpp ****             return;
 338              		.loc 1 136 13 is_stmt 1
 136:src/semaphore.cpp ****             return;
 339              		.loc 1 136 21 is_stmt 0
 340 01b4 23B40700 		sd	zero,8(a5)
 137:src/semaphore.cpp ****         }
 341              		.loc 1 137 13 is_stmt 1
 342              	.L25:
GAS LISTING /tmp/ccdzk6Z8.s 			page 11


 140:src/semaphore.cpp ****     }
 141:src/semaphore.cpp **** }
 343              		.loc 1 141 1 is_stmt 0
 344 01b8 03348100 		ld	s0,8(sp)
 345              		.cfi_remember_state
 346              		.cfi_restore 8
 347              		.cfi_def_cfa 2, 16
 348 01bc 13010101 		addi	sp,sp,16
 349              		.cfi_def_cfa_offset 0
 350 01c0 67800000 		jr	ra
 351              	.LVL31:
 352              	.L28:
 353              		.cfi_restore_state
 135:src/semaphore.cpp ****             s->next = nullptr;
 354              		.loc 1 135 18 is_stmt 1
 135:src/semaphore.cpp ****             s->next = nullptr;
 355              		.loc 1 135 31 is_stmt 0
 356 01c4 17070000 		lla	a4,.LANCHOR0
 356      13070700 
 357              	.LVL32:
 358 01cc 2334F700 		sd	a5,8(a4)
 135:src/semaphore.cpp ****             s->next = nullptr;
 359              		.loc 1 135 24
 360 01d0 2330F700 		sd	a5,0(a4)
 361 01d4 6FF01FFE 		j	.L29
 362              		.cfi_endproc
 363              	.LFE45:
 365              		.section	.text._ZN4ListI3TCBE4peekEv,"axG",@progbits,_ZN4ListI3TCBE4peekEv,comdat
 366              		.align	2
 367              		.weak	_ZN4ListI3TCBE4peekEv
 369              	_ZN4ListI3TCBE4peekEv:
 370              	.LFB49:
  19:src/../h/List.hpp **** 
  20:src/../h/List.hpp ****     void add(T*);
  21:src/../h/List.hpp ****     T* get();
  22:src/../h/List.hpp ****     T* peek();
  23:src/../h/List.hpp **** 
  24:src/../h/List.hpp ****     inline int size() {return count;}
  25:src/../h/List.hpp **** 
  26:src/../h/List.hpp **** private:
  27:src/../h/List.hpp **** 
  28:src/../h/List.hpp ****     struct Elem {
  29:src/../h/List.hpp ****         T* data;
  30:src/../h/List.hpp ****         Elem* next;
  31:src/../h/List.hpp **** 
  32:src/../h/List.hpp ****         explicit Elem(T* data) : data(data), next(nullptr) {}
  33:src/../h/List.hpp ****     };
  34:src/../h/List.hpp **** 
  35:src/../h/List.hpp ****     Elem *head, *tail;
  36:src/../h/List.hpp ****     int count = 0;
  37:src/../h/List.hpp **** 
  38:src/../h/List.hpp ****     void remove(T *t);
  39:src/../h/List.hpp **** };
  40:src/../h/List.hpp **** 
  41:src/../h/List.hpp **** typedef List<TCB> ListTCB;
  42:src/../h/List.hpp **** using ListSEM = List<Sem>;
  43:src/../h/List.hpp **** 
GAS LISTING /tmp/ccdzk6Z8.s 			page 12


  44:src/../h/List.hpp **** template <typename T>
  45:src/../h/List.hpp **** void List<T>::add(T *t) {
  46:src/../h/List.hpp **** 
  47:src/../h/List.hpp ****     Elem* toAdd = new Elem(t);
  48:src/../h/List.hpp **** 
  49:src/../h/List.hpp ****     if (!head) head = tail = toAdd;
  50:src/../h/List.hpp ****     else tail = tail -> next = toAdd;
  51:src/../h/List.hpp **** 
  52:src/../h/List.hpp ****     count++;
  53:src/../h/List.hpp **** }
  54:src/../h/List.hpp **** 
  55:src/../h/List.hpp **** template <typename T>
  56:src/../h/List.hpp **** T* List<T>::get() {
  57:src/../h/List.hpp **** 
  58:src/../h/List.hpp ****     if (!head) return nullptr;
  59:src/../h/List.hpp **** 
  60:src/../h/List.hpp ****     T* t = head -> data;
  61:src/../h/List.hpp ****     Elem* oldHead = head;
  62:src/../h/List.hpp ****     head = head -> next;
  63:src/../h/List.hpp **** 
  64:src/../h/List.hpp ****     if (!head) tail = nullptr;
  65:src/../h/List.hpp **** 
  66:src/../h/List.hpp ****     delete oldHead;
  67:src/../h/List.hpp ****     count--;
  68:src/../h/List.hpp ****     return t;
  69:src/../h/List.hpp **** }
  70:src/../h/List.hpp **** 
  71:src/../h/List.hpp **** template <typename T>
  72:src/../h/List.hpp **** T* List<T>::peek() {
 371              		.loc 3 72 4 is_stmt 1
 372              		.cfi_startproc
 373              	.LVL33:
 374 0000 130101FF 		addi	sp,sp,-16
 375              		.cfi_def_cfa_offset 16
 376 0004 23348100 		sd	s0,8(sp)
 377              		.cfi_offset 8, -8
 378 0008 13040101 		addi	s0,sp,16
 379              		.cfi_def_cfa 8, 0
  73:src/../h/List.hpp ****     if (head) return head->data;
 380              		.loc 3 73 9 is_stmt 0
 381 000c 03350500 		ld	a0,0(a0)
 382              	.LVL34:
 383              		.loc 3 73 5
 384 0010 63040500 		beqz	a0,.L33
 385              		.loc 3 73 28 discriminator 1
 386 0014 03350500 		ld	a0,0(a0)
 387              	.L33:
  74:src/../h/List.hpp ****     else return nullptr;
  75:src/../h/List.hpp **** }
 388              		.loc 3 75 1
 389 0018 03348100 		ld	s0,8(sp)
 390              		.cfi_restore 8
 391              		.cfi_def_cfa 2, 16
 392 001c 13010101 		addi	sp,sp,16
 393              		.cfi_def_cfa_offset 0
 394 0020 67800000 		jr	ra
 395              		.cfi_endproc
GAS LISTING /tmp/ccdzk6Z8.s 			page 13


 396              	.LFE49:
 398              		.section	.text._ZN4ListI3TCBE3addEPS0_,"axG",@progbits,_ZN4ListI3TCBE3addEPS0_,comdat
 399              		.align	2
 400              		.weak	_ZN4ListI3TCBE3addEPS0_
 402              	_ZN4ListI3TCBE3addEPS0_:
 403              	.LFB50:
  45:src/../h/List.hpp **** 
 404              		.loc 3 45 6 is_stmt 1
 405              		.cfi_startproc
 406              	.LVL35:
 407 0000 130101FE 		addi	sp,sp,-32
 408              		.cfi_def_cfa_offset 32
 409 0004 233C1100 		sd	ra,24(sp)
 410 0008 23388100 		sd	s0,16(sp)
 411 000c 23349100 		sd	s1,8(sp)
 412 0010 23302101 		sd	s2,0(sp)
 413              		.cfi_offset 1, -8
 414              		.cfi_offset 8, -16
 415              		.cfi_offset 9, -24
 416              		.cfi_offset 18, -32
 417 0014 13040102 		addi	s0,sp,32
 418              		.cfi_def_cfa 8, 0
 419 0018 93040500 		mv	s1,a0
 420 001c 13890500 		mv	s2,a1
  47:src/../h/List.hpp **** 
 421              		.loc 3 47 19 is_stmt 0
 422 0020 13050001 		li	a0,16
 423              	.LVL36:
 424 0024 97000000 		call	_Znwm@plt
 424      E7800000 
 425              	.LVL37:
 426              	.LBB19:
 427              	.LBB20:
  32:src/../h/List.hpp ****     };
 428              		.loc 3 32 58
 429 002c 23302501 		sd	s2,0(a0)
 430 0030 23340500 		sd	zero,8(a0)
 431              	.LVL38:
 432              	.LBE20:
 433              	.LBE19:
  49:src/../h/List.hpp ****     else tail = tail -> next = toAdd;
 434              		.loc 3 49 10
 435 0034 83B70400 		ld	a5,0(s1)
  49:src/../h/List.hpp ****     else tail = tail -> next = toAdd;
 436              		.loc 3 49 5
 437 0038 638A0702 		beqz	a5,.L40
  50:src/../h/List.hpp **** 
 438              		.loc 3 50 17
 439 003c 83B78400 		ld	a5,8(s1)
  50:src/../h/List.hpp **** 
 440              		.loc 3 50 10
 441 0040 23B4A700 		sd	a0,8(a5)
 442 0044 23B4A400 		sd	a0,8(s1)
 443              	.L38:
  52:src/../h/List.hpp **** }
 444              		.loc 3 52 5
 445 0048 83A70401 		lw	a5,16(s1)
GAS LISTING /tmp/ccdzk6Z8.s 			page 14


 446 004c 9B871700 		addiw	a5,a5,1
 447 0050 23A8F400 		sw	a5,16(s1)
  53:src/../h/List.hpp **** 
 448              		.loc 3 53 1
 449 0054 83308101 		ld	ra,24(sp)
 450              		.cfi_remember_state
 451              		.cfi_restore 1
 452 0058 03340101 		ld	s0,16(sp)
 453              		.cfi_restore 8
 454              		.cfi_def_cfa 2, 32
 455 005c 83348100 		ld	s1,8(sp)
 456              		.cfi_restore 9
 457              	.LVL39:
 458 0060 03390100 		ld	s2,0(sp)
 459              		.cfi_restore 18
 460              	.LVL40:
 461 0064 13010102 		addi	sp,sp,32
 462              		.cfi_def_cfa_offset 0
 463 0068 67800000 		jr	ra
 464              	.LVL41:
 465              	.L40:
 466              		.cfi_restore_state
  49:src/../h/List.hpp ****     else tail = tail -> next = toAdd;
 467              		.loc 3 49 16 discriminator 1
 468 006c 23B4A400 		sd	a0,8(s1)
 469 0070 23B0A400 		sd	a0,0(s1)
 470 0074 6FF05FFD 		j	.L38
 471              		.cfi_endproc
 472              	.LFE50:
 474              		.text
 475              		.align	2
 476              		.globl	_ZN3Sem5blockEv
 478              	_ZN3Sem5blockEv:
 479              	.LFB38:
  57:src/semaphore.cpp **** 
 480              		.loc 1 57 19 is_stmt 1
 481              		.cfi_startproc
 482              	.LVL42:
 483 01d8 130101FE 		addi	sp,sp,-32
 484              		.cfi_def_cfa_offset 32
 485 01dc 233C1100 		sd	ra,24(sp)
 486 01e0 23388100 		sd	s0,16(sp)
 487 01e4 23349100 		sd	s1,8(sp)
 488 01e8 23302101 		sd	s2,0(sp)
 489              		.cfi_offset 1, -8
 490              		.cfi_offset 8, -16
 491              		.cfi_offset 9, -24
 492              		.cfi_offset 18, -32
 493 01ec 13040102 		addi	s0,sp,32
 494              		.cfi_def_cfa 8, 0
  59:src/semaphore.cpp ****     oldRunning -> current_state = TCB::BLOCKED;
 495              		.loc 1 59 5
  59:src/semaphore.cpp ****     oldRunning -> current_state = TCB::BLOCKED;
 496              		.loc 1 59 10 is_stmt 0
 497 01f0 17090000 		la	s2,_ZN3TCB7runningE
 497      03390900 
 498 01f8 83340900 		ld	s1,0(s2)
GAS LISTING /tmp/ccdzk6Z8.s 			page 15


 499              	.LVL43:
  60:src/semaphore.cpp **** 
 500              		.loc 1 60 5 is_stmt 1
  60:src/semaphore.cpp **** 
 501              		.loc 1 60 33 is_stmt 0
 502 01fc 93074000 		li	a5,4
 503 0200 23A4F406 		sw	a5,104(s1)
  62:src/semaphore.cpp **** 
 504              		.loc 1 62 5 is_stmt 1
  62:src/semaphore.cpp **** 
 505              		.loc 1 62 16 is_stmt 0
 506 0204 93850400 		mv	a1,s1
 507 0208 13050501 		addi	a0,a0,16
 508              	.LVL44:
 509 020c 97000000 		call	_ZN4ListI3TCBE3addEPS0_
 509      E7800000 
 510              	.LVL45:
  64:src/semaphore.cpp ****     TCB::yield(oldRunning, TCB::running);
 511              		.loc 1 64 5 is_stmt 1
  64:src/semaphore.cpp ****     TCB::yield(oldRunning, TCB::running);
 512              		.loc 1 64 34 is_stmt 0
 513 0214 97000000 		call	_ZN9Scheduler3getEv@plt
 513      E7800000 
 514              	.LVL46:
 515 021c 93050500 		mv	a1,a0
  64:src/semaphore.cpp ****     TCB::yield(oldRunning, TCB::running);
 516              		.loc 1 64 18
 517 0220 2330A900 		sd	a0,0(s2)
  65:src/semaphore.cpp **** }
 518              		.loc 1 65 5 is_stmt 1
  65:src/semaphore.cpp **** }
 519              		.loc 1 65 15 is_stmt 0
 520 0224 13850400 		mv	a0,s1
 521 0228 97000000 		call	_ZN3TCB5yieldEPS_S0_@plt
 521      E7800000 
 522              	.LVL47:
  66:src/semaphore.cpp **** 
 523              		.loc 1 66 1
 524 0230 83308101 		ld	ra,24(sp)
 525              		.cfi_restore 1
 526 0234 03340101 		ld	s0,16(sp)
 527              		.cfi_restore 8
 528              		.cfi_def_cfa 2, 32
 529 0238 83348100 		ld	s1,8(sp)
 530              		.cfi_restore 9
 531              	.LVL48:
 532 023c 03390100 		ld	s2,0(sp)
 533              		.cfi_restore 18
 534 0240 13010102 		addi	sp,sp,32
 535              		.cfi_def_cfa_offset 0
 536 0244 67800000 		jr	ra
 537              		.cfi_endproc
 538              	.LFE38:
 540              		.align	2
 541              		.globl	_ZN3Sem4waitEPS_
 543              	_ZN3Sem4waitEPS_:
 544              	.LFB35:
GAS LISTING /tmp/ccdzk6Z8.s 			page 16


  32:src/semaphore.cpp ****     if (!handle) return SEM_CLOSED;
 545              		.loc 1 32 29 is_stmt 1
 546              		.cfi_startproc
 547              	.LVL49:
  33:src/semaphore.cpp ****     if (--handle->value < 0) {
 548              		.loc 1 33 5
 549 0248 63060504 		beqz	a0,.L45
  34:src/semaphore.cpp **** 
 550              		.loc 1 34 5
  34:src/semaphore.cpp **** 
 551              		.loc 1 34 19 is_stmt 0
 552 024c 83270500 		lw	a5,0(a0)
  34:src/semaphore.cpp **** 
 553              		.loc 1 34 9
 554 0250 9B87F7FF 		addiw	a5,a5,-1
  34:src/semaphore.cpp **** 
 555              		.loc 1 34 25
 556 0254 2320F500 		sw	a5,0(a0)
  34:src/semaphore.cpp **** 
 557              		.loc 1 34 5
 558 0258 13970702 		slli	a4,a5,32
 559 025c 63460700 		bltz	a4,.L51
  41:src/semaphore.cpp **** }
 560              		.loc 1 41 12
 561 0260 13050000 		li	a0,0
 562              	.LVL50:
  42:src/semaphore.cpp **** 
 563              		.loc 1 42 1
 564 0264 67800000 		ret
 565              	.LVL51:
 566              	.L51:
  32:src/semaphore.cpp ****     if (!handle) return SEM_CLOSED;
 567              		.loc 1 32 29
 568 0268 130101FF 		addi	sp,sp,-16
 569              		.cfi_def_cfa_offset 16
 570 026c 23341100 		sd	ra,8(sp)
 571 0270 23308100 		sd	s0,0(sp)
 572              		.cfi_offset 1, -8
 573              		.cfi_offset 8, -16
 574 0274 13040101 		addi	s0,sp,16
 575              		.cfi_def_cfa 8, 0
  36:src/semaphore.cpp ****         if (handle == nullptr) return SEMDEAD;
 576              		.loc 1 36 9 is_stmt 1
  36:src/semaphore.cpp ****         if (handle == nullptr) return SEMDEAD;
 577              		.loc 1 36 22 is_stmt 0
 578 0278 97000000 		call	_ZN3Sem5blockEv
 578      E7800000 
 579              	.LVL52:
  37:src/semaphore.cpp ****         // sem deallocated while thread waiting
 580              		.loc 1 37 9 is_stmt 1
  41:src/semaphore.cpp **** }
 581              		.loc 1 41 12 is_stmt 0
 582 0280 13050000 		li	a0,0
  42:src/semaphore.cpp **** 
 583              		.loc 1 42 1
 584 0284 83308100 		ld	ra,8(sp)
 585              		.cfi_restore 1
GAS LISTING /tmp/ccdzk6Z8.s 			page 17


 586 0288 03340100 		ld	s0,0(sp)
 587              		.cfi_restore 8
 588              		.cfi_def_cfa 2, 16
 589 028c 13010101 		addi	sp,sp,16
 590              		.cfi_def_cfa_offset 0
 591 0290 67800000 		jr	ra
 592              	.LVL53:
 593              	.L45:
  33:src/semaphore.cpp ****     if (--handle->value < 0) {
 594              		.loc 1 33 25
 595 0294 1305C0FF 		li	a0,-4
 596              	.LVL54:
 597 0298 67800000 		ret
 598              		.cfi_endproc
 599              	.LFE35:
 601              		.align	2
 602              		.globl	_ZN3Sem9timedwaitEPS_m
 604              	_ZN3Sem9timedwaitEPS_m:
 605              	.LFB40:
  83:src/semaphore.cpp **** 
 606              		.loc 1 83 47 is_stmt 1
 607              		.cfi_startproc
 608              	.LVL55:
  90:src/semaphore.cpp **** 
 609              		.loc 1 90 5
 610 029c 63000508 		beqz	a0,.L54
  92:src/semaphore.cpp **** 
 611              		.loc 1 92 5
  92:src/semaphore.cpp **** 
 612              		.loc 1 92 20 is_stmt 0
 613 02a0 83270500 		lw	a5,0(a0)
  92:src/semaphore.cpp **** 
 614              		.loc 1 92 9
 615 02a4 9B87F7FF 		addiw	a5,a5,-1
  92:src/semaphore.cpp **** 
 616              		.loc 1 92 27
 617 02a8 2320F500 		sw	a5,0(a0)
  92:src/semaphore.cpp **** 
 618              		.loc 1 92 5
 619 02ac 13970702 		slli	a4,a5,32
 620 02b0 63460700 		bltz	a4,.L61
 108:src/semaphore.cpp **** }
 621              		.loc 1 108 12
 622 02b4 13050000 		li	a0,0
 623              	.LVL56:
 109:src/semaphore.cpp **** 
 624              		.loc 1 109 1
 625 02b8 67800000 		ret
 626              	.LVL57:
 627              	.L61:
  83:src/semaphore.cpp **** 
 628              		.loc 1 83 47
 629 02bc 130101FE 		addi	sp,sp,-32
 630              		.cfi_def_cfa_offset 32
 631 02c0 233C1100 		sd	ra,24(sp)
 632 02c4 23388100 		sd	s0,16(sp)
 633 02c8 23349100 		sd	s1,8(sp)
GAS LISTING /tmp/ccdzk6Z8.s 			page 18


 634              		.cfi_offset 1, -8
 635              		.cfi_offset 8, -16
 636              		.cfi_offset 9, -24
 637 02cc 13040102 		addi	s0,sp,32
 638              		.cfi_def_cfa 8, 0
  94:src/semaphore.cpp ****         handle->timedBlock++;
 639              		.loc 1 94 9 is_stmt 1
  94:src/semaphore.cpp ****         handle->timedBlock++;
 640              		.loc 1 94 23 is_stmt 0
 641 02d0 97040000 		la	s1,_ZN3TCB7runningE
 641      83B40400 
 642 02d8 83B70400 		ld	a5,0(s1)
  94:src/semaphore.cpp ****         handle->timedBlock++;
 643              		.loc 1 94 35
 644 02dc 23BCB700 		sd	a1,24(a5)
  95:src/semaphore.cpp **** 
 645              		.loc 1 95 9 is_stmt 1
  95:src/semaphore.cpp **** 
 646              		.loc 1 95 17 is_stmt 0
 647 02e0 83278502 		lw	a5,40(a0)
  95:src/semaphore.cpp **** 
 648              		.loc 1 95 27
 649 02e4 9B871700 		addiw	a5,a5,1
 650 02e8 2324F502 		sw	a5,40(a0)
  97:src/semaphore.cpp **** 
 651              		.loc 1 97 9 is_stmt 1
  97:src/semaphore.cpp **** 
 652              		.loc 1 97 22 is_stmt 0
 653 02ec 97000000 		call	_ZN3Sem5blockEv
 653      E7800000 
 654              	.LVL58:
 101:src/semaphore.cpp **** 
 655              		.loc 1 101 9 is_stmt 1
 104:src/semaphore.cpp ****         else TCB::running->time_on_sem = 0;
 656              		.loc 1 104 9
 104:src/semaphore.cpp ****         else TCB::running->time_on_sem = 0;
 657              		.loc 1 104 28 is_stmt 0
 658 02f4 83B70400 		ld	a5,0(s1)
 659 02f8 03B78701 		ld	a4,24(a5)
 104:src/semaphore.cpp ****         else TCB::running->time_on_sem = 0;
 660              		.loc 1 104 9
 661 02fc 63040702 		beqz	a4,.L56
 105:src/semaphore.cpp ****     }
 662              		.loc 1 105 14 is_stmt 1
 105:src/semaphore.cpp ****     }
 663              		.loc 1 105 40 is_stmt 0
 664 0300 23BC0700 		sd	zero,24(a5)
 108:src/semaphore.cpp **** }
 665              		.loc 1 108 12
 666 0304 13050000 		li	a0,0
 667              	.L53:
 109:src/semaphore.cpp **** 
 668              		.loc 1 109 1
 669 0308 83308101 		ld	ra,24(sp)
 670              		.cfi_restore 1
 671 030c 03340101 		ld	s0,16(sp)
 672              		.cfi_restore 8
GAS LISTING /tmp/ccdzk6Z8.s 			page 19


 673              		.cfi_def_cfa 2, 32
 674 0310 83348100 		ld	s1,8(sp)
 675              		.cfi_restore 9
 676 0314 13010102 		addi	sp,sp,32
 677              		.cfi_def_cfa_offset 0
 678 0318 67800000 		jr	ra
 679              	.LVL59:
 680              	.L54:
  90:src/semaphore.cpp **** 
 681              		.loc 1 90 25
 682 031c 1305C0FF 		li	a0,-4
 683              	.LVL60:
 684 0320 67800000 		ret
 685              	.LVL61:
 686              	.L56:
 687              		.cfi_def_cfa_register 8
 688              		.cfi_offset 1, -8
 689              		.cfi_offset 8, -16
 690              		.cfi_offset 9, -24
 104:src/semaphore.cpp ****         else TCB::running->time_on_sem = 0;
 691              		.loc 1 104 48
 692 0324 1305E0FF 		li	a0,-2
 693 0328 6FF01FFE 		j	.L53
 694              		.cfi_endproc
 695              	.LFE40:
 697              		.section	.text._ZN4ListI3TCBE3getEv,"axG",@progbits,_ZN4ListI3TCBE3getEv,comdat
 698              		.align	2
 699              		.weak	_ZN4ListI3TCBE3getEv
 701              	_ZN4ListI3TCBE3getEv:
 702              	.LFB51:
  56:src/../h/List.hpp **** 
 703              		.loc 3 56 4 is_stmt 1
 704              		.cfi_startproc
 705              	.LVL62:
 706 0000 130101FE 		addi	sp,sp,-32
 707              		.cfi_def_cfa_offset 32
 708 0004 233C1100 		sd	ra,24(sp)
 709 0008 23388100 		sd	s0,16(sp)
 710 000c 23349100 		sd	s1,8(sp)
 711 0010 23302101 		sd	s2,0(sp)
 712              		.cfi_offset 1, -8
 713              		.cfi_offset 8, -16
 714              		.cfi_offset 9, -24
 715              		.cfi_offset 18, -32
 716 0014 13040102 		addi	s0,sp,32
 717              		.cfi_def_cfa 8, 0
 718 0018 93040500 		mv	s1,a0
  58:src/../h/List.hpp **** 
 719              		.loc 3 58 10 is_stmt 0
 720 001c 03350500 		ld	a0,0(a0)
 721              	.LVL63:
  58:src/../h/List.hpp **** 
 722              		.loc 3 58 5
 723 0020 63060504 		beqz	a0,.L65
  60:src/../h/List.hpp ****     Elem* oldHead = head;
 724              		.loc 3 60 8
 725 0024 03390500 		ld	s2,0(a0)
GAS LISTING /tmp/ccdzk6Z8.s 			page 20


 726              	.LVL64:
  62:src/../h/List.hpp **** 
 727              		.loc 3 62 20
 728 0028 83378500 		ld	a5,8(a0)
  62:src/../h/List.hpp **** 
 729              		.loc 3 62 5
 730 002c 23B0F400 		sd	a5,0(s1)
  64:src/../h/List.hpp **** 
 731              		.loc 3 64 5
 732 0030 638A0702 		beqz	a5,.L67
 733              	.L64:
  66:src/../h/List.hpp ****     count--;
 734              		.loc 3 66 5
 735 0034 97000000 		call	_ZdlPv@plt
 735      E7800000 
 736              	.LVL65:
  67:src/../h/List.hpp ****     return t;
 737              		.loc 3 67 5
 738 003c 83A70401 		lw	a5,16(s1)
 739 0040 9B87F7FF 		addiw	a5,a5,-1
 740 0044 23A8F400 		sw	a5,16(s1)
 741              	.LVL66:
 742              	.L62:
  69:src/../h/List.hpp **** 
 743              		.loc 3 69 1
 744 0048 13050900 		mv	a0,s2
 745 004c 83308101 		ld	ra,24(sp)
 746              		.cfi_remember_state
 747              		.cfi_restore 1
 748 0050 03340101 		ld	s0,16(sp)
 749              		.cfi_restore 8
 750              		.cfi_def_cfa 2, 32
 751 0054 83348100 		ld	s1,8(sp)
 752              		.cfi_restore 9
 753              	.LVL67:
 754 0058 03390100 		ld	s2,0(sp)
 755              		.cfi_restore 18
 756 005c 13010102 		addi	sp,sp,32
 757              		.cfi_def_cfa_offset 0
 758 0060 67800000 		jr	ra
 759              	.LVL68:
 760              	.L67:
 761              		.cfi_restore_state
  64:src/../h/List.hpp **** 
 762              		.loc 3 64 16 discriminator 1
 763 0064 23B40400 		sd	zero,8(s1)
 764 0068 6FF0DFFC 		j	.L64
 765              	.LVL69:
 766              	.L65:
  58:src/../h/List.hpp **** 
 767              		.loc 3 58 23
 768 006c 13090500 		mv	s2,a0
 769 0070 6FF09FFD 		j	.L62
 770              		.cfi_endproc
 771              	.LFE51:
 773              		.text
 774              		.align	2
GAS LISTING /tmp/ccdzk6Z8.s 			page 21


 775              		.globl	_ZN3Sem7deblockEv
 777              	_ZN3Sem7deblockEv:
 778              	.LFB39:
  68:src/semaphore.cpp **** 
 779              		.loc 1 68 21 is_stmt 1
 780              		.cfi_startproc
 781              	.LVL70:
 782 032c 130101FE 		addi	sp,sp,-32
 783              		.cfi_def_cfa_offset 32
 784 0330 233C1100 		sd	ra,24(sp)
 785 0334 23388100 		sd	s0,16(sp)
 786 0338 23349100 		sd	s1,8(sp)
 787              		.cfi_offset 1, -8
 788              		.cfi_offset 8, -16
 789              		.cfi_offset 9, -24
 790 033c 13040102 		addi	s0,sp,32
 791              		.cfi_def_cfa 8, 0
 792 0340 93040500 		mv	s1,a0
  70:src/semaphore.cpp **** 
 793              		.loc 1 70 5
  70:src/semaphore.cpp **** 
 794              		.loc 1 70 27 is_stmt 0
 795 0344 13050501 		addi	a0,a0,16
 796              	.LVL71:
 797 0348 97000000 		call	_ZN4ListI3TCBE3getEv
 797      E7800000 
 798              	.LVL72:
  72:src/semaphore.cpp **** 
 799              		.loc 1 72 5 is_stmt 1
 800 0350 63020502 		beqz	a0,.L68
  74:src/semaphore.cpp ****         timedBlock--;
 801              		.loc 1 74 5
  74:src/semaphore.cpp ****         timedBlock--;
 802              		.loc 1 74 14 is_stmt 0
 803 0354 83378501 		ld	a5,24(a0)
  74:src/semaphore.cpp ****         timedBlock--;
 804              		.loc 1 74 5
 805 0358 63880700 		beqz	a5,.L70
  75:src/semaphore.cpp ****     }
 806              		.loc 1 75 9 is_stmt 1
 807 035c 83A78402 		lw	a5,40(s1)
  75:src/semaphore.cpp ****     }
 808              		.loc 1 75 19 is_stmt 0
 809 0360 9B87F7FF 		addiw	a5,a5,-1
 810 0364 23A4F402 		sw	a5,40(s1)
 811              	.L70:
  78:src/semaphore.cpp ****     Scheduler::put(tcb);
 812              		.loc 1 78 5 is_stmt 1
  78:src/semaphore.cpp ****     Scheduler::put(tcb);
 813              		.loc 1 78 24 is_stmt 0
 814 0368 23240506 		sw	zero,104(a0)
  79:src/semaphore.cpp **** 
 815              		.loc 1 79 5 is_stmt 1
  79:src/semaphore.cpp **** 
 816              		.loc 1 79 19 is_stmt 0
 817 036c 97000000 		call	_ZN9Scheduler3putEP3TCB@plt
 817      E7800000 
GAS LISTING /tmp/ccdzk6Z8.s 			page 22


 818              	.LVL73:
 819              	.L68:
  81:src/semaphore.cpp **** 
 820              		.loc 1 81 1
 821 0374 83308101 		ld	ra,24(sp)
 822              		.cfi_restore 1
 823 0378 03340101 		ld	s0,16(sp)
 824              		.cfi_restore 8
 825              		.cfi_def_cfa 2, 32
 826 037c 83348100 		ld	s1,8(sp)
 827              		.cfi_restore 9
 828              	.LVL74:
 829 0380 13010102 		addi	sp,sp,32
 830              		.cfi_def_cfa_offset 0
 831 0384 67800000 		jr	ra
 832              		.cfi_endproc
 833              	.LFE39:
 835              		.align	2
 836              		.globl	_ZN3Sem7s_closeEPS_
 838              	_ZN3Sem7s_closeEPS_:
 839              	.LFB34:
  18:src/semaphore.cpp **** 
 840              		.loc 1 18 32 is_stmt 1
 841              		.cfi_startproc
 842              	.LVL75:
  20:src/semaphore.cpp **** 
 843              		.loc 1 20 5
 844 0388 63040506 		beqz	a0,.L76
  18:src/semaphore.cpp **** 
 845              		.loc 1 18 32 is_stmt 0
 846 038c 130101FE 		addi	sp,sp,-32
 847              		.cfi_def_cfa_offset 32
 848 0390 233C1100 		sd	ra,24(sp)
 849 0394 23388100 		sd	s0,16(sp)
 850 0398 23349100 		sd	s1,8(sp)
 851              		.cfi_offset 1, -8
 852              		.cfi_offset 8, -16
 853              		.cfi_offset 9, -24
 854 039c 13040102 		addi	s0,sp,32
 855              		.cfi_def_cfa 8, 0
 856 03a0 93040500 		mv	s1,a0
  22:src/semaphore.cpp **** 
 857              		.loc 1 22 5 is_stmt 1
  22:src/semaphore.cpp **** 
 858              		.loc 1 22 15 is_stmt 0
 859 03a4 97000000 		call	_ZN3Sem10sem_removeEPS_
 859      E7800000 
 860              	.LVL76:
 861              	.L75:
  24:src/semaphore.cpp ****         handle->deblock();
 862              		.loc 1 24 5 is_stmt 1
  24:src/semaphore.cpp ****         handle->deblock();
 863              		.loc 1 24 33
  24:src/semaphore.cpp ****         handle->deblock();
 864              		.loc 1 24 32 is_stmt 0
 865 03ac 13850401 		addi	a0,s1,16
 866 03b0 97000000 		call	_ZN4ListI3TCBE4peekEv
GAS LISTING /tmp/ccdzk6Z8.s 			page 23


 866      E7800000 
 867              	.LVL77:
  24:src/semaphore.cpp ****         handle->deblock();
 868              		.loc 1 24 33
 869 03b8 630A0500 		beqz	a0,.L74
  25:src/semaphore.cpp ****     }
 870              		.loc 1 25 9 is_stmt 1
  25:src/semaphore.cpp ****     }
 871              		.loc 1 25 24 is_stmt 0
 872 03bc 13850400 		mv	a0,s1
 873 03c0 97000000 		call	_ZN3Sem7deblockEv
 873      E7800000 
 874              	.LVL78:
  24:src/semaphore.cpp ****         handle->deblock();
 875              		.loc 1 24 5
 876 03c8 6FF05FFE 		j	.L75
 877              	.L74:
  28:src/semaphore.cpp ****     return 0;
 878              		.loc 1 28 5 is_stmt 1 discriminator 1
  28:src/semaphore.cpp ****     return 0;
 879              		.loc 1 28 12 is_stmt 0 discriminator 1
 880 03cc 13850400 		mv	a0,s1
 881 03d0 97000000 		call	_ZN3SemdlEPv
 881      E7800000 
 882              	.LVL79:
  29:src/semaphore.cpp **** }
 883              		.loc 1 29 5 is_stmt 1 discriminator 1
  29:src/semaphore.cpp **** }
 884              		.loc 1 29 12 is_stmt 0 discriminator 1
 885 03d8 13050000 		li	a0,0
  30:src/semaphore.cpp **** 
 886              		.loc 1 30 1 discriminator 1
 887 03dc 83308101 		ld	ra,24(sp)
 888              		.cfi_restore 1
 889 03e0 03340101 		ld	s0,16(sp)
 890              		.cfi_restore 8
 891              		.cfi_def_cfa 2, 32
 892 03e4 83348100 		ld	s1,8(sp)
 893              		.cfi_restore 9
 894              	.LVL80:
 895 03e8 13010102 		addi	sp,sp,32
 896              		.cfi_def_cfa_offset 0
 897 03ec 67800000 		jr	ra
 898              	.LVL81:
 899              	.L76:
  20:src/semaphore.cpp **** 
 900              		.loc 1 20 26
 901 03f0 1305F0FF 		li	a0,-1
 902              	.LVL82:
  30:src/semaphore.cpp **** 
 903              		.loc 1 30 1
 904 03f4 67800000 		ret
 905              		.cfi_endproc
 906              	.LFE34:
 908              		.align	2
 909              		.globl	_ZN3Sem6signalEPS_
 911              	_ZN3Sem6signalEPS_:
GAS LISTING /tmp/ccdzk6Z8.s 			page 24


 912              	.LFB36:
  44:src/semaphore.cpp ****     if (!handle) return SEM_CLOSED;
 913              		.loc 1 44 31 is_stmt 1
 914              		.cfi_startproc
 915              	.LVL83:
  45:src/semaphore.cpp ****     if (++handle->value<= 0) handle->deblock();
 916              		.loc 1 45 5
 917 03f8 63060504 		beqz	a0,.L83
  46:src/semaphore.cpp ****     return 0;
 918              		.loc 1 46 5
  46:src/semaphore.cpp ****     return 0;
 919              		.loc 1 46 19 is_stmt 0
 920 03fc 83270500 		lw	a5,0(a0)
  46:src/semaphore.cpp ****     return 0;
 921              		.loc 1 46 9
 922 0400 9B871700 		addiw	a5,a5,1
 923 0404 1B870700 		sext.w	a4,a5
  46:src/semaphore.cpp ****     return 0;
 924              		.loc 1 46 24
 925 0408 2320F500 		sw	a5,0(a0)
  46:src/semaphore.cpp ****     return 0;
 926              		.loc 1 46 5
 927 040c 6356E000 		blez	a4,.L89
  47:src/semaphore.cpp **** }
 928              		.loc 1 47 12
 929 0410 13050000 		li	a0,0
 930              	.LVL84:
  48:src/semaphore.cpp **** 
 931              		.loc 1 48 1
 932 0414 67800000 		ret
 933              	.LVL85:
 934              	.L89:
  44:src/semaphore.cpp ****     if (!handle) return SEM_CLOSED;
 935              		.loc 1 44 31 discriminator 1
 936 0418 130101FF 		addi	sp,sp,-16
 937              		.cfi_def_cfa_offset 16
 938 041c 23341100 		sd	ra,8(sp)
 939 0420 23308100 		sd	s0,0(sp)
 940              		.cfi_offset 1, -8
 941              		.cfi_offset 8, -16
 942 0424 13040101 		addi	s0,sp,16
 943              		.cfi_def_cfa 8, 0
  46:src/semaphore.cpp ****     return 0;
 944              		.loc 1 46 30 is_stmt 1 discriminator 1
  46:src/semaphore.cpp ****     return 0;
 945              		.loc 1 46 45 is_stmt 0 discriminator 1
 946 0428 97000000 		call	_ZN3Sem7deblockEv
 946      E7800000 
 947              	.LVL86:
  47:src/semaphore.cpp **** }
 948              		.loc 1 47 12 discriminator 1
 949 0430 13050000 		li	a0,0
  48:src/semaphore.cpp **** 
 950              		.loc 1 48 1 discriminator 1
 951 0434 83308100 		ld	ra,8(sp)
 952              		.cfi_restore 1
 953 0438 03340100 		ld	s0,0(sp)
GAS LISTING /tmp/ccdzk6Z8.s 			page 25


 954              		.cfi_restore 8
 955              		.cfi_def_cfa 2, 16
 956 043c 13010101 		addi	sp,sp,16
 957              		.cfi_def_cfa_offset 0
 958 0440 67800000 		jr	ra
 959              	.LVL87:
 960              	.L83:
  45:src/semaphore.cpp ****     if (++handle->value<= 0) handle->deblock();
 961              		.loc 1 45 25
 962 0444 1305C0FF 		li	a0,-4
 963              	.LVL88:
 964 0448 67800000 		ret
 965              		.cfi_endproc
 966              	.LFE36:
 968              		.globl	_ZN3Sem4lastE
 969              		.globl	_ZN3Sem5firstE
 970              		.bss
 971              		.align	3
 972              		.set	.LANCHOR0,. + 0
 975              	_ZN3Sem5firstE:
 976 0000 00000000 		.zero	8
 976      00000000 
 979              	_ZN3Sem4lastE:
 980 0008 00000000 		.zero	8
 980      00000000 
 981              		.text
 982              	.Letext0:
 983              		.file 4 "src/../h/../lib/hw.h"
 984              		.file 5 "src/../h/../h/Memoryallocator.hpp"
 985              		.file 6 "src/../h/thread.hpp"
 986              		.file 7 "src/../h/../h/syscall_c.hpp"
 987              		.file 8 "src/../h/Scheduler.hpp"
GAS LISTING /tmp/ccdzk6Z8.s 			page 26


DEFINED SYMBOLS
                            *ABS*:0000000000000000 semaphore.cpp
     /tmp/ccdzk6Z8.s:9      .text:0000000000000000 _ZN3Sem7trywaitEPS_
     /tmp/ccdzk6Z8.s:13     .text:0000000000000000 .L0 
     /tmp/ccdzk6Z8.s:15     .text:0000000000000000 .L0 
     /tmp/ccdzk6Z8.s:16     .text:0000000000000000 .L0 
     /tmp/ccdzk6Z8.s:18     .text:0000000000000004 .L0 
     /tmp/ccdzk6Z8.s:19     .text:0000000000000004 .L0 
     /tmp/ccdzk6Z8.s:21     .text:0000000000000008 .L0 
     /tmp/ccdzk6Z8.s:23     .text:000000000000000c .L0 
     /tmp/ccdzk6Z8.s:26     .text:0000000000000010 .L0 
     /tmp/ccdzk6Z8.s:30     .text:0000000000000014 .L0 
     /tmp/ccdzk6Z8.s:31     .text:0000000000000018 .L0 
     /tmp/ccdzk6Z8.s:34     .text:0000000000000020 .L0 
     /tmp/ccdzk6Z8.s:35     .text:0000000000000020 .L0 
     /tmp/ccdzk6Z8.s:37     .text:0000000000000024 .L0 
     /tmp/ccdzk6Z8.s:39     .text:0000000000000024 .L0 
     /tmp/ccdzk6Z8.s:40     .text:0000000000000024 .L0 
     /tmp/ccdzk6Z8.s:43     .text:000000000000002c .L0 
     /tmp/ccdzk6Z8.s:44     .text:0000000000000030 .L0 
     /tmp/ccdzk6Z8.s:46     .text:0000000000000034 .L0 
     /tmp/ccdzk6Z8.s:47     .text:0000000000000034 .L0 
     /tmp/ccdzk6Z8.s:49     .text:0000000000000038 .L0 
     /tmp/ccdzk6Z8.s:54     .text:000000000000003c .L0 
     /tmp/ccdzk6Z8.s:57     .text:0000000000000044 .L0 
     /tmp/ccdzk6Z8.s:63     .text:0000000000000044 _ZN3SemdlEPv
     /tmp/ccdzk6Z8.s:66     .text:0000000000000044 .L0 
     /tmp/ccdzk6Z8.s:68     .text:0000000000000044 .L0 
     /tmp/ccdzk6Z8.s:69     .text:0000000000000048 .L0 
     /tmp/ccdzk6Z8.s:72     .text:0000000000000050 .L0 
     /tmp/ccdzk6Z8.s:73     .text:0000000000000050 .L0 
     /tmp/ccdzk6Z8.s:75     .text:0000000000000054 .L0 
     /tmp/ccdzk6Z8.s:77     .text:0000000000000054 .L0 
     /tmp/ccdzk6Z8.s:78     .text:0000000000000054 .L0 
     /tmp/ccdzk6Z8.s:81     .text:000000000000005c .L0 
     /tmp/ccdzk6Z8.s:82     .text:0000000000000060 .L0 
     /tmp/ccdzk6Z8.s:84     .text:0000000000000064 .L0 
     /tmp/ccdzk6Z8.s:85     .text:0000000000000064 .L0 
     /tmp/ccdzk6Z8.s:87     .text:0000000000000068 .L0 
     /tmp/ccdzk6Z8.s:89     .text:000000000000006c .L0 
     /tmp/ccdzk6Z8.s:95     .text:000000000000006c _ZN3SemnwEm
     /tmp/ccdzk6Z8.s:98     .text:000000000000006c .L0 
     /tmp/ccdzk6Z8.s:100    .text:000000000000006c .L0 
     /tmp/ccdzk6Z8.s:101    .text:0000000000000070 .L0 
     /tmp/ccdzk6Z8.s:104    .text:0000000000000078 .L0 
     /tmp/ccdzk6Z8.s:105    .text:0000000000000078 .L0 
     /tmp/ccdzk6Z8.s:107    .text:000000000000007c .L0 
     /tmp/ccdzk6Z8.s:109    .text:000000000000007c .L0 
     /tmp/ccdzk6Z8.s:110    .text:000000000000007c .L0 
     /tmp/ccdzk6Z8.s:113    .text:0000000000000080 .L0 
     /tmp/ccdzk6Z8.s:118    .text:000000000000008c .L0 
     /tmp/ccdzk6Z8.s:119    .text:0000000000000090 .L0 
     /tmp/ccdzk6Z8.s:121    .text:0000000000000094 .L0 
     /tmp/ccdzk6Z8.s:122    .text:0000000000000094 .L0 
     /tmp/ccdzk6Z8.s:124    .text:0000000000000098 .L0 
     /tmp/ccdzk6Z8.s:126    .text:000000000000009c .L0 
     /tmp/ccdzk6Z8.s:132    .text:000000000000009c _ZNK3Sem9get_valueEv
GAS LISTING /tmp/ccdzk6Z8.s 			page 27


     /tmp/ccdzk6Z8.s:135    .text:000000000000009c .L0 
     /tmp/ccdzk6Z8.s:137    .text:000000000000009c .L0 
     /tmp/ccdzk6Z8.s:138    .text:00000000000000a0 .L0 
     /tmp/ccdzk6Z8.s:140    .text:00000000000000a4 .L0 
     /tmp/ccdzk6Z8.s:142    .text:00000000000000a8 .L0 
     /tmp/ccdzk6Z8.s:144    .text:00000000000000a8 .L0 
     /tmp/ccdzk6Z8.s:145    .text:00000000000000a8 .L0 
     /tmp/ccdzk6Z8.s:148    .text:00000000000000b0 .L0 
     /tmp/ccdzk6Z8.s:149    .text:00000000000000b0 .L0 
     /tmp/ccdzk6Z8.s:151    .text:00000000000000b4 .L0 
     /tmp/ccdzk6Z8.s:153    .text:00000000000000b8 .L0 
     /tmp/ccdzk6Z8.s:159    .text:00000000000000b8 _ZN3Sem7sem_addEPS_
     /tmp/ccdzk6Z8.s:162    .text:00000000000000b8 .L0 
     /tmp/ccdzk6Z8.s:164    .text:00000000000000b8 .L0 
     /tmp/ccdzk6Z8.s:165    .text:00000000000000bc .L0 
     /tmp/ccdzk6Z8.s:167    .text:00000000000000c0 .L0 
     /tmp/ccdzk6Z8.s:169    .text:00000000000000c4 .L0 
     /tmp/ccdzk6Z8.s:171    .text:00000000000000c4 .L0 
     /tmp/ccdzk6Z8.s:172    .text:00000000000000c4 .L0 
     /tmp/ccdzk6Z8.s:174    .text:00000000000000cc .L0 
     /tmp/ccdzk6Z8.s:176    .text:00000000000000d0 .L0 
     /tmp/ccdzk6Z8.s:177    .text:00000000000000d0 .L0 
     /tmp/ccdzk6Z8.s:180    .text:00000000000000dc .L0 
     /tmp/ccdzk6Z8.s:182    .text:00000000000000e0 .L0 
     /tmp/ccdzk6Z8.s:185    .text:00000000000000e4 .L0 
     /tmp/ccdzk6Z8.s:186    .text:00000000000000e8 .L0 
     /tmp/ccdzk6Z8.s:187    .text:00000000000000e8 .L0 
     /tmp/ccdzk6Z8.s:188    .text:00000000000000e8 .L0 
     /tmp/ccdzk6Z8.s:190    .text:00000000000000ec .L0 
     /tmp/ccdzk6Z8.s:193    .text:00000000000000f0 .L0 
     /tmp/ccdzk6Z8.s:195    .text:00000000000000f0 .L0 
     /tmp/ccdzk6Z8.s:196    .text:00000000000000f0 .L0 
     /tmp/ccdzk6Z8.s:199    .text:00000000000000fc .L0 
     /tmp/ccdzk6Z8.s:201    .text:0000000000000104 .L0 
     /tmp/ccdzk6Z8.s:207    .text:0000000000000104 _ZN3Sem4openEPPS_j
     /tmp/ccdzk6Z8.s:210    .text:0000000000000104 .L0 
     /tmp/ccdzk6Z8.s:212    .text:0000000000000104 .L0 
     /tmp/ccdzk6Z8.s:213    .text:0000000000000108 .L0 
     /tmp/ccdzk6Z8.s:218    .text:0000000000000118 .L0 
     /tmp/ccdzk6Z8.s:219    .text:0000000000000118 .L0 
     /tmp/ccdzk6Z8.s:220    .text:0000000000000118 .L0 
     /tmp/ccdzk6Z8.s:221    .text:0000000000000118 .L0 
     /tmp/ccdzk6Z8.s:223    .text:000000000000011c .L0 
     /tmp/ccdzk6Z8.s:227    .text:0000000000000124 .L0 
     /tmp/ccdzk6Z8.s:228    .text:0000000000000124 .L0 
     /tmp/ccdzk6Z8.s:236    .text:0000000000000130 .L0 
     /tmp/ccdzk6Z8.s:243    .text:0000000000000138 .L0 
     /tmp/ccdzk6Z8.s:250    .text:0000000000000144 .L0 
     /tmp/ccdzk6Z8.s:255    .text:0000000000000148 .L0 
     /tmp/ccdzk6Z8.s:257    .text:000000000000014c .L0 
     /tmp/ccdzk6Z8.s:259    .text:0000000000000150 .L0 
     /tmp/ccdzk6Z8.s:260    .text:0000000000000150 .L0 
     /tmp/ccdzk6Z8.s:263    .text:0000000000000158 .L0 
     /tmp/ccdzk6Z8.s:264    .text:0000000000000158 .L0 
     /tmp/ccdzk6Z8.s:267    .text:000000000000015c .L0 
     /tmp/ccdzk6Z8.s:268    .text:0000000000000160 .L0 
     /tmp/ccdzk6Z8.s:269    .text:0000000000000160 .L0 
GAS LISTING /tmp/ccdzk6Z8.s 			page 28


     /tmp/ccdzk6Z8.s:271    .text:0000000000000164 .L0 
     /tmp/ccdzk6Z8.s:272    .text:0000000000000164 .L0 
     /tmp/ccdzk6Z8.s:274    .text:0000000000000168 .L0 
     /tmp/ccdzk6Z8.s:277    .text:000000000000016c .L0 
     /tmp/ccdzk6Z8.s:279    .text:0000000000000170 .L0 
     /tmp/ccdzk6Z8.s:283    .text:0000000000000174 .L0 
     /tmp/ccdzk6Z8.s:285    .text:0000000000000174 .L0 
     /tmp/ccdzk6Z8.s:287    .text:000000000000017c .L0 
     /tmp/ccdzk6Z8.s:293    .text:000000000000017c _ZN3Sem10sem_removeEPS_
     /tmp/ccdzk6Z8.s:296    .text:000000000000017c .L0 
     /tmp/ccdzk6Z8.s:298    .text:000000000000017c .L0 
     /tmp/ccdzk6Z8.s:299    .text:0000000000000180 .L0 
     /tmp/ccdzk6Z8.s:301    .text:0000000000000184 .L0 
     /tmp/ccdzk6Z8.s:303    .text:0000000000000188 .L0 
     /tmp/ccdzk6Z8.s:306    .text:0000000000000188 .L0 
     /tmp/ccdzk6Z8.s:307    .text:0000000000000188 .L0 
     /tmp/ccdzk6Z8.s:308    .text:0000000000000188 .L0 
     /tmp/ccdzk6Z8.s:311    .text:0000000000000190 .L0 
     /tmp/ccdzk6Z8.s:315    .text:0000000000000194 .L0 
     /tmp/ccdzk6Z8.s:317    .text:0000000000000198 .L0 
     /tmp/ccdzk6Z8.s:320    .text:000000000000019c .L0 
     /tmp/ccdzk6Z8.s:321    .text:000000000000019c .L0 
     /tmp/ccdzk6Z8.s:322    .text:000000000000019c .L0 
     /tmp/ccdzk6Z8.s:324    .text:00000000000001a0 .L0 
     /tmp/ccdzk6Z8.s:327    .text:00000000000001a4 .L0 
     /tmp/ccdzk6Z8.s:330    .text:00000000000001a8 .L0 
     /tmp/ccdzk6Z8.s:332    .text:00000000000001ac .L0 
     /tmp/ccdzk6Z8.s:333    .text:00000000000001ac .L0 
     /tmp/ccdzk6Z8.s:335    .text:00000000000001b0 .L0 
     /tmp/ccdzk6Z8.s:339    .text:00000000000001b4 .L0 
     /tmp/ccdzk6Z8.s:340    .text:00000000000001b4 .L0 
     /tmp/ccdzk6Z8.s:343    .text:00000000000001b8 .L0 
     /tmp/ccdzk6Z8.s:344    .text:00000000000001b8 .L0 
     /tmp/ccdzk6Z8.s:345    .text:00000000000001bc .L0 
     /tmp/ccdzk6Z8.s:346    .text:00000000000001bc .L0 
     /tmp/ccdzk6Z8.s:347    .text:00000000000001bc .L0 
     /tmp/ccdzk6Z8.s:349    .text:00000000000001c0 .L0 
     /tmp/ccdzk6Z8.s:353    .text:00000000000001c4 .L0 
     /tmp/ccdzk6Z8.s:355    .text:00000000000001c4 .L0 
     /tmp/ccdzk6Z8.s:356    .text:00000000000001c4 .L0 
     /tmp/ccdzk6Z8.s:360    .text:00000000000001d0 .L0 
     /tmp/ccdzk6Z8.s:362    .text:00000000000001d8 .L0 
     /tmp/ccdzk6Z8.s:369    .text._ZN4ListI3TCBE4peekEv:0000000000000000 _ZN4ListI3TCBE4peekEv
     /tmp/ccdzk6Z8.s:372    .text._ZN4ListI3TCBE4peekEv:0000000000000000 .L0 
     /tmp/ccdzk6Z8.s:374    .text._ZN4ListI3TCBE4peekEv:0000000000000000 .L0 
     /tmp/ccdzk6Z8.s:375    .text._ZN4ListI3TCBE4peekEv:0000000000000004 .L0 
     /tmp/ccdzk6Z8.s:377    .text._ZN4ListI3TCBE4peekEv:0000000000000008 .L0 
     /tmp/ccdzk6Z8.s:379    .text._ZN4ListI3TCBE4peekEv:000000000000000c .L0 
     /tmp/ccdzk6Z8.s:381    .text._ZN4ListI3TCBE4peekEv:000000000000000c .L0 
     /tmp/ccdzk6Z8.s:384    .text._ZN4ListI3TCBE4peekEv:0000000000000010 .L0 
     /tmp/ccdzk6Z8.s:386    .text._ZN4ListI3TCBE4peekEv:0000000000000014 .L0 
     /tmp/ccdzk6Z8.s:389    .text._ZN4ListI3TCBE4peekEv:0000000000000018 .L0 
     /tmp/ccdzk6Z8.s:390    .text._ZN4ListI3TCBE4peekEv:000000000000001c .L0 
     /tmp/ccdzk6Z8.s:391    .text._ZN4ListI3TCBE4peekEv:000000000000001c .L0 
     /tmp/ccdzk6Z8.s:393    .text._ZN4ListI3TCBE4peekEv:0000000000000020 .L0 
     /tmp/ccdzk6Z8.s:395    .text._ZN4ListI3TCBE4peekEv:0000000000000024 .L0 
     /tmp/ccdzk6Z8.s:402    .text._ZN4ListI3TCBE3addEPS0_:0000000000000000 _ZN4ListI3TCBE3addEPS0_
GAS LISTING /tmp/ccdzk6Z8.s 			page 29


     /tmp/ccdzk6Z8.s:405    .text._ZN4ListI3TCBE3addEPS0_:0000000000000000 .L0 
     /tmp/ccdzk6Z8.s:407    .text._ZN4ListI3TCBE3addEPS0_:0000000000000000 .L0 
     /tmp/ccdzk6Z8.s:408    .text._ZN4ListI3TCBE3addEPS0_:0000000000000004 .L0 
     /tmp/ccdzk6Z8.s:413    .text._ZN4ListI3TCBE3addEPS0_:0000000000000014 .L0 
     /tmp/ccdzk6Z8.s:414    .text._ZN4ListI3TCBE3addEPS0_:0000000000000014 .L0 
     /tmp/ccdzk6Z8.s:415    .text._ZN4ListI3TCBE3addEPS0_:0000000000000014 .L0 
     /tmp/ccdzk6Z8.s:416    .text._ZN4ListI3TCBE3addEPS0_:0000000000000014 .L0 
     /tmp/ccdzk6Z8.s:418    .text._ZN4ListI3TCBE3addEPS0_:0000000000000018 .L0 
     /tmp/ccdzk6Z8.s:422    .text._ZN4ListI3TCBE3addEPS0_:0000000000000020 .L0 
     /tmp/ccdzk6Z8.s:429    .text._ZN4ListI3TCBE3addEPS0_:000000000000002c .L0 
     /tmp/ccdzk6Z8.s:435    .text._ZN4ListI3TCBE3addEPS0_:0000000000000034 .L0 
     /tmp/ccdzk6Z8.s:437    .text._ZN4ListI3TCBE3addEPS0_:0000000000000038 .L0 
     /tmp/ccdzk6Z8.s:439    .text._ZN4ListI3TCBE3addEPS0_:000000000000003c .L0 
     /tmp/ccdzk6Z8.s:441    .text._ZN4ListI3TCBE3addEPS0_:0000000000000040 .L0 
     /tmp/ccdzk6Z8.s:445    .text._ZN4ListI3TCBE3addEPS0_:0000000000000048 .L0 
     /tmp/ccdzk6Z8.s:449    .text._ZN4ListI3TCBE3addEPS0_:0000000000000054 .L0 
     /tmp/ccdzk6Z8.s:450    .text._ZN4ListI3TCBE3addEPS0_:0000000000000058 .L0 
     /tmp/ccdzk6Z8.s:451    .text._ZN4ListI3TCBE3addEPS0_:0000000000000058 .L0 
     /tmp/ccdzk6Z8.s:453    .text._ZN4ListI3TCBE3addEPS0_:000000000000005c .L0 
     /tmp/ccdzk6Z8.s:454    .text._ZN4ListI3TCBE3addEPS0_:000000000000005c .L0 
     /tmp/ccdzk6Z8.s:456    .text._ZN4ListI3TCBE3addEPS0_:0000000000000060 .L0 
     /tmp/ccdzk6Z8.s:459    .text._ZN4ListI3TCBE3addEPS0_:0000000000000064 .L0 
     /tmp/ccdzk6Z8.s:462    .text._ZN4ListI3TCBE3addEPS0_:0000000000000068 .L0 
     /tmp/ccdzk6Z8.s:466    .text._ZN4ListI3TCBE3addEPS0_:000000000000006c .L0 
     /tmp/ccdzk6Z8.s:468    .text._ZN4ListI3TCBE3addEPS0_:000000000000006c .L0 
     /tmp/ccdzk6Z8.s:471    .text._ZN4ListI3TCBE3addEPS0_:0000000000000078 .L0 
     /tmp/ccdzk6Z8.s:478    .text:00000000000001d8 _ZN3Sem5blockEv
     /tmp/ccdzk6Z8.s:481    .text:00000000000001d8 .L0 
     /tmp/ccdzk6Z8.s:483    .text:00000000000001d8 .L0 
     /tmp/ccdzk6Z8.s:484    .text:00000000000001dc .L0 
     /tmp/ccdzk6Z8.s:489    .text:00000000000001ec .L0 
     /tmp/ccdzk6Z8.s:490    .text:00000000000001ec .L0 
     /tmp/ccdzk6Z8.s:491    .text:00000000000001ec .L0 
     /tmp/ccdzk6Z8.s:492    .text:00000000000001ec .L0 
     /tmp/ccdzk6Z8.s:494    .text:00000000000001f0 .L0 
     /tmp/ccdzk6Z8.s:496    .text:00000000000001f0 .L0 
     /tmp/ccdzk6Z8.s:497    .text:00000000000001f0 .L0 
     /tmp/ccdzk6Z8.s:501    .text:00000000000001fc .L0 
     /tmp/ccdzk6Z8.s:502    .text:00000000000001fc .L0 
     /tmp/ccdzk6Z8.s:505    .text:0000000000000204 .L0 
     /tmp/ccdzk6Z8.s:506    .text:0000000000000204 .L0 
     /tmp/ccdzk6Z8.s:512    .text:0000000000000214 .L0 
     /tmp/ccdzk6Z8.s:513    .text:0000000000000214 .L0 
     /tmp/ccdzk6Z8.s:517    .text:0000000000000220 .L0 
     /tmp/ccdzk6Z8.s:519    .text:0000000000000224 .L0 
     /tmp/ccdzk6Z8.s:520    .text:0000000000000224 .L0 
     /tmp/ccdzk6Z8.s:524    .text:0000000000000230 .L0 
     /tmp/ccdzk6Z8.s:525    .text:0000000000000234 .L0 
     /tmp/ccdzk6Z8.s:527    .text:0000000000000238 .L0 
     /tmp/ccdzk6Z8.s:528    .text:0000000000000238 .L0 
     /tmp/ccdzk6Z8.s:530    .text:000000000000023c .L0 
     /tmp/ccdzk6Z8.s:533    .text:0000000000000240 .L0 
     /tmp/ccdzk6Z8.s:535    .text:0000000000000244 .L0 
     /tmp/ccdzk6Z8.s:537    .text:0000000000000248 .L0 
     /tmp/ccdzk6Z8.s:543    .text:0000000000000248 _ZN3Sem4waitEPS_
     /tmp/ccdzk6Z8.s:546    .text:0000000000000248 .L0 
     /tmp/ccdzk6Z8.s:548    .text:0000000000000248 .L0 
GAS LISTING /tmp/ccdzk6Z8.s 			page 30


     /tmp/ccdzk6Z8.s:549    .text:0000000000000248 .L0 
     /tmp/ccdzk6Z8.s:551    .text:000000000000024c .L0 
     /tmp/ccdzk6Z8.s:552    .text:000000000000024c .L0 
     /tmp/ccdzk6Z8.s:554    .text:0000000000000250 .L0 
     /tmp/ccdzk6Z8.s:556    .text:0000000000000254 .L0 
     /tmp/ccdzk6Z8.s:558    .text:0000000000000258 .L0 
     /tmp/ccdzk6Z8.s:561    .text:0000000000000260 .L0 
     /tmp/ccdzk6Z8.s:564    .text:0000000000000264 .L0 
     /tmp/ccdzk6Z8.s:568    .text:0000000000000268 .L0 
     /tmp/ccdzk6Z8.s:569    .text:000000000000026c .L0 
     /tmp/ccdzk6Z8.s:572    .text:0000000000000274 .L0 
     /tmp/ccdzk6Z8.s:573    .text:0000000000000274 .L0 
     /tmp/ccdzk6Z8.s:575    .text:0000000000000278 .L0 
     /tmp/ccdzk6Z8.s:577    .text:0000000000000278 .L0 
     /tmp/ccdzk6Z8.s:578    .text:0000000000000278 .L0 
     /tmp/ccdzk6Z8.s:581    .text:0000000000000280 .L0 
     /tmp/ccdzk6Z8.s:582    .text:0000000000000280 .L0 
     /tmp/ccdzk6Z8.s:584    .text:0000000000000284 .L0 
     /tmp/ccdzk6Z8.s:585    .text:0000000000000288 .L0 
     /tmp/ccdzk6Z8.s:587    .text:000000000000028c .L0 
     /tmp/ccdzk6Z8.s:588    .text:000000000000028c .L0 
     /tmp/ccdzk6Z8.s:590    .text:0000000000000290 .L0 
     /tmp/ccdzk6Z8.s:595    .text:0000000000000294 .L0 
     /tmp/ccdzk6Z8.s:598    .text:000000000000029c .L0 
     /tmp/ccdzk6Z8.s:604    .text:000000000000029c _ZN3Sem9timedwaitEPS_m
     /tmp/ccdzk6Z8.s:607    .text:000000000000029c .L0 
     /tmp/ccdzk6Z8.s:609    .text:000000000000029c .L0 
     /tmp/ccdzk6Z8.s:610    .text:000000000000029c .L0 
     /tmp/ccdzk6Z8.s:612    .text:00000000000002a0 .L0 
     /tmp/ccdzk6Z8.s:613    .text:00000000000002a0 .L0 
     /tmp/ccdzk6Z8.s:615    .text:00000000000002a4 .L0 
     /tmp/ccdzk6Z8.s:617    .text:00000000000002a8 .L0 
     /tmp/ccdzk6Z8.s:619    .text:00000000000002ac .L0 
     /tmp/ccdzk6Z8.s:622    .text:00000000000002b4 .L0 
     /tmp/ccdzk6Z8.s:625    .text:00000000000002b8 .L0 
     /tmp/ccdzk6Z8.s:629    .text:00000000000002bc .L0 
     /tmp/ccdzk6Z8.s:630    .text:00000000000002c0 .L0 
     /tmp/ccdzk6Z8.s:634    .text:00000000000002cc .L0 
     /tmp/ccdzk6Z8.s:635    .text:00000000000002cc .L0 
     /tmp/ccdzk6Z8.s:636    .text:00000000000002cc .L0 
     /tmp/ccdzk6Z8.s:638    .text:00000000000002d0 .L0 
     /tmp/ccdzk6Z8.s:640    .text:00000000000002d0 .L0 
     /tmp/ccdzk6Z8.s:641    .text:00000000000002d0 .L0 
     /tmp/ccdzk6Z8.s:644    .text:00000000000002dc .L0 
     /tmp/ccdzk6Z8.s:646    .text:00000000000002e0 .L0 
     /tmp/ccdzk6Z8.s:647    .text:00000000000002e0 .L0 
     /tmp/ccdzk6Z8.s:649    .text:00000000000002e4 .L0 
     /tmp/ccdzk6Z8.s:652    .text:00000000000002ec .L0 
     /tmp/ccdzk6Z8.s:653    .text:00000000000002ec .L0 
     /tmp/ccdzk6Z8.s:656    .text:00000000000002f4 .L0 
     /tmp/ccdzk6Z8.s:657    .text:00000000000002f4 .L0 
     /tmp/ccdzk6Z8.s:658    .text:00000000000002f4 .L0 
     /tmp/ccdzk6Z8.s:661    .text:00000000000002fc .L0 
     /tmp/ccdzk6Z8.s:663    .text:0000000000000300 .L0 
     /tmp/ccdzk6Z8.s:664    .text:0000000000000300 .L0 
     /tmp/ccdzk6Z8.s:666    .text:0000000000000304 .L0 
     /tmp/ccdzk6Z8.s:669    .text:0000000000000308 .L0 
GAS LISTING /tmp/ccdzk6Z8.s 			page 31


     /tmp/ccdzk6Z8.s:670    .text:000000000000030c .L0 
     /tmp/ccdzk6Z8.s:672    .text:0000000000000310 .L0 
     /tmp/ccdzk6Z8.s:673    .text:0000000000000310 .L0 
     /tmp/ccdzk6Z8.s:675    .text:0000000000000314 .L0 
     /tmp/ccdzk6Z8.s:677    .text:0000000000000318 .L0 
     /tmp/ccdzk6Z8.s:682    .text:000000000000031c .L0 
     /tmp/ccdzk6Z8.s:687    .text:0000000000000324 .L0 
     /tmp/ccdzk6Z8.s:688    .text:0000000000000324 .L0 
     /tmp/ccdzk6Z8.s:689    .text:0000000000000324 .L0 
     /tmp/ccdzk6Z8.s:690    .text:0000000000000324 .L0 
     /tmp/ccdzk6Z8.s:692    .text:0000000000000324 .L0 
     /tmp/ccdzk6Z8.s:694    .text:000000000000032c .L0 
     /tmp/ccdzk6Z8.s:701    .text._ZN4ListI3TCBE3getEv:0000000000000000 _ZN4ListI3TCBE3getEv
     /tmp/ccdzk6Z8.s:704    .text._ZN4ListI3TCBE3getEv:0000000000000000 .L0 
     /tmp/ccdzk6Z8.s:706    .text._ZN4ListI3TCBE3getEv:0000000000000000 .L0 
     /tmp/ccdzk6Z8.s:707    .text._ZN4ListI3TCBE3getEv:0000000000000004 .L0 
     /tmp/ccdzk6Z8.s:712    .text._ZN4ListI3TCBE3getEv:0000000000000014 .L0 
     /tmp/ccdzk6Z8.s:713    .text._ZN4ListI3TCBE3getEv:0000000000000014 .L0 
     /tmp/ccdzk6Z8.s:714    .text._ZN4ListI3TCBE3getEv:0000000000000014 .L0 
     /tmp/ccdzk6Z8.s:715    .text._ZN4ListI3TCBE3getEv:0000000000000014 .L0 
     /tmp/ccdzk6Z8.s:717    .text._ZN4ListI3TCBE3getEv:0000000000000018 .L0 
     /tmp/ccdzk6Z8.s:720    .text._ZN4ListI3TCBE3getEv:000000000000001c .L0 
     /tmp/ccdzk6Z8.s:723    .text._ZN4ListI3TCBE3getEv:0000000000000020 .L0 
     /tmp/ccdzk6Z8.s:725    .text._ZN4ListI3TCBE3getEv:0000000000000024 .L0 
     /tmp/ccdzk6Z8.s:728    .text._ZN4ListI3TCBE3getEv:0000000000000028 .L0 
     /tmp/ccdzk6Z8.s:730    .text._ZN4ListI3TCBE3getEv:000000000000002c .L0 
     /tmp/ccdzk6Z8.s:732    .text._ZN4ListI3TCBE3getEv:0000000000000030 .L0 
     /tmp/ccdzk6Z8.s:735    .text._ZN4ListI3TCBE3getEv:0000000000000034 .L0 
     /tmp/ccdzk6Z8.s:738    .text._ZN4ListI3TCBE3getEv:000000000000003c .L0 
     /tmp/ccdzk6Z8.s:744    .text._ZN4ListI3TCBE3getEv:0000000000000048 .L0 
     /tmp/ccdzk6Z8.s:746    .text._ZN4ListI3TCBE3getEv:0000000000000050 .L0 
     /tmp/ccdzk6Z8.s:747    .text._ZN4ListI3TCBE3getEv:0000000000000050 .L0 
     /tmp/ccdzk6Z8.s:749    .text._ZN4ListI3TCBE3getEv:0000000000000054 .L0 
     /tmp/ccdzk6Z8.s:750    .text._ZN4ListI3TCBE3getEv:0000000000000054 .L0 
     /tmp/ccdzk6Z8.s:752    .text._ZN4ListI3TCBE3getEv:0000000000000058 .L0 
     /tmp/ccdzk6Z8.s:755    .text._ZN4ListI3TCBE3getEv:000000000000005c .L0 
     /tmp/ccdzk6Z8.s:757    .text._ZN4ListI3TCBE3getEv:0000000000000060 .L0 
     /tmp/ccdzk6Z8.s:761    .text._ZN4ListI3TCBE3getEv:0000000000000064 .L0 
     /tmp/ccdzk6Z8.s:763    .text._ZN4ListI3TCBE3getEv:0000000000000064 .L0 
     /tmp/ccdzk6Z8.s:768    .text._ZN4ListI3TCBE3getEv:000000000000006c .L0 
     /tmp/ccdzk6Z8.s:770    .text._ZN4ListI3TCBE3getEv:0000000000000074 .L0 
     /tmp/ccdzk6Z8.s:777    .text:000000000000032c _ZN3Sem7deblockEv
     /tmp/ccdzk6Z8.s:780    .text:000000000000032c .L0 
     /tmp/ccdzk6Z8.s:782    .text:000000000000032c .L0 
     /tmp/ccdzk6Z8.s:783    .text:0000000000000330 .L0 
     /tmp/ccdzk6Z8.s:787    .text:000000000000033c .L0 
     /tmp/ccdzk6Z8.s:788    .text:000000000000033c .L0 
     /tmp/ccdzk6Z8.s:789    .text:000000000000033c .L0 
     /tmp/ccdzk6Z8.s:791    .text:0000000000000340 .L0 
     /tmp/ccdzk6Z8.s:794    .text:0000000000000344 .L0 
     /tmp/ccdzk6Z8.s:795    .text:0000000000000344 .L0 
     /tmp/ccdzk6Z8.s:800    .text:0000000000000350 .L0 
     /tmp/ccdzk6Z8.s:802    .text:0000000000000354 .L0 
     /tmp/ccdzk6Z8.s:803    .text:0000000000000354 .L0 
     /tmp/ccdzk6Z8.s:805    .text:0000000000000358 .L0 
     /tmp/ccdzk6Z8.s:807    .text:000000000000035c .L0 
     /tmp/ccdzk6Z8.s:809    .text:0000000000000360 .L0 
GAS LISTING /tmp/ccdzk6Z8.s 			page 32


     /tmp/ccdzk6Z8.s:813    .text:0000000000000368 .L0 
     /tmp/ccdzk6Z8.s:814    .text:0000000000000368 .L0 
     /tmp/ccdzk6Z8.s:816    .text:000000000000036c .L0 
     /tmp/ccdzk6Z8.s:817    .text:000000000000036c .L0 
     /tmp/ccdzk6Z8.s:821    .text:0000000000000374 .L0 
     /tmp/ccdzk6Z8.s:822    .text:0000000000000378 .L0 
     /tmp/ccdzk6Z8.s:824    .text:000000000000037c .L0 
     /tmp/ccdzk6Z8.s:825    .text:000000000000037c .L0 
     /tmp/ccdzk6Z8.s:827    .text:0000000000000380 .L0 
     /tmp/ccdzk6Z8.s:830    .text:0000000000000384 .L0 
     /tmp/ccdzk6Z8.s:832    .text:0000000000000388 .L0 
     /tmp/ccdzk6Z8.s:838    .text:0000000000000388 _ZN3Sem7s_closeEPS_
     /tmp/ccdzk6Z8.s:841    .text:0000000000000388 .L0 
     /tmp/ccdzk6Z8.s:843    .text:0000000000000388 .L0 
     /tmp/ccdzk6Z8.s:844    .text:0000000000000388 .L0 
     /tmp/ccdzk6Z8.s:846    .text:000000000000038c .L0 
     /tmp/ccdzk6Z8.s:847    .text:0000000000000390 .L0 
     /tmp/ccdzk6Z8.s:851    .text:000000000000039c .L0 
     /tmp/ccdzk6Z8.s:852    .text:000000000000039c .L0 
     /tmp/ccdzk6Z8.s:853    .text:000000000000039c .L0 
     /tmp/ccdzk6Z8.s:855    .text:00000000000003a0 .L0 
     /tmp/ccdzk6Z8.s:858    .text:00000000000003a4 .L0 
     /tmp/ccdzk6Z8.s:859    .text:00000000000003a4 .L0 
     /tmp/ccdzk6Z8.s:863    .text:00000000000003ac .L0 
     /tmp/ccdzk6Z8.s:864    .text:00000000000003ac .L0 
     /tmp/ccdzk6Z8.s:865    .text:00000000000003ac .L0 
     /tmp/ccdzk6Z8.s:869    .text:00000000000003b8 .L0 
     /tmp/ccdzk6Z8.s:871    .text:00000000000003bc .L0 
     /tmp/ccdzk6Z8.s:872    .text:00000000000003bc .L0 
     /tmp/ccdzk6Z8.s:876    .text:00000000000003c8 .L0 
     /tmp/ccdzk6Z8.s:879    .text:00000000000003cc .L0 
     /tmp/ccdzk6Z8.s:880    .text:00000000000003cc .L0 
     /tmp/ccdzk6Z8.s:884    .text:00000000000003d8 .L0 
     /tmp/ccdzk6Z8.s:885    .text:00000000000003d8 .L0 
     /tmp/ccdzk6Z8.s:887    .text:00000000000003dc .L0 
     /tmp/ccdzk6Z8.s:888    .text:00000000000003e0 .L0 
     /tmp/ccdzk6Z8.s:890    .text:00000000000003e4 .L0 
     /tmp/ccdzk6Z8.s:891    .text:00000000000003e4 .L0 
     /tmp/ccdzk6Z8.s:893    .text:00000000000003e8 .L0 
     /tmp/ccdzk6Z8.s:896    .text:00000000000003ec .L0 
     /tmp/ccdzk6Z8.s:901    .text:00000000000003f0 .L0 
     /tmp/ccdzk6Z8.s:904    .text:00000000000003f4 .L0 
     /tmp/ccdzk6Z8.s:905    .text:00000000000003f8 .L0 
     /tmp/ccdzk6Z8.s:911    .text:00000000000003f8 _ZN3Sem6signalEPS_
     /tmp/ccdzk6Z8.s:914    .text:00000000000003f8 .L0 
     /tmp/ccdzk6Z8.s:916    .text:00000000000003f8 .L0 
     /tmp/ccdzk6Z8.s:917    .text:00000000000003f8 .L0 
     /tmp/ccdzk6Z8.s:919    .text:00000000000003fc .L0 
     /tmp/ccdzk6Z8.s:920    .text:00000000000003fc .L0 
     /tmp/ccdzk6Z8.s:922    .text:0000000000000400 .L0 
     /tmp/ccdzk6Z8.s:925    .text:0000000000000408 .L0 
     /tmp/ccdzk6Z8.s:927    .text:000000000000040c .L0 
     /tmp/ccdzk6Z8.s:929    .text:0000000000000410 .L0 
     /tmp/ccdzk6Z8.s:932    .text:0000000000000414 .L0 
     /tmp/ccdzk6Z8.s:936    .text:0000000000000418 .L0 
     /tmp/ccdzk6Z8.s:937    .text:000000000000041c .L0 
     /tmp/ccdzk6Z8.s:940    .text:0000000000000424 .L0 
GAS LISTING /tmp/ccdzk6Z8.s 			page 33


     /tmp/ccdzk6Z8.s:941    .text:0000000000000424 .L0 
     /tmp/ccdzk6Z8.s:943    .text:0000000000000428 .L0 
     /tmp/ccdzk6Z8.s:945    .text:0000000000000428 .L0 
     /tmp/ccdzk6Z8.s:946    .text:0000000000000428 .L0 
     /tmp/ccdzk6Z8.s:949    .text:0000000000000430 .L0 
     /tmp/ccdzk6Z8.s:951    .text:0000000000000434 .L0 
     /tmp/ccdzk6Z8.s:952    .text:0000000000000438 .L0 
     /tmp/ccdzk6Z8.s:954    .text:000000000000043c .L0 
     /tmp/ccdzk6Z8.s:955    .text:000000000000043c .L0 
     /tmp/ccdzk6Z8.s:957    .text:0000000000000440 .L0 
     /tmp/ccdzk6Z8.s:962    .text:0000000000000444 .L0 
     /tmp/ccdzk6Z8.s:965    .text:000000000000044c .L0 
     /tmp/ccdzk6Z8.s:979    .bss:0000000000000008 _ZN3Sem4lastE
     /tmp/ccdzk6Z8.s:975    .bss:0000000000000000 _ZN3Sem5firstE
     /tmp/ccdzk6Z8.s:972    .bss:0000000000000000 .LANCHOR0
     /tmp/ccdzk6Z8.s:988    .text:000000000000044c .L0 
     /tmp/ccdzk6Z8.s:398    .text._ZN4ListI3TCBE4peekEv:0000000000000024 .L0 
     /tmp/ccdzk6Z8.s:474    .text._ZN4ListI3TCBE3addEPS0_:0000000000000078 .L0 
     /tmp/ccdzk6Z8.s:773    .text._ZN4ListI3TCBE3getEv:0000000000000074 .L0 
     /tmp/ccdzk6Z8.s:172    .text:00000000000000c4 .L0 
     /tmp/ccdzk6Z8.s:177    .text:00000000000000d0 .L0 
     /tmp/ccdzk6Z8.s:196    .text:00000000000000f0 .L0 
     /tmp/ccdzk6Z8.s:308    .text:0000000000000188 .L0 
     /tmp/ccdzk6Z8.s:356    .text:00000000000001c4 .L0 
     /tmp/ccdzk6Z8.s:497    .text:00000000000001f0 .L0 
     /tmp/ccdzk6Z8.s:641    .text:00000000000002d0 .L0 
     /tmp/ccdzk6Z8.s:52     .text:000000000000003c .L3
     /tmp/ccdzk6Z8.s:28     .text:0000000000000014 .L9
     /tmp/ccdzk6Z8.s:192    .text:00000000000000f0 .L20
     /tmp/ccdzk6Z8.s:183    .text:00000000000000e4 .L16
     /tmp/ccdzk6Z8.s:282    .text:0000000000000174 .L23
     /tmp/ccdzk6Z8.s:265    .text:000000000000015c .L22
     /tmp/ccdzk6Z8.s:342    .text:00000000000001b8 .L25
     /tmp/ccdzk6Z8.s:328    .text:00000000000001a8 .L32
     /tmp/ccdzk6Z8.s:313    .text:0000000000000194 .L30
     /tmp/ccdzk6Z8.s:352    .text:00000000000001c4 .L28
     /tmp/ccdzk6Z8.s:337    .text:00000000000001b4 .L29
     /tmp/ccdzk6Z8.s:593    .text:0000000000000294 .L45
     /tmp/ccdzk6Z8.s:566    .text:0000000000000268 .L51
     /tmp/ccdzk6Z8.s:680    .text:000000000000031c .L54
     /tmp/ccdzk6Z8.s:627    .text:00000000000002bc .L61
     /tmp/ccdzk6Z8.s:686    .text:0000000000000324 .L56
     /tmp/ccdzk6Z8.s:667    .text:0000000000000308 .L53
     /tmp/ccdzk6Z8.s:819    .text:0000000000000374 .L68
     /tmp/ccdzk6Z8.s:811    .text:0000000000000368 .L70
     /tmp/ccdzk6Z8.s:899    .text:00000000000003f0 .L76
     /tmp/ccdzk6Z8.s:877    .text:00000000000003cc .L74
     /tmp/ccdzk6Z8.s:861    .text:00000000000003ac .L75
     /tmp/ccdzk6Z8.s:960    .text:0000000000000444 .L83
     /tmp/ccdzk6Z8.s:934    .text:0000000000000418 .L89
     /tmp/ccdzk6Z8.s:387    .text._ZN4ListI3TCBE4peekEv:0000000000000018 .L33
     /tmp/ccdzk6Z8.s:465    .text._ZN4ListI3TCBE3addEPS0_:000000000000006c .L40
     /tmp/ccdzk6Z8.s:443    .text._ZN4ListI3TCBE3addEPS0_:0000000000000048 .L38
     /tmp/ccdzk6Z8.s:766    .text._ZN4ListI3TCBE3getEv:000000000000006c .L65
     /tmp/ccdzk6Z8.s:760    .text._ZN4ListI3TCBE3getEv:0000000000000064 .L67
     /tmp/ccdzk6Z8.s:733    .text._ZN4ListI3TCBE3getEv:0000000000000034 .L64
     /tmp/ccdzk6Z8.s:742    .text._ZN4ListI3TCBE3getEv:0000000000000048 .L62
GAS LISTING /tmp/ccdzk6Z8.s 			page 34


     /tmp/ccdzk6Z8.s:2870   .debug_abbrev:0000000000000000 .Ldebug_abbrev0
     /tmp/ccdzk6Z8.s:5071   .debug_str:0000000000000849 .LASF171
     /tmp/ccdzk6Z8.s:4949   .debug_str:00000000000004f3 .LASF172
     /tmp/ccdzk6Z8.s:4885   .debug_str:0000000000000337 .LASF173
     /tmp/ccdzk6Z8.s:4759   .debug_ranges:0000000000000000 .Ldebug_ranges0
     /tmp/ccdzk6Z8.s:4771   .debug_line:0000000000000000 .Ldebug_line0
     /tmp/ccdzk6Z8.s:4905   .debug_str:00000000000003d3 .LASF0
     /tmp/ccdzk6Z8.s:4935   .debug_str:0000000000000494 .LASF1
     /tmp/ccdzk6Z8.s:5023   .debug_str:00000000000006e1 .LASF2
     /tmp/ccdzk6Z8.s:5029   .debug_str:000000000000072d .LASF4
     /tmp/ccdzk6Z8.s:4915   .debug_str:0000000000000425 .LASF3
     /tmp/ccdzk6Z8.s:4785   .debug_str:0000000000000072 .LASF5
     /tmp/ccdzk6Z8.s:5001   .debug_str:0000000000000661 .LASF6
     /tmp/ccdzk6Z8.s:4995   .debug_str:000000000000063e .LASF7
     /tmp/ccdzk6Z8.s:4921   .debug_str:000000000000044e .LASF8
     /tmp/ccdzk6Z8.s:4881   .debug_str:000000000000031b .LASF9
     /tmp/ccdzk6Z8.s:4893   .debug_str:0000000000000386 .LASF10
     /tmp/ccdzk6Z8.s:4825   .debug_str:00000000000001a3 .LASF11
     /tmp/ccdzk6Z8.s:4871   .debug_str:00000000000002da .LASF12
     /tmp/ccdzk6Z8.s:4837   .debug_str:00000000000001e1 .LASF13
     /tmp/ccdzk6Z8.s:4823   .debug_str:0000000000000193 .LASF14
     /tmp/ccdzk6Z8.s:5057   .debug_str:00000000000007f6 .LASF15
     /tmp/ccdzk6Z8.s:4861   .debug_str:000000000000027e .LASF16
     /tmp/ccdzk6Z8.s:5047   .debug_str:00000000000007ac .LASF17
     /tmp/ccdzk6Z8.s:4991   .debug_str:0000000000000627 .LASF21
     /tmp/ccdzk6Z8.s:4819   .debug_str:0000000000000172 .LASF36
     /tmp/ccdzk6Z8.s:4827   .debug_str:00000000000001b2 .LASF18
     /tmp/ccdzk6Z8.s:4797   .debug_str:00000000000000d9 .LASF19
     /tmp/ccdzk6Z8.s:4933   .debug_str:000000000000048f .LASF20
     /tmp/ccdzk6Z8.s:4795   .debug_str:00000000000000c0 .LASF22
     /tmp/ccdzk6Z8.s:5045   .debug_str:0000000000000791 .LASF23
     /tmp/ccdzk6Z8.s:5099   .debug_str:00000000000009a3 .LASF174
     /tmp/ccdzk6Z8.s:5115   .debug_str:0000000000000a06 .LASF175
     /tmp/ccdzk6Z8.s:5067   .debug_str:0000000000000833 .LASF24
     /tmp/ccdzk6Z8.s:4793   .debug_str:00000000000000b2 .LASF25
     /tmp/ccdzk6Z8.s:4911   .debug_str:0000000000000406 .LASF26
     /tmp/ccdzk6Z8.s:5027   .debug_str:00000000000006fb .LASF28
     /tmp/ccdzk6Z8.s:5087   .debug_str:000000000000095d .LASF40
     /tmp/ccdzk6Z8.s:4857   .debug_str:0000000000000267 .LASF50
     /tmp/ccdzk6Z8.s:4963   .debug_str:0000000000000567 .LASF52
     /tmp/ccdzk6Z8.s:4959   .debug_str:000000000000053c .LASF42
     /tmp/ccdzk6Z8.s:4787   .debug_str:0000000000000079 .LASF44
     /tmp/ccdzk6Z8.s:5063   .debug_str:000000000000081f .LASF27
     /tmp/ccdzk6Z8.s:4961   .debug_str:0000000000000546 .LASF29
     /tmp/ccdzk6Z8.s:5009   .debug_str:000000000000069e .LASF30
     /tmp/ccdzk6Z8.s:4851   .debug_str:0000000000000234 .LASF81
     /tmp/ccdzk6Z8.s:4923   .debug_str:0000000000000461 .LASF31
     /tmp/ccdzk6Z8.s:4829   .debug_str:00000000000001b7 .LASF32
     /tmp/ccdzk6Z8.s:5007   .debug_str:0000000000000696 .LASF33
     /tmp/ccdzk6Z8.s:4809   .debug_str:0000000000000134 .LASF34
     /tmp/ccdzk6Z8.s:4775   .debug_str:000000000000000b .LASF35
     /tmp/ccdzk6Z8.s:4831   .debug_str:00000000000001c0 .LASF37
     /tmp/ccdzk6Z8.s:5103   .debug_str:00000000000009ba .LASF38
     /tmp/ccdzk6Z8.s:5073   .debug_str:000000000000090d .LASF39
     /tmp/ccdzk6Z8.s:5069   .debug_str:0000000000000841 .LASF41
     /tmp/ccdzk6Z8.s:4817   .debug_str:0000000000000164 .LASF43
     /tmp/ccdzk6Z8.s:4869   .debug_str:00000000000002b2 .LASF45
GAS LISTING /tmp/ccdzk6Z8.s 			page 35


     /tmp/ccdzk6Z8.s:4937   .debug_str:00000000000004a7 .LASF46
     /tmp/ccdzk6Z8.s:4941   .debug_str:00000000000004ba .LASF47
     /tmp/ccdzk6Z8.s:4845   .debug_str:0000000000000218 .LASF76
     /tmp/ccdzk6Z8.s:4833   .debug_str:00000000000001c8 .LASF78
     /tmp/ccdzk6Z8.s:4939   .debug_str:00000000000004ad .LASF48
     /tmp/ccdzk6Z8.s:5089   .debug_str:0000000000000967 .LASF49
     /tmp/ccdzk6Z8.s:5077   .debug_str:0000000000000929 .LASF51
     /tmp/ccdzk6Z8.s:4945   .debug_str:00000000000004d4 .LASF53
     /tmp/ccdzk6Z8.s:5065   .debug_str:0000000000000828 .LASF54
     /tmp/ccdzk6Z8.s:5061   .debug_str:0000000000000809 .LASF55
     /tmp/ccdzk6Z8.s:4953   .debug_str:0000000000000518 .LASF56
     /tmp/ccdzk6Z8.s:4839   .debug_str:00000000000001f1 .LASF57
     /tmp/ccdzk6Z8.s:5031   .debug_str:0000000000000734 .LASF58
     /tmp/ccdzk6Z8.s:4783   .debug_str:0000000000000066 .LASF59
     /tmp/ccdzk6Z8.s:5129   .debug_str:0000000000000a8a .LASF60
     /tmp/ccdzk6Z8.s:4889   .debug_str:000000000000035d .LASF61
     /tmp/ccdzk6Z8.s:4779   .debug_str:000000000000002e .LASF62
     /tmp/ccdzk6Z8.s:4983   .debug_str:0000000000000602 .LASF63
     /tmp/ccdzk6Z8.s:4947   .debug_str:00000000000004ea .LASF64
     /tmp/ccdzk6Z8.s:5021   .debug_str:00000000000006d0 .LASF65
     /tmp/ccdzk6Z8.s:4801   .debug_str:00000000000000ff .LASF66
     /tmp/ccdzk6Z8.s:5025   .debug_str:00000000000006ef .LASF67
     /tmp/ccdzk6Z8.s:4925   .debug_str:000000000000046a .LASF68
     /tmp/ccdzk6Z8.s:4849   .debug_str:0000000000000226 .LASF69
     /tmp/ccdzk6Z8.s:5015   .debug_str:00000000000006b4 .LASF70
     /tmp/ccdzk6Z8.s:4843   .debug_str:0000000000000210 .LASF71
     /tmp/ccdzk6Z8.s:5127   .debug_str:0000000000000a85 .LASF72
     /tmp/ccdzk6Z8.s:5043   .debug_str:000000000000078b .LASF73
     /tmp/ccdzk6Z8.s:5079   .debug_str:0000000000000934 .LASF74
     /tmp/ccdzk6Z8.s:4965   .debug_str:000000000000058e .LASF75
     /tmp/ccdzk6Z8.s:5133   .debug_str:0000000000000a9f .LASF121
     /tmp/ccdzk6Z8.s:4841   .debug_str:0000000000000202 .LASF112
     /tmp/ccdzk6Z8.s:4781   .debug_str:000000000000003e .LASF114
     /tmp/ccdzk6Z8.s:5091   .debug_str:0000000000000980 .LASF135
     /tmp/ccdzk6Z8.s:4789   .debug_str:000000000000009a .LASF137
     /tmp/ccdzk6Z8.s:5101   .debug_str:00000000000009ae .LASF77
     /tmp/ccdzk6Z8.s:5075   .debug_str:0000000000000912 .LASF79
     /tmp/ccdzk6Z8.s:5113   .debug_str:0000000000000a00 .LASF80
     /tmp/ccdzk6Z8.s:5011   .debug_str:00000000000006a9 .LASF82
     /tmp/ccdzk6Z8.s:4919   .debug_str:0000000000000443 .LASF83
     /tmp/ccdzk6Z8.s:5105   .debug_str:00000000000009c2 .LASF84
     /tmp/ccdzk6Z8.s:4863   .debug_str:0000000000000294 .LASF85
     /tmp/ccdzk6Z8.s:4887   .debug_str:0000000000000355 .LASF86
     /tmp/ccdzk6Z8.s:4847   .debug_str:0000000000000221 .LASF87
     /tmp/ccdzk6Z8.s:4907   .debug_str:00000000000003e0 .LASF88
     /tmp/ccdzk6Z8.s:5059   .debug_str:0000000000000802 .LASF89
     /tmp/ccdzk6Z8.s:5003   .debug_str:0000000000000668 .LASF90
     /tmp/ccdzk6Z8.s:5037   .debug_str:0000000000000759 .LASF91
     /tmp/ccdzk6Z8.s:4913   .debug_str:0000000000000410 .LASF92
     /tmp/ccdzk6Z8.s:4989   .debug_str:000000000000061d .LASF93
     /tmp/ccdzk6Z8.s:4877   .debug_str:00000000000002fa .LASF94
     /tmp/ccdzk6Z8.s:5093   .debug_str:0000000000000988 .LASF95
     /tmp/ccdzk6Z8.s:4815   .debug_str:0000000000000150 .LASF96
     /tmp/ccdzk6Z8.s:4979   .debug_str:00000000000005e5 .LASF97
     /tmp/ccdzk6Z8.s:4951   .debug_str:0000000000000505 .LASF98
     /tmp/ccdzk6Z8.s:4895   .debug_str:0000000000000394 .LASF99
     /tmp/ccdzk6Z8.s:5083   .debug_str:0000000000000944 .LASF100
GAS LISTING /tmp/ccdzk6Z8.s 			page 36


     /tmp/ccdzk6Z8.s:4883   .debug_str:000000000000032b .LASF101
     /tmp/ccdzk6Z8.s:5053   .debug_str:00000000000007da .LASF102
     /tmp/ccdzk6Z8.s:5017   .debug_str:00000000000006bf .LASF103
     /tmp/ccdzk6Z8.s:4943   .debug_str:00000000000004cf .LASF104
     /tmp/ccdzk6Z8.s:4811   .debug_str:000000000000013d .LASF144
     /tmp/ccdzk6Z8.s:4903   .debug_str:00000000000003cd .LASF105
     /tmp/ccdzk6Z8.s:4865   .debug_str:000000000000029c .LASF106
     /tmp/ccdzk6Z8.s:5125   .debug_str:0000000000000a7d .LASF107
     /tmp/ccdzk6Z8.s:5033   .debug_str:0000000000000739 .LASF108
     /tmp/ccdzk6Z8.s:4899   .debug_str:00000000000003af .LASF109
     /tmp/ccdzk6Z8.s:4985   .debug_str:000000000000060f .LASF110
     /tmp/ccdzk6Z8.s:4773   .debug_str:0000000000000000 .LASF111
     /tmp/ccdzk6Z8.s:5131   .debug_str:0000000000000a97 .LASF113
     /tmp/ccdzk6Z8.s:4975   .debug_str:00000000000005b9 .LASF115
     /tmp/ccdzk6Z8.s:4999   .debug_str:0000000000000656 .LASF176
     /tmp/ccdzk6Z8.s:4977   .debug_str:00000000000005cd .LASF177
     /tmp/ccdzk6Z8.s:4917   .debug_str:0000000000000437 .LASF116
     /tmp/ccdzk6Z8.s:5013   .debug_str:00000000000006af .LASF117
     /tmp/ccdzk6Z8.s:4879   .debug_str:0000000000000311 .LASF118
     /tmp/ccdzk6Z8.s:4927   .debug_str:0000000000000476 .LASF119
     /tmp/ccdzk6Z8.s:5117   .debug_str:0000000000000a21 .LASF120
     /tmp/ccdzk6Z8.s:5123   .debug_str:0000000000000a69 .LASF178
     /tmp/ccdzk6Z8.s:4901   .debug_str:00000000000003b5 .LASF122
     /tmp/ccdzk6Z8.s:4931   .debug_str:000000000000048a .LASF123
     /tmp/ccdzk6Z8.s:4853   .debug_str:000000000000023a .LASF124
     /tmp/ccdzk6Z8.s:4835   .debug_str:00000000000001db .LASF125
     /tmp/ccdzk6Z8.s:5109   .debug_str:00000000000009e3 .LASF126
     /tmp/ccdzk6Z8.s:5019   .debug_str:00000000000006c5 .LASF127
     /tmp/ccdzk6Z8.s:4799   .debug_str:00000000000000de .LASF128
     /tmp/ccdzk6Z8.s:4807   .debug_str:0000000000000122 .LASF129
     /tmp/ccdzk6Z8.s:4897   .debug_str:000000000000039c .LASF130
     /tmp/ccdzk6Z8.s:4821   .debug_str:000000000000017e .LASF131
     /tmp/ccdzk6Z8.s:4873   .debug_str:00000000000002e9 .LASF132
     /tmp/ccdzk6Z8.s:4891   .debug_str:0000000000000369 .LASF133
     /tmp/ccdzk6Z8.s:5119   .debug_str:0000000000000a41 .LASF134
     /tmp/ccdzk6Z8.s:5081   .debug_str:000000000000093c .LASF136
     /tmp/ccdzk6Z8.s:4981   .debug_str:00000000000005ea .LASF138
     /tmp/ccdzk6Z8.s:5041   .debug_str:000000000000077e .LASF139
     /tmp/ccdzk6Z8.s:4969   .debug_str:00000000000005a1 .LASF140
     /tmp/ccdzk6Z8.s:5095   .debug_str:0000000000000990 .LASF141
     /tmp/ccdzk6Z8.s:4967   .debug_str:000000000000059c .LASF142
     /tmp/ccdzk6Z8.s:5049   .debug_str:00000000000007c2 .LASF143
     /tmp/ccdzk6Z8.s:4855   .debug_str:000000000000024f .LASF145
     /tmp/ccdzk6Z8.s:4909   .debug_str:00000000000003f1 .LASF179
     /tmp/ccdzk6Z8.s:5121   .debug_str:0000000000000a53 .LASF146
     /tmp/ccdzk6Z8.s:5107   .debug_str:00000000000009cd .LASF147
     /tmp/ccdzk6Z8.s:5085   .debug_str:0000000000000958 .LASF149
     /tmp/ccdzk6Z8.s:4929   .debug_str:0000000000000485 .LASF148
     /tmp/ccdzk6Z8.s:4777   .debug_str:0000000000000013 .LASF150
     /tmp/ccdzk6Z8.s:5051   .debug_str:00000000000007d5 .LASF151
     /tmp/ccdzk6Z8.s:4973   .debug_str:00000000000005b4 .LASF152
     /tmp/ccdzk6Z8.s:4987   .debug_str:0000000000000617 .LASF153
     /tmp/ccdzk6Z8.s:4813   .debug_str:0000000000000149 .LASF154
     /tmp/ccdzk6Z8.s:5005   .debug_str:000000000000067b .LASF155
     /tmp/ccdzk6Z8.s:5055   .debug_str:00000000000007e7 .LASF156
     /tmp/ccdzk6Z8.s:5035   .debug_str:000000000000074b .LASF157
     /tmp/ccdzk6Z8.s:4875   .debug_str:00000000000002f5 .LASF159
GAS LISTING /tmp/ccdzk6Z8.s 			page 37


     /tmp/ccdzk6Z8.s:5039   .debug_str:0000000000000763 .LASF161
     /tmp/ccdzk6Z8.s:702    .text._ZN4ListI3TCBE3getEv:0000000000000000 .LFB51
     /tmp/ccdzk6Z8.s:771    .text._ZN4ListI3TCBE3getEv:0000000000000074 .LFE51
     /tmp/ccdzk6Z8.s:4222   .debug_loc:0000000000000000 .LLST21
     /tmp/ccdzk6Z8.s:4244   .debug_loc:000000000000005f .LLST22
     /tmp/ccdzk6Z8.s:4859   .debug_str:0000000000000276 .LASF158
     /tmp/ccdzk6Z8.s:4255   .debug_loc:0000000000000095 .LLST23
     /tmp/ccdzk6Z8.s:736    .text._ZN4ListI3TCBE3getEv:000000000000003c .LVL65
     /tmp/ccdzk6Z8.s:403    .text._ZN4ListI3TCBE3addEPS0_:0000000000000000 .LFB50
     /tmp/ccdzk6Z8.s:472    .text._ZN4ListI3TCBE3addEPS0_:0000000000000078 .LFE50
     /tmp/ccdzk6Z8.s:4266   .debug_loc:00000000000000cb .LLST12
     /tmp/ccdzk6Z8.s:4288   .debug_loc:000000000000012a .LLST13
     /tmp/ccdzk6Z8.s:4791   .debug_str:00000000000000ac .LASF160
     /tmp/ccdzk6Z8.s:426    .text._ZN4ListI3TCBE3addEPS0_:000000000000002c .LBB19
     /tmp/ccdzk6Z8.s:433    .text._ZN4ListI3TCBE3addEPS0_:0000000000000034 .LBE19
     /tmp/ccdzk6Z8.s:4310   .debug_loc:0000000000000189 .LLST14
     /tmp/ccdzk6Z8.s:4317   .debug_loc:00000000000001ac .LLST15
     /tmp/ccdzk6Z8.s:425    .text._ZN4ListI3TCBE3addEPS0_:000000000000002c .LVL37
     /tmp/ccdzk6Z8.s:370    .text._ZN4ListI3TCBE4peekEv:0000000000000000 .LFB49
     /tmp/ccdzk6Z8.s:396    .text._ZN4ListI3TCBE4peekEv:0000000000000024 .LFE49
     /tmp/ccdzk6Z8.s:4324   .debug_loc:00000000000001cf .LLST11
     /tmp/ccdzk6Z8.s:4805   .debug_str:000000000000010f .LASF162
     /tmp/ccdzk6Z8.s:294    .text:000000000000017c .LFB45
     /tmp/ccdzk6Z8.s:363    .text:00000000000001d8 .LFE45
     /tmp/ccdzk6Z8.s:5097   .debug_str:000000000000099a .LASF163
     /tmp/ccdzk6Z8.s:4338   .debug_loc:0000000000000208 .LLST9
     /tmp/ccdzk6Z8.s:4362   .debug_loc:0000000000000278 .LLST10
     /tmp/ccdzk6Z8.s:160    .text:00000000000000b8 .LFB44
     /tmp/ccdzk6Z8.s:202    .text:0000000000000104 .LFE44
     /tmp/ccdzk6Z8.s:133    .text:000000000000009c .LFB43
     /tmp/ccdzk6Z8.s:154    .text:00000000000000b8 .LFE43
     /tmp/ccdzk6Z8.s:4383   .debug_loc:00000000000002d6 .LLST3
     /tmp/ccdzk6Z8.s:96     .text:000000000000006c .LFB42
     /tmp/ccdzk6Z8.s:127    .text:000000000000009c .LFE42
     /tmp/ccdzk6Z8.s:4397   .debug_loc:000000000000030f .LLST2
     /tmp/ccdzk6Z8.s:116    .text:000000000000008c .LVL11
     /tmp/ccdzk6Z8.s:64     .text:0000000000000044 .LFB41
     /tmp/ccdzk6Z8.s:90     .text:000000000000006c .LFE41
     /tmp/ccdzk6Z8.s:4417   .debug_loc:000000000000035e .LLST1
     /tmp/ccdzk6Z8.s:79     .text:000000000000005c .LVL7
     /tmp/ccdzk6Z8.s:605    .text:000000000000029c .LFB40
     /tmp/ccdzk6Z8.s:695    .text:000000000000032c .LFE40
     /tmp/ccdzk6Z8.s:5111   .debug_str:00000000000009f9 .LASF164
     /tmp/ccdzk6Z8.s:4431   .debug_loc:0000000000000397 .LLST19
     /tmp/ccdzk6Z8.s:4997   .debug_str:0000000000000651 .LASF165
     /tmp/ccdzk6Z8.s:4467   .debug_loc:0000000000000422 .LLST20
     /tmp/ccdzk6Z8.s:654    .text:00000000000002f4 .LVL58
     /tmp/ccdzk6Z8.s:778    .text:000000000000032c .LFB39
     /tmp/ccdzk6Z8.s:833    .text:0000000000000388 .LFE39
     /tmp/ccdzk6Z8.s:4492   .debug_loc:0000000000000484 .LLST24
     /tmp/ccdzk6Z8.s:4510   .debug_loc:00000000000004d0 .LLST25
     /tmp/ccdzk6Z8.s:798    .text:0000000000000350 .LVL72
     /tmp/ccdzk6Z8.s:818    .text:0000000000000374 .LVL73
     /tmp/ccdzk6Z8.s:479    .text:00000000000001d8 .LFB38
     /tmp/ccdzk6Z8.s:538    .text:0000000000000248 .LFE38
     /tmp/ccdzk6Z8.s:4517   .debug_loc:00000000000004f3 .LLST16
     /tmp/ccdzk6Z8.s:4971   .debug_str:00000000000005a9 .LASF166
GAS LISTING /tmp/ccdzk6Z8.s 			page 38


     /tmp/ccdzk6Z8.s:4537   .debug_loc:0000000000000541 .LLST17
     /tmp/ccdzk6Z8.s:510    .text:0000000000000214 .LVL45
     /tmp/ccdzk6Z8.s:514    .text:000000000000021c .LVL46
     /tmp/ccdzk6Z8.s:522    .text:0000000000000230 .LVL47
     /tmp/ccdzk6Z8.s:10     .text:0000000000000000 .LFB37
     /tmp/ccdzk6Z8.s:58     .text:0000000000000044 .LFE37
     /tmp/ccdzk6Z8.s:4544   .debug_loc:0000000000000564 .LLST0
     /tmp/ccdzk6Z8.s:41     .text:000000000000002c .LVL3
     /tmp/ccdzk6Z8.s:912    .text:00000000000003f8 .LFB36
     /tmp/ccdzk6Z8.s:966    .text:000000000000044c .LFE36
     /tmp/ccdzk6Z8.s:4580   .debug_loc:00000000000005ef .LLST27
     /tmp/ccdzk6Z8.s:947    .text:0000000000000430 .LVL86
     /tmp/ccdzk6Z8.s:544    .text:0000000000000248 .LFB35
     /tmp/ccdzk6Z8.s:599    .text:000000000000029c .LFE35
     /tmp/ccdzk6Z8.s:4616   .debug_loc:000000000000067a .LLST18
     /tmp/ccdzk6Z8.s:579    .text:0000000000000280 .LVL52
     /tmp/ccdzk6Z8.s:839    .text:0000000000000388 .LFB34
     /tmp/ccdzk6Z8.s:906    .text:00000000000003f8 .LFE34
     /tmp/ccdzk6Z8.s:4652   .debug_loc:0000000000000705 .LLST26
     /tmp/ccdzk6Z8.s:860    .text:00000000000003ac .LVL76
     /tmp/ccdzk6Z8.s:867    .text:00000000000003b8 .LVL77
     /tmp/ccdzk6Z8.s:874    .text:00000000000003c8 .LVL78
     /tmp/ccdzk6Z8.s:882    .text:00000000000003d8 .LVL79
     /tmp/ccdzk6Z8.s:208    .text:0000000000000104 .LFB33
     /tmp/ccdzk6Z8.s:288    .text:000000000000017c .LFE33
     /tmp/ccdzk6Z8.s:4681   .debug_loc:000000000000077a .LLST4
     /tmp/ccdzk6Z8.s:4803   .debug_str:000000000000010a .LASF167
     /tmp/ccdzk6Z8.s:4703   .debug_loc:00000000000007d9 .LLST5
     /tmp/ccdzk6Z8.s:232    .text:0000000000000130 .LBB15
     /tmp/ccdzk6Z8.s:253    .text:0000000000000148 .LBE15
     /tmp/ccdzk6Z8.s:4717   .debug_loc:0000000000000812 .LLST6
     /tmp/ccdzk6Z8.s:4724   .debug_loc:0000000000000835 .LLST7
     /tmp/ccdzk6Z8.s:239    .text:0000000000000138 .LBB17
     /tmp/ccdzk6Z8.s:248    .text:0000000000000144 .LBE17
     /tmp/ccdzk6Z8.s:4731   .debug_loc:0000000000000858 .LLST8
     /tmp/ccdzk6Z8.s:231    .text:0000000000000130 .LVL17
     /tmp/ccdzk6Z8.s:261    .text:0000000000000158 .LVL21
     /tmp/ccdzk6Z8.s:4957   .debug_str:0000000000000530 .LASF168
     /tmp/ccdzk6Z8.s:4993   .debug_str:0000000000000637 .LASF169
     /tmp/ccdzk6Z8.s:4867   .debug_str:00000000000002ac .LASF170
     /tmp/ccdzk6Z8.s:4955   .debug_str:000000000000051f .LASF180
     /tmp/ccdzk6Z8.s:5135   .debug_str:0000000000000ac2 .LASF181
     /tmp/ccdzk6Z8.s:705    .text._ZN4ListI3TCBE3getEv:0000000000000000 .LVL62
     /tmp/ccdzk6Z8.s:721    .text._ZN4ListI3TCBE3getEv:0000000000000020 .LVL63
     /tmp/ccdzk6Z8.s:753    .text._ZN4ListI3TCBE3getEv:0000000000000058 .LVL67
     /tmp/ccdzk6Z8.s:759    .text._ZN4ListI3TCBE3getEv:0000000000000064 .LVL68
     /tmp/ccdzk6Z8.s:726    .text._ZN4ListI3TCBE3getEv:0000000000000028 .LVL64
     /tmp/ccdzk6Z8.s:741    .text._ZN4ListI3TCBE3getEv:0000000000000048 .LVL66
     /tmp/ccdzk6Z8.s:765    .text._ZN4ListI3TCBE3getEv:000000000000006c .LVL69
     /tmp/ccdzk6Z8.s:406    .text._ZN4ListI3TCBE3addEPS0_:0000000000000000 .LVL35
     /tmp/ccdzk6Z8.s:423    .text._ZN4ListI3TCBE3addEPS0_:0000000000000024 .LVL36
     /tmp/ccdzk6Z8.s:457    .text._ZN4ListI3TCBE3addEPS0_:0000000000000060 .LVL39
     /tmp/ccdzk6Z8.s:464    .text._ZN4ListI3TCBE3addEPS0_:000000000000006c .LVL41
     /tmp/ccdzk6Z8.s:460    .text._ZN4ListI3TCBE3addEPS0_:0000000000000064 .LVL40
     /tmp/ccdzk6Z8.s:431    .text._ZN4ListI3TCBE3addEPS0_:0000000000000034 .LVL38
     /tmp/ccdzk6Z8.s:373    .text._ZN4ListI3TCBE4peekEv:0000000000000000 .LVL33
     /tmp/ccdzk6Z8.s:382    .text._ZN4ListI3TCBE4peekEv:0000000000000010 .LVL34
GAS LISTING /tmp/ccdzk6Z8.s 			page 39


     /tmp/ccdzk6Z8.s:305    .text:0000000000000188 .LVL25
     /tmp/ccdzk6Z8.s:312    .text:0000000000000194 .LVL27
     /tmp/ccdzk6Z8.s:319    .text:000000000000019c .LVL28
     /tmp/ccdzk6Z8.s:325    .text:00000000000001a4 .LVL29
     /tmp/ccdzk6Z8.s:336    .text:00000000000001b4 .LVL30
     /tmp/ccdzk6Z8.s:351    .text:00000000000001c4 .LVL31
     /tmp/ccdzk6Z8.s:357    .text:00000000000001cc .LVL32
     /tmp/ccdzk6Z8.s:309    .text:0000000000000190 .LVL26
     /tmp/ccdzk6Z8.s:136    .text:000000000000009c .LVL12
     /tmp/ccdzk6Z8.s:146    .text:00000000000000ac .LVL13
     /tmp/ccdzk6Z8.s:99     .text:000000000000006c .LVL8
     /tmp/ccdzk6Z8.s:111    .text:0000000000000080 .LVL9
     /tmp/ccdzk6Z8.s:114    .text:0000000000000084 .LVL10
     /tmp/ccdzk6Z8.s:67     .text:0000000000000044 .LVL6
     /tmp/ccdzk6Z8.s:608    .text:000000000000029c .LVL55
     /tmp/ccdzk6Z8.s:623    .text:00000000000002b8 .LVL56
     /tmp/ccdzk6Z8.s:626    .text:00000000000002bc .LVL57
     /tmp/ccdzk6Z8.s:679    .text:000000000000031c .LVL59
     /tmp/ccdzk6Z8.s:683    .text:0000000000000320 .LVL60
     /tmp/ccdzk6Z8.s:685    .text:0000000000000324 .LVL61
     /tmp/ccdzk6Z8.s:781    .text:000000000000032c .LVL70
     /tmp/ccdzk6Z8.s:796    .text:0000000000000348 .LVL71
     /tmp/ccdzk6Z8.s:828    .text:0000000000000380 .LVL74
     /tmp/ccdzk6Z8.s:482    .text:00000000000001d8 .LVL42
     /tmp/ccdzk6Z8.s:508    .text:000000000000020c .LVL44
     /tmp/ccdzk6Z8.s:499    .text:00000000000001fc .LVL43
     /tmp/ccdzk6Z8.s:531    .text:000000000000023c .LVL48
     /tmp/ccdzk6Z8.s:14     .text:0000000000000000 .LVL0
     /tmp/ccdzk6Z8.s:24     .text:0000000000000010 .LVL1
     /tmp/ccdzk6Z8.s:27     .text:0000000000000014 .LVL2
     /tmp/ccdzk6Z8.s:51     .text:000000000000003c .LVL4
     /tmp/ccdzk6Z8.s:55     .text:0000000000000040 .LVL5
     /tmp/ccdzk6Z8.s:915    .text:00000000000003f8 .LVL83
     /tmp/ccdzk6Z8.s:930    .text:0000000000000414 .LVL84
     /tmp/ccdzk6Z8.s:933    .text:0000000000000418 .LVL85
     /tmp/ccdzk6Z8.s:959    .text:0000000000000444 .LVL87
     /tmp/ccdzk6Z8.s:963    .text:0000000000000448 .LVL88
     /tmp/ccdzk6Z8.s:547    .text:0000000000000248 .LVL49
     /tmp/ccdzk6Z8.s:562    .text:0000000000000264 .LVL50
     /tmp/ccdzk6Z8.s:565    .text:0000000000000268 .LVL51
     /tmp/ccdzk6Z8.s:592    .text:0000000000000294 .LVL53
     /tmp/ccdzk6Z8.s:596    .text:0000000000000298 .LVL54
     /tmp/ccdzk6Z8.s:842    .text:0000000000000388 .LVL75
     /tmp/ccdzk6Z8.s:894    .text:00000000000003e8 .LVL80
     /tmp/ccdzk6Z8.s:898    .text:00000000000003f0 .LVL81
     /tmp/ccdzk6Z8.s:902    .text:00000000000003f4 .LVL82
     /tmp/ccdzk6Z8.s:211    .text:0000000000000104 .LVL15
     /tmp/ccdzk6Z8.s:229    .text:0000000000000128 .LVL16
     /tmp/ccdzk6Z8.s:275    .text:0000000000000168 .LVL22
     /tmp/ccdzk6Z8.s:281    .text:0000000000000174 .LVL23
     /tmp/ccdzk6Z8.s:251    .text:0000000000000148 .LVL20
     /tmp/ccdzk6Z8.s:238    .text:0000000000000138 .LVL18
     /tmp/ccdzk6Z8.s:246    .text:0000000000000144 .LVL19
     /tmp/ccdzk6Z8.s:989    .debug_info:0000000000000000 .Ldebug_info0
     /tmp/ccdzk6Z8.s:5      .text:0000000000000000 .Ltext0
     /tmp/ccdzk6Z8.s:982    .text:000000000000044c .Letext0

GAS LISTING /tmp/ccdzk6Z8.s 			page 40


UNDEFINED SYMBOLS
_Z8sem_waitP3Sem
_ZN15MemoryAllocator8mem_freeEPv
_ZN15MemoryAllocator9mem_allocEm
_Znwm
_ZN3TCB7runningE
_ZN9Scheduler3getEv
_ZN3TCB5yieldEPS_S0_
_ZdlPv
_ZN9Scheduler3putEP3TCB
