GAS LISTING /tmp/ccxHQ5Uc.s 			page 1


   1              		.file	"semaphore.cpp"
   2              		.option pic
   3              		.option norelax
   4              		.text
   5              	.Ltext0:
   6              		.align	2
   7              		.globl	_ZN3Sem7trywaitEPS_
   9              	_ZN3Sem7trywaitEPS_:
  10              	.LFB38:
  11              		.file 1 "src/semaphore.cpp"
   1:src/semaphore.cpp **** 
   2:src/semaphore.cpp **** #include "../h/semaphore.hpp"
   3:src/semaphore.cpp **** 
   4:src/semaphore.cpp **** Sem* Sem::first = nullptr;
   5:src/semaphore.cpp **** Sem* Sem::last  = nullptr;
   6:src/semaphore.cpp **** 
   7:src/semaphore.cpp **** 
   8:src/semaphore.cpp **** int Sem::open(sem_t *handle, unsigned int init) {
   9:src/semaphore.cpp **** 
  10:src/semaphore.cpp ****     *handle = new Sem((int)init);
  11:src/semaphore.cpp ****     if (*handle == nullptr) return  -1;
  12:src/semaphore.cpp **** 
  13:src/semaphore.cpp ****     sem_add(*handle); // to Sem list
  14:src/semaphore.cpp **** 
  15:src/semaphore.cpp ****     return 0;
  16:src/semaphore.cpp **** }
  17:src/semaphore.cpp **** 
  18:src/semaphore.cpp **** int Sem::s_close(sem_t handle) {
  19:src/semaphore.cpp **** 
  20:src/semaphore.cpp ****     if (!handle) return -1;
  21:src/semaphore.cpp **** 
  22:src/semaphore.cpp ****     sem_remove(handle); // remove from semaphores list
  23:src/semaphore.cpp **** 
  24:src/semaphore.cpp ****     while (handle->blocked.peek()) {
  25:src/semaphore.cpp ****         handle->deblock();
  26:src/semaphore.cpp ****     }
  27:src/semaphore.cpp **** 
  28:src/semaphore.cpp ****     delete handle;
  29:src/semaphore.cpp ****     return 0;
  30:src/semaphore.cpp **** }
  31:src/semaphore.cpp **** 
  32:src/semaphore.cpp **** int Sem::wait(sem_t handle) {
  33:src/semaphore.cpp ****     if (!handle) return SEM_CLOSED;
  34:src/semaphore.cpp ****     if (--handle->value < 0) {
  35:src/semaphore.cpp **** 
  36:src/semaphore.cpp ****         handle->block();
  37:src/semaphore.cpp ****         if (handle == nullptr) return SEMDEAD;
  38:src/semaphore.cpp ****         // sem deallocated while thread waiting
  39:src/semaphore.cpp ****         // returns here after releasing all threads
  40:src/semaphore.cpp ****     }
  41:src/semaphore.cpp ****     return 0;
  42:src/semaphore.cpp **** }
  43:src/semaphore.cpp **** 
  44:src/semaphore.cpp **** int Sem::signal(sem_t handle) {
  45:src/semaphore.cpp ****     if (!handle) return SEM_CLOSED;
  46:src/semaphore.cpp ****     if (++handle->value<= 0) handle->deblock();
  47:src/semaphore.cpp ****     return 0;
GAS LISTING /tmp/ccxHQ5Uc.s 			page 2


  48:src/semaphore.cpp **** }
  49:src/semaphore.cpp **** 
  50:src/semaphore.cpp **** int Sem::trywait(sem_t handle) { /// ??????????????????
  12              		.loc 1 50 32
  13              		.cfi_startproc
  14              	.LVL0:
  51:src/semaphore.cpp **** 
  52:src/semaphore.cpp ****     if (!handle) return SEM_CLOSED; // error code
  15              		.loc 1 52 5
  16 0000 630E0502 		beqz	a0,.L3
  53:src/semaphore.cpp ****     if (handle->value > 0) return sem_wait(handle);
  17              		.loc 1 53 5
  18              		.loc 1 53 17 is_stmt 0
  19 0004 83270500 		lw	a5,0(a0)
  20              		.loc 1 53 5
  21 0008 6346F000 		bgtz	a5,.L9
  54:src/semaphore.cpp ****     return 0; // no success
  22              		.loc 1 54 12
  23 000c 13050000 		li	a0,0
  24              	.LVL1:
  55:src/semaphore.cpp **** }
  25              		.loc 1 55 1
  26 0010 67800000 		ret
  27              	.LVL2:
  28              	.L9:
  50:src/semaphore.cpp **** 
  29              		.loc 1 50 32 discriminator 1
  30 0014 130101FF 		addi	sp,sp,-16
  31              		.cfi_def_cfa_offset 16
  32 0018 23341100 		sd	ra,8(sp)
  33 001c 23308100 		sd	s0,0(sp)
  34              		.cfi_offset 1, -8
  35              		.cfi_offset 8, -16
  36 0020 13040101 		addi	s0,sp,16
  37              		.cfi_def_cfa 8, 0
  53:src/semaphore.cpp ****     return 0; // no success
  38              		.loc 1 53 28 is_stmt 1 discriminator 1
  53:src/semaphore.cpp ****     return 0; // no success
  39              		.loc 1 53 43 is_stmt 0 discriminator 1
  40 0024 97000000 		call	_Z8sem_waitP3Sem@plt
  40      E7800000 
  41              	.LVL3:
  42              		.loc 1 55 1 discriminator 1
  43 002c 83308100 		ld	ra,8(sp)
  44              		.cfi_restore 1
  45 0030 03340100 		ld	s0,0(sp)
  46              		.cfi_restore 8
  47              		.cfi_def_cfa 2, 16
  48 0034 13010101 		addi	sp,sp,16
  49              		.cfi_def_cfa_offset 0
  50 0038 67800000 		jr	ra
  51              	.LVL4:
  52              	.L3:
  52:src/semaphore.cpp ****     if (handle->value > 0) return sem_wait(handle);
  53              		.loc 1 52 25
  54 003c 1305C0FF 		li	a0,-4
  55              	.LVL5:
GAS LISTING /tmp/ccxHQ5Uc.s 			page 3


  56 0040 67800000 		ret
  57              		.cfi_endproc
  58              	.LFE38:
  60              		.align	2
  61              		.globl	_ZN3SemdlEPv
  63              	_ZN3SemdlEPv:
  64              	.LFB42:
  56:src/semaphore.cpp **** 
  57:src/semaphore.cpp **** void Sem::block() {
  58:src/semaphore.cpp **** 
  59:src/semaphore.cpp ****     TCB* oldRunning = TCB::running;
  60:src/semaphore.cpp ****     oldRunning -> current_state = TCB::BLOCKED;
  61:src/semaphore.cpp **** 
  62:src/semaphore.cpp ****     blocked.add(oldRunning);
  63:src/semaphore.cpp **** 
  64:src/semaphore.cpp ****     TCB::running = Scheduler::get();
  65:src/semaphore.cpp ****     TCB::yield(oldRunning, TCB::running);
  66:src/semaphore.cpp **** }
  67:src/semaphore.cpp **** 
  68:src/semaphore.cpp **** void Sem::deblock() {
  69:src/semaphore.cpp **** 
  70:src/semaphore.cpp ****     TCB* tcb = blocked.get();
  71:src/semaphore.cpp **** 
  72:src/semaphore.cpp ****     if (!tcb) return; // should not happen
  73:src/semaphore.cpp **** 
  74:src/semaphore.cpp ****     tcb->current_state = TCB::RUNNABLE;
  75:src/semaphore.cpp ****     Scheduler::put(tcb);
  76:src/semaphore.cpp **** 
  77:src/semaphore.cpp **** }
  78:src/semaphore.cpp **** 
  79:src/semaphore.cpp **** int Sem::timedwait(sem_t handle, time_t time) {
  80:src/semaphore.cpp **** 
  81:src/semaphore.cpp ****     // max timeout timer periods
  82:src/semaphore.cpp ****     // success =>  return 0
  83:src/semaphore.cpp ****     // sem deallocated while waiting => -1 (SEMDEAD)
  84:src/semaphore.cpp ****     // time expired => return -2 (TIMEOUT)
  85:src/semaphore.cpp **** 
  86:src/semaphore.cpp ****     if (!handle) return SEM_CLOSED;
  87:src/semaphore.cpp **** 
  88:src/semaphore.cpp ****     if (--(handle->value) < 0) {
  89:src/semaphore.cpp **** 
  90:src/semaphore.cpp ****         TCB::running->time_on_sem = time;
  91:src/semaphore.cpp ****         handle->timedBlock++;
  92:src/semaphore.cpp **** 
  93:src/semaphore.cpp ****         handle->block();
  94:src/semaphore.cpp **** 
  95:src/semaphore.cpp ****         // return address after deblocking
  96:src/semaphore.cpp **** 
  97:src/semaphore.cpp ****         if (!handle) return SEMDEAD;
  98:src/semaphore.cpp **** 
  99:src/semaphore.cpp ****         handle->timedBlock--;
 100:src/semaphore.cpp ****         // time on sem < 0 if timeout
 101:src/semaphore.cpp ****         if (!TCB::running->time_on_sem) return TIMEOUT;
 102:src/semaphore.cpp ****         else TCB::running->time_on_sem = 0;
 103:src/semaphore.cpp ****     }
 104:src/semaphore.cpp **** 
 105:src/semaphore.cpp ****     return 0;
GAS LISTING /tmp/ccxHQ5Uc.s 			page 4


 106:src/semaphore.cpp **** }
 107:src/semaphore.cpp **** 
 108:src/semaphore.cpp **** void Sem::operator delete(void *ptr) {
  65              		.loc 1 108 38 is_stmt 1
  66              		.cfi_startproc
  67              	.LVL6:
  68 0044 130101FF 		addi	sp,sp,-16
  69              		.cfi_def_cfa_offset 16
  70 0048 23341100 		sd	ra,8(sp)
  71 004c 23308100 		sd	s0,0(sp)
  72              		.cfi_offset 1, -8
  73              		.cfi_offset 8, -16
  74 0050 13040101 		addi	s0,sp,16
  75              		.cfi_def_cfa 8, 0
 109:src/semaphore.cpp ****     MemoryAllocator::mem_free(ptr);
  76              		.loc 1 109 5
  77              		.loc 1 109 30 is_stmt 0
  78 0054 97000000 		call	_ZN15MemoryAllocator8mem_freeEPv@plt
  78      E7800000 
  79              	.LVL7:
 110:src/semaphore.cpp **** }
  80              		.loc 1 110 1
  81 005c 83308100 		ld	ra,8(sp)
  82              		.cfi_restore 1
  83 0060 03340100 		ld	s0,0(sp)
  84              		.cfi_restore 8
  85              		.cfi_def_cfa 2, 16
  86 0064 13010101 		addi	sp,sp,16
  87              		.cfi_def_cfa_offset 0
  88 0068 67800000 		jr	ra
  89              		.cfi_endproc
  90              	.LFE42:
  92              		.align	2
  93              		.globl	_ZN3SemnwEm
  95              	_ZN3SemnwEm:
  96              	.LFB43:
 111:src/semaphore.cpp **** 
 112:src/semaphore.cpp **** void *Sem::operator new(size_t size) {
  97              		.loc 1 112 38 is_stmt 1
  98              		.cfi_startproc
  99              	.LVL8:
 100 006c 130101FF 		addi	sp,sp,-16
 101              		.cfi_def_cfa_offset 16
 102 0070 23341100 		sd	ra,8(sp)
 103 0074 23308100 		sd	s0,0(sp)
 104              		.cfi_offset 1, -8
 105              		.cfi_offset 8, -16
 106 0078 13040101 		addi	s0,sp,16
 107              		.cfi_def_cfa 8, 0
 113:src/semaphore.cpp ****     return MemoryAllocator::mem_alloc((mem_h_size + size + MEM_BLOCK_SIZE - 1) / MEM_BLOCK_SIZE);
 108              		.loc 1 113 5
 109              		.loc 1 113 75 is_stmt 0
 110 007c 13057505 		addi	a0,a0,87
 111              	.LVL9:
 112              		.loc 1 113 38
 113 0080 13556500 		srli	a0,a0,6
 114              	.LVL10:
GAS LISTING /tmp/ccxHQ5Uc.s 			page 5


 115 0084 97000000 		call	_ZN15MemoryAllocator9mem_allocEm@plt
 115      E7800000 
 116              	.LVL11:
 114:src/semaphore.cpp **** }
 117              		.loc 1 114 1
 118 008c 83308100 		ld	ra,8(sp)
 119              		.cfi_restore 1
 120 0090 03340100 		ld	s0,0(sp)
 121              		.cfi_restore 8
 122              		.cfi_def_cfa 2, 16
 123 0094 13010101 		addi	sp,sp,16
 124              		.cfi_def_cfa_offset 0
 125 0098 67800000 		jr	ra
 126              		.cfi_endproc
 127              	.LFE43:
 129              		.align	2
 130              		.globl	_ZNK3Sem9get_valueEv
 132              	_ZNK3Sem9get_valueEv:
 133              	.LFB44:
 115:src/semaphore.cpp **** 
 116:src/semaphore.cpp **** int Sem::get_value() const {return value;}
 134              		.loc 1 116 28 is_stmt 1
 135              		.cfi_startproc
 136              	.LVL12:
 137 009c 130101FF 		addi	sp,sp,-16
 138              		.cfi_def_cfa_offset 16
 139 00a0 23348100 		sd	s0,8(sp)
 140              		.cfi_offset 8, -8
 141 00a4 13040101 		addi	s0,sp,16
 142              		.cfi_def_cfa 8, 0
 143              		.loc 1 116 29
 144              		.loc 1 116 42 is_stmt 0
 145 00a8 03250500 		lw	a0,0(a0)
 146              	.LVL13:
 147 00ac 03348100 		ld	s0,8(sp)
 148              		.cfi_restore 8
 149              		.cfi_def_cfa 2, 16
 150 00b0 13010101 		addi	sp,sp,16
 151              		.cfi_def_cfa_offset 0
 152 00b4 67800000 		jr	ra
 153              		.cfi_endproc
 154              	.LFE44:
 156              		.align	2
 157              		.globl	_ZN3Sem7sem_addEPS_
 159              	_ZN3Sem7sem_addEPS_:
 160              	.LFB45:
 117:src/semaphore.cpp **** 
 118:src/semaphore.cpp **** void Sem::sem_add(Sem* toAdd) {
 161              		.loc 1 118 31 is_stmt 1
 162              		.cfi_startproc
 163              	.LVL14:
 164 00b8 130101FF 		addi	sp,sp,-16
 165              		.cfi_def_cfa_offset 16
 166 00bc 23348100 		sd	s0,8(sp)
 167              		.cfi_offset 8, -8
 168 00c0 13040101 		addi	s0,sp,16
 169              		.cfi_def_cfa 8, 0
GAS LISTING /tmp/ccxHQ5Uc.s 			page 6


 119:src/semaphore.cpp **** 
 120:src/semaphore.cpp ****     if (!first) first = last = toAdd;
 170              		.loc 1 120 5
 171              		.loc 1 120 9 is_stmt 0
 172 00c4 97070000 		ld	a5,.LANCHOR0
 172      83B70700 
 173              		.loc 1 120 5
 174 00cc 63820702 		beqz	a5,.L20
 121:src/semaphore.cpp ****     else last = last -> next = toAdd;
 175              		.loc 1 121 10 is_stmt 1
 176              		.loc 1 121 25 is_stmt 0
 177 00d0 97070000 		lla	a5,.LANCHOR0
 177      93870700 
 178 00d8 03B78700 		ld	a4,8(a5)
 179              		.loc 1 121 30
 180 00dc 2334A700 		sd	a0,8(a4)
 181              		.loc 1 121 15
 182 00e0 23B4A700 		sd	a0,8(a5)
 183              	.L16:
 122:src/semaphore.cpp **** 
 123:src/semaphore.cpp **** }
 184              		.loc 1 123 1
 185 00e4 03348100 		ld	s0,8(sp)
 186              		.cfi_remember_state
 187              		.cfi_restore 8
 188              		.cfi_def_cfa 2, 16
 189 00e8 13010101 		addi	sp,sp,16
 190              		.cfi_def_cfa_offset 0
 191 00ec 67800000 		jr	ra
 192              	.L20:
 193              		.cfi_restore_state
 120:src/semaphore.cpp ****     else last = last -> next = toAdd;
 194              		.loc 1 120 17 is_stmt 1 discriminator 1
 120:src/semaphore.cpp ****     else last = last -> next = toAdd;
 195              		.loc 1 120 30 is_stmt 0 discriminator 1
 196 00f0 97070000 		lla	a5,.LANCHOR0
 196      93870700 
 197 00f8 23B4A700 		sd	a0,8(a5)
 120:src/semaphore.cpp ****     else last = last -> next = toAdd;
 198              		.loc 1 120 23 discriminator 1
 199 00fc 23B0A700 		sd	a0,0(a5)
 200 0100 6FF05FFE 		j	.L16
 201              		.cfi_endproc
 202              	.LFE45:
 204              		.align	2
 205              		.globl	_ZN3Sem4openEPPS_j
 207              	_ZN3Sem4openEPPS_j:
 208              	.LFB34:
   8:src/semaphore.cpp **** 
 209              		.loc 1 8 49 is_stmt 1
 210              		.cfi_startproc
 211              	.LVL15:
 212 0104 130101FE 		addi	sp,sp,-32
 213              		.cfi_def_cfa_offset 32
 214 0108 233C1100 		sd	ra,24(sp)
 215 010c 23388100 		sd	s0,16(sp)
 216 0110 23349100 		sd	s1,8(sp)
GAS LISTING /tmp/ccxHQ5Uc.s 			page 7


 217 0114 23302101 		sd	s2,0(sp)
 218              		.cfi_offset 1, -8
 219              		.cfi_offset 8, -16
 220              		.cfi_offset 9, -24
 221              		.cfi_offset 18, -32
 222 0118 13040102 		addi	s0,sp,32
 223              		.cfi_def_cfa 8, 0
 224 011c 93040500 		mv	s1,a0
 225 0120 13890500 		mv	s2,a1
  10:src/semaphore.cpp ****     if (*handle == nullptr) return  -1;
 226              		.loc 1 10 5
  10:src/semaphore.cpp ****     if (*handle == nullptr) return  -1;
 227              		.loc 1 10 32 is_stmt 0
 228 0124 13050003 		li	a0,48
 229              	.LVL16:
 230 0128 97000000 		call	_ZN3SemnwEm
 230      E7800000 
 231              	.LVL17:
 232              	.LBB15:
 233              	.LBB16:
 234              		.file 2 "src/../h/semaphore.hpp"
   1:src/../h/semaphore.hpp **** 
   2:src/../h/semaphore.hpp **** #ifndef PROJECT_BASE_SEMAPHORE_HPP
   3:src/../h/semaphore.hpp **** #define PROJECT_BASE_SEMAPHORE_HPP
   4:src/../h/semaphore.hpp **** 
   5:src/../h/semaphore.hpp **** #include "Scheduler.hpp"
   6:src/../h/semaphore.hpp **** #include "thread.hpp"
   7:src/../h/semaphore.hpp **** #include "../lib/hw.h"
   8:src/../h/semaphore.hpp **** #include "List.hpp"
   9:src/../h/semaphore.hpp **** 
  10:src/../h/semaphore.hpp **** class Sem;
  11:src/../h/semaphore.hpp **** typedef Sem* sem_t;
  12:src/../h/semaphore.hpp **** 
  13:src/../h/semaphore.hpp **** class Sem {
  14:src/../h/semaphore.hpp **** public:
  15:src/../h/semaphore.hpp **** 
  16:src/../h/semaphore.hpp ****     friend class RISCV;
  17:src/../h/semaphore.hpp **** 
  18:src/../h/semaphore.hpp ****  // puno praznih pokazivaca, razmisli o listi
  19:src/../h/semaphore.hpp **** 
  20:src/../h/semaphore.hpp ****     enum error {
  21:src/../h/semaphore.hpp ****         MEMORY_ERR = -3,
  22:src/../h/semaphore.hpp ****         SEM_CLOSED = -4,
  23:src/../h/semaphore.hpp ****         SEMDEAD = -1,
  24:src/../h/semaphore.hpp ****         TIMEOUT = -2
  25:src/../h/semaphore.hpp ****     };
  26:src/../h/semaphore.hpp **** 
  27:src/../h/semaphore.hpp ****     static int wait(sem_t);
  28:src/../h/semaphore.hpp ****     static int signal(sem_t);
  29:src/../h/semaphore.hpp **** 
  30:src/../h/semaphore.hpp ****     int get_value() const;
  31:src/../h/semaphore.hpp **** 
  32:src/../h/semaphore.hpp ****     static int timedwait(sem_t, time_t time);
  33:src/../h/semaphore.hpp ****     static int trywait(sem_t);
  34:src/../h/semaphore.hpp **** 
  35:src/../h/semaphore.hpp ****     static int open(sem_t* handle, unsigned init);  // ???
  36:src/../h/semaphore.hpp ****     static int s_close(sem_t handle);
GAS LISTING /tmp/ccxHQ5Uc.s 			page 8


  37:src/../h/semaphore.hpp **** 
  38:src/../h/semaphore.hpp ****     void* operator new(size_t size);
  39:src/../h/semaphore.hpp ****     void operator delete(void* ptr);
  40:src/../h/semaphore.hpp **** 
  41:src/../h/semaphore.hpp **** //    static ListSEM semaphores;
  42:src/../h/semaphore.hpp ****     static Sem* first, *last;
  43:src/../h/semaphore.hpp **** 
  44:src/../h/semaphore.hpp **** private:
  45:src/../h/semaphore.hpp **** 
  46:src/../h/semaphore.hpp ****     explicit Sem(int init = 1) : value(init), next(nullptr), blocked() {}
 235              		.loc 2 46 70
 236 0130 23202501 		sw	s2,0(a0)
 237 0134 23340500 		sd	zero,8(a0)
 238              	.LVL18:
 239              	.LBB17:
 240              	.LBB18:
 241              		.file 3 "src/../h/List.hpp"
   1:src/../h/List.hpp **** //
   2:src/../h/List.hpp **** // Created by os on 5/13/24.
   3:src/../h/List.hpp **** //
   4:src/../h/List.hpp **** 
   5:src/../h/List.hpp **** #ifndef PROJECT_BASE_LIST_HPP
   6:src/../h/List.hpp **** #define PROJECT_BASE_LIST_HPP
   7:src/../h/List.hpp **** #include "thread.hpp"
   8:src/../h/List.hpp **** 
   9:src/../h/List.hpp **** extern void printInteger(uint64);
  10:src/../h/List.hpp **** 
  11:src/../h/List.hpp **** template <typename T>
  12:src/../h/List.hpp **** class List {
  13:src/../h/List.hpp **** 
  14:src/../h/List.hpp **** public:
  15:src/../h/List.hpp **** 
  16:src/../h/List.hpp ****     friend class RISCV;
  17:src/../h/List.hpp **** 
  18:src/../h/List.hpp ****     List() : head(nullptr), tail(nullptr) {};
 242              		.loc 3 18 41
 243 0138 23380500 		sd	zero,16(a0)
 244 013c 233C0500 		sd	zero,24(a0)
 245 0140 23200502 		sw	zero,32(a0)
 246              	.LVL19:
 247              	.LBE18:
 248              	.LBE17:
 249              		.loc 2 46 70
 250 0144 23240502 		sw	zero,40(a0)
 251              	.LVL20:
 252              	.LBE16:
 253              	.LBE15:
  10:src/semaphore.cpp ****     if (*handle == nullptr) return  -1;
 254              		.loc 1 10 13
 255 0148 23B0A400 		sd	a0,0(s1)
  11:src/semaphore.cpp **** 
 256              		.loc 1 11 5 is_stmt 1
 257 014c 63040502 		beqz	a0,.L23
  13:src/semaphore.cpp **** 
 258              		.loc 1 13 5
  13:src/semaphore.cpp **** 
 259              		.loc 1 13 12 is_stmt 0
GAS LISTING /tmp/ccxHQ5Uc.s 			page 9


 260 0150 97000000 		call	_ZN3Sem7sem_addEPS_
 260      E7800000 
 261              	.LVL21:
  15:src/semaphore.cpp **** }
 262              		.loc 1 15 5 is_stmt 1
  15:src/semaphore.cpp **** }
 263              		.loc 1 15 12 is_stmt 0
 264 0158 13050000 		li	a0,0
 265              	.L22:
  16:src/semaphore.cpp **** 
 266              		.loc 1 16 1
 267 015c 83308101 		ld	ra,24(sp)
 268              		.cfi_remember_state
 269              		.cfi_restore 1
 270 0160 03340101 		ld	s0,16(sp)
 271              		.cfi_restore 8
 272              		.cfi_def_cfa 2, 32
 273 0164 83348100 		ld	s1,8(sp)
 274              		.cfi_restore 9
 275              	.LVL22:
 276 0168 03390100 		ld	s2,0(sp)
 277              		.cfi_restore 18
 278 016c 13010102 		addi	sp,sp,32
 279              		.cfi_def_cfa_offset 0
 280 0170 67800000 		jr	ra
 281              	.LVL23:
 282              	.L23:
 283              		.cfi_restore_state
  11:src/semaphore.cpp **** 
 284              		.loc 1 11 38
 285 0174 1305F0FF 		li	a0,-1
 286 0178 6FF05FFE 		j	.L22
 287              		.cfi_endproc
 288              	.LFE34:
 290              		.align	2
 291              		.globl	_ZN3Sem10sem_removeEPS_
 293              	_ZN3Sem10sem_removeEPS_:
 294              	.LFB46:
 124:src/semaphore.cpp **** 
 125:src/semaphore.cpp **** void Sem::sem_remove(Sem* toDelete) {
 295              		.loc 1 125 37 is_stmt 1
 296              		.cfi_startproc
 297              	.LVL24:
 298 017c 130101FF 		addi	sp,sp,-16
 299              		.cfi_def_cfa_offset 16
 300 0180 23348100 		sd	s0,8(sp)
 301              		.cfi_offset 8, -8
 302 0184 13040101 		addi	s0,sp,16
 303              		.cfi_def_cfa 8, 0
 126:src/semaphore.cpp **** 
 127:src/semaphore.cpp ****     Sem* prev = nullptr, *s = nullptr;
 304              		.loc 1 127 5
 305              	.LVL25:
 128:src/semaphore.cpp **** 
 129:src/semaphore.cpp ****     for (s = first; s; s = s->next) {
 306              		.loc 1 129 5
 307              		.loc 1 129 12 is_stmt 0
GAS LISTING /tmp/ccxHQ5Uc.s 			page 10


 308 0188 97070000 		ld	a5,.LANCHOR0
 308      83B70700 
 309              	.LVL26:
 127:src/semaphore.cpp **** 
 310              		.loc 1 127 10
 311 0190 13070000 		li	a4,0
 312              	.LVL27:
 313              	.L30:
 314              		.loc 1 129 21 is_stmt 1 discriminator 1
 315 0194 63820702 		beqz	a5,.L25
 130:src/semaphore.cpp ****         if (s == toDelete) {
 316              		.loc 1 130 9
 317 0198 6388A700 		beq	a5,a0,.L32
 131:src/semaphore.cpp ****             if (prev) prev->next = s->next;
 132:src/semaphore.cpp ****             else first = last = s;
 133:src/semaphore.cpp ****             s->next = nullptr;
 134:src/semaphore.cpp ****             return;
 135:src/semaphore.cpp ****         }
 136:src/semaphore.cpp ****         prev = s;
 318              		.loc 1 136 9 discriminator 2
 319              	.LVL28:
 129:src/semaphore.cpp ****         if (s == toDelete) {
 320              		.loc 1 129 5 discriminator 2
 321              		.loc 1 136 14 is_stmt 0 discriminator 2
 322 019c 13870700 		mv	a4,a5
 129:src/semaphore.cpp ****         if (s == toDelete) {
 323              		.loc 1 129 26 discriminator 2
 324 01a0 83B78700 		ld	a5,8(a5)
 325              	.LVL29:
 129:src/semaphore.cpp ****         if (s == toDelete) {
 326              		.loc 1 129 5 discriminator 2
 327 01a4 6FF01FFF 		j	.L30
 328              	.L32:
 131:src/semaphore.cpp ****             if (prev) prev->next = s->next;
 329              		.loc 1 131 13 is_stmt 1
 330 01a8 630E0700 		beqz	a4,.L28
 131:src/semaphore.cpp ****             if (prev) prev->next = s->next;
 331              		.loc 1 131 23 discriminator 1
 131:src/semaphore.cpp ****             if (prev) prev->next = s->next;
 332              		.loc 1 131 39 is_stmt 0 discriminator 1
 333 01ac 83B68700 		ld	a3,8(a5)
 131:src/semaphore.cpp ****             if (prev) prev->next = s->next;
 334              		.loc 1 131 34 discriminator 1
 335 01b0 2334D700 		sd	a3,8(a4)
 336              	.LVL30:
 337              	.L29:
 133:src/semaphore.cpp ****             return;
 338              		.loc 1 133 13 is_stmt 1
 133:src/semaphore.cpp ****             return;
 339              		.loc 1 133 21 is_stmt 0
 340 01b4 23B40700 		sd	zero,8(a5)
 134:src/semaphore.cpp ****         }
 341              		.loc 1 134 13 is_stmt 1
 342              	.L25:
 137:src/semaphore.cpp ****     }
 138:src/semaphore.cpp **** }
 343              		.loc 1 138 1 is_stmt 0
GAS LISTING /tmp/ccxHQ5Uc.s 			page 11


 344 01b8 03348100 		ld	s0,8(sp)
 345              		.cfi_remember_state
 346              		.cfi_restore 8
 347              		.cfi_def_cfa 2, 16
 348 01bc 13010101 		addi	sp,sp,16
 349              		.cfi_def_cfa_offset 0
 350 01c0 67800000 		jr	ra
 351              	.LVL31:
 352              	.L28:
 353              		.cfi_restore_state
 132:src/semaphore.cpp ****             s->next = nullptr;
 354              		.loc 1 132 18 is_stmt 1
 132:src/semaphore.cpp ****             s->next = nullptr;
 355              		.loc 1 132 31 is_stmt 0
 356 01c4 17070000 		lla	a4,.LANCHOR0
 356      13070700 
 357              	.LVL32:
 358 01cc 2334F700 		sd	a5,8(a4)
 132:src/semaphore.cpp ****             s->next = nullptr;
 359              		.loc 1 132 24
 360 01d0 2330F700 		sd	a5,0(a4)
 361 01d4 6FF01FFE 		j	.L29
 362              		.cfi_endproc
 363              	.LFE46:
 365              		.section	.text._ZN4ListI3TCBE4peekEv,"axG",@progbits,_ZN4ListI3TCBE4peekEv,comdat
 366              		.align	2
 367              		.weak	_ZN4ListI3TCBE4peekEv
 369              	_ZN4ListI3TCBE4peekEv:
 370              	.LFB50:
  19:src/../h/List.hpp **** 
  20:src/../h/List.hpp ****     void add(T*);
  21:src/../h/List.hpp ****     T* get();
  22:src/../h/List.hpp ****     T* peek();
  23:src/../h/List.hpp **** 
  24:src/../h/List.hpp ****     inline int size() {return count;}
  25:src/../h/List.hpp **** 
  26:src/../h/List.hpp **** private:
  27:src/../h/List.hpp **** 
  28:src/../h/List.hpp ****     struct Elem {
  29:src/../h/List.hpp ****         T* data;
  30:src/../h/List.hpp ****         Elem* next;
  31:src/../h/List.hpp **** 
  32:src/../h/List.hpp ****         explicit Elem(T* data) : data(data), next(nullptr) {}
  33:src/../h/List.hpp ****     };
  34:src/../h/List.hpp **** 
  35:src/../h/List.hpp ****     Elem *head, *tail;
  36:src/../h/List.hpp ****     int count = 0;
  37:src/../h/List.hpp **** 
  38:src/../h/List.hpp ****     void remove(T *t);
  39:src/../h/List.hpp **** };
  40:src/../h/List.hpp **** 
  41:src/../h/List.hpp **** typedef List<TCB> ListTCB;
  42:src/../h/List.hpp **** using ListSEM = List<Sem>;
  43:src/../h/List.hpp **** 
  44:src/../h/List.hpp **** template <typename T>
  45:src/../h/List.hpp **** void List<T>::add(T *t) {
  46:src/../h/List.hpp **** 
GAS LISTING /tmp/ccxHQ5Uc.s 			page 12


  47:src/../h/List.hpp ****     Elem* toAdd = new Elem(t);
  48:src/../h/List.hpp **** 
  49:src/../h/List.hpp ****     if (!head) head = tail = toAdd;
  50:src/../h/List.hpp ****     else tail = tail -> next = toAdd;
  51:src/../h/List.hpp **** 
  52:src/../h/List.hpp ****     count++;
  53:src/../h/List.hpp **** }
  54:src/../h/List.hpp **** 
  55:src/../h/List.hpp **** template <typename T>
  56:src/../h/List.hpp **** T* List<T>::get() {
  57:src/../h/List.hpp **** 
  58:src/../h/List.hpp ****     if (!head) return nullptr;
  59:src/../h/List.hpp **** 
  60:src/../h/List.hpp ****     T* t = head -> data;
  61:src/../h/List.hpp ****     Elem* oldHead = head;
  62:src/../h/List.hpp ****     head = head -> next;
  63:src/../h/List.hpp **** 
  64:src/../h/List.hpp ****     if (!head) tail = nullptr;
  65:src/../h/List.hpp **** 
  66:src/../h/List.hpp ****     delete oldHead;
  67:src/../h/List.hpp ****     count--;
  68:src/../h/List.hpp ****     return t;
  69:src/../h/List.hpp **** }
  70:src/../h/List.hpp **** 
  71:src/../h/List.hpp **** template <typename T>
  72:src/../h/List.hpp **** T* List<T>::peek() {
 371              		.loc 3 72 4 is_stmt 1
 372              		.cfi_startproc
 373              	.LVL33:
 374 0000 130101FF 		addi	sp,sp,-16
 375              		.cfi_def_cfa_offset 16
 376 0004 23348100 		sd	s0,8(sp)
 377              		.cfi_offset 8, -8
 378 0008 13040101 		addi	s0,sp,16
 379              		.cfi_def_cfa 8, 0
  73:src/../h/List.hpp ****     if (head) return head->data;
 380              		.loc 3 73 9 is_stmt 0
 381 000c 03350500 		ld	a0,0(a0)
 382              	.LVL34:
 383              		.loc 3 73 5
 384 0010 63040500 		beqz	a0,.L33
 385              		.loc 3 73 28 discriminator 1
 386 0014 03350500 		ld	a0,0(a0)
 387              	.L33:
  74:src/../h/List.hpp ****     else return nullptr;
  75:src/../h/List.hpp **** }
 388              		.loc 3 75 1
 389 0018 03348100 		ld	s0,8(sp)
 390              		.cfi_restore 8
 391              		.cfi_def_cfa 2, 16
 392 001c 13010101 		addi	sp,sp,16
 393              		.cfi_def_cfa_offset 0
 394 0020 67800000 		jr	ra
 395              		.cfi_endproc
 396              	.LFE50:
 398              		.section	.text._ZN4ListI3TCBE3addEPS0_,"axG",@progbits,_ZN4ListI3TCBE3addEPS0_,comdat
 399              		.align	2
GAS LISTING /tmp/ccxHQ5Uc.s 			page 13


 400              		.weak	_ZN4ListI3TCBE3addEPS0_
 402              	_ZN4ListI3TCBE3addEPS0_:
 403              	.LFB51:
  45:src/../h/List.hpp **** 
 404              		.loc 3 45 6 is_stmt 1
 405              		.cfi_startproc
 406              	.LVL35:
 407 0000 130101FE 		addi	sp,sp,-32
 408              		.cfi_def_cfa_offset 32
 409 0004 233C1100 		sd	ra,24(sp)
 410 0008 23388100 		sd	s0,16(sp)
 411 000c 23349100 		sd	s1,8(sp)
 412 0010 23302101 		sd	s2,0(sp)
 413              		.cfi_offset 1, -8
 414              		.cfi_offset 8, -16
 415              		.cfi_offset 9, -24
 416              		.cfi_offset 18, -32
 417 0014 13040102 		addi	s0,sp,32
 418              		.cfi_def_cfa 8, 0
 419 0018 93040500 		mv	s1,a0
 420 001c 13890500 		mv	s2,a1
  47:src/../h/List.hpp **** 
 421              		.loc 3 47 19 is_stmt 0
 422 0020 13050001 		li	a0,16
 423              	.LVL36:
 424 0024 97000000 		call	_Znwm@plt
 424      E7800000 
 425              	.LVL37:
 426              	.LBB19:
 427              	.LBB20:
  32:src/../h/List.hpp ****     };
 428              		.loc 3 32 58
 429 002c 23302501 		sd	s2,0(a0)
 430 0030 23340500 		sd	zero,8(a0)
 431              	.LVL38:
 432              	.LBE20:
 433              	.LBE19:
  49:src/../h/List.hpp ****     else tail = tail -> next = toAdd;
 434              		.loc 3 49 10
 435 0034 83B70400 		ld	a5,0(s1)
  49:src/../h/List.hpp ****     else tail = tail -> next = toAdd;
 436              		.loc 3 49 5
 437 0038 638A0702 		beqz	a5,.L40
  50:src/../h/List.hpp **** 
 438              		.loc 3 50 17
 439 003c 83B78400 		ld	a5,8(s1)
  50:src/../h/List.hpp **** 
 440              		.loc 3 50 10
 441 0040 23B4A700 		sd	a0,8(a5)
 442 0044 23B4A400 		sd	a0,8(s1)
 443              	.L38:
  52:src/../h/List.hpp **** }
 444              		.loc 3 52 5
 445 0048 83A70401 		lw	a5,16(s1)
 446 004c 9B871700 		addiw	a5,a5,1
 447 0050 23A8F400 		sw	a5,16(s1)
  53:src/../h/List.hpp **** 
GAS LISTING /tmp/ccxHQ5Uc.s 			page 14


 448              		.loc 3 53 1
 449 0054 83308101 		ld	ra,24(sp)
 450              		.cfi_remember_state
 451              		.cfi_restore 1
 452 0058 03340101 		ld	s0,16(sp)
 453              		.cfi_restore 8
 454              		.cfi_def_cfa 2, 32
 455 005c 83348100 		ld	s1,8(sp)
 456              		.cfi_restore 9
 457              	.LVL39:
 458 0060 03390100 		ld	s2,0(sp)
 459              		.cfi_restore 18
 460              	.LVL40:
 461 0064 13010102 		addi	sp,sp,32
 462              		.cfi_def_cfa_offset 0
 463 0068 67800000 		jr	ra
 464              	.LVL41:
 465              	.L40:
 466              		.cfi_restore_state
  49:src/../h/List.hpp ****     else tail = tail -> next = toAdd;
 467              		.loc 3 49 16 discriminator 1
 468 006c 23B4A400 		sd	a0,8(s1)
 469 0070 23B0A400 		sd	a0,0(s1)
 470 0074 6FF05FFD 		j	.L38
 471              		.cfi_endproc
 472              	.LFE51:
 474              		.text
 475              		.align	2
 476              		.globl	_ZN3Sem5blockEv
 478              	_ZN3Sem5blockEv:
 479              	.LFB39:
  57:src/semaphore.cpp **** 
 480              		.loc 1 57 19 is_stmt 1
 481              		.cfi_startproc
 482              	.LVL42:
 483 01d8 130101FE 		addi	sp,sp,-32
 484              		.cfi_def_cfa_offset 32
 485 01dc 233C1100 		sd	ra,24(sp)
 486 01e0 23388100 		sd	s0,16(sp)
 487 01e4 23349100 		sd	s1,8(sp)
 488 01e8 23302101 		sd	s2,0(sp)
 489              		.cfi_offset 1, -8
 490              		.cfi_offset 8, -16
 491              		.cfi_offset 9, -24
 492              		.cfi_offset 18, -32
 493 01ec 13040102 		addi	s0,sp,32
 494              		.cfi_def_cfa 8, 0
  59:src/semaphore.cpp ****     oldRunning -> current_state = TCB::BLOCKED;
 495              		.loc 1 59 5
  59:src/semaphore.cpp ****     oldRunning -> current_state = TCB::BLOCKED;
 496              		.loc 1 59 10 is_stmt 0
 497 01f0 17090000 		la	s2,_ZN3TCB7runningE
 497      03390900 
 498 01f8 83340900 		ld	s1,0(s2)
 499              	.LVL43:
  60:src/semaphore.cpp **** 
 500              		.loc 1 60 5 is_stmt 1
GAS LISTING /tmp/ccxHQ5Uc.s 			page 15


  60:src/semaphore.cpp **** 
 501              		.loc 1 60 33 is_stmt 0
 502 01fc 93074000 		li	a5,4
 503 0200 23A4F406 		sw	a5,104(s1)
  62:src/semaphore.cpp **** 
 504              		.loc 1 62 5 is_stmt 1
  62:src/semaphore.cpp **** 
 505              		.loc 1 62 16 is_stmt 0
 506 0204 93850400 		mv	a1,s1
 507 0208 13050501 		addi	a0,a0,16
 508              	.LVL44:
 509 020c 97000000 		call	_ZN4ListI3TCBE3addEPS0_
 509      E7800000 
 510              	.LVL45:
  64:src/semaphore.cpp ****     TCB::yield(oldRunning, TCB::running);
 511              		.loc 1 64 5 is_stmt 1
  64:src/semaphore.cpp ****     TCB::yield(oldRunning, TCB::running);
 512              		.loc 1 64 34 is_stmt 0
 513 0214 97000000 		call	_ZN9Scheduler3getEv@plt
 513      E7800000 
 514              	.LVL46:
 515 021c 93050500 		mv	a1,a0
  64:src/semaphore.cpp ****     TCB::yield(oldRunning, TCB::running);
 516              		.loc 1 64 18
 517 0220 2330A900 		sd	a0,0(s2)
  65:src/semaphore.cpp **** }
 518              		.loc 1 65 5 is_stmt 1
  65:src/semaphore.cpp **** }
 519              		.loc 1 65 15 is_stmt 0
 520 0224 13850400 		mv	a0,s1
 521 0228 97000000 		call	_ZN3TCB5yieldEPS_S0_@plt
 521      E7800000 
 522              	.LVL47:
  66:src/semaphore.cpp **** 
 523              		.loc 1 66 1
 524 0230 83308101 		ld	ra,24(sp)
 525              		.cfi_restore 1
 526 0234 03340101 		ld	s0,16(sp)
 527              		.cfi_restore 8
 528              		.cfi_def_cfa 2, 32
 529 0238 83348100 		ld	s1,8(sp)
 530              		.cfi_restore 9
 531              	.LVL48:
 532 023c 03390100 		ld	s2,0(sp)
 533              		.cfi_restore 18
 534 0240 13010102 		addi	sp,sp,32
 535              		.cfi_def_cfa_offset 0
 536 0244 67800000 		jr	ra
 537              		.cfi_endproc
 538              	.LFE39:
 540              		.align	2
 541              		.globl	_ZN3Sem4waitEPS_
 543              	_ZN3Sem4waitEPS_:
 544              	.LFB36:
  32:src/semaphore.cpp ****     if (!handle) return SEM_CLOSED;
 545              		.loc 1 32 29 is_stmt 1
 546              		.cfi_startproc
GAS LISTING /tmp/ccxHQ5Uc.s 			page 16


 547              	.LVL49:
  33:src/semaphore.cpp ****     if (--handle->value < 0) {
 548              		.loc 1 33 5
 549 0248 63060504 		beqz	a0,.L45
  34:src/semaphore.cpp **** 
 550              		.loc 1 34 5
  34:src/semaphore.cpp **** 
 551              		.loc 1 34 19 is_stmt 0
 552 024c 83270500 		lw	a5,0(a0)
  34:src/semaphore.cpp **** 
 553              		.loc 1 34 9
 554 0250 9B87F7FF 		addiw	a5,a5,-1
  34:src/semaphore.cpp **** 
 555              		.loc 1 34 25
 556 0254 2320F500 		sw	a5,0(a0)
  34:src/semaphore.cpp **** 
 557              		.loc 1 34 5
 558 0258 13970702 		slli	a4,a5,32
 559 025c 63460700 		bltz	a4,.L51
  41:src/semaphore.cpp **** }
 560              		.loc 1 41 12
 561 0260 13050000 		li	a0,0
 562              	.LVL50:
  42:src/semaphore.cpp **** 
 563              		.loc 1 42 1
 564 0264 67800000 		ret
 565              	.LVL51:
 566              	.L51:
  32:src/semaphore.cpp ****     if (!handle) return SEM_CLOSED;
 567              		.loc 1 32 29
 568 0268 130101FF 		addi	sp,sp,-16
 569              		.cfi_def_cfa_offset 16
 570 026c 23341100 		sd	ra,8(sp)
 571 0270 23308100 		sd	s0,0(sp)
 572              		.cfi_offset 1, -8
 573              		.cfi_offset 8, -16
 574 0274 13040101 		addi	s0,sp,16
 575              		.cfi_def_cfa 8, 0
  36:src/semaphore.cpp ****         if (handle == nullptr) return SEMDEAD;
 576              		.loc 1 36 9 is_stmt 1
  36:src/semaphore.cpp ****         if (handle == nullptr) return SEMDEAD;
 577              		.loc 1 36 22 is_stmt 0
 578 0278 97000000 		call	_ZN3Sem5blockEv
 578      E7800000 
 579              	.LVL52:
  37:src/semaphore.cpp ****         // sem deallocated while thread waiting
 580              		.loc 1 37 9 is_stmt 1
  41:src/semaphore.cpp **** }
 581              		.loc 1 41 12 is_stmt 0
 582 0280 13050000 		li	a0,0
  42:src/semaphore.cpp **** 
 583              		.loc 1 42 1
 584 0284 83308100 		ld	ra,8(sp)
 585              		.cfi_restore 1
 586 0288 03340100 		ld	s0,0(sp)
 587              		.cfi_restore 8
 588              		.cfi_def_cfa 2, 16
GAS LISTING /tmp/ccxHQ5Uc.s 			page 17


 589 028c 13010101 		addi	sp,sp,16
 590              		.cfi_def_cfa_offset 0
 591 0290 67800000 		jr	ra
 592              	.LVL53:
 593              	.L45:
  33:src/semaphore.cpp ****     if (--handle->value < 0) {
 594              		.loc 1 33 25
 595 0294 1305C0FF 		li	a0,-4
 596              	.LVL54:
 597 0298 67800000 		ret
 598              		.cfi_endproc
 599              	.LFE36:
 601              		.align	2
 602              		.globl	_ZN3Sem9timedwaitEPS_m
 604              	_ZN3Sem9timedwaitEPS_m:
 605              	.LFB41:
  79:src/semaphore.cpp **** 
 606              		.loc 1 79 47 is_stmt 1
 607              		.cfi_startproc
 608              	.LVL55:
  86:src/semaphore.cpp **** 
 609              		.loc 1 86 5
 610 029c 630C0508 		beqz	a0,.L54
  79:src/semaphore.cpp **** 
 611              		.loc 1 79 47 is_stmt 0
 612 02a0 130101FE 		addi	sp,sp,-32
 613              		.cfi_def_cfa_offset 32
 614 02a4 233C1100 		sd	ra,24(sp)
 615 02a8 23388100 		sd	s0,16(sp)
 616 02ac 23349100 		sd	s1,8(sp)
 617 02b0 23302101 		sd	s2,0(sp)
 618              		.cfi_offset 1, -8
 619              		.cfi_offset 8, -16
 620              		.cfi_offset 9, -24
 621              		.cfi_offset 18, -32
 622 02b4 13040102 		addi	s0,sp,32
 623              		.cfi_def_cfa 8, 0
 624 02b8 93040500 		mv	s1,a0
  88:src/semaphore.cpp **** 
 625              		.loc 1 88 5 is_stmt 1
  88:src/semaphore.cpp **** 
 626              		.loc 1 88 20 is_stmt 0
 627 02bc 83270500 		lw	a5,0(a0)
  88:src/semaphore.cpp **** 
 628              		.loc 1 88 9
 629 02c0 9B87F7FF 		addiw	a5,a5,-1
  88:src/semaphore.cpp **** 
 630              		.loc 1 88 27
 631 02c4 2320F500 		sw	a5,0(a0)
  88:src/semaphore.cpp **** 
 632              		.loc 1 88 5
 633 02c8 13970702 		slli	a4,a5,32
 634 02cc 63400702 		bltz	a4,.L61
 105:src/semaphore.cpp **** }
 635              		.loc 1 105 12
 636 02d0 13050000 		li	a0,0
 637              	.LVL56:
GAS LISTING /tmp/ccxHQ5Uc.s 			page 18


 638              	.L53:
 106:src/semaphore.cpp **** 
 639              		.loc 1 106 1
 640 02d4 83308101 		ld	ra,24(sp)
 641              		.cfi_remember_state
 642              		.cfi_restore 1
 643 02d8 03340101 		ld	s0,16(sp)
 644              		.cfi_restore 8
 645              		.cfi_def_cfa 2, 32
 646 02dc 83348100 		ld	s1,8(sp)
 647              		.cfi_restore 9
 648              	.LVL57:
 649 02e0 03390100 		ld	s2,0(sp)
 650              		.cfi_restore 18
 651 02e4 13010102 		addi	sp,sp,32
 652              		.cfi_def_cfa_offset 0
 653 02e8 67800000 		jr	ra
 654              	.LVL58:
 655              	.L61:
 656              		.cfi_restore_state
  90:src/semaphore.cpp ****         handle->timedBlock++;
 657              		.loc 1 90 9 is_stmt 1
  90:src/semaphore.cpp ****         handle->timedBlock++;
 658              		.loc 1 90 23 is_stmt 0
 659 02ec 17090000 		la	s2,_ZN3TCB7runningE
 659      03390900 
 660 02f4 83370900 		ld	a5,0(s2)
  90:src/semaphore.cpp ****         handle->timedBlock++;
 661              		.loc 1 90 35
 662 02f8 23BCB700 		sd	a1,24(a5)
  91:src/semaphore.cpp **** 
 663              		.loc 1 91 9 is_stmt 1
  91:src/semaphore.cpp **** 
 664              		.loc 1 91 17 is_stmt 0
 665 02fc 83278502 		lw	a5,40(a0)
  91:src/semaphore.cpp **** 
 666              		.loc 1 91 27
 667 0300 9B871700 		addiw	a5,a5,1
 668 0304 2324F502 		sw	a5,40(a0)
  93:src/semaphore.cpp **** 
 669              		.loc 1 93 9 is_stmt 1
  93:src/semaphore.cpp **** 
 670              		.loc 1 93 22 is_stmt 0
 671 0308 97000000 		call	_ZN3Sem5blockEv
 671      E7800000 
 672              	.LVL59:
  97:src/semaphore.cpp **** 
 673              		.loc 1 97 9 is_stmt 1
  99:src/semaphore.cpp ****         // time on sem < 0 if timeout
 674              		.loc 1 99 9
  99:src/semaphore.cpp ****         // time on sem < 0 if timeout
 675              		.loc 1 99 17 is_stmt 0
 676 0310 83A78402 		lw	a5,40(s1)
  99:src/semaphore.cpp ****         // time on sem < 0 if timeout
 677              		.loc 1 99 27
 678 0314 9B87F7FF 		addiw	a5,a5,-1
 679 0318 23A4F402 		sw	a5,40(s1)
GAS LISTING /tmp/ccxHQ5Uc.s 			page 19


 101:src/semaphore.cpp ****         else TCB::running->time_on_sem = 0;
 680              		.loc 1 101 9 is_stmt 1
 101:src/semaphore.cpp ****         else TCB::running->time_on_sem = 0;
 681              		.loc 1 101 28 is_stmt 0
 682 031c 83370900 		ld	a5,0(s2)
 683 0320 03B78701 		ld	a4,24(a5)
 101:src/semaphore.cpp ****         else TCB::running->time_on_sem = 0;
 684              		.loc 1 101 9
 685 0324 630C0700 		beqz	a4,.L56
 102:src/semaphore.cpp ****     }
 686              		.loc 1 102 14 is_stmt 1
 102:src/semaphore.cpp ****     }
 687              		.loc 1 102 40 is_stmt 0
 688 0328 23BC0700 		sd	zero,24(a5)
 105:src/semaphore.cpp **** }
 689              		.loc 1 105 12
 690 032c 13050000 		li	a0,0
 691 0330 6FF05FFA 		j	.L53
 692              	.LVL60:
 693              	.L54:
 694              		.cfi_def_cfa_register 2
 695              		.cfi_restore 1
 696              		.cfi_restore 8
 697              		.cfi_restore 9
 698              		.cfi_restore 18
  86:src/semaphore.cpp **** 
 699              		.loc 1 86 25
 700 0334 1305C0FF 		li	a0,-4
 701              	.LVL61:
 106:src/semaphore.cpp **** 
 702              		.loc 1 106 1
 703 0338 67800000 		ret
 704              	.LVL62:
 705              	.L56:
 706              		.cfi_def_cfa_register 8
 707              		.cfi_offset 1, -8
 708              		.cfi_offset 8, -16
 709              		.cfi_offset 9, -24
 710              		.cfi_offset 18, -32
 101:src/semaphore.cpp ****         else TCB::running->time_on_sem = 0;
 711              		.loc 1 101 48
 712 033c 1305E0FF 		li	a0,-2
 713 0340 6FF05FF9 		j	.L53
 714              		.cfi_endproc
 715              	.LFE41:
 717              		.section	.text._ZN4ListI3TCBE3getEv,"axG",@progbits,_ZN4ListI3TCBE3getEv,comdat
 718              		.align	2
 719              		.weak	_ZN4ListI3TCBE3getEv
 721              	_ZN4ListI3TCBE3getEv:
 722              	.LFB52:
  56:src/../h/List.hpp **** 
 723              		.loc 3 56 4 is_stmt 1
 724              		.cfi_startproc
 725              	.LVL63:
 726 0000 130101FE 		addi	sp,sp,-32
 727              		.cfi_def_cfa_offset 32
 728 0004 233C1100 		sd	ra,24(sp)
GAS LISTING /tmp/ccxHQ5Uc.s 			page 20


 729 0008 23388100 		sd	s0,16(sp)
 730 000c 23349100 		sd	s1,8(sp)
 731 0010 23302101 		sd	s2,0(sp)
 732              		.cfi_offset 1, -8
 733              		.cfi_offset 8, -16
 734              		.cfi_offset 9, -24
 735              		.cfi_offset 18, -32
 736 0014 13040102 		addi	s0,sp,32
 737              		.cfi_def_cfa 8, 0
 738 0018 93040500 		mv	s1,a0
  58:src/../h/List.hpp **** 
 739              		.loc 3 58 10 is_stmt 0
 740 001c 03350500 		ld	a0,0(a0)
 741              	.LVL64:
  58:src/../h/List.hpp **** 
 742              		.loc 3 58 5
 743 0020 63060504 		beqz	a0,.L65
  60:src/../h/List.hpp ****     Elem* oldHead = head;
 744              		.loc 3 60 8
 745 0024 03390500 		ld	s2,0(a0)
 746              	.LVL65:
  62:src/../h/List.hpp **** 
 747              		.loc 3 62 20
 748 0028 83378500 		ld	a5,8(a0)
  62:src/../h/List.hpp **** 
 749              		.loc 3 62 5
 750 002c 23B0F400 		sd	a5,0(s1)
  64:src/../h/List.hpp **** 
 751              		.loc 3 64 5
 752 0030 638A0702 		beqz	a5,.L67
 753              	.L64:
  66:src/../h/List.hpp ****     count--;
 754              		.loc 3 66 5
 755 0034 97000000 		call	_ZdlPv@plt
 755      E7800000 
 756              	.LVL66:
  67:src/../h/List.hpp ****     return t;
 757              		.loc 3 67 5
 758 003c 83A70401 		lw	a5,16(s1)
 759 0040 9B87F7FF 		addiw	a5,a5,-1
 760 0044 23A8F400 		sw	a5,16(s1)
 761              	.LVL67:
 762              	.L62:
  69:src/../h/List.hpp **** 
 763              		.loc 3 69 1
 764 0048 13050900 		mv	a0,s2
 765 004c 83308101 		ld	ra,24(sp)
 766              		.cfi_remember_state
 767              		.cfi_restore 1
 768 0050 03340101 		ld	s0,16(sp)
 769              		.cfi_restore 8
 770              		.cfi_def_cfa 2, 32
 771 0054 83348100 		ld	s1,8(sp)
 772              		.cfi_restore 9
 773              	.LVL68:
 774 0058 03390100 		ld	s2,0(sp)
 775              		.cfi_restore 18
GAS LISTING /tmp/ccxHQ5Uc.s 			page 21


 776 005c 13010102 		addi	sp,sp,32
 777              		.cfi_def_cfa_offset 0
 778 0060 67800000 		jr	ra
 779              	.LVL69:
 780              	.L67:
 781              		.cfi_restore_state
  64:src/../h/List.hpp **** 
 782              		.loc 3 64 16 discriminator 1
 783 0064 23B40400 		sd	zero,8(s1)
 784 0068 6FF0DFFC 		j	.L64
 785              	.LVL70:
 786              	.L65:
  58:src/../h/List.hpp **** 
 787              		.loc 3 58 23
 788 006c 13090500 		mv	s2,a0
 789 0070 6FF09FFD 		j	.L62
 790              		.cfi_endproc
 791              	.LFE52:
 793              		.text
 794              		.align	2
 795              		.globl	_ZN3Sem7deblockEv
 797              	_ZN3Sem7deblockEv:
 798              	.LFB40:
  68:src/semaphore.cpp **** 
 799              		.loc 1 68 21 is_stmt 1
 800              		.cfi_startproc
 801              	.LVL71:
 802 0344 130101FF 		addi	sp,sp,-16
 803              		.cfi_def_cfa_offset 16
 804 0348 23341100 		sd	ra,8(sp)
 805 034c 23308100 		sd	s0,0(sp)
 806              		.cfi_offset 1, -8
 807              		.cfi_offset 8, -16
 808 0350 13040101 		addi	s0,sp,16
 809              		.cfi_def_cfa 8, 0
  70:src/semaphore.cpp **** 
 810              		.loc 1 70 5
  70:src/semaphore.cpp **** 
 811              		.loc 1 70 27 is_stmt 0
 812 0354 13050501 		addi	a0,a0,16
 813              	.LVL72:
 814 0358 97000000 		call	_ZN4ListI3TCBE3getEv
 814      E7800000 
 815              	.LVL73:
  72:src/semaphore.cpp **** 
 816              		.loc 1 72 5 is_stmt 1
 817 0360 63080500 		beqz	a0,.L68
  74:src/semaphore.cpp ****     Scheduler::put(tcb);
 818              		.loc 1 74 5
  74:src/semaphore.cpp ****     Scheduler::put(tcb);
 819              		.loc 1 74 24 is_stmt 0
 820 0364 23240506 		sw	zero,104(a0)
  75:src/semaphore.cpp **** 
 821              		.loc 1 75 5 is_stmt 1
  75:src/semaphore.cpp **** 
 822              		.loc 1 75 19 is_stmt 0
 823 0368 97000000 		call	_ZN9Scheduler3putEP3TCB@plt
GAS LISTING /tmp/ccxHQ5Uc.s 			page 22


 823      E7800000 
 824              	.LVL74:
 825              	.L68:
  77:src/semaphore.cpp **** 
 826              		.loc 1 77 1
 827 0370 83308100 		ld	ra,8(sp)
 828              		.cfi_restore 1
 829 0374 03340100 		ld	s0,0(sp)
 830              		.cfi_restore 8
 831              		.cfi_def_cfa 2, 16
 832 0378 13010101 		addi	sp,sp,16
 833              		.cfi_def_cfa_offset 0
 834 037c 67800000 		jr	ra
 835              		.cfi_endproc
 836              	.LFE40:
 838              		.align	2
 839              		.globl	_ZN3Sem7s_closeEPS_
 841              	_ZN3Sem7s_closeEPS_:
 842              	.LFB35:
  18:src/semaphore.cpp **** 
 843              		.loc 1 18 32 is_stmt 1
 844              		.cfi_startproc
 845              	.LVL75:
  20:src/semaphore.cpp **** 
 846              		.loc 1 20 5
 847 0380 63040506 		beqz	a0,.L75
  18:src/semaphore.cpp **** 
 848              		.loc 1 18 32 is_stmt 0
 849 0384 130101FE 		addi	sp,sp,-32
 850              		.cfi_def_cfa_offset 32
 851 0388 233C1100 		sd	ra,24(sp)
 852 038c 23388100 		sd	s0,16(sp)
 853 0390 23349100 		sd	s1,8(sp)
 854              		.cfi_offset 1, -8
 855              		.cfi_offset 8, -16
 856              		.cfi_offset 9, -24
 857 0394 13040102 		addi	s0,sp,32
 858              		.cfi_def_cfa 8, 0
 859 0398 93040500 		mv	s1,a0
  22:src/semaphore.cpp **** 
 860              		.loc 1 22 5 is_stmt 1
  22:src/semaphore.cpp **** 
 861              		.loc 1 22 15 is_stmt 0
 862 039c 97000000 		call	_ZN3Sem10sem_removeEPS_
 862      E7800000 
 863              	.LVL76:
 864              	.L74:
  24:src/semaphore.cpp ****         handle->deblock();
 865              		.loc 1 24 5 is_stmt 1
  24:src/semaphore.cpp ****         handle->deblock();
 866              		.loc 1 24 33
  24:src/semaphore.cpp ****         handle->deblock();
 867              		.loc 1 24 32 is_stmt 0
 868 03a4 13850401 		addi	a0,s1,16
 869 03a8 97000000 		call	_ZN4ListI3TCBE4peekEv
 869      E7800000 
 870              	.LVL77:
GAS LISTING /tmp/ccxHQ5Uc.s 			page 23


  24:src/semaphore.cpp ****         handle->deblock();
 871              		.loc 1 24 33
 872 03b0 630A0500 		beqz	a0,.L73
  25:src/semaphore.cpp ****     }
 873              		.loc 1 25 9 is_stmt 1
  25:src/semaphore.cpp ****     }
 874              		.loc 1 25 24 is_stmt 0
 875 03b4 13850400 		mv	a0,s1
 876 03b8 97000000 		call	_ZN3Sem7deblockEv
 876      E7800000 
 877              	.LVL78:
  24:src/semaphore.cpp ****         handle->deblock();
 878              		.loc 1 24 5
 879 03c0 6FF05FFE 		j	.L74
 880              	.L73:
  28:src/semaphore.cpp ****     return 0;
 881              		.loc 1 28 5 is_stmt 1 discriminator 1
  28:src/semaphore.cpp ****     return 0;
 882              		.loc 1 28 12 is_stmt 0 discriminator 1
 883 03c4 13850400 		mv	a0,s1
 884 03c8 97000000 		call	_ZN3SemdlEPv
 884      E7800000 
 885              	.LVL79:
  29:src/semaphore.cpp **** }
 886              		.loc 1 29 5 is_stmt 1 discriminator 1
  29:src/semaphore.cpp **** }
 887              		.loc 1 29 12 is_stmt 0 discriminator 1
 888 03d0 13050000 		li	a0,0
  30:src/semaphore.cpp **** 
 889              		.loc 1 30 1 discriminator 1
 890 03d4 83308101 		ld	ra,24(sp)
 891              		.cfi_restore 1
 892 03d8 03340101 		ld	s0,16(sp)
 893              		.cfi_restore 8
 894              		.cfi_def_cfa 2, 32
 895 03dc 83348100 		ld	s1,8(sp)
 896              		.cfi_restore 9
 897              	.LVL80:
 898 03e0 13010102 		addi	sp,sp,32
 899              		.cfi_def_cfa_offset 0
 900 03e4 67800000 		jr	ra
 901              	.LVL81:
 902              	.L75:
  20:src/semaphore.cpp **** 
 903              		.loc 1 20 26
 904 03e8 1305F0FF 		li	a0,-1
 905              	.LVL82:
  30:src/semaphore.cpp **** 
 906              		.loc 1 30 1
 907 03ec 67800000 		ret
 908              		.cfi_endproc
 909              	.LFE35:
 911              		.align	2
 912              		.globl	_ZN3Sem6signalEPS_
 914              	_ZN3Sem6signalEPS_:
 915              	.LFB37:
  44:src/semaphore.cpp ****     if (!handle) return SEM_CLOSED;
GAS LISTING /tmp/ccxHQ5Uc.s 			page 24


 916              		.loc 1 44 31 is_stmt 1
 917              		.cfi_startproc
 918              	.LVL83:
  45:src/semaphore.cpp ****     if (++handle->value<= 0) handle->deblock();
 919              		.loc 1 45 5
 920 03f0 63060504 		beqz	a0,.L82
  46:src/semaphore.cpp ****     return 0;
 921              		.loc 1 46 5
  46:src/semaphore.cpp ****     return 0;
 922              		.loc 1 46 19 is_stmt 0
 923 03f4 83270500 		lw	a5,0(a0)
  46:src/semaphore.cpp ****     return 0;
 924              		.loc 1 46 9
 925 03f8 9B871700 		addiw	a5,a5,1
 926 03fc 1B870700 		sext.w	a4,a5
  46:src/semaphore.cpp ****     return 0;
 927              		.loc 1 46 24
 928 0400 2320F500 		sw	a5,0(a0)
  46:src/semaphore.cpp ****     return 0;
 929              		.loc 1 46 5
 930 0404 6356E000 		blez	a4,.L88
  47:src/semaphore.cpp **** }
 931              		.loc 1 47 12
 932 0408 13050000 		li	a0,0
 933              	.LVL84:
  48:src/semaphore.cpp **** 
 934              		.loc 1 48 1
 935 040c 67800000 		ret
 936              	.LVL85:
 937              	.L88:
  44:src/semaphore.cpp ****     if (!handle) return SEM_CLOSED;
 938              		.loc 1 44 31 discriminator 1
 939 0410 130101FF 		addi	sp,sp,-16
 940              		.cfi_def_cfa_offset 16
 941 0414 23341100 		sd	ra,8(sp)
 942 0418 23308100 		sd	s0,0(sp)
 943              		.cfi_offset 1, -8
 944              		.cfi_offset 8, -16
 945 041c 13040101 		addi	s0,sp,16
 946              		.cfi_def_cfa 8, 0
  46:src/semaphore.cpp ****     return 0;
 947              		.loc 1 46 30 is_stmt 1 discriminator 1
  46:src/semaphore.cpp ****     return 0;
 948              		.loc 1 46 45 is_stmt 0 discriminator 1
 949 0420 97000000 		call	_ZN3Sem7deblockEv
 949      E7800000 
 950              	.LVL86:
  47:src/semaphore.cpp **** }
 951              		.loc 1 47 12 discriminator 1
 952 0428 13050000 		li	a0,0
  48:src/semaphore.cpp **** 
 953              		.loc 1 48 1 discriminator 1
 954 042c 83308100 		ld	ra,8(sp)
 955              		.cfi_restore 1
 956 0430 03340100 		ld	s0,0(sp)
 957              		.cfi_restore 8
 958              		.cfi_def_cfa 2, 16
GAS LISTING /tmp/ccxHQ5Uc.s 			page 25


 959 0434 13010101 		addi	sp,sp,16
 960              		.cfi_def_cfa_offset 0
 961 0438 67800000 		jr	ra
 962              	.LVL87:
 963              	.L82:
  45:src/semaphore.cpp ****     if (++handle->value<= 0) handle->deblock();
 964              		.loc 1 45 25
 965 043c 1305C0FF 		li	a0,-4
 966              	.LVL88:
 967 0440 67800000 		ret
 968              		.cfi_endproc
 969              	.LFE37:
 971              		.globl	_ZN3Sem4lastE
 972              		.globl	_ZN3Sem5firstE
 973              		.bss
 974              		.align	3
 975              		.set	.LANCHOR0,. + 0
 978              	_ZN3Sem5firstE:
 979 0000 00000000 		.zero	8
 979      00000000 
 982              	_ZN3Sem4lastE:
 983 0008 00000000 		.zero	8
 983      00000000 
 984              		.text
 985              	.Letext0:
 986              		.file 4 "src/../h/../lib/hw.h"
 987              		.file 5 "src/../h/../h/Memoryallocator.hpp"
 988              		.file 6 "src/../h/thread.hpp"
 989              		.file 7 "src/../h/../h/syscall_c.hpp"
 990              		.file 8 "src/../h/Scheduler.hpp"
GAS LISTING /tmp/ccxHQ5Uc.s 			page 26


DEFINED SYMBOLS
                            *ABS*:0000000000000000 semaphore.cpp
     /tmp/ccxHQ5Uc.s:9      .text:0000000000000000 _ZN3Sem7trywaitEPS_
     /tmp/ccxHQ5Uc.s:13     .text:0000000000000000 .L0 
     /tmp/ccxHQ5Uc.s:15     .text:0000000000000000 .L0 
     /tmp/ccxHQ5Uc.s:16     .text:0000000000000000 .L0 
     /tmp/ccxHQ5Uc.s:18     .text:0000000000000004 .L0 
     /tmp/ccxHQ5Uc.s:19     .text:0000000000000004 .L0 
     /tmp/ccxHQ5Uc.s:21     .text:0000000000000008 .L0 
     /tmp/ccxHQ5Uc.s:23     .text:000000000000000c .L0 
     /tmp/ccxHQ5Uc.s:26     .text:0000000000000010 .L0 
     /tmp/ccxHQ5Uc.s:30     .text:0000000000000014 .L0 
     /tmp/ccxHQ5Uc.s:31     .text:0000000000000018 .L0 
     /tmp/ccxHQ5Uc.s:34     .text:0000000000000020 .L0 
     /tmp/ccxHQ5Uc.s:35     .text:0000000000000020 .L0 
     /tmp/ccxHQ5Uc.s:37     .text:0000000000000024 .L0 
     /tmp/ccxHQ5Uc.s:39     .text:0000000000000024 .L0 
     /tmp/ccxHQ5Uc.s:40     .text:0000000000000024 .L0 
     /tmp/ccxHQ5Uc.s:43     .text:000000000000002c .L0 
     /tmp/ccxHQ5Uc.s:44     .text:0000000000000030 .L0 
     /tmp/ccxHQ5Uc.s:46     .text:0000000000000034 .L0 
     /tmp/ccxHQ5Uc.s:47     .text:0000000000000034 .L0 
     /tmp/ccxHQ5Uc.s:49     .text:0000000000000038 .L0 
     /tmp/ccxHQ5Uc.s:54     .text:000000000000003c .L0 
     /tmp/ccxHQ5Uc.s:57     .text:0000000000000044 .L0 
     /tmp/ccxHQ5Uc.s:63     .text:0000000000000044 _ZN3SemdlEPv
     /tmp/ccxHQ5Uc.s:66     .text:0000000000000044 .L0 
     /tmp/ccxHQ5Uc.s:68     .text:0000000000000044 .L0 
     /tmp/ccxHQ5Uc.s:69     .text:0000000000000048 .L0 
     /tmp/ccxHQ5Uc.s:72     .text:0000000000000050 .L0 
     /tmp/ccxHQ5Uc.s:73     .text:0000000000000050 .L0 
     /tmp/ccxHQ5Uc.s:75     .text:0000000000000054 .L0 
     /tmp/ccxHQ5Uc.s:77     .text:0000000000000054 .L0 
     /tmp/ccxHQ5Uc.s:78     .text:0000000000000054 .L0 
     /tmp/ccxHQ5Uc.s:81     .text:000000000000005c .L0 
     /tmp/ccxHQ5Uc.s:82     .text:0000000000000060 .L0 
     /tmp/ccxHQ5Uc.s:84     .text:0000000000000064 .L0 
     /tmp/ccxHQ5Uc.s:85     .text:0000000000000064 .L0 
     /tmp/ccxHQ5Uc.s:87     .text:0000000000000068 .L0 
     /tmp/ccxHQ5Uc.s:89     .text:000000000000006c .L0 
     /tmp/ccxHQ5Uc.s:95     .text:000000000000006c _ZN3SemnwEm
     /tmp/ccxHQ5Uc.s:98     .text:000000000000006c .L0 
     /tmp/ccxHQ5Uc.s:100    .text:000000000000006c .L0 
     /tmp/ccxHQ5Uc.s:101    .text:0000000000000070 .L0 
     /tmp/ccxHQ5Uc.s:104    .text:0000000000000078 .L0 
     /tmp/ccxHQ5Uc.s:105    .text:0000000000000078 .L0 
     /tmp/ccxHQ5Uc.s:107    .text:000000000000007c .L0 
     /tmp/ccxHQ5Uc.s:109    .text:000000000000007c .L0 
     /tmp/ccxHQ5Uc.s:110    .text:000000000000007c .L0 
     /tmp/ccxHQ5Uc.s:113    .text:0000000000000080 .L0 
     /tmp/ccxHQ5Uc.s:118    .text:000000000000008c .L0 
     /tmp/ccxHQ5Uc.s:119    .text:0000000000000090 .L0 
     /tmp/ccxHQ5Uc.s:121    .text:0000000000000094 .L0 
     /tmp/ccxHQ5Uc.s:122    .text:0000000000000094 .L0 
     /tmp/ccxHQ5Uc.s:124    .text:0000000000000098 .L0 
     /tmp/ccxHQ5Uc.s:126    .text:000000000000009c .L0 
     /tmp/ccxHQ5Uc.s:132    .text:000000000000009c _ZNK3Sem9get_valueEv
GAS LISTING /tmp/ccxHQ5Uc.s 			page 27


     /tmp/ccxHQ5Uc.s:135    .text:000000000000009c .L0 
     /tmp/ccxHQ5Uc.s:137    .text:000000000000009c .L0 
     /tmp/ccxHQ5Uc.s:138    .text:00000000000000a0 .L0 
     /tmp/ccxHQ5Uc.s:140    .text:00000000000000a4 .L0 
     /tmp/ccxHQ5Uc.s:142    .text:00000000000000a8 .L0 
     /tmp/ccxHQ5Uc.s:144    .text:00000000000000a8 .L0 
     /tmp/ccxHQ5Uc.s:145    .text:00000000000000a8 .L0 
     /tmp/ccxHQ5Uc.s:148    .text:00000000000000b0 .L0 
     /tmp/ccxHQ5Uc.s:149    .text:00000000000000b0 .L0 
     /tmp/ccxHQ5Uc.s:151    .text:00000000000000b4 .L0 
     /tmp/ccxHQ5Uc.s:153    .text:00000000000000b8 .L0 
     /tmp/ccxHQ5Uc.s:159    .text:00000000000000b8 _ZN3Sem7sem_addEPS_
     /tmp/ccxHQ5Uc.s:162    .text:00000000000000b8 .L0 
     /tmp/ccxHQ5Uc.s:164    .text:00000000000000b8 .L0 
     /tmp/ccxHQ5Uc.s:165    .text:00000000000000bc .L0 
     /tmp/ccxHQ5Uc.s:167    .text:00000000000000c0 .L0 
     /tmp/ccxHQ5Uc.s:169    .text:00000000000000c4 .L0 
     /tmp/ccxHQ5Uc.s:171    .text:00000000000000c4 .L0 
     /tmp/ccxHQ5Uc.s:172    .text:00000000000000c4 .L0 
     /tmp/ccxHQ5Uc.s:174    .text:00000000000000cc .L0 
     /tmp/ccxHQ5Uc.s:176    .text:00000000000000d0 .L0 
     /tmp/ccxHQ5Uc.s:177    .text:00000000000000d0 .L0 
     /tmp/ccxHQ5Uc.s:180    .text:00000000000000dc .L0 
     /tmp/ccxHQ5Uc.s:182    .text:00000000000000e0 .L0 
     /tmp/ccxHQ5Uc.s:185    .text:00000000000000e4 .L0 
     /tmp/ccxHQ5Uc.s:186    .text:00000000000000e8 .L0 
     /tmp/ccxHQ5Uc.s:187    .text:00000000000000e8 .L0 
     /tmp/ccxHQ5Uc.s:188    .text:00000000000000e8 .L0 
     /tmp/ccxHQ5Uc.s:190    .text:00000000000000ec .L0 
     /tmp/ccxHQ5Uc.s:193    .text:00000000000000f0 .L0 
     /tmp/ccxHQ5Uc.s:195    .text:00000000000000f0 .L0 
     /tmp/ccxHQ5Uc.s:196    .text:00000000000000f0 .L0 
     /tmp/ccxHQ5Uc.s:199    .text:00000000000000fc .L0 
     /tmp/ccxHQ5Uc.s:201    .text:0000000000000104 .L0 
     /tmp/ccxHQ5Uc.s:207    .text:0000000000000104 _ZN3Sem4openEPPS_j
     /tmp/ccxHQ5Uc.s:210    .text:0000000000000104 .L0 
     /tmp/ccxHQ5Uc.s:212    .text:0000000000000104 .L0 
     /tmp/ccxHQ5Uc.s:213    .text:0000000000000108 .L0 
     /tmp/ccxHQ5Uc.s:218    .text:0000000000000118 .L0 
     /tmp/ccxHQ5Uc.s:219    .text:0000000000000118 .L0 
     /tmp/ccxHQ5Uc.s:220    .text:0000000000000118 .L0 
     /tmp/ccxHQ5Uc.s:221    .text:0000000000000118 .L0 
     /tmp/ccxHQ5Uc.s:223    .text:000000000000011c .L0 
     /tmp/ccxHQ5Uc.s:227    .text:0000000000000124 .L0 
     /tmp/ccxHQ5Uc.s:228    .text:0000000000000124 .L0 
     /tmp/ccxHQ5Uc.s:236    .text:0000000000000130 .L0 
     /tmp/ccxHQ5Uc.s:243    .text:0000000000000138 .L0 
     /tmp/ccxHQ5Uc.s:250    .text:0000000000000144 .L0 
     /tmp/ccxHQ5Uc.s:255    .text:0000000000000148 .L0 
     /tmp/ccxHQ5Uc.s:257    .text:000000000000014c .L0 
     /tmp/ccxHQ5Uc.s:259    .text:0000000000000150 .L0 
     /tmp/ccxHQ5Uc.s:260    .text:0000000000000150 .L0 
     /tmp/ccxHQ5Uc.s:263    .text:0000000000000158 .L0 
     /tmp/ccxHQ5Uc.s:264    .text:0000000000000158 .L0 
     /tmp/ccxHQ5Uc.s:267    .text:000000000000015c .L0 
     /tmp/ccxHQ5Uc.s:268    .text:0000000000000160 .L0 
     /tmp/ccxHQ5Uc.s:269    .text:0000000000000160 .L0 
GAS LISTING /tmp/ccxHQ5Uc.s 			page 28


     /tmp/ccxHQ5Uc.s:271    .text:0000000000000164 .L0 
     /tmp/ccxHQ5Uc.s:272    .text:0000000000000164 .L0 
     /tmp/ccxHQ5Uc.s:274    .text:0000000000000168 .L0 
     /tmp/ccxHQ5Uc.s:277    .text:000000000000016c .L0 
     /tmp/ccxHQ5Uc.s:279    .text:0000000000000170 .L0 
     /tmp/ccxHQ5Uc.s:283    .text:0000000000000174 .L0 
     /tmp/ccxHQ5Uc.s:285    .text:0000000000000174 .L0 
     /tmp/ccxHQ5Uc.s:287    .text:000000000000017c .L0 
     /tmp/ccxHQ5Uc.s:293    .text:000000000000017c _ZN3Sem10sem_removeEPS_
     /tmp/ccxHQ5Uc.s:296    .text:000000000000017c .L0 
     /tmp/ccxHQ5Uc.s:298    .text:000000000000017c .L0 
     /tmp/ccxHQ5Uc.s:299    .text:0000000000000180 .L0 
     /tmp/ccxHQ5Uc.s:301    .text:0000000000000184 .L0 
     /tmp/ccxHQ5Uc.s:303    .text:0000000000000188 .L0 
     /tmp/ccxHQ5Uc.s:306    .text:0000000000000188 .L0 
     /tmp/ccxHQ5Uc.s:307    .text:0000000000000188 .L0 
     /tmp/ccxHQ5Uc.s:308    .text:0000000000000188 .L0 
     /tmp/ccxHQ5Uc.s:311    .text:0000000000000190 .L0 
     /tmp/ccxHQ5Uc.s:315    .text:0000000000000194 .L0 
     /tmp/ccxHQ5Uc.s:317    .text:0000000000000198 .L0 
     /tmp/ccxHQ5Uc.s:320    .text:000000000000019c .L0 
     /tmp/ccxHQ5Uc.s:321    .text:000000000000019c .L0 
     /tmp/ccxHQ5Uc.s:322    .text:000000000000019c .L0 
     /tmp/ccxHQ5Uc.s:324    .text:00000000000001a0 .L0 
     /tmp/ccxHQ5Uc.s:327    .text:00000000000001a4 .L0 
     /tmp/ccxHQ5Uc.s:330    .text:00000000000001a8 .L0 
     /tmp/ccxHQ5Uc.s:332    .text:00000000000001ac .L0 
     /tmp/ccxHQ5Uc.s:333    .text:00000000000001ac .L0 
     /tmp/ccxHQ5Uc.s:335    .text:00000000000001b0 .L0 
     /tmp/ccxHQ5Uc.s:339    .text:00000000000001b4 .L0 
     /tmp/ccxHQ5Uc.s:340    .text:00000000000001b4 .L0 
     /tmp/ccxHQ5Uc.s:343    .text:00000000000001b8 .L0 
     /tmp/ccxHQ5Uc.s:344    .text:00000000000001b8 .L0 
     /tmp/ccxHQ5Uc.s:345    .text:00000000000001bc .L0 
     /tmp/ccxHQ5Uc.s:346    .text:00000000000001bc .L0 
     /tmp/ccxHQ5Uc.s:347    .text:00000000000001bc .L0 
     /tmp/ccxHQ5Uc.s:349    .text:00000000000001c0 .L0 
     /tmp/ccxHQ5Uc.s:353    .text:00000000000001c4 .L0 
     /tmp/ccxHQ5Uc.s:355    .text:00000000000001c4 .L0 
     /tmp/ccxHQ5Uc.s:356    .text:00000000000001c4 .L0 
     /tmp/ccxHQ5Uc.s:360    .text:00000000000001d0 .L0 
     /tmp/ccxHQ5Uc.s:362    .text:00000000000001d8 .L0 
     /tmp/ccxHQ5Uc.s:369    .text._ZN4ListI3TCBE4peekEv:0000000000000000 _ZN4ListI3TCBE4peekEv
     /tmp/ccxHQ5Uc.s:372    .text._ZN4ListI3TCBE4peekEv:0000000000000000 .L0 
     /tmp/ccxHQ5Uc.s:374    .text._ZN4ListI3TCBE4peekEv:0000000000000000 .L0 
     /tmp/ccxHQ5Uc.s:375    .text._ZN4ListI3TCBE4peekEv:0000000000000004 .L0 
     /tmp/ccxHQ5Uc.s:377    .text._ZN4ListI3TCBE4peekEv:0000000000000008 .L0 
     /tmp/ccxHQ5Uc.s:379    .text._ZN4ListI3TCBE4peekEv:000000000000000c .L0 
     /tmp/ccxHQ5Uc.s:381    .text._ZN4ListI3TCBE4peekEv:000000000000000c .L0 
     /tmp/ccxHQ5Uc.s:384    .text._ZN4ListI3TCBE4peekEv:0000000000000010 .L0 
     /tmp/ccxHQ5Uc.s:386    .text._ZN4ListI3TCBE4peekEv:0000000000000014 .L0 
     /tmp/ccxHQ5Uc.s:389    .text._ZN4ListI3TCBE4peekEv:0000000000000018 .L0 
     /tmp/ccxHQ5Uc.s:390    .text._ZN4ListI3TCBE4peekEv:000000000000001c .L0 
     /tmp/ccxHQ5Uc.s:391    .text._ZN4ListI3TCBE4peekEv:000000000000001c .L0 
     /tmp/ccxHQ5Uc.s:393    .text._ZN4ListI3TCBE4peekEv:0000000000000020 .L0 
     /tmp/ccxHQ5Uc.s:395    .text._ZN4ListI3TCBE4peekEv:0000000000000024 .L0 
     /tmp/ccxHQ5Uc.s:402    .text._ZN4ListI3TCBE3addEPS0_:0000000000000000 _ZN4ListI3TCBE3addEPS0_
GAS LISTING /tmp/ccxHQ5Uc.s 			page 29


     /tmp/ccxHQ5Uc.s:405    .text._ZN4ListI3TCBE3addEPS0_:0000000000000000 .L0 
     /tmp/ccxHQ5Uc.s:407    .text._ZN4ListI3TCBE3addEPS0_:0000000000000000 .L0 
     /tmp/ccxHQ5Uc.s:408    .text._ZN4ListI3TCBE3addEPS0_:0000000000000004 .L0 
     /tmp/ccxHQ5Uc.s:413    .text._ZN4ListI3TCBE3addEPS0_:0000000000000014 .L0 
     /tmp/ccxHQ5Uc.s:414    .text._ZN4ListI3TCBE3addEPS0_:0000000000000014 .L0 
     /tmp/ccxHQ5Uc.s:415    .text._ZN4ListI3TCBE3addEPS0_:0000000000000014 .L0 
     /tmp/ccxHQ5Uc.s:416    .text._ZN4ListI3TCBE3addEPS0_:0000000000000014 .L0 
     /tmp/ccxHQ5Uc.s:418    .text._ZN4ListI3TCBE3addEPS0_:0000000000000018 .L0 
     /tmp/ccxHQ5Uc.s:422    .text._ZN4ListI3TCBE3addEPS0_:0000000000000020 .L0 
     /tmp/ccxHQ5Uc.s:429    .text._ZN4ListI3TCBE3addEPS0_:000000000000002c .L0 
     /tmp/ccxHQ5Uc.s:435    .text._ZN4ListI3TCBE3addEPS0_:0000000000000034 .L0 
     /tmp/ccxHQ5Uc.s:437    .text._ZN4ListI3TCBE3addEPS0_:0000000000000038 .L0 
     /tmp/ccxHQ5Uc.s:439    .text._ZN4ListI3TCBE3addEPS0_:000000000000003c .L0 
     /tmp/ccxHQ5Uc.s:441    .text._ZN4ListI3TCBE3addEPS0_:0000000000000040 .L0 
     /tmp/ccxHQ5Uc.s:445    .text._ZN4ListI3TCBE3addEPS0_:0000000000000048 .L0 
     /tmp/ccxHQ5Uc.s:449    .text._ZN4ListI3TCBE3addEPS0_:0000000000000054 .L0 
     /tmp/ccxHQ5Uc.s:450    .text._ZN4ListI3TCBE3addEPS0_:0000000000000058 .L0 
     /tmp/ccxHQ5Uc.s:451    .text._ZN4ListI3TCBE3addEPS0_:0000000000000058 .L0 
     /tmp/ccxHQ5Uc.s:453    .text._ZN4ListI3TCBE3addEPS0_:000000000000005c .L0 
     /tmp/ccxHQ5Uc.s:454    .text._ZN4ListI3TCBE3addEPS0_:000000000000005c .L0 
     /tmp/ccxHQ5Uc.s:456    .text._ZN4ListI3TCBE3addEPS0_:0000000000000060 .L0 
     /tmp/ccxHQ5Uc.s:459    .text._ZN4ListI3TCBE3addEPS0_:0000000000000064 .L0 
     /tmp/ccxHQ5Uc.s:462    .text._ZN4ListI3TCBE3addEPS0_:0000000000000068 .L0 
     /tmp/ccxHQ5Uc.s:466    .text._ZN4ListI3TCBE3addEPS0_:000000000000006c .L0 
     /tmp/ccxHQ5Uc.s:468    .text._ZN4ListI3TCBE3addEPS0_:000000000000006c .L0 
     /tmp/ccxHQ5Uc.s:471    .text._ZN4ListI3TCBE3addEPS0_:0000000000000078 .L0 
     /tmp/ccxHQ5Uc.s:478    .text:00000000000001d8 _ZN3Sem5blockEv
     /tmp/ccxHQ5Uc.s:481    .text:00000000000001d8 .L0 
     /tmp/ccxHQ5Uc.s:483    .text:00000000000001d8 .L0 
     /tmp/ccxHQ5Uc.s:484    .text:00000000000001dc .L0 
     /tmp/ccxHQ5Uc.s:489    .text:00000000000001ec .L0 
     /tmp/ccxHQ5Uc.s:490    .text:00000000000001ec .L0 
     /tmp/ccxHQ5Uc.s:491    .text:00000000000001ec .L0 
     /tmp/ccxHQ5Uc.s:492    .text:00000000000001ec .L0 
     /tmp/ccxHQ5Uc.s:494    .text:00000000000001f0 .L0 
     /tmp/ccxHQ5Uc.s:496    .text:00000000000001f0 .L0 
     /tmp/ccxHQ5Uc.s:497    .text:00000000000001f0 .L0 
     /tmp/ccxHQ5Uc.s:501    .text:00000000000001fc .L0 
     /tmp/ccxHQ5Uc.s:502    .text:00000000000001fc .L0 
     /tmp/ccxHQ5Uc.s:505    .text:0000000000000204 .L0 
     /tmp/ccxHQ5Uc.s:506    .text:0000000000000204 .L0 
     /tmp/ccxHQ5Uc.s:512    .text:0000000000000214 .L0 
     /tmp/ccxHQ5Uc.s:513    .text:0000000000000214 .L0 
     /tmp/ccxHQ5Uc.s:517    .text:0000000000000220 .L0 
     /tmp/ccxHQ5Uc.s:519    .text:0000000000000224 .L0 
     /tmp/ccxHQ5Uc.s:520    .text:0000000000000224 .L0 
     /tmp/ccxHQ5Uc.s:524    .text:0000000000000230 .L0 
     /tmp/ccxHQ5Uc.s:525    .text:0000000000000234 .L0 
     /tmp/ccxHQ5Uc.s:527    .text:0000000000000238 .L0 
     /tmp/ccxHQ5Uc.s:528    .text:0000000000000238 .L0 
     /tmp/ccxHQ5Uc.s:530    .text:000000000000023c .L0 
     /tmp/ccxHQ5Uc.s:533    .text:0000000000000240 .L0 
     /tmp/ccxHQ5Uc.s:535    .text:0000000000000244 .L0 
     /tmp/ccxHQ5Uc.s:537    .text:0000000000000248 .L0 
     /tmp/ccxHQ5Uc.s:543    .text:0000000000000248 _ZN3Sem4waitEPS_
     /tmp/ccxHQ5Uc.s:546    .text:0000000000000248 .L0 
     /tmp/ccxHQ5Uc.s:548    .text:0000000000000248 .L0 
GAS LISTING /tmp/ccxHQ5Uc.s 			page 30


     /tmp/ccxHQ5Uc.s:549    .text:0000000000000248 .L0 
     /tmp/ccxHQ5Uc.s:551    .text:000000000000024c .L0 
     /tmp/ccxHQ5Uc.s:552    .text:000000000000024c .L0 
     /tmp/ccxHQ5Uc.s:554    .text:0000000000000250 .L0 
     /tmp/ccxHQ5Uc.s:556    .text:0000000000000254 .L0 
     /tmp/ccxHQ5Uc.s:558    .text:0000000000000258 .L0 
     /tmp/ccxHQ5Uc.s:561    .text:0000000000000260 .L0 
     /tmp/ccxHQ5Uc.s:564    .text:0000000000000264 .L0 
     /tmp/ccxHQ5Uc.s:568    .text:0000000000000268 .L0 
     /tmp/ccxHQ5Uc.s:569    .text:000000000000026c .L0 
     /tmp/ccxHQ5Uc.s:572    .text:0000000000000274 .L0 
     /tmp/ccxHQ5Uc.s:573    .text:0000000000000274 .L0 
     /tmp/ccxHQ5Uc.s:575    .text:0000000000000278 .L0 
     /tmp/ccxHQ5Uc.s:577    .text:0000000000000278 .L0 
     /tmp/ccxHQ5Uc.s:578    .text:0000000000000278 .L0 
     /tmp/ccxHQ5Uc.s:581    .text:0000000000000280 .L0 
     /tmp/ccxHQ5Uc.s:582    .text:0000000000000280 .L0 
     /tmp/ccxHQ5Uc.s:584    .text:0000000000000284 .L0 
     /tmp/ccxHQ5Uc.s:585    .text:0000000000000288 .L0 
     /tmp/ccxHQ5Uc.s:587    .text:000000000000028c .L0 
     /tmp/ccxHQ5Uc.s:588    .text:000000000000028c .L0 
     /tmp/ccxHQ5Uc.s:590    .text:0000000000000290 .L0 
     /tmp/ccxHQ5Uc.s:595    .text:0000000000000294 .L0 
     /tmp/ccxHQ5Uc.s:598    .text:000000000000029c .L0 
     /tmp/ccxHQ5Uc.s:604    .text:000000000000029c _ZN3Sem9timedwaitEPS_m
     /tmp/ccxHQ5Uc.s:607    .text:000000000000029c .L0 
     /tmp/ccxHQ5Uc.s:609    .text:000000000000029c .L0 
     /tmp/ccxHQ5Uc.s:610    .text:000000000000029c .L0 
     /tmp/ccxHQ5Uc.s:612    .text:00000000000002a0 .L0 
     /tmp/ccxHQ5Uc.s:613    .text:00000000000002a4 .L0 
     /tmp/ccxHQ5Uc.s:618    .text:00000000000002b4 .L0 
     /tmp/ccxHQ5Uc.s:619    .text:00000000000002b4 .L0 
     /tmp/ccxHQ5Uc.s:620    .text:00000000000002b4 .L0 
     /tmp/ccxHQ5Uc.s:621    .text:00000000000002b4 .L0 
     /tmp/ccxHQ5Uc.s:623    .text:00000000000002b8 .L0 
     /tmp/ccxHQ5Uc.s:626    .text:00000000000002bc .L0 
     /tmp/ccxHQ5Uc.s:627    .text:00000000000002bc .L0 
     /tmp/ccxHQ5Uc.s:629    .text:00000000000002c0 .L0 
     /tmp/ccxHQ5Uc.s:631    .text:00000000000002c4 .L0 
     /tmp/ccxHQ5Uc.s:633    .text:00000000000002c8 .L0 
     /tmp/ccxHQ5Uc.s:636    .text:00000000000002d0 .L0 
     /tmp/ccxHQ5Uc.s:640    .text:00000000000002d4 .L0 
     /tmp/ccxHQ5Uc.s:641    .text:00000000000002d8 .L0 
     /tmp/ccxHQ5Uc.s:642    .text:00000000000002d8 .L0 
     /tmp/ccxHQ5Uc.s:644    .text:00000000000002dc .L0 
     /tmp/ccxHQ5Uc.s:645    .text:00000000000002dc .L0 
     /tmp/ccxHQ5Uc.s:647    .text:00000000000002e0 .L0 
     /tmp/ccxHQ5Uc.s:650    .text:00000000000002e4 .L0 
     /tmp/ccxHQ5Uc.s:652    .text:00000000000002e8 .L0 
     /tmp/ccxHQ5Uc.s:656    .text:00000000000002ec .L0 
     /tmp/ccxHQ5Uc.s:658    .text:00000000000002ec .L0 
     /tmp/ccxHQ5Uc.s:659    .text:00000000000002ec .L0 
     /tmp/ccxHQ5Uc.s:662    .text:00000000000002f8 .L0 
     /tmp/ccxHQ5Uc.s:664    .text:00000000000002fc .L0 
     /tmp/ccxHQ5Uc.s:665    .text:00000000000002fc .L0 
     /tmp/ccxHQ5Uc.s:667    .text:0000000000000300 .L0 
     /tmp/ccxHQ5Uc.s:670    .text:0000000000000308 .L0 
GAS LISTING /tmp/ccxHQ5Uc.s 			page 31


     /tmp/ccxHQ5Uc.s:671    .text:0000000000000308 .L0 
     /tmp/ccxHQ5Uc.s:674    .text:0000000000000310 .L0 
     /tmp/ccxHQ5Uc.s:675    .text:0000000000000310 .L0 
     /tmp/ccxHQ5Uc.s:676    .text:0000000000000310 .L0 
     /tmp/ccxHQ5Uc.s:678    .text:0000000000000314 .L0 
     /tmp/ccxHQ5Uc.s:681    .text:000000000000031c .L0 
     /tmp/ccxHQ5Uc.s:682    .text:000000000000031c .L0 
     /tmp/ccxHQ5Uc.s:685    .text:0000000000000324 .L0 
     /tmp/ccxHQ5Uc.s:687    .text:0000000000000328 .L0 
     /tmp/ccxHQ5Uc.s:688    .text:0000000000000328 .L0 
     /tmp/ccxHQ5Uc.s:690    .text:000000000000032c .L0 
     /tmp/ccxHQ5Uc.s:694    .text:0000000000000334 .L0 
     /tmp/ccxHQ5Uc.s:695    .text:0000000000000334 .L0 
     /tmp/ccxHQ5Uc.s:696    .text:0000000000000334 .L0 
     /tmp/ccxHQ5Uc.s:697    .text:0000000000000334 .L0 
     /tmp/ccxHQ5Uc.s:698    .text:0000000000000334 .L0 
     /tmp/ccxHQ5Uc.s:700    .text:0000000000000334 .L0 
     /tmp/ccxHQ5Uc.s:703    .text:0000000000000338 .L0 
     /tmp/ccxHQ5Uc.s:706    .text:000000000000033c .L0 
     /tmp/ccxHQ5Uc.s:707    .text:000000000000033c .L0 
     /tmp/ccxHQ5Uc.s:708    .text:000000000000033c .L0 
     /tmp/ccxHQ5Uc.s:709    .text:000000000000033c .L0 
     /tmp/ccxHQ5Uc.s:710    .text:000000000000033c .L0 
     /tmp/ccxHQ5Uc.s:712    .text:000000000000033c .L0 
     /tmp/ccxHQ5Uc.s:714    .text:0000000000000344 .L0 
     /tmp/ccxHQ5Uc.s:721    .text._ZN4ListI3TCBE3getEv:0000000000000000 _ZN4ListI3TCBE3getEv
     /tmp/ccxHQ5Uc.s:724    .text._ZN4ListI3TCBE3getEv:0000000000000000 .L0 
     /tmp/ccxHQ5Uc.s:726    .text._ZN4ListI3TCBE3getEv:0000000000000000 .L0 
     /tmp/ccxHQ5Uc.s:727    .text._ZN4ListI3TCBE3getEv:0000000000000004 .L0 
     /tmp/ccxHQ5Uc.s:732    .text._ZN4ListI3TCBE3getEv:0000000000000014 .L0 
     /tmp/ccxHQ5Uc.s:733    .text._ZN4ListI3TCBE3getEv:0000000000000014 .L0 
     /tmp/ccxHQ5Uc.s:734    .text._ZN4ListI3TCBE3getEv:0000000000000014 .L0 
     /tmp/ccxHQ5Uc.s:735    .text._ZN4ListI3TCBE3getEv:0000000000000014 .L0 
     /tmp/ccxHQ5Uc.s:737    .text._ZN4ListI3TCBE3getEv:0000000000000018 .L0 
     /tmp/ccxHQ5Uc.s:740    .text._ZN4ListI3TCBE3getEv:000000000000001c .L0 
     /tmp/ccxHQ5Uc.s:743    .text._ZN4ListI3TCBE3getEv:0000000000000020 .L0 
     /tmp/ccxHQ5Uc.s:745    .text._ZN4ListI3TCBE3getEv:0000000000000024 .L0 
     /tmp/ccxHQ5Uc.s:748    .text._ZN4ListI3TCBE3getEv:0000000000000028 .L0 
     /tmp/ccxHQ5Uc.s:750    .text._ZN4ListI3TCBE3getEv:000000000000002c .L0 
     /tmp/ccxHQ5Uc.s:752    .text._ZN4ListI3TCBE3getEv:0000000000000030 .L0 
     /tmp/ccxHQ5Uc.s:755    .text._ZN4ListI3TCBE3getEv:0000000000000034 .L0 
     /tmp/ccxHQ5Uc.s:758    .text._ZN4ListI3TCBE3getEv:000000000000003c .L0 
     /tmp/ccxHQ5Uc.s:764    .text._ZN4ListI3TCBE3getEv:0000000000000048 .L0 
     /tmp/ccxHQ5Uc.s:766    .text._ZN4ListI3TCBE3getEv:0000000000000050 .L0 
     /tmp/ccxHQ5Uc.s:767    .text._ZN4ListI3TCBE3getEv:0000000000000050 .L0 
     /tmp/ccxHQ5Uc.s:769    .text._ZN4ListI3TCBE3getEv:0000000000000054 .L0 
     /tmp/ccxHQ5Uc.s:770    .text._ZN4ListI3TCBE3getEv:0000000000000054 .L0 
     /tmp/ccxHQ5Uc.s:772    .text._ZN4ListI3TCBE3getEv:0000000000000058 .L0 
     /tmp/ccxHQ5Uc.s:775    .text._ZN4ListI3TCBE3getEv:000000000000005c .L0 
     /tmp/ccxHQ5Uc.s:777    .text._ZN4ListI3TCBE3getEv:0000000000000060 .L0 
     /tmp/ccxHQ5Uc.s:781    .text._ZN4ListI3TCBE3getEv:0000000000000064 .L0 
     /tmp/ccxHQ5Uc.s:783    .text._ZN4ListI3TCBE3getEv:0000000000000064 .L0 
     /tmp/ccxHQ5Uc.s:788    .text._ZN4ListI3TCBE3getEv:000000000000006c .L0 
     /tmp/ccxHQ5Uc.s:790    .text._ZN4ListI3TCBE3getEv:0000000000000074 .L0 
     /tmp/ccxHQ5Uc.s:797    .text:0000000000000344 _ZN3Sem7deblockEv
     /tmp/ccxHQ5Uc.s:800    .text:0000000000000344 .L0 
     /tmp/ccxHQ5Uc.s:802    .text:0000000000000344 .L0 
GAS LISTING /tmp/ccxHQ5Uc.s 			page 32


     /tmp/ccxHQ5Uc.s:803    .text:0000000000000348 .L0 
     /tmp/ccxHQ5Uc.s:806    .text:0000000000000350 .L0 
     /tmp/ccxHQ5Uc.s:807    .text:0000000000000350 .L0 
     /tmp/ccxHQ5Uc.s:809    .text:0000000000000354 .L0 
     /tmp/ccxHQ5Uc.s:811    .text:0000000000000354 .L0 
     /tmp/ccxHQ5Uc.s:812    .text:0000000000000354 .L0 
     /tmp/ccxHQ5Uc.s:817    .text:0000000000000360 .L0 
     /tmp/ccxHQ5Uc.s:819    .text:0000000000000364 .L0 
     /tmp/ccxHQ5Uc.s:820    .text:0000000000000364 .L0 
     /tmp/ccxHQ5Uc.s:822    .text:0000000000000368 .L0 
     /tmp/ccxHQ5Uc.s:823    .text:0000000000000368 .L0 
     /tmp/ccxHQ5Uc.s:827    .text:0000000000000370 .L0 
     /tmp/ccxHQ5Uc.s:828    .text:0000000000000374 .L0 
     /tmp/ccxHQ5Uc.s:830    .text:0000000000000378 .L0 
     /tmp/ccxHQ5Uc.s:831    .text:0000000000000378 .L0 
     /tmp/ccxHQ5Uc.s:833    .text:000000000000037c .L0 
     /tmp/ccxHQ5Uc.s:835    .text:0000000000000380 .L0 
     /tmp/ccxHQ5Uc.s:841    .text:0000000000000380 _ZN3Sem7s_closeEPS_
     /tmp/ccxHQ5Uc.s:844    .text:0000000000000380 .L0 
     /tmp/ccxHQ5Uc.s:846    .text:0000000000000380 .L0 
     /tmp/ccxHQ5Uc.s:847    .text:0000000000000380 .L0 
     /tmp/ccxHQ5Uc.s:849    .text:0000000000000384 .L0 
     /tmp/ccxHQ5Uc.s:850    .text:0000000000000388 .L0 
     /tmp/ccxHQ5Uc.s:854    .text:0000000000000394 .L0 
     /tmp/ccxHQ5Uc.s:855    .text:0000000000000394 .L0 
     /tmp/ccxHQ5Uc.s:856    .text:0000000000000394 .L0 
     /tmp/ccxHQ5Uc.s:858    .text:0000000000000398 .L0 
     /tmp/ccxHQ5Uc.s:861    .text:000000000000039c .L0 
     /tmp/ccxHQ5Uc.s:862    .text:000000000000039c .L0 
     /tmp/ccxHQ5Uc.s:866    .text:00000000000003a4 .L0 
     /tmp/ccxHQ5Uc.s:867    .text:00000000000003a4 .L0 
     /tmp/ccxHQ5Uc.s:868    .text:00000000000003a4 .L0 
     /tmp/ccxHQ5Uc.s:872    .text:00000000000003b0 .L0 
     /tmp/ccxHQ5Uc.s:874    .text:00000000000003b4 .L0 
     /tmp/ccxHQ5Uc.s:875    .text:00000000000003b4 .L0 
     /tmp/ccxHQ5Uc.s:879    .text:00000000000003c0 .L0 
     /tmp/ccxHQ5Uc.s:882    .text:00000000000003c4 .L0 
     /tmp/ccxHQ5Uc.s:883    .text:00000000000003c4 .L0 
     /tmp/ccxHQ5Uc.s:887    .text:00000000000003d0 .L0 
     /tmp/ccxHQ5Uc.s:888    .text:00000000000003d0 .L0 
     /tmp/ccxHQ5Uc.s:890    .text:00000000000003d4 .L0 
     /tmp/ccxHQ5Uc.s:891    .text:00000000000003d8 .L0 
     /tmp/ccxHQ5Uc.s:893    .text:00000000000003dc .L0 
     /tmp/ccxHQ5Uc.s:894    .text:00000000000003dc .L0 
     /tmp/ccxHQ5Uc.s:896    .text:00000000000003e0 .L0 
     /tmp/ccxHQ5Uc.s:899    .text:00000000000003e4 .L0 
     /tmp/ccxHQ5Uc.s:904    .text:00000000000003e8 .L0 
     /tmp/ccxHQ5Uc.s:907    .text:00000000000003ec .L0 
     /tmp/ccxHQ5Uc.s:908    .text:00000000000003f0 .L0 
     /tmp/ccxHQ5Uc.s:914    .text:00000000000003f0 _ZN3Sem6signalEPS_
     /tmp/ccxHQ5Uc.s:917    .text:00000000000003f0 .L0 
     /tmp/ccxHQ5Uc.s:919    .text:00000000000003f0 .L0 
     /tmp/ccxHQ5Uc.s:920    .text:00000000000003f0 .L0 
     /tmp/ccxHQ5Uc.s:922    .text:00000000000003f4 .L0 
     /tmp/ccxHQ5Uc.s:923    .text:00000000000003f4 .L0 
     /tmp/ccxHQ5Uc.s:925    .text:00000000000003f8 .L0 
     /tmp/ccxHQ5Uc.s:928    .text:0000000000000400 .L0 
GAS LISTING /tmp/ccxHQ5Uc.s 			page 33


     /tmp/ccxHQ5Uc.s:930    .text:0000000000000404 .L0 
     /tmp/ccxHQ5Uc.s:932    .text:0000000000000408 .L0 
     /tmp/ccxHQ5Uc.s:935    .text:000000000000040c .L0 
     /tmp/ccxHQ5Uc.s:939    .text:0000000000000410 .L0 
     /tmp/ccxHQ5Uc.s:940    .text:0000000000000414 .L0 
     /tmp/ccxHQ5Uc.s:943    .text:000000000000041c .L0 
     /tmp/ccxHQ5Uc.s:944    .text:000000000000041c .L0 
     /tmp/ccxHQ5Uc.s:946    .text:0000000000000420 .L0 
     /tmp/ccxHQ5Uc.s:948    .text:0000000000000420 .L0 
     /tmp/ccxHQ5Uc.s:949    .text:0000000000000420 .L0 
     /tmp/ccxHQ5Uc.s:952    .text:0000000000000428 .L0 
     /tmp/ccxHQ5Uc.s:954    .text:000000000000042c .L0 
     /tmp/ccxHQ5Uc.s:955    .text:0000000000000430 .L0 
     /tmp/ccxHQ5Uc.s:957    .text:0000000000000434 .L0 
     /tmp/ccxHQ5Uc.s:958    .text:0000000000000434 .L0 
     /tmp/ccxHQ5Uc.s:960    .text:0000000000000438 .L0 
     /tmp/ccxHQ5Uc.s:965    .text:000000000000043c .L0 
     /tmp/ccxHQ5Uc.s:968    .text:0000000000000444 .L0 
     /tmp/ccxHQ5Uc.s:982    .bss:0000000000000008 _ZN3Sem4lastE
     /tmp/ccxHQ5Uc.s:978    .bss:0000000000000000 _ZN3Sem5firstE
     /tmp/ccxHQ5Uc.s:975    .bss:0000000000000000 .LANCHOR0
     /tmp/ccxHQ5Uc.s:991    .text:0000000000000444 .L0 
     /tmp/ccxHQ5Uc.s:398    .text._ZN4ListI3TCBE4peekEv:0000000000000024 .L0 
     /tmp/ccxHQ5Uc.s:474    .text._ZN4ListI3TCBE3addEPS0_:0000000000000078 .L0 
     /tmp/ccxHQ5Uc.s:793    .text._ZN4ListI3TCBE3getEv:0000000000000074 .L0 
     /tmp/ccxHQ5Uc.s:172    .text:00000000000000c4 .L0 
     /tmp/ccxHQ5Uc.s:177    .text:00000000000000d0 .L0 
     /tmp/ccxHQ5Uc.s:196    .text:00000000000000f0 .L0 
     /tmp/ccxHQ5Uc.s:308    .text:0000000000000188 .L0 
     /tmp/ccxHQ5Uc.s:356    .text:00000000000001c4 .L0 
     /tmp/ccxHQ5Uc.s:497    .text:00000000000001f0 .L0 
     /tmp/ccxHQ5Uc.s:659    .text:00000000000002ec .L0 
     /tmp/ccxHQ5Uc.s:52     .text:000000000000003c .L3
     /tmp/ccxHQ5Uc.s:28     .text:0000000000000014 .L9
     /tmp/ccxHQ5Uc.s:192    .text:00000000000000f0 .L20
     /tmp/ccxHQ5Uc.s:183    .text:00000000000000e4 .L16
     /tmp/ccxHQ5Uc.s:282    .text:0000000000000174 .L23
     /tmp/ccxHQ5Uc.s:265    .text:000000000000015c .L22
     /tmp/ccxHQ5Uc.s:342    .text:00000000000001b8 .L25
     /tmp/ccxHQ5Uc.s:328    .text:00000000000001a8 .L32
     /tmp/ccxHQ5Uc.s:313    .text:0000000000000194 .L30
     /tmp/ccxHQ5Uc.s:352    .text:00000000000001c4 .L28
     /tmp/ccxHQ5Uc.s:337    .text:00000000000001b4 .L29
     /tmp/ccxHQ5Uc.s:593    .text:0000000000000294 .L45
     /tmp/ccxHQ5Uc.s:566    .text:0000000000000268 .L51
     /tmp/ccxHQ5Uc.s:693    .text:0000000000000334 .L54
     /tmp/ccxHQ5Uc.s:655    .text:00000000000002ec .L61
     /tmp/ccxHQ5Uc.s:705    .text:000000000000033c .L56
     /tmp/ccxHQ5Uc.s:638    .text:00000000000002d4 .L53
     /tmp/ccxHQ5Uc.s:825    .text:0000000000000370 .L68
     /tmp/ccxHQ5Uc.s:902    .text:00000000000003e8 .L75
     /tmp/ccxHQ5Uc.s:880    .text:00000000000003c4 .L73
     /tmp/ccxHQ5Uc.s:864    .text:00000000000003a4 .L74
     /tmp/ccxHQ5Uc.s:963    .text:000000000000043c .L82
     /tmp/ccxHQ5Uc.s:937    .text:0000000000000410 .L88
     /tmp/ccxHQ5Uc.s:387    .text._ZN4ListI3TCBE4peekEv:0000000000000018 .L33
     /tmp/ccxHQ5Uc.s:465    .text._ZN4ListI3TCBE3addEPS0_:000000000000006c .L40
GAS LISTING /tmp/ccxHQ5Uc.s 			page 34


     /tmp/ccxHQ5Uc.s:443    .text._ZN4ListI3TCBE3addEPS0_:0000000000000048 .L38
     /tmp/ccxHQ5Uc.s:786    .text._ZN4ListI3TCBE3getEv:000000000000006c .L65
     /tmp/ccxHQ5Uc.s:780    .text._ZN4ListI3TCBE3getEv:0000000000000064 .L67
     /tmp/ccxHQ5Uc.s:753    .text._ZN4ListI3TCBE3getEv:0000000000000034 .L64
     /tmp/ccxHQ5Uc.s:762    .text._ZN4ListI3TCBE3getEv:0000000000000048 .L62
     /tmp/ccxHQ5Uc.s:2900   .debug_abbrev:0000000000000000 .Ldebug_abbrev0
     /tmp/ccxHQ5Uc.s:5100   .debug_str:000000000000088b .LASF179
     /tmp/ccxHQ5Uc.s:4970   .debug_str:0000000000000504 .LASF180
     /tmp/ccxHQ5Uc.s:4904   .debug_str:0000000000000338 .LASF181
     /tmp/ccxHQ5Uc.s:4776   .debug_ranges:0000000000000000 .Ldebug_ranges0
     /tmp/ccxHQ5Uc.s:4788   .debug_line:0000000000000000 .Ldebug_line0
     /tmp/ccxHQ5Uc.s:4924   .debug_str:00000000000003d4 .LASF0
     /tmp/ccxHQ5Uc.s:4956   .debug_str:00000000000004a5 .LASF1
     /tmp/ccxHQ5Uc.s:5048   .debug_str:0000000000000707 .LASF2
     /tmp/ccxHQ5Uc.s:5054   .debug_str:0000000000000753 .LASF4
     /tmp/ccxHQ5Uc.s:4936   .debug_str:0000000000000436 .LASF3
     /tmp/ccxHQ5Uc.s:4802   .debug_str:0000000000000068 .LASF5
     /tmp/ccxHQ5Uc.s:5028   .debug_str:0000000000000692 .LASF6
     /tmp/ccxHQ5Uc.s:5022   .debug_str:000000000000066f .LASF7
     /tmp/ccxHQ5Uc.s:4942   .debug_str:000000000000045f .LASF8
     /tmp/ccxHQ5Uc.s:4900   .debug_str:000000000000031c .LASF9
     /tmp/ccxHQ5Uc.s:4912   .debug_str:0000000000000387 .LASF10
     /tmp/ccxHQ5Uc.s:4842   .debug_str:000000000000018b .LASF11
     /tmp/ccxHQ5Uc.s:4888   .debug_str:00000000000002d6 .LASF12
     /tmp/ccxHQ5Uc.s:4856   .debug_str:00000000000001ec .LASF13
     /tmp/ccxHQ5Uc.s:4840   .debug_str:000000000000017b .LASF14
     /tmp/ccxHQ5Uc.s:5086   .debug_str:0000000000000838 .LASF15
     /tmp/ccxHQ5Uc.s:4878   .debug_str:000000000000027a .LASF16
     /tmp/ccxHQ5Uc.s:5076   .debug_str:00000000000007ee .LASF17
     /tmp/ccxHQ5Uc.s:5016   .debug_str:0000000000000633 .LASF21
     /tmp/ccxHQ5Uc.s:4836   .debug_str:000000000000015a .LASF36
     /tmp/ccxHQ5Uc.s:4844   .debug_str:000000000000019a .LASF18
     /tmp/ccxHQ5Uc.s:4814   .debug_str:00000000000000cf .LASF19
     /tmp/ccxHQ5Uc.s:4954   .debug_str:00000000000004a0 .LASF20
     /tmp/ccxHQ5Uc.s:4812   .debug_str:00000000000000b6 .LASF22
     /tmp/ccxHQ5Uc.s:5074   .debug_str:00000000000007d3 .LASF23
     /tmp/ccxHQ5Uc.s:5128   .debug_str:00000000000009ef .LASF52
     /tmp/ccxHQ5Uc.s:5144   .debug_str:0000000000000a52 .LASF54
     /tmp/ccxHQ5Uc.s:5096   .debug_str:0000000000000875 .LASF24
     /tmp/ccxHQ5Uc.s:4810   .debug_str:00000000000000a8 .LASF25
     /tmp/ccxHQ5Uc.s:4932   .debug_str:0000000000000417 .LASF44
     /tmp/ccxHQ5Uc.s:5052   .debug_str:0000000000000721 .LASF46
     /tmp/ccxHQ5Uc.s:5116   .debug_str:00000000000009a9 .LASF40
     /tmp/ccxHQ5Uc.s:4978   .debug_str:0000000000000541 .LASF58
     /tmp/ccxHQ5Uc.s:5018   .debug_str:0000000000000643 .LASF60
     /tmp/ccxHQ5Uc.s:4982   .debug_str:000000000000055a .LASF26
     /tmp/ccxHQ5Uc.s:4804   .debug_str:000000000000006f .LASF27
     /tmp/ccxHQ5Uc.s:5092   .debug_str:0000000000000861 .LASF28
     /tmp/ccxHQ5Uc.s:4984   .debug_str:0000000000000564 .LASF29
     /tmp/ccxHQ5Uc.s:4796   .debug_str:000000000000002e .LASF48
     /tmp/ccxHQ5Uc.s:4824   .debug_str:00000000000000ff .LASF50
     /tmp/ccxHQ5Uc.s:5036   .debug_str:00000000000006cf .LASF30
     /tmp/ccxHQ5Uc.s:4870   .debug_str:000000000000023f .LASF87
     /tmp/ccxHQ5Uc.s:4944   .debug_str:0000000000000472 .LASF31
     /tmp/ccxHQ5Uc.s:4848   .debug_str:00000000000001c2 .LASF32
     /tmp/ccxHQ5Uc.s:5034   .debug_str:00000000000006c7 .LASF33
     /tmp/ccxHQ5Uc.s:4826   .debug_str:000000000000011c .LASF34
GAS LISTING /tmp/ccxHQ5Uc.s 			page 35


     /tmp/ccxHQ5Uc.s:4792   .debug_str:000000000000000b .LASF35
     /tmp/ccxHQ5Uc.s:4850   .debug_str:00000000000001cb .LASF37
     /tmp/ccxHQ5Uc.s:5132   .debug_str:0000000000000a06 .LASF38
     /tmp/ccxHQ5Uc.s:5102   .debug_str:000000000000094f .LASF39
     /tmp/ccxHQ5Uc.s:5098   .debug_str:0000000000000883 .LASF41
     /tmp/ccxHQ5Uc.s:4834   .debug_str:000000000000014c .LASF42
     /tmp/ccxHQ5Uc.s:4886   .debug_str:00000000000002ae .LASF43
     /tmp/ccxHQ5Uc.s:4958   .debug_str:00000000000004b8 .LASF45
     /tmp/ccxHQ5Uc.s:4962   .debug_str:00000000000004cb .LASF47
     /tmp/ccxHQ5Uc.s:4864   .debug_str:0000000000000223 .LASF49
     /tmp/ccxHQ5Uc.s:4852   .debug_str:00000000000001d3 .LASF51
     /tmp/ccxHQ5Uc.s:5062   .debug_str:000000000000077f .LASF53
     /tmp/ccxHQ5Uc.s:5072   .debug_str:00000000000007bf .LASF55
     /tmp/ccxHQ5Uc.s:4960   .debug_str:00000000000004be .LASF56
     /tmp/ccxHQ5Uc.s:5118   .debug_str:00000000000009b3 .LASF57
     /tmp/ccxHQ5Uc.s:5106   .debug_str:000000000000096b .LASF59
     /tmp/ccxHQ5Uc.s:4966   .debug_str:00000000000004e5 .LASF61
     /tmp/ccxHQ5Uc.s:5094   .debug_str:000000000000086a .LASF62
     /tmp/ccxHQ5Uc.s:5090   .debug_str:000000000000084b .LASF63
     /tmp/ccxHQ5Uc.s:4974   .debug_str:0000000000000529 .LASF64
     /tmp/ccxHQ5Uc.s:4858   .debug_str:00000000000001fc .LASF65
     /tmp/ccxHQ5Uc.s:5056   .debug_str:000000000000075a .LASF66
     /tmp/ccxHQ5Uc.s:4800   .debug_str:000000000000005c .LASF67
     /tmp/ccxHQ5Uc.s:5158   .debug_str:0000000000000ad6 .LASF68
     /tmp/ccxHQ5Uc.s:4908   .debug_str:000000000000035e .LASF69
     /tmp/ccxHQ5Uc.s:4926   .debug_str:00000000000003e1 .LASF70
     /tmp/ccxHQ5Uc.s:5008   .debug_str:000000000000060e .LASF71
     /tmp/ccxHQ5Uc.s:4968   .debug_str:00000000000004fb .LASF72
     /tmp/ccxHQ5Uc.s:5046   .debug_str:00000000000006f6 .LASF73
     /tmp/ccxHQ5Uc.s:4816   .debug_str:00000000000000d4 .LASF74
     /tmp/ccxHQ5Uc.s:5050   .debug_str:0000000000000715 .LASF75
     /tmp/ccxHQ5Uc.s:4946   .debug_str:000000000000047b .LASF76
     /tmp/ccxHQ5Uc.s:4868   .debug_str:0000000000000231 .LASF77
     /tmp/ccxHQ5Uc.s:5042   .debug_str:00000000000006e5 .LASF78
     /tmp/ccxHQ5Uc.s:4862   .debug_str:000000000000021b .LASF79
     /tmp/ccxHQ5Uc.s:5156   .debug_str:0000000000000ad1 .LASF80
     /tmp/ccxHQ5Uc.s:5070   .debug_str:00000000000007b9 .LASF81
     /tmp/ccxHQ5Uc.s:5108   .debug_str:0000000000000976 .LASF82
     /tmp/ccxHQ5Uc.s:4986   .debug_str:0000000000000585 .LASF83
     /tmp/ccxHQ5Uc.s:5162   .debug_str:0000000000000aed .LASF127
     /tmp/ccxHQ5Uc.s:4860   .debug_str:000000000000020d .LASF118
     /tmp/ccxHQ5Uc.s:4798   .debug_str:0000000000000034 .LASF120
     /tmp/ccxHQ5Uc.s:5120   .debug_str:00000000000009cc .LASF141
     /tmp/ccxHQ5Uc.s:4806   .debug_str:0000000000000090 .LASF143
     /tmp/ccxHQ5Uc.s:5130   .debug_str:00000000000009fa .LASF84
     /tmp/ccxHQ5Uc.s:5104   .debug_str:0000000000000954 .LASF85
     /tmp/ccxHQ5Uc.s:5142   .debug_str:0000000000000a4c .LASF86
     /tmp/ccxHQ5Uc.s:5038   .debug_str:00000000000006da .LASF88
     /tmp/ccxHQ5Uc.s:4940   .debug_str:0000000000000454 .LASF89
     /tmp/ccxHQ5Uc.s:5134   .debug_str:0000000000000a0e .LASF90
     /tmp/ccxHQ5Uc.s:4880   .debug_str:0000000000000290 .LASF91
     /tmp/ccxHQ5Uc.s:4906   .debug_str:0000000000000356 .LASF92
     /tmp/ccxHQ5Uc.s:4866   .debug_str:000000000000022c .LASF93
     /tmp/ccxHQ5Uc.s:4928   .debug_str:00000000000003f1 .LASF94
     /tmp/ccxHQ5Uc.s:5088   .debug_str:0000000000000844 .LASF95
     /tmp/ccxHQ5Uc.s:5030   .debug_str:0000000000000699 .LASF96
     /tmp/ccxHQ5Uc.s:5160   .debug_str:0000000000000ae3 .LASF97
GAS LISTING /tmp/ccxHQ5Uc.s 			page 36


     /tmp/ccxHQ5Uc.s:4934   .debug_str:0000000000000421 .LASF98
     /tmp/ccxHQ5Uc.s:5014   .debug_str:0000000000000629 .LASF99
     /tmp/ccxHQ5Uc.s:4896   .debug_str:00000000000002fb .LASF100
     /tmp/ccxHQ5Uc.s:5122   .debug_str:00000000000009d4 .LASF101
     /tmp/ccxHQ5Uc.s:4832   .debug_str:0000000000000138 .LASF102
     /tmp/ccxHQ5Uc.s:5004   .debug_str:00000000000005f1 .LASF103
     /tmp/ccxHQ5Uc.s:4972   .debug_str:0000000000000516 .LASF104
     /tmp/ccxHQ5Uc.s:4914   .debug_str:0000000000000395 .LASF105
     /tmp/ccxHQ5Uc.s:5112   .debug_str:0000000000000990 .LASF106
     /tmp/ccxHQ5Uc.s:4902   .debug_str:000000000000032c .LASF107
     /tmp/ccxHQ5Uc.s:5082   .debug_str:000000000000081c .LASF108
     /tmp/ccxHQ5Uc.s:5044   .debug_str:00000000000006f0 .LASF109
     /tmp/ccxHQ5Uc.s:4964   .debug_str:00000000000004e0 .LASF110
     /tmp/ccxHQ5Uc.s:4828   .debug_str:0000000000000125 .LASF152
     /tmp/ccxHQ5Uc.s:4922   .debug_str:00000000000003ce .LASF111
     /tmp/ccxHQ5Uc.s:4882   .debug_str:0000000000000298 .LASF112
     /tmp/ccxHQ5Uc.s:5154   .debug_str:0000000000000ac9 .LASF113
     /tmp/ccxHQ5Uc.s:5058   .debug_str:000000000000075f .LASF114
     /tmp/ccxHQ5Uc.s:4918   .debug_str:00000000000003b0 .LASF115
     /tmp/ccxHQ5Uc.s:5010   .debug_str:000000000000061b .LASF116
     /tmp/ccxHQ5Uc.s:4790   .debug_str:0000000000000000 .LASF117
     /tmp/ccxHQ5Uc.s:4994   .debug_str:00000000000005ab .LASF119
     /tmp/ccxHQ5Uc.s:4998   .debug_str:00000000000005b8 .LASF121
     /tmp/ccxHQ5Uc.s:5026   .debug_str:0000000000000687 .LASF182
     /tmp/ccxHQ5Uc.s:5002   .debug_str:00000000000005d9 .LASF183
     /tmp/ccxHQ5Uc.s:4938   .debug_str:0000000000000448 .LASF122
     /tmp/ccxHQ5Uc.s:5040   .debug_str:00000000000006e0 .LASF123
     /tmp/ccxHQ5Uc.s:4898   .debug_str:0000000000000312 .LASF124
     /tmp/ccxHQ5Uc.s:4948   .debug_str:0000000000000487 .LASF125
     /tmp/ccxHQ5Uc.s:5146   .debug_str:0000000000000a6d .LASF126
     /tmp/ccxHQ5Uc.s:5152   .debug_str:0000000000000ab5 .LASF184
     /tmp/ccxHQ5Uc.s:4920   .debug_str:00000000000003b6 .LASF128
     /tmp/ccxHQ5Uc.s:4952   .debug_str:000000000000049b .LASF129
     /tmp/ccxHQ5Uc.s:4872   .debug_str:0000000000000245 .LASF130
     /tmp/ccxHQ5Uc.s:4854   .debug_str:00000000000001e6 .LASF131
     /tmp/ccxHQ5Uc.s:5138   .debug_str:0000000000000a2f .LASF132
     /tmp/ccxHQ5Uc.s:5000   .debug_str:00000000000005cc .LASF133
     /tmp/ccxHQ5Uc.s:4846   .debug_str:000000000000019f .LASF134
     /tmp/ccxHQ5Uc.s:5110   .debug_str:000000000000097e .LASF135
     /tmp/ccxHQ5Uc.s:4916   .debug_str:000000000000039d .LASF136
     /tmp/ccxHQ5Uc.s:4838   .debug_str:0000000000000166 .LASF137
     /tmp/ccxHQ5Uc.s:4890   .debug_str:00000000000002e5 .LASF138
     /tmp/ccxHQ5Uc.s:4910   .debug_str:000000000000036a .LASF139
     /tmp/ccxHQ5Uc.s:5148   .debug_str:0000000000000a8d .LASF140
     /tmp/ccxHQ5Uc.s:4818   .debug_str:00000000000000df .LASF142
     /tmp/ccxHQ5Uc.s:5006   .debug_str:00000000000005f6 .LASF144
     /tmp/ccxHQ5Uc.s:4892   .debug_str:00000000000002f1 .LASF145
     /tmp/ccxHQ5Uc.s:5066   .debug_str:00000000000007a3 .LASF146
     /tmp/ccxHQ5Uc.s:5164   .debug_str:0000000000000b10 .LASF147
     /tmp/ccxHQ5Uc.s:4990   .debug_str:0000000000000598 .LASF148
     /tmp/ccxHQ5Uc.s:5124   .debug_str:00000000000009dc .LASF149
     /tmp/ccxHQ5Uc.s:4988   .debug_str:0000000000000593 .LASF150
     /tmp/ccxHQ5Uc.s:5078   .debug_str:0000000000000804 .LASF151
     /tmp/ccxHQ5Uc.s:4874   .debug_str:000000000000025a .LASF153
     /tmp/ccxHQ5Uc.s:4930   .debug_str:0000000000000402 .LASF185
     /tmp/ccxHQ5Uc.s:5150   .debug_str:0000000000000a9f .LASF154
     /tmp/ccxHQ5Uc.s:5136   .debug_str:0000000000000a19 .LASF155
GAS LISTING /tmp/ccxHQ5Uc.s 			page 37


     /tmp/ccxHQ5Uc.s:5114   .debug_str:00000000000009a4 .LASF157
     /tmp/ccxHQ5Uc.s:4950   .debug_str:0000000000000496 .LASF156
     /tmp/ccxHQ5Uc.s:4794   .debug_str:0000000000000013 .LASF158
     /tmp/ccxHQ5Uc.s:5080   .debug_str:0000000000000817 .LASF159
     /tmp/ccxHQ5Uc.s:4996   .debug_str:00000000000005b3 .LASF160
     /tmp/ccxHQ5Uc.s:5012   .debug_str:0000000000000623 .LASF161
     /tmp/ccxHQ5Uc.s:4830   .debug_str:0000000000000131 .LASF162
     /tmp/ccxHQ5Uc.s:5032   .debug_str:00000000000006ac .LASF163
     /tmp/ccxHQ5Uc.s:5084   .debug_str:0000000000000829 .LASF164
     /tmp/ccxHQ5Uc.s:5060   .debug_str:0000000000000771 .LASF165
     /tmp/ccxHQ5Uc.s:4894   .debug_str:00000000000002f6 .LASF167
     /tmp/ccxHQ5Uc.s:5064   .debug_str:0000000000000788 .LASF169
     /tmp/ccxHQ5Uc.s:722    .text._ZN4ListI3TCBE3getEv:0000000000000000 .LFB52
     /tmp/ccxHQ5Uc.s:791    .text._ZN4ListI3TCBE3getEv:0000000000000074 .LFE52
     /tmp/ccxHQ5Uc.s:4225   .debug_loc:0000000000000000 .LLST21
     /tmp/ccxHQ5Uc.s:4247   .debug_loc:000000000000005f .LLST22
     /tmp/ccxHQ5Uc.s:4876   .debug_str:0000000000000272 .LASF166
     /tmp/ccxHQ5Uc.s:4258   .debug_loc:0000000000000095 .LLST23
     /tmp/ccxHQ5Uc.s:756    .text._ZN4ListI3TCBE3getEv:000000000000003c .LVL66
     /tmp/ccxHQ5Uc.s:403    .text._ZN4ListI3TCBE3addEPS0_:0000000000000000 .LFB51
     /tmp/ccxHQ5Uc.s:472    .text._ZN4ListI3TCBE3addEPS0_:0000000000000078 .LFE51
     /tmp/ccxHQ5Uc.s:4269   .debug_loc:00000000000000cb .LLST12
     /tmp/ccxHQ5Uc.s:4291   .debug_loc:000000000000012a .LLST13
     /tmp/ccxHQ5Uc.s:4808   .debug_str:00000000000000a2 .LASF168
     /tmp/ccxHQ5Uc.s:426    .text._ZN4ListI3TCBE3addEPS0_:000000000000002c .LBB19
     /tmp/ccxHQ5Uc.s:433    .text._ZN4ListI3TCBE3addEPS0_:0000000000000034 .LBE19
     /tmp/ccxHQ5Uc.s:4313   .debug_loc:0000000000000189 .LLST14
     /tmp/ccxHQ5Uc.s:4320   .debug_loc:00000000000001ac .LLST15
     /tmp/ccxHQ5Uc.s:425    .text._ZN4ListI3TCBE3addEPS0_:000000000000002c .LVL37
     /tmp/ccxHQ5Uc.s:370    .text._ZN4ListI3TCBE4peekEv:0000000000000000 .LFB50
     /tmp/ccxHQ5Uc.s:396    .text._ZN4ListI3TCBE4peekEv:0000000000000024 .LFE50
     /tmp/ccxHQ5Uc.s:4327   .debug_loc:00000000000001cf .LLST11
     /tmp/ccxHQ5Uc.s:4822   .debug_str:00000000000000ec .LASF170
     /tmp/ccxHQ5Uc.s:294    .text:000000000000017c .LFB46
     /tmp/ccxHQ5Uc.s:363    .text:00000000000001d8 .LFE46
     /tmp/ccxHQ5Uc.s:5126   .debug_str:00000000000009e6 .LASF171
     /tmp/ccxHQ5Uc.s:4341   .debug_loc:0000000000000208 .LLST9
     /tmp/ccxHQ5Uc.s:4365   .debug_loc:0000000000000278 .LLST10
     /tmp/ccxHQ5Uc.s:160    .text:00000000000000b8 .LFB45
     /tmp/ccxHQ5Uc.s:202    .text:0000000000000104 .LFE45
     /tmp/ccxHQ5Uc.s:133    .text:000000000000009c .LFB44
     /tmp/ccxHQ5Uc.s:154    .text:00000000000000b8 .LFE44
     /tmp/ccxHQ5Uc.s:4386   .debug_loc:00000000000002d6 .LLST3
     /tmp/ccxHQ5Uc.s:96     .text:000000000000006c .LFB43
     /tmp/ccxHQ5Uc.s:127    .text:000000000000009c .LFE43
     /tmp/ccxHQ5Uc.s:4400   .debug_loc:000000000000030f .LLST2
     /tmp/ccxHQ5Uc.s:116    .text:000000000000008c .LVL11
     /tmp/ccxHQ5Uc.s:64     .text:0000000000000044 .LFB42
     /tmp/ccxHQ5Uc.s:90     .text:000000000000006c .LFE42
     /tmp/ccxHQ5Uc.s:4420   .debug_loc:000000000000035e .LLST1
     /tmp/ccxHQ5Uc.s:79     .text:000000000000005c .LVL7
     /tmp/ccxHQ5Uc.s:605    .text:000000000000029c .LFB41
     /tmp/ccxHQ5Uc.s:715    .text:0000000000000344 .LFE41
     /tmp/ccxHQ5Uc.s:5140   .debug_str:0000000000000a45 .LASF172
     /tmp/ccxHQ5Uc.s:4434   .debug_loc:0000000000000397 .LLST19
     /tmp/ccxHQ5Uc.s:5024   .debug_str:0000000000000682 .LASF173
     /tmp/ccxHQ5Uc.s:4471   .debug_loc:0000000000000432 .LLST20
GAS LISTING /tmp/ccxHQ5Uc.s 			page 38


     /tmp/ccxHQ5Uc.s:672    .text:0000000000000310 .LVL59
     /tmp/ccxHQ5Uc.s:798    .text:0000000000000344 .LFB40
     /tmp/ccxHQ5Uc.s:836    .text:0000000000000380 .LFE40
     /tmp/ccxHQ5Uc.s:4507   .debug_loc:00000000000004bd .LLST24
     /tmp/ccxHQ5Uc.s:4527   .debug_loc:000000000000050b .LLST25
     /tmp/ccxHQ5Uc.s:815    .text:0000000000000360 .LVL73
     /tmp/ccxHQ5Uc.s:824    .text:0000000000000370 .LVL74
     /tmp/ccxHQ5Uc.s:479    .text:00000000000001d8 .LFB39
     /tmp/ccxHQ5Uc.s:538    .text:0000000000000248 .LFE39
     /tmp/ccxHQ5Uc.s:4534   .debug_loc:000000000000052e .LLST16
     /tmp/ccxHQ5Uc.s:4992   .debug_str:00000000000005a0 .LASF174
     /tmp/ccxHQ5Uc.s:4554   .debug_loc:000000000000057c .LLST17
     /tmp/ccxHQ5Uc.s:510    .text:0000000000000214 .LVL45
     /tmp/ccxHQ5Uc.s:514    .text:000000000000021c .LVL46
     /tmp/ccxHQ5Uc.s:522    .text:0000000000000230 .LVL47
     /tmp/ccxHQ5Uc.s:10     .text:0000000000000000 .LFB38
     /tmp/ccxHQ5Uc.s:58     .text:0000000000000044 .LFE38
     /tmp/ccxHQ5Uc.s:4561   .debug_loc:000000000000059f .LLST0
     /tmp/ccxHQ5Uc.s:41     .text:000000000000002c .LVL3
     /tmp/ccxHQ5Uc.s:915    .text:00000000000003f0 .LFB37
     /tmp/ccxHQ5Uc.s:969    .text:0000000000000444 .LFE37
     /tmp/ccxHQ5Uc.s:4597   .debug_loc:000000000000062a .LLST27
     /tmp/ccxHQ5Uc.s:950    .text:0000000000000428 .LVL86
     /tmp/ccxHQ5Uc.s:544    .text:0000000000000248 .LFB36
     /tmp/ccxHQ5Uc.s:599    .text:000000000000029c .LFE36
     /tmp/ccxHQ5Uc.s:4633   .debug_loc:00000000000006b5 .LLST18
     /tmp/ccxHQ5Uc.s:579    .text:0000000000000280 .LVL52
     /tmp/ccxHQ5Uc.s:842    .text:0000000000000380 .LFB35
     /tmp/ccxHQ5Uc.s:909    .text:00000000000003f0 .LFE35
     /tmp/ccxHQ5Uc.s:4669   .debug_loc:0000000000000740 .LLST26
     /tmp/ccxHQ5Uc.s:863    .text:00000000000003a4 .LVL76
     /tmp/ccxHQ5Uc.s:870    .text:00000000000003b0 .LVL77
     /tmp/ccxHQ5Uc.s:877    .text:00000000000003c0 .LVL78
     /tmp/ccxHQ5Uc.s:885    .text:00000000000003d0 .LVL79
     /tmp/ccxHQ5Uc.s:208    .text:0000000000000104 .LFB34
     /tmp/ccxHQ5Uc.s:288    .text:000000000000017c .LFE34
     /tmp/ccxHQ5Uc.s:4698   .debug_loc:00000000000007b5 .LLST4
     /tmp/ccxHQ5Uc.s:4820   .debug_str:00000000000000e7 .LASF175
     /tmp/ccxHQ5Uc.s:4720   .debug_loc:0000000000000814 .LLST5
     /tmp/ccxHQ5Uc.s:232    .text:0000000000000130 .LBB15
     /tmp/ccxHQ5Uc.s:253    .text:0000000000000148 .LBE15
     /tmp/ccxHQ5Uc.s:4734   .debug_loc:000000000000084d .LLST6
     /tmp/ccxHQ5Uc.s:4741   .debug_loc:0000000000000870 .LLST7
     /tmp/ccxHQ5Uc.s:239    .text:0000000000000138 .LBB17
     /tmp/ccxHQ5Uc.s:248    .text:0000000000000144 .LBE17
     /tmp/ccxHQ5Uc.s:4748   .debug_loc:0000000000000893 .LLST8
     /tmp/ccxHQ5Uc.s:231    .text:0000000000000130 .LVL17
     /tmp/ccxHQ5Uc.s:261    .text:0000000000000158 .LVL21
     /tmp/ccxHQ5Uc.s:4980   .debug_str:000000000000054e .LASF176
     /tmp/ccxHQ5Uc.s:5020   .debug_str:0000000000000668 .LASF177
     /tmp/ccxHQ5Uc.s:4884   .debug_str:00000000000002a8 .LASF178
     /tmp/ccxHQ5Uc.s:4976   .debug_str:0000000000000530 .LASF186
     /tmp/ccxHQ5Uc.s:5068   .debug_str:00000000000007b0 .LASF187
     /tmp/ccxHQ5Uc.s:725    .text._ZN4ListI3TCBE3getEv:0000000000000000 .LVL63
     /tmp/ccxHQ5Uc.s:741    .text._ZN4ListI3TCBE3getEv:0000000000000020 .LVL64
     /tmp/ccxHQ5Uc.s:773    .text._ZN4ListI3TCBE3getEv:0000000000000058 .LVL68
     /tmp/ccxHQ5Uc.s:779    .text._ZN4ListI3TCBE3getEv:0000000000000064 .LVL69
GAS LISTING /tmp/ccxHQ5Uc.s 			page 39


     /tmp/ccxHQ5Uc.s:746    .text._ZN4ListI3TCBE3getEv:0000000000000028 .LVL65
     /tmp/ccxHQ5Uc.s:761    .text._ZN4ListI3TCBE3getEv:0000000000000048 .LVL67
     /tmp/ccxHQ5Uc.s:785    .text._ZN4ListI3TCBE3getEv:000000000000006c .LVL70
     /tmp/ccxHQ5Uc.s:406    .text._ZN4ListI3TCBE3addEPS0_:0000000000000000 .LVL35
     /tmp/ccxHQ5Uc.s:423    .text._ZN4ListI3TCBE3addEPS0_:0000000000000024 .LVL36
     /tmp/ccxHQ5Uc.s:457    .text._ZN4ListI3TCBE3addEPS0_:0000000000000060 .LVL39
     /tmp/ccxHQ5Uc.s:464    .text._ZN4ListI3TCBE3addEPS0_:000000000000006c .LVL41
     /tmp/ccxHQ5Uc.s:460    .text._ZN4ListI3TCBE3addEPS0_:0000000000000064 .LVL40
     /tmp/ccxHQ5Uc.s:431    .text._ZN4ListI3TCBE3addEPS0_:0000000000000034 .LVL38
     /tmp/ccxHQ5Uc.s:373    .text._ZN4ListI3TCBE4peekEv:0000000000000000 .LVL33
     /tmp/ccxHQ5Uc.s:382    .text._ZN4ListI3TCBE4peekEv:0000000000000010 .LVL34
     /tmp/ccxHQ5Uc.s:305    .text:0000000000000188 .LVL25
     /tmp/ccxHQ5Uc.s:312    .text:0000000000000194 .LVL27
     /tmp/ccxHQ5Uc.s:319    .text:000000000000019c .LVL28
     /tmp/ccxHQ5Uc.s:325    .text:00000000000001a4 .LVL29
     /tmp/ccxHQ5Uc.s:336    .text:00000000000001b4 .LVL30
     /tmp/ccxHQ5Uc.s:351    .text:00000000000001c4 .LVL31
     /tmp/ccxHQ5Uc.s:357    .text:00000000000001cc .LVL32
     /tmp/ccxHQ5Uc.s:309    .text:0000000000000190 .LVL26
     /tmp/ccxHQ5Uc.s:136    .text:000000000000009c .LVL12
     /tmp/ccxHQ5Uc.s:146    .text:00000000000000ac .LVL13
     /tmp/ccxHQ5Uc.s:99     .text:000000000000006c .LVL8
     /tmp/ccxHQ5Uc.s:111    .text:0000000000000080 .LVL9
     /tmp/ccxHQ5Uc.s:114    .text:0000000000000084 .LVL10
     /tmp/ccxHQ5Uc.s:67     .text:0000000000000044 .LVL6
     /tmp/ccxHQ5Uc.s:608    .text:000000000000029c .LVL55
     /tmp/ccxHQ5Uc.s:637    .text:00000000000002d4 .LVL56
     /tmp/ccxHQ5Uc.s:648    .text:00000000000002e0 .LVL57
     /tmp/ccxHQ5Uc.s:654    .text:00000000000002ec .LVL58
     /tmp/ccxHQ5Uc.s:692    .text:0000000000000334 .LVL60
     /tmp/ccxHQ5Uc.s:701    .text:0000000000000338 .LVL61
     /tmp/ccxHQ5Uc.s:704    .text:000000000000033c .LVL62
     /tmp/ccxHQ5Uc.s:801    .text:0000000000000344 .LVL71
     /tmp/ccxHQ5Uc.s:813    .text:0000000000000358 .LVL72
     /tmp/ccxHQ5Uc.s:482    .text:00000000000001d8 .LVL42
     /tmp/ccxHQ5Uc.s:508    .text:000000000000020c .LVL44
     /tmp/ccxHQ5Uc.s:499    .text:00000000000001fc .LVL43
     /tmp/ccxHQ5Uc.s:531    .text:000000000000023c .LVL48
     /tmp/ccxHQ5Uc.s:14     .text:0000000000000000 .LVL0
     /tmp/ccxHQ5Uc.s:24     .text:0000000000000010 .LVL1
     /tmp/ccxHQ5Uc.s:27     .text:0000000000000014 .LVL2
     /tmp/ccxHQ5Uc.s:51     .text:000000000000003c .LVL4
     /tmp/ccxHQ5Uc.s:55     .text:0000000000000040 .LVL5
     /tmp/ccxHQ5Uc.s:918    .text:00000000000003f0 .LVL83
     /tmp/ccxHQ5Uc.s:933    .text:000000000000040c .LVL84
     /tmp/ccxHQ5Uc.s:936    .text:0000000000000410 .LVL85
     /tmp/ccxHQ5Uc.s:962    .text:000000000000043c .LVL87
     /tmp/ccxHQ5Uc.s:966    .text:0000000000000440 .LVL88
     /tmp/ccxHQ5Uc.s:547    .text:0000000000000248 .LVL49
     /tmp/ccxHQ5Uc.s:562    .text:0000000000000264 .LVL50
     /tmp/ccxHQ5Uc.s:565    .text:0000000000000268 .LVL51
     /tmp/ccxHQ5Uc.s:592    .text:0000000000000294 .LVL53
     /tmp/ccxHQ5Uc.s:596    .text:0000000000000298 .LVL54
     /tmp/ccxHQ5Uc.s:845    .text:0000000000000380 .LVL75
     /tmp/ccxHQ5Uc.s:897    .text:00000000000003e0 .LVL80
     /tmp/ccxHQ5Uc.s:901    .text:00000000000003e8 .LVL81
     /tmp/ccxHQ5Uc.s:905    .text:00000000000003ec .LVL82
GAS LISTING /tmp/ccxHQ5Uc.s 			page 40


     /tmp/ccxHQ5Uc.s:211    .text:0000000000000104 .LVL15
     /tmp/ccxHQ5Uc.s:229    .text:0000000000000128 .LVL16
     /tmp/ccxHQ5Uc.s:275    .text:0000000000000168 .LVL22
     /tmp/ccxHQ5Uc.s:281    .text:0000000000000174 .LVL23
     /tmp/ccxHQ5Uc.s:251    .text:0000000000000148 .LVL20
     /tmp/ccxHQ5Uc.s:238    .text:0000000000000138 .LVL18
     /tmp/ccxHQ5Uc.s:246    .text:0000000000000144 .LVL19
     /tmp/ccxHQ5Uc.s:992    .debug_info:0000000000000000 .Ldebug_info0
     /tmp/ccxHQ5Uc.s:5      .text:0000000000000000 .Ltext0
     /tmp/ccxHQ5Uc.s:985    .text:0000000000000444 .Letext0

UNDEFINED SYMBOLS
_Z8sem_waitP3Sem
_ZN15MemoryAllocator8mem_freeEPv
_ZN15MemoryAllocator9mem_allocEm
_Znwm
_ZN3TCB7runningE
_ZN9Scheduler3getEv
_ZN3TCB5yieldEPS_S0_
_ZdlPv
_ZN9Scheduler3putEP3TCB
