GAS LISTING /tmp/ccheI9jv.s 			page 1


   1              		.file	"semaphore.cpp"
   2              		.option pic
   3              		.option norelax
   4              		.text
   5              	.Ltext0:
   6              		.align	2
   7              		.globl	_ZN3Sem7trywaitEPS_
   9              	_ZN3Sem7trywaitEPS_:
  10              	.LFB36:
  11              		.file 1 "src/semaphore.cpp"
   1:src/semaphore.cpp **** 
   2:src/semaphore.cpp **** #include "../h/semaphore.hpp"
   3:src/semaphore.cpp **** 
   4:src/semaphore.cpp **** int Sem::wait(sem_t handle) {
   5:src/semaphore.cpp ****     if (!handle) return SEM_CLOSED;
   6:src/semaphore.cpp ****     if (--(handle->value) < 0) {
   7:src/semaphore.cpp ****         handle->block();
   8:src/semaphore.cpp ****     }
   9:src/semaphore.cpp ****     return 0;
  10:src/semaphore.cpp **** }
  11:src/semaphore.cpp **** 
  12:src/semaphore.cpp **** int Sem::signal(sem_t handle) {
  13:src/semaphore.cpp ****     if (!handle) return SEM_CLOSED;
  14:src/semaphore.cpp ****     if (++(handle->value) <= 0) handle->deblock();
  15:src/semaphore.cpp ****     return 0;
  16:src/semaphore.cpp **** }
  17:src/semaphore.cpp **** 
  18:src/semaphore.cpp **** int Sem::trywait(sem_t handle) { /// ??????????????????
  12              		.loc 1 18 32
  13              		.cfi_startproc
  14              	.LVL0:
  15 0000 130101FF 		addi	sp,sp,-16
  16              		.cfi_def_cfa_offset 16
  17 0004 23348100 		sd	s0,8(sp)
  18              		.cfi_offset 8, -8
  19 0008 13040101 		addi	s0,sp,16
  20              		.cfi_def_cfa 8, 0
  19:src/semaphore.cpp **** 
  20:src/semaphore.cpp ****     if (!handle) return SEM_CLOSED; // error code
  21              		.loc 1 20 5
  22 000c 63020502 		beqz	a0,.L3
  21:src/semaphore.cpp ****     if (handle->value <= 0) return 1; // no success
  23              		.loc 1 21 5
  24              		.loc 1 21 17 is_stmt 0
  25 0010 83270500 		lw	a5,0(a0)
  26              		.loc 1 21 5
  27 0014 6352F002 		blez	a5,.L4
  22:src/semaphore.cpp ****     --(handle->value);
  28              		.loc 1 22 5 is_stmt 1
  29 0018 9B87F7FF 		addiw	a5,a5,-1
  30 001c 2320F500 		sw	a5,0(a0)
  23:src/semaphore.cpp ****     return 0;                       // sem not locked
  31              		.loc 1 23 5
  32              		.loc 1 23 12 is_stmt 0
  33 0020 13050000 		li	a0,0
  34              	.LVL1:
  35              	.L2:
GAS LISTING /tmp/ccheI9jv.s 			page 2


  24:src/semaphore.cpp **** }
  36              		.loc 1 24 1
  37 0024 03348100 		ld	s0,8(sp)
  38              		.cfi_remember_state
  39              		.cfi_restore 8
  40              		.cfi_def_cfa 2, 16
  41 0028 13010101 		addi	sp,sp,16
  42              		.cfi_def_cfa_offset 0
  43 002c 67800000 		jr	ra
  44              	.LVL2:
  45              	.L3:
  46              		.cfi_restore_state
  20:src/semaphore.cpp ****     if (handle->value <= 0) return 1; // no success
  47              		.loc 1 20 25
  48 0030 1305D0FF 		li	a0,-3
  49              	.LVL3:
  50 0034 6FF01FFF 		j	.L2
  51              	.LVL4:
  52              	.L4:
  21:src/semaphore.cpp ****     --(handle->value);
  53              		.loc 1 21 36
  54 0038 13051000 		li	a0,1
  55              	.LVL5:
  56 003c 6FF09FFE 		j	.L2
  57              		.cfi_endproc
  58              	.LFE36:
  60              		.align	2
  61              		.globl	_ZN3Sem5blockEv
  63              	_ZN3Sem5blockEv:
  64              	.LFB37:
  25:src/semaphore.cpp **** 
  26:src/semaphore.cpp **** void Sem::block() {
  65              		.loc 1 26 19 is_stmt 1
  66              		.cfi_startproc
  67              	.LVL6:
  68 0040 130101FE 		addi	sp,sp,-32
  69              		.cfi_def_cfa_offset 32
  70 0044 233C1100 		sd	ra,24(sp)
  71 0048 23388100 		sd	s0,16(sp)
  72 004c 23349100 		sd	s1,8(sp)
  73 0050 23302101 		sd	s2,0(sp)
  74              		.cfi_offset 1, -8
  75              		.cfi_offset 8, -16
  76              		.cfi_offset 9, -24
  77              		.cfi_offset 18, -32
  78 0054 13040102 		addi	s0,sp,32
  79              		.cfi_def_cfa 8, 0
  27:src/semaphore.cpp **** 
  28:src/semaphore.cpp ****     TCB* oldRunning = TCB::running;
  80              		.loc 1 28 5
  81              		.loc 1 28 10 is_stmt 0
  82 0058 17090000 		la	s2,_ZN3TCB7runningE
  82      03390900 
  83 0060 83340900 		ld	s1,0(s2)
  84              	.LVL7:
  29:src/semaphore.cpp **** 
  30:src/semaphore.cpp ****     blocked.add(oldRunning);
GAS LISTING /tmp/ccheI9jv.s 			page 3


  85              		.loc 1 30 5 is_stmt 1
  86              		.loc 1 30 16 is_stmt 0
  87 0064 93850400 		mv	a1,s1
  88 0068 13058500 		addi	a0,a0,8
  89              	.LVL8:
  90 006c 97000000 		call	_ZN4List3addEP3TCB@plt
  90      E7800000 
  91              	.LVL9:
  31:src/semaphore.cpp **** 
  32:src/semaphore.cpp ****     oldRunning -> current_state = TCB::BLOCKED;
  92              		.loc 1 32 5 is_stmt 1
  93              		.loc 1 32 33 is_stmt 0
  94 0074 93074000 		li	a5,4
  95 0078 23A0F406 		sw	a5,96(s1)
  33:src/semaphore.cpp **** 
  34:src/semaphore.cpp ****     TCB::running = Scheduler::get();
  96              		.loc 1 34 5 is_stmt 1
  97              		.loc 1 34 34 is_stmt 0
  98 007c 97000000 		call	_ZN9Scheduler3getEv@plt
  98      E7800000 
  99              	.LVL10:
 100 0084 93050500 		mv	a1,a0
 101              		.loc 1 34 18
 102 0088 2330A900 		sd	a0,0(s2)
  35:src/semaphore.cpp ****     TCB::yield(oldRunning, TCB::running);
 103              		.loc 1 35 5 is_stmt 1
 104              		.loc 1 35 15 is_stmt 0
 105 008c 13850400 		mv	a0,s1
 106 0090 97000000 		call	_ZN3TCB5yieldEPS_S0_@plt
 106      E7800000 
 107              	.LVL11:
  36:src/semaphore.cpp **** }
 108              		.loc 1 36 1
 109 0098 83308101 		ld	ra,24(sp)
 110              		.cfi_restore 1
 111 009c 03340101 		ld	s0,16(sp)
 112              		.cfi_restore 8
 113              		.cfi_def_cfa 2, 32
 114 00a0 83348100 		ld	s1,8(sp)
 115              		.cfi_restore 9
 116              	.LVL12:
 117 00a4 03390100 		ld	s2,0(sp)
 118              		.cfi_restore 18
 119 00a8 13010102 		addi	sp,sp,32
 120              		.cfi_def_cfa_offset 0
 121 00ac 67800000 		jr	ra
 122              		.cfi_endproc
 123              	.LFE37:
 125              		.align	2
 126              		.globl	_ZN3Sem4waitEPS_
 128              	_ZN3Sem4waitEPS_:
 129              	.LFB34:
   4:src/semaphore.cpp ****     if (--(handle->value) < 0) {
 130              		.loc 1 4 29 is_stmt 1
 131              		.cfi_startproc
 132              	.LVL13:
   5:src/semaphore.cpp ****     if (--(handle->value) < 0) {
GAS LISTING /tmp/ccheI9jv.s 			page 4


 133              		.loc 1 5 5
 134 00b0 63060504 		beqz	a0,.L10
   6:src/semaphore.cpp ****         handle->block();
 135              		.loc 1 6 5
   6:src/semaphore.cpp ****         handle->block();
 136              		.loc 1 6 20 is_stmt 0
 137 00b4 83270500 		lw	a5,0(a0)
   6:src/semaphore.cpp ****         handle->block();
 138              		.loc 1 6 9
 139 00b8 9B87F7FF 		addiw	a5,a5,-1
   6:src/semaphore.cpp ****         handle->block();
 140              		.loc 1 6 27
 141 00bc 2320F500 		sw	a5,0(a0)
   6:src/semaphore.cpp ****         handle->block();
 142              		.loc 1 6 5
 143 00c0 13970702 		slli	a4,a5,32
 144 00c4 63460700 		bltz	a4,.L16
   9:src/semaphore.cpp **** }
 145              		.loc 1 9 12
 146 00c8 13050000 		li	a0,0
 147              	.LVL14:
  10:src/semaphore.cpp **** 
 148              		.loc 1 10 1
 149 00cc 67800000 		ret
 150              	.LVL15:
 151              	.L16:
   4:src/semaphore.cpp ****     if (--(handle->value) < 0) {
 152              		.loc 1 4 29
 153 00d0 130101FF 		addi	sp,sp,-16
 154              		.cfi_def_cfa_offset 16
 155 00d4 23341100 		sd	ra,8(sp)
 156 00d8 23308100 		sd	s0,0(sp)
 157              		.cfi_offset 1, -8
 158              		.cfi_offset 8, -16
 159 00dc 13040101 		addi	s0,sp,16
 160              		.cfi_def_cfa 8, 0
   7:src/semaphore.cpp ****     }
 161              		.loc 1 7 9 is_stmt 1
   7:src/semaphore.cpp ****     }
 162              		.loc 1 7 22 is_stmt 0
 163 00e0 97000000 		call	_ZN3Sem5blockEv
 163      E7800000 
 164              	.LVL16:
   9:src/semaphore.cpp **** }
 165              		.loc 1 9 12
 166 00e8 13050000 		li	a0,0
  10:src/semaphore.cpp **** 
 167              		.loc 1 10 1
 168 00ec 83308100 		ld	ra,8(sp)
 169              		.cfi_restore 1
 170 00f0 03340100 		ld	s0,0(sp)
 171              		.cfi_restore 8
 172              		.cfi_def_cfa 2, 16
 173 00f4 13010101 		addi	sp,sp,16
 174              		.cfi_def_cfa_offset 0
 175 00f8 67800000 		jr	ra
 176              	.LVL17:
GAS LISTING /tmp/ccheI9jv.s 			page 5


 177              	.L10:
   5:src/semaphore.cpp ****     if (--(handle->value) < 0) {
 178              		.loc 1 5 25
 179 00fc 1305D0FF 		li	a0,-3
 180              	.LVL18:
 181 0100 67800000 		ret
 182              		.cfi_endproc
 183              	.LFE34:
 185              		.align	2
 186              		.globl	_ZN3Sem7deblockEv
 188              	_ZN3Sem7deblockEv:
 189              	.LFB38:
  37:src/semaphore.cpp **** 
  38:src/semaphore.cpp **** void Sem::deblock() {
 190              		.loc 1 38 21 is_stmt 1
 191              		.cfi_startproc
 192              	.LVL19:
 193 0104 130101FF 		addi	sp,sp,-16
 194              		.cfi_def_cfa_offset 16
 195 0108 23341100 		sd	ra,8(sp)
 196 010c 23308100 		sd	s0,0(sp)
 197              		.cfi_offset 1, -8
 198              		.cfi_offset 8, -16
 199 0110 13040101 		addi	s0,sp,16
 200              		.cfi_def_cfa 8, 0
  39:src/semaphore.cpp **** 
  40:src/semaphore.cpp ****     // needs modification for timedWait
  41:src/semaphore.cpp **** 
  42:src/semaphore.cpp ****     TCB* tcb = blocked.get();
 201              		.loc 1 42 5
 202              		.loc 1 42 27 is_stmt 0
 203 0114 13058500 		addi	a0,a0,8
 204              	.LVL20:
 205 0118 97000000 		call	_ZN4List3getEv@plt
 205      E7800000 
 206              	.LVL21:
  43:src/semaphore.cpp ****     if (!tcb) return; // should not happen
 207              		.loc 1 43 5 is_stmt 1
 208 0120 63080500 		beqz	a0,.L17
  44:src/semaphore.cpp ****     tcb->current_state = TCB::RUNNABLE;
 209              		.loc 1 44 5
 210              		.loc 1 44 24 is_stmt 0
 211 0124 23200506 		sw	zero,96(a0)
  45:src/semaphore.cpp ****     Scheduler::put(tcb);
 212              		.loc 1 45 5 is_stmt 1
 213              		.loc 1 45 19 is_stmt 0
 214 0128 97000000 		call	_ZN9Scheduler3putEP3TCB@plt
 214      E7800000 
 215              	.LVL22:
 216              	.L17:
  46:src/semaphore.cpp **** 
  47:src/semaphore.cpp **** }
 217              		.loc 1 47 1
 218 0130 83308100 		ld	ra,8(sp)
 219              		.cfi_restore 1
 220 0134 03340100 		ld	s0,0(sp)
 221              		.cfi_restore 8
GAS LISTING /tmp/ccheI9jv.s 			page 6


 222              		.cfi_def_cfa 2, 16
 223 0138 13010101 		addi	sp,sp,16
 224              		.cfi_def_cfa_offset 0
 225 013c 67800000 		jr	ra
 226              		.cfi_endproc
 227              	.LFE38:
 229              		.align	2
 230              		.globl	_ZN3Sem6signalEPS_
 232              	_ZN3Sem6signalEPS_:
 233              	.LFB35:
  12:src/semaphore.cpp ****     if (!handle) return SEM_CLOSED;
 234              		.loc 1 12 31 is_stmt 1
 235              		.cfi_startproc
 236              	.LVL23:
  13:src/semaphore.cpp ****     if (++(handle->value) <= 0) handle->deblock();
 237              		.loc 1 13 5
 238 0140 63060504 		beqz	a0,.L22
  14:src/semaphore.cpp ****     return 0;
 239              		.loc 1 14 5
  14:src/semaphore.cpp ****     return 0;
 240              		.loc 1 14 20 is_stmt 0
 241 0144 83270500 		lw	a5,0(a0)
  14:src/semaphore.cpp ****     return 0;
 242              		.loc 1 14 9
 243 0148 9B871700 		addiw	a5,a5,1
 244 014c 1B870700 		sext.w	a4,a5
  14:src/semaphore.cpp ****     return 0;
 245              		.loc 1 14 27
 246 0150 2320F500 		sw	a5,0(a0)
  14:src/semaphore.cpp ****     return 0;
 247              		.loc 1 14 5
 248 0154 6356E000 		blez	a4,.L28
  15:src/semaphore.cpp **** }
 249              		.loc 1 15 12
 250 0158 13050000 		li	a0,0
 251              	.LVL24:
  16:src/semaphore.cpp **** 
 252              		.loc 1 16 1
 253 015c 67800000 		ret
 254              	.LVL25:
 255              	.L28:
  12:src/semaphore.cpp ****     if (!handle) return SEM_CLOSED;
 256              		.loc 1 12 31 discriminator 1
 257 0160 130101FF 		addi	sp,sp,-16
 258              		.cfi_def_cfa_offset 16
 259 0164 23341100 		sd	ra,8(sp)
 260 0168 23308100 		sd	s0,0(sp)
 261              		.cfi_offset 1, -8
 262              		.cfi_offset 8, -16
 263 016c 13040101 		addi	s0,sp,16
 264              		.cfi_def_cfa 8, 0
  14:src/semaphore.cpp ****     return 0;
 265              		.loc 1 14 33 is_stmt 1 discriminator 1
  14:src/semaphore.cpp ****     return 0;
 266              		.loc 1 14 48 is_stmt 0 discriminator 1
 267 0170 97000000 		call	_ZN3Sem7deblockEv
 267      E7800000 
GAS LISTING /tmp/ccheI9jv.s 			page 7


 268              	.LVL26:
  15:src/semaphore.cpp **** }
 269              		.loc 1 15 12 discriminator 1
 270 0178 13050000 		li	a0,0
  16:src/semaphore.cpp **** 
 271              		.loc 1 16 1 discriminator 1
 272 017c 83308100 		ld	ra,8(sp)
 273              		.cfi_restore 1
 274 0180 03340100 		ld	s0,0(sp)
 275              		.cfi_restore 8
 276              		.cfi_def_cfa 2, 16
 277 0184 13010101 		addi	sp,sp,16
 278              		.cfi_def_cfa_offset 0
 279 0188 67800000 		jr	ra
 280              	.LVL27:
 281              	.L22:
  13:src/semaphore.cpp ****     if (++(handle->value) <= 0) handle->deblock();
 282              		.loc 1 13 25
 283 018c 1305D0FF 		li	a0,-3
 284              	.LVL28:
 285 0190 67800000 		ret
 286              		.cfi_endproc
 287              	.LFE35:
 289              		.align	2
 290              		.globl	_ZN3Sem9timedWaitEPS_m
 292              	_ZN3Sem9timedWaitEPS_m:
 293              	.LFB39:
  48:src/semaphore.cpp **** 
  49:src/semaphore.cpp **** int Sem::timedWait(sem_t, time_t) {
 294              		.loc 1 49 35 is_stmt 1
 295              		.cfi_startproc
 296 0194 130101FF 		addi	sp,sp,-16
 297              		.cfi_def_cfa_offset 16
 298 0198 23348100 		sd	s0,8(sp)
 299              		.cfi_offset 8, -8
 300 019c 13040101 		addi	s0,sp,16
 301              		.cfi_def_cfa 8, 0
  50:src/semaphore.cpp ****     // after timer implementation
  51:src/semaphore.cpp ****     return 0;
 302              		.loc 1 51 5
  52:src/semaphore.cpp **** }
 303              		.loc 1 52 1 is_stmt 0
 304 01a0 13050000 		li	a0,0
 305 01a4 03348100 		ld	s0,8(sp)
 306              		.cfi_restore 8
 307              		.cfi_def_cfa 2, 16
 308 01a8 13010101 		addi	sp,sp,16
 309              		.cfi_def_cfa_offset 0
 310 01ac 67800000 		jr	ra
 311              		.cfi_endproc
 312              	.LFE39:
 314              		.align	2
 315              		.globl	_ZN3Sem4openEPPS_j
 317              	_ZN3Sem4openEPPS_j:
 318              	.LFB40:
  53:src/semaphore.cpp **** 
  54:src/semaphore.cpp **** int Sem::open(sem_t *handle, unsigned int init) { // ne ovde
GAS LISTING /tmp/ccheI9jv.s 			page 8


 319              		.loc 1 54 49 is_stmt 1
 320              		.cfi_startproc
 321              	.LVL29:
 322 01b0 130101FE 		addi	sp,sp,-32
 323              		.cfi_def_cfa_offset 32
 324 01b4 233C1100 		sd	ra,24(sp)
 325 01b8 23388100 		sd	s0,16(sp)
 326 01bc 23349100 		sd	s1,8(sp)
 327 01c0 23302101 		sd	s2,0(sp)
 328              		.cfi_offset 1, -8
 329              		.cfi_offset 8, -16
 330              		.cfi_offset 9, -24
 331              		.cfi_offset 18, -32
 332 01c4 13040102 		addi	s0,sp,32
 333              		.cfi_def_cfa 8, 0
 334 01c8 93040500 		mv	s1,a0
 335 01cc 13890500 		mv	s2,a1
  55:src/semaphore.cpp ****     auto newSem = (sem_t) MemoryAllocator::mem_alloc( (sizeof(Sem) + mem_h_size + MEM_BLOCK_SIZE - 
 336              		.loc 1 55 5
 337              		.loc 1 55 53 is_stmt 0
 338 01d0 13051000 		li	a0,1
 339              	.LVL30:
 340 01d4 97000000 		call	_ZN15MemoryAllocator9mem_allocEm@plt
 340      E7800000 
 341              	.LVL31:
  56:src/semaphore.cpp ****     if (!newSem) return MEMORY_ERR;
 342              		.loc 1 56 5 is_stmt 1
 343 01dc 63040502 		beqz	a0,.L33
  57:src/semaphore.cpp ****     newSem -> value = (int)init;
 344              		.loc 1 57 5
 345              		.loc 1 57 21 is_stmt 0
 346 01e0 23202501 		sw	s2,0(a0)
  58:src/semaphore.cpp ****     *handle = newSem;
 347              		.loc 1 58 5 is_stmt 1
 348              		.loc 1 58 13 is_stmt 0
 349 01e4 23B0A400 		sd	a0,0(s1)
  59:src/semaphore.cpp ****     return 0;
 350              		.loc 1 59 5 is_stmt 1
 351              		.loc 1 59 12 is_stmt 0
 352 01e8 13050000 		li	a0,0
 353              	.LVL32:
 354              	.L32:
  60:src/semaphore.cpp **** }
 355              		.loc 1 60 1
 356 01ec 83308101 		ld	ra,24(sp)
 357              		.cfi_remember_state
 358              		.cfi_restore 1
 359 01f0 03340101 		ld	s0,16(sp)
 360              		.cfi_restore 8
 361              		.cfi_def_cfa 2, 32
 362 01f4 83348100 		ld	s1,8(sp)
 363              		.cfi_restore 9
 364              	.LVL33:
 365 01f8 03390100 		ld	s2,0(sp)
 366              		.cfi_restore 18
 367 01fc 13010102 		addi	sp,sp,32
 368              		.cfi_def_cfa_offset 0
GAS LISTING /tmp/ccheI9jv.s 			page 9


 369 0200 67800000 		jr	ra
 370              	.LVL34:
 371              	.L33:
 372              		.cfi_restore_state
  56:src/semaphore.cpp ****     newSem -> value = (int)init;
 373              		.loc 1 56 25
 374 0204 1305F0FF 		li	a0,-1
 375              	.LVL35:
 376 0208 6FF05FFE 		j	.L32
 377              		.cfi_endproc
 378              	.LFE40:
 380              		.align	2
 381              		.globl	_ZN3SemdlEPv
 383              	_ZN3SemdlEPv:
 384              	.LFB42:
  61:src/semaphore.cpp **** 
  62:src/semaphore.cpp **** int Sem::s_close(sem_t handle) {
  63:src/semaphore.cpp **** 
  64:src/semaphore.cpp ****     if (!handle) return SEM_CLOSED;
  65:src/semaphore.cpp **** 
  66:src/semaphore.cpp ****     while (handle->blocked.peek()) {
  67:src/semaphore.cpp ****         // return value of wait ????
  68:src/semaphore.cpp ****         handle->deblock();
  69:src/semaphore.cpp ****     }
  70:src/semaphore.cpp **** 
  71:src/semaphore.cpp ****     delete handle;
  72:src/semaphore.cpp ****     return 0;
  73:src/semaphore.cpp **** }
  74:src/semaphore.cpp **** 
  75:src/semaphore.cpp **** void Sem::operator delete(void *ptr) {
 385              		.loc 1 75 38 is_stmt 1
 386              		.cfi_startproc
 387              	.LVL36:
 388 020c 130101FF 		addi	sp,sp,-16
 389              		.cfi_def_cfa_offset 16
 390 0210 23341100 		sd	ra,8(sp)
 391 0214 23308100 		sd	s0,0(sp)
 392              		.cfi_offset 1, -8
 393              		.cfi_offset 8, -16
 394 0218 13040101 		addi	s0,sp,16
 395              		.cfi_def_cfa 8, 0
  76:src/semaphore.cpp ****     MemoryAllocator::mem_free(ptr);
 396              		.loc 1 76 5
 397              		.loc 1 76 30 is_stmt 0
 398 021c 97000000 		call	_ZN15MemoryAllocator8mem_freeEPKv@plt
 398      E7800000 
 399              	.LVL37:
  77:src/semaphore.cpp **** }
 400              		.loc 1 77 1
 401 0224 83308100 		ld	ra,8(sp)
 402              		.cfi_restore 1
 403 0228 03340100 		ld	s0,0(sp)
 404              		.cfi_restore 8
 405              		.cfi_def_cfa 2, 16
 406 022c 13010101 		addi	sp,sp,16
 407              		.cfi_def_cfa_offset 0
 408 0230 67800000 		jr	ra
GAS LISTING /tmp/ccheI9jv.s 			page 10


 409              		.cfi_endproc
 410              	.LFE42:
 412              		.align	2
 413              		.globl	_ZN3Sem7s_closeEPS_
 415              	_ZN3Sem7s_closeEPS_:
 416              	.LFB41:
  62:src/semaphore.cpp **** 
 417              		.loc 1 62 32 is_stmt 1
 418              		.cfi_startproc
 419              	.LVL38:
 420 0234 130101FE 		addi	sp,sp,-32
 421              		.cfi_def_cfa_offset 32
 422 0238 233C1100 		sd	ra,24(sp)
 423 023c 23388100 		sd	s0,16(sp)
 424 0240 23349100 		sd	s1,8(sp)
 425              		.cfi_offset 1, -8
 426              		.cfi_offset 8, -16
 427              		.cfi_offset 9, -24
 428 0244 13040102 		addi	s0,sp,32
 429              		.cfi_def_cfa 8, 0
 430 0248 93040500 		mv	s1,a0
  64:src/semaphore.cpp **** 
 431              		.loc 1 64 5
 432 024c 63040504 		beqz	a0,.L41
 433              	.LVL39:
 434              	.L40:
  66:src/semaphore.cpp ****         // return value of wait ????
 435              		.loc 1 66 5
  66:src/semaphore.cpp ****         // return value of wait ????
 436              		.loc 1 66 33
  66:src/semaphore.cpp ****         // return value of wait ????
 437              		.loc 1 66 32 is_stmt 0
 438 0250 13858400 		addi	a0,s1,8
 439 0254 97000000 		call	_ZN4List4peekEv@plt
 439      E7800000 
 440              	.LVL40:
  66:src/semaphore.cpp ****         // return value of wait ????
 441              		.loc 1 66 33
 442 025c 630A0500 		beqz	a0,.L39
  68:src/semaphore.cpp ****     }
 443              		.loc 1 68 9 is_stmt 1
  68:src/semaphore.cpp ****     }
 444              		.loc 1 68 24 is_stmt 0
 445 0260 13850400 		mv	a0,s1
 446 0264 97000000 		call	_ZN3Sem7deblockEv
 446      E7800000 
 447              	.LVL41:
  66:src/semaphore.cpp ****         // return value of wait ????
 448              		.loc 1 66 5
 449 026c 6FF05FFE 		j	.L40
 450              	.L39:
  71:src/semaphore.cpp ****     return 0;
 451              		.loc 1 71 5 is_stmt 1 discriminator 1
  71:src/semaphore.cpp ****     return 0;
 452              		.loc 1 71 12 is_stmt 0 discriminator 1
 453 0270 13850400 		mv	a0,s1
 454 0274 97000000 		call	_ZN3SemdlEPv
GAS LISTING /tmp/ccheI9jv.s 			page 11


 454      E7800000 
 455              	.LVL42:
  72:src/semaphore.cpp **** }
 456              		.loc 1 72 5 is_stmt 1 discriminator 1
  72:src/semaphore.cpp **** }
 457              		.loc 1 72 12 is_stmt 0 discriminator 1
 458 027c 13050000 		li	a0,0
 459              	.L38:
  73:src/semaphore.cpp **** 
 460              		.loc 1 73 1
 461 0280 83308101 		ld	ra,24(sp)
 462              		.cfi_remember_state
 463              		.cfi_restore 1
 464 0284 03340101 		ld	s0,16(sp)
 465              		.cfi_restore 8
 466              		.cfi_def_cfa 2, 32
 467 0288 83348100 		ld	s1,8(sp)
 468              		.cfi_restore 9
 469              	.LVL43:
 470 028c 13010102 		addi	sp,sp,32
 471              		.cfi_def_cfa_offset 0
 472 0290 67800000 		jr	ra
 473              	.LVL44:
 474              	.L41:
 475              		.cfi_restore_state
  64:src/semaphore.cpp **** 
 476              		.loc 1 64 25
 477 0294 1305D0FF 		li	a0,-3
 478 0298 6FF09FFE 		j	.L38
 479              		.cfi_endproc
 480              	.LFE41:
 482              		.align	2
 483              		.globl	_ZN3SemnwEm
 485              	_ZN3SemnwEm:
 486              	.LFB43:
  78:src/semaphore.cpp **** 
  79:src/semaphore.cpp **** void *Sem::operator new(size_t size) {
 487              		.loc 1 79 38 is_stmt 1
 488              		.cfi_startproc
 489              	.LVL45:
 490 029c 130101FF 		addi	sp,sp,-16
 491              		.cfi_def_cfa_offset 16
 492 02a0 23341100 		sd	ra,8(sp)
 493 02a4 23308100 		sd	s0,0(sp)
 494              		.cfi_offset 1, -8
 495              		.cfi_offset 8, -16
 496 02a8 13040101 		addi	s0,sp,16
 497              		.cfi_def_cfa 8, 0
  80:src/semaphore.cpp ****     return MemoryAllocator::mem_alloc((mem_h_size + size + MEM_BLOCK_SIZE - 1) / MEM_BLOCK_SIZE);
 498              		.loc 1 80 5
 499              		.loc 1 80 75 is_stmt 0
 500 02ac 13057505 		addi	a0,a0,87
 501              	.LVL46:
 502              		.loc 1 80 38
 503 02b0 13556500 		srli	a0,a0,6
 504              	.LVL47:
 505 02b4 97000000 		call	_ZN15MemoryAllocator9mem_allocEm@plt
GAS LISTING /tmp/ccheI9jv.s 			page 12


 505      E7800000 
 506              	.LVL48:
  81:src/semaphore.cpp **** }
 507              		.loc 1 81 1
 508 02bc 83308100 		ld	ra,8(sp)
 509              		.cfi_restore 1
 510 02c0 03340100 		ld	s0,0(sp)
 511              		.cfi_restore 8
 512              		.cfi_def_cfa 2, 16
 513 02c4 13010101 		addi	sp,sp,16
 514              		.cfi_def_cfa_offset 0
 515 02c8 67800000 		jr	ra
 516              		.cfi_endproc
 517              	.LFE43:
 519              	.Letext0:
 520              		.file 2 "src/../h/../lib/hw.h"
 521              		.file 3 "src/../h/../h/Memoryallocator.hpp"
 522              		.file 4 "src/../h/thread.hpp"
 523              		.file 5 "src/../h/Scheduler.hpp"
 524              		.file 6 "src/../h/List.hpp"
 525              		.file 7 "src/../h/semaphore.hpp"
GAS LISTING /tmp/ccheI9jv.s 			page 13


DEFINED SYMBOLS
                            *ABS*:0000000000000000 semaphore.cpp
     /tmp/ccheI9jv.s:9      .text:0000000000000000 _ZN3Sem7trywaitEPS_
     /tmp/ccheI9jv.s:13     .text:0000000000000000 .L0 
     /tmp/ccheI9jv.s:15     .text:0000000000000000 .L0 
     /tmp/ccheI9jv.s:16     .text:0000000000000004 .L0 
     /tmp/ccheI9jv.s:18     .text:0000000000000008 .L0 
     /tmp/ccheI9jv.s:20     .text:000000000000000c .L0 
     /tmp/ccheI9jv.s:22     .text:000000000000000c .L0 
     /tmp/ccheI9jv.s:24     .text:0000000000000010 .L0 
     /tmp/ccheI9jv.s:25     .text:0000000000000010 .L0 
     /tmp/ccheI9jv.s:27     .text:0000000000000014 .L0 
     /tmp/ccheI9jv.s:29     .text:0000000000000018 .L0 
     /tmp/ccheI9jv.s:32     .text:0000000000000020 .L0 
     /tmp/ccheI9jv.s:33     .text:0000000000000020 .L0 
     /tmp/ccheI9jv.s:37     .text:0000000000000024 .L0 
     /tmp/ccheI9jv.s:38     .text:0000000000000028 .L0 
     /tmp/ccheI9jv.s:39     .text:0000000000000028 .L0 
     /tmp/ccheI9jv.s:40     .text:0000000000000028 .L0 
     /tmp/ccheI9jv.s:42     .text:000000000000002c .L0 
     /tmp/ccheI9jv.s:46     .text:0000000000000030 .L0 
     /tmp/ccheI9jv.s:48     .text:0000000000000030 .L0 
     /tmp/ccheI9jv.s:54     .text:0000000000000038 .L0 
     /tmp/ccheI9jv.s:57     .text:0000000000000040 .L0 
     /tmp/ccheI9jv.s:63     .text:0000000000000040 _ZN3Sem5blockEv
     /tmp/ccheI9jv.s:66     .text:0000000000000040 .L0 
     /tmp/ccheI9jv.s:68     .text:0000000000000040 .L0 
     /tmp/ccheI9jv.s:69     .text:0000000000000044 .L0 
     /tmp/ccheI9jv.s:74     .text:0000000000000054 .L0 
     /tmp/ccheI9jv.s:75     .text:0000000000000054 .L0 
     /tmp/ccheI9jv.s:76     .text:0000000000000054 .L0 
     /tmp/ccheI9jv.s:77     .text:0000000000000054 .L0 
     /tmp/ccheI9jv.s:79     .text:0000000000000058 .L0 
     /tmp/ccheI9jv.s:81     .text:0000000000000058 .L0 
     /tmp/ccheI9jv.s:82     .text:0000000000000058 .L0 
     /tmp/ccheI9jv.s:86     .text:0000000000000064 .L0 
     /tmp/ccheI9jv.s:87     .text:0000000000000064 .L0 
     /tmp/ccheI9jv.s:93     .text:0000000000000074 .L0 
     /tmp/ccheI9jv.s:94     .text:0000000000000074 .L0 
     /tmp/ccheI9jv.s:97     .text:000000000000007c .L0 
     /tmp/ccheI9jv.s:98     .text:000000000000007c .L0 
     /tmp/ccheI9jv.s:102    .text:0000000000000088 .L0 
     /tmp/ccheI9jv.s:104    .text:000000000000008c .L0 
     /tmp/ccheI9jv.s:105    .text:000000000000008c .L0 
     /tmp/ccheI9jv.s:109    .text:0000000000000098 .L0 
     /tmp/ccheI9jv.s:110    .text:000000000000009c .L0 
     /tmp/ccheI9jv.s:112    .text:00000000000000a0 .L0 
     /tmp/ccheI9jv.s:113    .text:00000000000000a0 .L0 
     /tmp/ccheI9jv.s:115    .text:00000000000000a4 .L0 
     /tmp/ccheI9jv.s:118    .text:00000000000000a8 .L0 
     /tmp/ccheI9jv.s:120    .text:00000000000000ac .L0 
     /tmp/ccheI9jv.s:122    .text:00000000000000b0 .L0 
     /tmp/ccheI9jv.s:128    .text:00000000000000b0 _ZN3Sem4waitEPS_
     /tmp/ccheI9jv.s:131    .text:00000000000000b0 .L0 
     /tmp/ccheI9jv.s:133    .text:00000000000000b0 .L0 
     /tmp/ccheI9jv.s:134    .text:00000000000000b0 .L0 
     /tmp/ccheI9jv.s:136    .text:00000000000000b4 .L0 
GAS LISTING /tmp/ccheI9jv.s 			page 14


     /tmp/ccheI9jv.s:137    .text:00000000000000b4 .L0 
     /tmp/ccheI9jv.s:139    .text:00000000000000b8 .L0 
     /tmp/ccheI9jv.s:141    .text:00000000000000bc .L0 
     /tmp/ccheI9jv.s:143    .text:00000000000000c0 .L0 
     /tmp/ccheI9jv.s:146    .text:00000000000000c8 .L0 
     /tmp/ccheI9jv.s:149    .text:00000000000000cc .L0 
     /tmp/ccheI9jv.s:153    .text:00000000000000d0 .L0 
     /tmp/ccheI9jv.s:154    .text:00000000000000d4 .L0 
     /tmp/ccheI9jv.s:157    .text:00000000000000dc .L0 
     /tmp/ccheI9jv.s:158    .text:00000000000000dc .L0 
     /tmp/ccheI9jv.s:160    .text:00000000000000e0 .L0 
     /tmp/ccheI9jv.s:162    .text:00000000000000e0 .L0 
     /tmp/ccheI9jv.s:163    .text:00000000000000e0 .L0 
     /tmp/ccheI9jv.s:166    .text:00000000000000e8 .L0 
     /tmp/ccheI9jv.s:168    .text:00000000000000ec .L0 
     /tmp/ccheI9jv.s:169    .text:00000000000000f0 .L0 
     /tmp/ccheI9jv.s:171    .text:00000000000000f4 .L0 
     /tmp/ccheI9jv.s:172    .text:00000000000000f4 .L0 
     /tmp/ccheI9jv.s:174    .text:00000000000000f8 .L0 
     /tmp/ccheI9jv.s:179    .text:00000000000000fc .L0 
     /tmp/ccheI9jv.s:182    .text:0000000000000104 .L0 
     /tmp/ccheI9jv.s:188    .text:0000000000000104 _ZN3Sem7deblockEv
     /tmp/ccheI9jv.s:191    .text:0000000000000104 .L0 
     /tmp/ccheI9jv.s:193    .text:0000000000000104 .L0 
     /tmp/ccheI9jv.s:194    .text:0000000000000108 .L0 
     /tmp/ccheI9jv.s:197    .text:0000000000000110 .L0 
     /tmp/ccheI9jv.s:198    .text:0000000000000110 .L0 
     /tmp/ccheI9jv.s:200    .text:0000000000000114 .L0 
     /tmp/ccheI9jv.s:202    .text:0000000000000114 .L0 
     /tmp/ccheI9jv.s:203    .text:0000000000000114 .L0 
     /tmp/ccheI9jv.s:208    .text:0000000000000120 .L0 
     /tmp/ccheI9jv.s:210    .text:0000000000000124 .L0 
     /tmp/ccheI9jv.s:211    .text:0000000000000124 .L0 
     /tmp/ccheI9jv.s:213    .text:0000000000000128 .L0 
     /tmp/ccheI9jv.s:214    .text:0000000000000128 .L0 
     /tmp/ccheI9jv.s:218    .text:0000000000000130 .L0 
     /tmp/ccheI9jv.s:219    .text:0000000000000134 .L0 
     /tmp/ccheI9jv.s:221    .text:0000000000000138 .L0 
     /tmp/ccheI9jv.s:222    .text:0000000000000138 .L0 
     /tmp/ccheI9jv.s:224    .text:000000000000013c .L0 
     /tmp/ccheI9jv.s:226    .text:0000000000000140 .L0 
     /tmp/ccheI9jv.s:232    .text:0000000000000140 _ZN3Sem6signalEPS_
     /tmp/ccheI9jv.s:235    .text:0000000000000140 .L0 
     /tmp/ccheI9jv.s:237    .text:0000000000000140 .L0 
     /tmp/ccheI9jv.s:238    .text:0000000000000140 .L0 
     /tmp/ccheI9jv.s:240    .text:0000000000000144 .L0 
     /tmp/ccheI9jv.s:241    .text:0000000000000144 .L0 
     /tmp/ccheI9jv.s:243    .text:0000000000000148 .L0 
     /tmp/ccheI9jv.s:246    .text:0000000000000150 .L0 
     /tmp/ccheI9jv.s:248    .text:0000000000000154 .L0 
     /tmp/ccheI9jv.s:250    .text:0000000000000158 .L0 
     /tmp/ccheI9jv.s:253    .text:000000000000015c .L0 
     /tmp/ccheI9jv.s:257    .text:0000000000000160 .L0 
     /tmp/ccheI9jv.s:258    .text:0000000000000164 .L0 
     /tmp/ccheI9jv.s:261    .text:000000000000016c .L0 
     /tmp/ccheI9jv.s:262    .text:000000000000016c .L0 
     /tmp/ccheI9jv.s:264    .text:0000000000000170 .L0 
GAS LISTING /tmp/ccheI9jv.s 			page 15


     /tmp/ccheI9jv.s:266    .text:0000000000000170 .L0 
     /tmp/ccheI9jv.s:267    .text:0000000000000170 .L0 
     /tmp/ccheI9jv.s:270    .text:0000000000000178 .L0 
     /tmp/ccheI9jv.s:272    .text:000000000000017c .L0 
     /tmp/ccheI9jv.s:273    .text:0000000000000180 .L0 
     /tmp/ccheI9jv.s:275    .text:0000000000000184 .L0 
     /tmp/ccheI9jv.s:276    .text:0000000000000184 .L0 
     /tmp/ccheI9jv.s:278    .text:0000000000000188 .L0 
     /tmp/ccheI9jv.s:283    .text:000000000000018c .L0 
     /tmp/ccheI9jv.s:286    .text:0000000000000194 .L0 
     /tmp/ccheI9jv.s:292    .text:0000000000000194 _ZN3Sem9timedWaitEPS_m
     /tmp/ccheI9jv.s:295    .text:0000000000000194 .L0 
     /tmp/ccheI9jv.s:296    .text:0000000000000194 .L0 
     /tmp/ccheI9jv.s:297    .text:0000000000000198 .L0 
     /tmp/ccheI9jv.s:299    .text:000000000000019c .L0 
     /tmp/ccheI9jv.s:301    .text:00000000000001a0 .L0 
     /tmp/ccheI9jv.s:303    .text:00000000000001a0 .L0 
     /tmp/ccheI9jv.s:304    .text:00000000000001a0 .L0 
     /tmp/ccheI9jv.s:306    .text:00000000000001a8 .L0 
     /tmp/ccheI9jv.s:307    .text:00000000000001a8 .L0 
     /tmp/ccheI9jv.s:309    .text:00000000000001ac .L0 
     /tmp/ccheI9jv.s:311    .text:00000000000001b0 .L0 
     /tmp/ccheI9jv.s:317    .text:00000000000001b0 _ZN3Sem4openEPPS_j
     /tmp/ccheI9jv.s:320    .text:00000000000001b0 .L0 
     /tmp/ccheI9jv.s:322    .text:00000000000001b0 .L0 
     /tmp/ccheI9jv.s:323    .text:00000000000001b4 .L0 
     /tmp/ccheI9jv.s:328    .text:00000000000001c4 .L0 
     /tmp/ccheI9jv.s:329    .text:00000000000001c4 .L0 
     /tmp/ccheI9jv.s:330    .text:00000000000001c4 .L0 
     /tmp/ccheI9jv.s:331    .text:00000000000001c4 .L0 
     /tmp/ccheI9jv.s:333    .text:00000000000001c8 .L0 
     /tmp/ccheI9jv.s:337    .text:00000000000001d0 .L0 
     /tmp/ccheI9jv.s:338    .text:00000000000001d0 .L0 
     /tmp/ccheI9jv.s:343    .text:00000000000001dc .L0 
     /tmp/ccheI9jv.s:345    .text:00000000000001e0 .L0 
     /tmp/ccheI9jv.s:346    .text:00000000000001e0 .L0 
     /tmp/ccheI9jv.s:348    .text:00000000000001e4 .L0 
     /tmp/ccheI9jv.s:349    .text:00000000000001e4 .L0 
     /tmp/ccheI9jv.s:351    .text:00000000000001e8 .L0 
     /tmp/ccheI9jv.s:352    .text:00000000000001e8 .L0 
     /tmp/ccheI9jv.s:356    .text:00000000000001ec .L0 
     /tmp/ccheI9jv.s:357    .text:00000000000001f0 .L0 
     /tmp/ccheI9jv.s:358    .text:00000000000001f0 .L0 
     /tmp/ccheI9jv.s:360    .text:00000000000001f4 .L0 
     /tmp/ccheI9jv.s:361    .text:00000000000001f4 .L0 
     /tmp/ccheI9jv.s:363    .text:00000000000001f8 .L0 
     /tmp/ccheI9jv.s:366    .text:00000000000001fc .L0 
     /tmp/ccheI9jv.s:368    .text:0000000000000200 .L0 
     /tmp/ccheI9jv.s:372    .text:0000000000000204 .L0 
     /tmp/ccheI9jv.s:374    .text:0000000000000204 .L0 
     /tmp/ccheI9jv.s:377    .text:000000000000020c .L0 
     /tmp/ccheI9jv.s:383    .text:000000000000020c _ZN3SemdlEPv
     /tmp/ccheI9jv.s:386    .text:000000000000020c .L0 
     /tmp/ccheI9jv.s:388    .text:000000000000020c .L0 
     /tmp/ccheI9jv.s:389    .text:0000000000000210 .L0 
     /tmp/ccheI9jv.s:392    .text:0000000000000218 .L0 
     /tmp/ccheI9jv.s:393    .text:0000000000000218 .L0 
GAS LISTING /tmp/ccheI9jv.s 			page 16


     /tmp/ccheI9jv.s:395    .text:000000000000021c .L0 
     /tmp/ccheI9jv.s:397    .text:000000000000021c .L0 
     /tmp/ccheI9jv.s:398    .text:000000000000021c .L0 
     /tmp/ccheI9jv.s:401    .text:0000000000000224 .L0 
     /tmp/ccheI9jv.s:402    .text:0000000000000228 .L0 
     /tmp/ccheI9jv.s:404    .text:000000000000022c .L0 
     /tmp/ccheI9jv.s:405    .text:000000000000022c .L0 
     /tmp/ccheI9jv.s:407    .text:0000000000000230 .L0 
     /tmp/ccheI9jv.s:409    .text:0000000000000234 .L0 
     /tmp/ccheI9jv.s:415    .text:0000000000000234 _ZN3Sem7s_closeEPS_
     /tmp/ccheI9jv.s:418    .text:0000000000000234 .L0 
     /tmp/ccheI9jv.s:420    .text:0000000000000234 .L0 
     /tmp/ccheI9jv.s:421    .text:0000000000000238 .L0 
     /tmp/ccheI9jv.s:425    .text:0000000000000244 .L0 
     /tmp/ccheI9jv.s:426    .text:0000000000000244 .L0 
     /tmp/ccheI9jv.s:427    .text:0000000000000244 .L0 
     /tmp/ccheI9jv.s:429    .text:0000000000000248 .L0 
     /tmp/ccheI9jv.s:432    .text:000000000000024c .L0 
     /tmp/ccheI9jv.s:436    .text:0000000000000250 .L0 
     /tmp/ccheI9jv.s:437    .text:0000000000000250 .L0 
     /tmp/ccheI9jv.s:438    .text:0000000000000250 .L0 
     /tmp/ccheI9jv.s:442    .text:000000000000025c .L0 
     /tmp/ccheI9jv.s:444    .text:0000000000000260 .L0 
     /tmp/ccheI9jv.s:445    .text:0000000000000260 .L0 
     /tmp/ccheI9jv.s:449    .text:000000000000026c .L0 
     /tmp/ccheI9jv.s:452    .text:0000000000000270 .L0 
     /tmp/ccheI9jv.s:453    .text:0000000000000270 .L0 
     /tmp/ccheI9jv.s:457    .text:000000000000027c .L0 
     /tmp/ccheI9jv.s:458    .text:000000000000027c .L0 
     /tmp/ccheI9jv.s:461    .text:0000000000000280 .L0 
     /tmp/ccheI9jv.s:462    .text:0000000000000284 .L0 
     /tmp/ccheI9jv.s:463    .text:0000000000000284 .L0 
     /tmp/ccheI9jv.s:465    .text:0000000000000288 .L0 
     /tmp/ccheI9jv.s:466    .text:0000000000000288 .L0 
     /tmp/ccheI9jv.s:468    .text:000000000000028c .L0 
     /tmp/ccheI9jv.s:471    .text:0000000000000290 .L0 
     /tmp/ccheI9jv.s:475    .text:0000000000000294 .L0 
     /tmp/ccheI9jv.s:477    .text:0000000000000294 .L0 
     /tmp/ccheI9jv.s:479    .text:000000000000029c .L0 
     /tmp/ccheI9jv.s:485    .text:000000000000029c _ZN3SemnwEm
     /tmp/ccheI9jv.s:488    .text:000000000000029c .L0 
     /tmp/ccheI9jv.s:490    .text:000000000000029c .L0 
     /tmp/ccheI9jv.s:491    .text:00000000000002a0 .L0 
     /tmp/ccheI9jv.s:494    .text:00000000000002a8 .L0 
     /tmp/ccheI9jv.s:495    .text:00000000000002a8 .L0 
     /tmp/ccheI9jv.s:497    .text:00000000000002ac .L0 
     /tmp/ccheI9jv.s:499    .text:00000000000002ac .L0 
     /tmp/ccheI9jv.s:500    .text:00000000000002ac .L0 
     /tmp/ccheI9jv.s:503    .text:00000000000002b0 .L0 
     /tmp/ccheI9jv.s:508    .text:00000000000002bc .L0 
     /tmp/ccheI9jv.s:509    .text:00000000000002c0 .L0 
     /tmp/ccheI9jv.s:511    .text:00000000000002c4 .L0 
     /tmp/ccheI9jv.s:512    .text:00000000000002c4 .L0 
     /tmp/ccheI9jv.s:514    .text:00000000000002c8 .L0 
     /tmp/ccheI9jv.s:516    .text:00000000000002cc .L0 
     /tmp/ccheI9jv.s:526    .text:00000000000002cc .L0 
     /tmp/ccheI9jv.s:82     .text:0000000000000058 .L0 
GAS LISTING /tmp/ccheI9jv.s 			page 17


     /tmp/ccheI9jv.s:45     .text:0000000000000030 .L3
     /tmp/ccheI9jv.s:52     .text:0000000000000038 .L4
     /tmp/ccheI9jv.s:35     .text:0000000000000024 .L2
     /tmp/ccheI9jv.s:177    .text:00000000000000fc .L10
     /tmp/ccheI9jv.s:151    .text:00000000000000d0 .L16
     /tmp/ccheI9jv.s:216    .text:0000000000000130 .L17
     /tmp/ccheI9jv.s:281    .text:000000000000018c .L22
     /tmp/ccheI9jv.s:255    .text:0000000000000160 .L28
     /tmp/ccheI9jv.s:371    .text:0000000000000204 .L33
     /tmp/ccheI9jv.s:354    .text:00000000000001ec .L32
     /tmp/ccheI9jv.s:474    .text:0000000000000294 .L41
     /tmp/ccheI9jv.s:450    .text:0000000000000270 .L39
     /tmp/ccheI9jv.s:434    .text:0000000000000250 .L40
     /tmp/ccheI9jv.s:459    .text:0000000000000280 .L38
     /tmp/ccheI9jv.s:1991   .debug_abbrev:0000000000000000 .Ldebug_abbrev0
     /tmp/ccheI9jv.s:3633   .debug_str:000000000000073c .LASF154
     /tmp/ccheI9jv.s:3529   .debug_str:0000000000000455 .LASF155
     /tmp/ccheI9jv.s:3471   .debug_str:00000000000002c7 .LASF156
     /tmp/ccheI9jv.s:5      .text:0000000000000000 .Ltext0
     /tmp/ccheI9jv.s:519    .text:00000000000002cc .Letext0
     /tmp/ccheI9jv.s:3373   .debug_line:0000000000000000 .Ldebug_line0
     /tmp/ccheI9jv.s:3489   .debug_str:000000000000035b .LASF0
     /tmp/ccheI9jv.s:3515   .debug_str:00000000000003f6 .LASF1
     /tmp/ccheI9jv.s:3585   .debug_str:00000000000005e1 .LASF2
     /tmp/ccheI9jv.s:3593   .debug_str:0000000000000640 .LASF4
     /tmp/ccheI9jv.s:3497   .debug_str:0000000000000393 .LASF3
     /tmp/ccheI9jv.s:3383   .debug_str:0000000000000042 .LASF5
     /tmp/ccheI9jv.s:3565   .debug_str:0000000000000565 .LASF6
     /tmp/ccheI9jv.s:3563   .debug_str:0000000000000552 .LASF7
     /tmp/ccheI9jv.s:3503   .debug_str:00000000000003bc .LASF8
     /tmp/ccheI9jv.s:3467   .debug_str:00000000000002ab .LASF9
     /tmp/ccheI9jv.s:3477   .debug_str:000000000000030e .LASF10
     /tmp/ccheI9jv.s:3423   .debug_str:0000000000000175 .LASF11
     /tmp/ccheI9jv.s:3457   .debug_str:000000000000026a .LASF12
     /tmp/ccheI9jv.s:3433   .debug_str:00000000000001ad .LASF13
     /tmp/ccheI9jv.s:3421   .debug_str:0000000000000165 .LASF14
     /tmp/ccheI9jv.s:3617   .debug_str:00000000000006e0 .LASF15
     /tmp/ccheI9jv.s:3451   .debug_str:000000000000021c .LASF16
     /tmp/ccheI9jv.s:3609   .debug_str:00000000000006a9 .LASF17
     /tmp/ccheI9jv.s:3559   .debug_str:000000000000051d .LASF21
     /tmp/ccheI9jv.s:3417   .debug_str:0000000000000144 .LASF37
     /tmp/ccheI9jv.s:3425   .debug_str:0000000000000184 .LASF18
     /tmp/ccheI9jv.s:3395   .debug_str:00000000000000b9 .LASF19
     /tmp/ccheI9jv.s:3513   .debug_str:00000000000003f1 .LASF20
     /tmp/ccheI9jv.s:3393   .debug_str:00000000000000a0 .LASF22
     /tmp/ccheI9jv.s:3607   .debug_str:000000000000068e .LASF23
     /tmp/ccheI9jv.s:3661   .debug_str:00000000000008a2 .LASF55
     /tmp/ccheI9jv.s:3675   .debug_str:00000000000008ef .LASF57
     /tmp/ccheI9jv.s:3629   .debug_str:0000000000000726 .LASF24
     /tmp/ccheI9jv.s:3391   .debug_str:0000000000000092 .LASF25
     /tmp/ccheI9jv.s:3495   .debug_str:0000000000000389 .LASF47
     /tmp/ccheI9jv.s:3591   .debug_str:000000000000060e .LASF49
     /tmp/ccheI9jv.s:3651   .debug_str:000000000000085f .LASF41
     /tmp/ccheI9jv.s:3535   .debug_str:0000000000000481 .LASF61
     /tmp/ccheI9jv.s:3561   .debug_str:000000000000052d .LASF63
     /tmp/ccheI9jv.s:3537   .debug_str:000000000000048e .LASF26
     /tmp/ccheI9jv.s:3385   .debug_str:0000000000000049 .LASF27
GAS LISTING /tmp/ccheI9jv.s 			page 18


     /tmp/ccheI9jv.s:3625   .debug_str:0000000000000712 .LASF28
     /tmp/ccheI9jv.s:3567   .debug_str:000000000000056c .LASF29
     /tmp/ccheI9jv.s:3377   .debug_str:0000000000000008 .LASF51
     /tmp/ccheI9jv.s:3407   .debug_str:00000000000000f0 .LASF53
     /tmp/ccheI9jv.s:3573   .debug_str:00000000000005a9 .LASF30
     /tmp/ccheI9jv.s:3499   .debug_str:00000000000003a5 .LASF31
     /tmp/ccheI9jv.s:3447   .debug_str:0000000000000201 .LASF123
     /tmp/ccheI9jv.s:3505   .debug_str:00000000000003cf .LASF32
     /tmp/ccheI9jv.s:3427   .debug_str:0000000000000189 .LASF33
     /tmp/ccheI9jv.s:3571   .debug_str:00000000000005a1 .LASF34
     /tmp/ccheI9jv.s:3409   .debug_str:000000000000010d .LASF35
     /tmp/ccheI9jv.s:3375   .debug_str:0000000000000000 .LASF36
     /tmp/ccheI9jv.s:3429   .debug_str:0000000000000192 .LASF38
     /tmp/ccheI9jv.s:3665   .debug_str:00000000000008b9 .LASF39
     /tmp/ccheI9jv.s:3635   .debug_str:0000000000000800 .LASF40
     /tmp/ccheI9jv.s:3631   .debug_str:0000000000000734 .LASF42
     /tmp/ccheI9jv.s:3681   .debug_str:000000000000093c .LASF43
     /tmp/ccheI9jv.s:3659   .debug_str:0000000000000892 .LASF44
     /tmp/ccheI9jv.s:3415   .debug_str:0000000000000136 .LASF45
     /tmp/ccheI9jv.s:3455   .debug_str:0000000000000242 .LASF46
     /tmp/ccheI9jv.s:3517   .debug_str:0000000000000409 .LASF48
     /tmp/ccheI9jv.s:3521   .debug_str:000000000000041c .LASF50
     /tmp/ccheI9jv.s:3441   .debug_str:00000000000001e4 .LASF52
     /tmp/ccheI9jv.s:3431   .debug_str:000000000000019a .LASF54
     /tmp/ccheI9jv.s:3599   .debug_str:000000000000065e .LASF56
     /tmp/ccheI9jv.s:3605   .debug_str:000000000000067a .LASF58
     /tmp/ccheI9jv.s:3519   .debug_str:000000000000040f .LASF59
     /tmp/ccheI9jv.s:3653   .debug_str:0000000000000869 .LASF60
     /tmp/ccheI9jv.s:3641   .debug_str:0000000000000821 .LASF62
     /tmp/ccheI9jv.s:3525   .debug_str:0000000000000436 .LASF64
     /tmp/ccheI9jv.s:3627   .debug_str:000000000000071b .LASF65
     /tmp/ccheI9jv.s:3621   .debug_str:00000000000006f3 .LASF66
     /tmp/ccheI9jv.s:3533   .debug_str:000000000000047a .LASF67
     /tmp/ccheI9jv.s:3435   .debug_str:00000000000001bd .LASF68
     /tmp/ccheI9jv.s:3595   .debug_str:0000000000000647 .LASF69
     /tmp/ccheI9jv.s:3381   .debug_str:0000000000000036 .LASF70
     /tmp/ccheI9jv.s:3691   .debug_str:000000000000096a .LASF71
     /tmp/ccheI9jv.s:3473   .debug_str:00000000000002e5 .LASF72
     /tmp/ccheI9jv.s:3491   .debug_str:0000000000000368 .LASF73
     /tmp/ccheI9jv.s:3555   .debug_str:0000000000000508 .LASF74
     /tmp/ccheI9jv.s:3527   .debug_str:000000000000044c .LASF75
     /tmp/ccheI9jv.s:3583   .debug_str:00000000000005d0 .LASF76
     /tmp/ccheI9jv.s:3397   .debug_str:00000000000000be .LASF77
     /tmp/ccheI9jv.s:3589   .debug_str:0000000000000602 .LASF78
     /tmp/ccheI9jv.s:3445   .debug_str:00000000000001f3 .LASF79
     /tmp/ccheI9jv.s:3579   .debug_str:00000000000005bf .LASF80
     /tmp/ccheI9jv.s:3439   .debug_str:00000000000001dc .LASF81
     /tmp/ccheI9jv.s:3689   .debug_str:0000000000000965 .LASF82
     /tmp/ccheI9jv.s:3603   .debug_str:0000000000000674 .LASF83
     /tmp/ccheI9jv.s:3643   .debug_str:000000000000082c .LASF84
     /tmp/ccheI9jv.s:3541   .debug_str:00000000000004bb .LASF85
     /tmp/ccheI9jv.s:3623   .debug_str:0000000000000709 .LASF86
     /tmp/ccheI9jv.s:3693   .debug_str:0000000000000977 .LASF93
     /tmp/ccheI9jv.s:3437   .debug_str:00000000000001ce .LASF157
     /tmp/ccheI9jv.s:3379   .debug_str:000000000000000e .LASF158
     /tmp/ccheI9jv.s:3655   .debug_str:0000000000000882 .LASF107
     /tmp/ccheI9jv.s:3387   .debug_str:000000000000006a .LASF109
GAS LISTING /tmp/ccheI9jv.s 			page 19


     /tmp/ccheI9jv.s:3663   .debug_str:00000000000008ad .LASF87
     /tmp/ccheI9jv.s:3639   .debug_str:000000000000080a .LASF88
     /tmp/ccheI9jv.s:3577   .debug_str:00000000000005ba .LASF89
     /tmp/ccheI9jv.s:3465   .debug_str:00000000000002a1 .LASF90
     /tmp/ccheI9jv.s:3507   .debug_str:00000000000003d8 .LASF91
     /tmp/ccheI9jv.s:3677   .debug_str:000000000000090a .LASF92
     /tmp/ccheI9jv.s:3683   .debug_str:0000000000000942 .LASF159
     /tmp/ccheI9jv.s:3485   .debug_str:000000000000033d .LASF94
     /tmp/ccheI9jv.s:3511   .debug_str:00000000000003ec .LASF95
     /tmp/ccheI9jv.s:3449   .debug_str:0000000000000207 .LASF96
     /tmp/ccheI9jv.s:3443   .debug_str:00000000000001ed .LASF97
     /tmp/ccheI9jv.s:3669   .debug_str:00000000000008cc .LASF98
     /tmp/ccheI9jv.s:3549   .debug_str:00000000000004de .LASF99
     /tmp/ccheI9jv.s:3539   .debug_str:0000000000000498 .LASF100
     /tmp/ccheI9jv.s:3645   .debug_str:0000000000000834 .LASF101
     /tmp/ccheI9jv.s:3481   .debug_str:0000000000000324 .LASF102
     /tmp/ccheI9jv.s:3419   .debug_str:0000000000000150 .LASF103
     /tmp/ccheI9jv.s:3459   .debug_str:0000000000000279 .LASF104
     /tmp/ccheI9jv.s:3475   .debug_str:00000000000002f1 .LASF105
     /tmp/ccheI9jv.s:3679   .debug_str:000000000000092a .LASF106
     /tmp/ccheI9jv.s:3401   .debug_str:00000000000000d3 .LASF108
     /tmp/ccheI9jv.s:3553   .debug_str:00000000000004f0 .LASF110
     /tmp/ccheI9jv.s:3581   .debug_str:00000000000005ca .LASF111
     /tmp/ccheI9jv.s:3523   .debug_str:0000000000000431 .LASF112
     /tmp/ccheI9jv.s:3601   .debug_str:0000000000000667 .LASF113
     /tmp/ccheI9jv.s:3695   .debug_str:000000000000099a .LASF114
     /tmp/ccheI9jv.s:3543   .debug_str:00000000000004c9 .LASF115
     /tmp/ccheI9jv.s:3649   .debug_str:000000000000085a .LASF117
     /tmp/ccheI9jv.s:3509   .debug_str:00000000000003e7 .LASF116
     /tmp/ccheI9jv.s:3389   .debug_str:000000000000007c .LASF118
     /tmp/ccheI9jv.s:3587   .debug_str:00000000000005ef .LASF141
     /tmp/ccheI9jv.s:3611   .debug_str:00000000000006bf .LASF160
     /tmp/ccheI9jv.s:3405   .debug_str:00000000000000e0 .LASF119
     /tmp/ccheI9jv.s:3613   .debug_str:00000000000006ce .LASF120
     /tmp/ccheI9jv.s:3547   .debug_str:00000000000004d9 .LASF121
     /tmp/ccheI9jv.s:3673   .debug_str:00000000000008e9 .LASF122
     /tmp/ccheI9jv.s:3575   .debug_str:00000000000005b4 .LASF124
     /tmp/ccheI9jv.s:3501   .debug_str:00000000000003b1 .LASF125
     /tmp/ccheI9jv.s:3667   .debug_str:00000000000008c1 .LASF126
     /tmp/ccheI9jv.s:3637   .debug_str:0000000000000805 .LASF127
     /tmp/ccheI9jv.s:3493   .debug_str:0000000000000378 .LASF128
     /tmp/ccheI9jv.s:3619   .debug_str:00000000000006ec .LASF129
     /tmp/ccheI9jv.s:3569   .debug_str:000000000000058e .LASF130
     /tmp/ccheI9jv.s:3399   .debug_str:00000000000000c9 .LASF131
     /tmp/ccheI9jv.s:3461   .debug_str:0000000000000285 .LASF132
     /tmp/ccheI9jv.s:3657   .debug_str:000000000000088a .LASF133
     /tmp/ccheI9jv.s:3413   .debug_str:0000000000000122 .LASF134
     /tmp/ccheI9jv.s:3551   .debug_str:00000000000004eb .LASF135
     /tmp/ccheI9jv.s:3531   .debug_str:0000000000000467 .LASF136
     /tmp/ccheI9jv.s:3479   .debug_str:000000000000031c .LASF137
     /tmp/ccheI9jv.s:3647   .debug_str:0000000000000846 .LASF138
     /tmp/ccheI9jv.s:3469   .debug_str:00000000000002bb .LASF139
     /tmp/ccheI9jv.s:3615   .debug_str:00000000000006d3 .LASF140
     /tmp/ccheI9jv.s:3411   .debug_str:0000000000000116 .LASF142
     /tmp/ccheI9jv.s:3487   .debug_str:0000000000000355 .LASF143
     /tmp/ccheI9jv.s:3453   .debug_str:0000000000000232 .LASF144
     /tmp/ccheI9jv.s:3685   .debug_str:0000000000000956 .LASF145
GAS LISTING /tmp/ccheI9jv.s 			page 20


     /tmp/ccheI9jv.s:3597   .debug_str:000000000000064c .LASF146
     /tmp/ccheI9jv.s:3483   .debug_str:0000000000000337 .LASF147
     /tmp/ccheI9jv.s:3557   .debug_str:0000000000000515 .LASF148
     /tmp/ccheI9jv.s:486    .text:000000000000029c .LFB43
     /tmp/ccheI9jv.s:517    .text:00000000000002cc .LFE43
     /tmp/ccheI9jv.s:3095   .debug_loc:0000000000000000 .LLST12
     /tmp/ccheI9jv.s:506    .text:00000000000002bc .LVL48
     /tmp/ccheI9jv.s:384    .text:000000000000020c .LFB42
     /tmp/ccheI9jv.s:410    .text:0000000000000234 .LFE42
     /tmp/ccheI9jv.s:3115   .debug_loc:000000000000004f .LLST10
     /tmp/ccheI9jv.s:399    .text:0000000000000224 .LVL37
     /tmp/ccheI9jv.s:416    .text:0000000000000234 .LFB41
     /tmp/ccheI9jv.s:480    .text:000000000000029c .LFE41
     /tmp/ccheI9jv.s:3671   .debug_str:00000000000008e2 .LASF149
     /tmp/ccheI9jv.s:3129   .debug_loc:0000000000000088 .LLST11
     /tmp/ccheI9jv.s:440    .text:000000000000025c .LVL40
     /tmp/ccheI9jv.s:447    .text:000000000000026c .LVL41
     /tmp/ccheI9jv.s:455    .text:000000000000027c .LVL42
     /tmp/ccheI9jv.s:318    .text:00000000000001b0 .LFB40
     /tmp/ccheI9jv.s:378    .text:000000000000020c .LFE40
     /tmp/ccheI9jv.s:3151   .debug_loc:00000000000000e7 .LLST7
     /tmp/ccheI9jv.s:3403   .debug_str:00000000000000db .LASF150
     /tmp/ccheI9jv.s:3173   .debug_loc:0000000000000146 .LLST8
     /tmp/ccheI9jv.s:3687   .debug_str:000000000000095e .LASF151
     /tmp/ccheI9jv.s:3187   .debug_loc:000000000000017f .LLST9
     /tmp/ccheI9jv.s:341    .text:00000000000001dc .LVL31
     /tmp/ccheI9jv.s:293    .text:0000000000000194 .LFB39
     /tmp/ccheI9jv.s:312    .text:00000000000001b0 .LFE39
     /tmp/ccheI9jv.s:189    .text:0000000000000104 .LFB38
     /tmp/ccheI9jv.s:227    .text:0000000000000140 .LFE38
     /tmp/ccheI9jv.s:3463   .debug_str:000000000000029c .LASF152
     /tmp/ccheI9jv.s:3198   .debug_loc:00000000000001b5 .LLST4
     /tmp/ccheI9jv.s:3218   .debug_loc:0000000000000203 .LLST5
     /tmp/ccheI9jv.s:206    .text:0000000000000120 .LVL21
     /tmp/ccheI9jv.s:215    .text:0000000000000130 .LVL22
     /tmp/ccheI9jv.s:64     .text:0000000000000040 .LFB37
     /tmp/ccheI9jv.s:123    .text:00000000000000b0 .LFE37
     /tmp/ccheI9jv.s:3225   .debug_loc:0000000000000226 .LLST1
     /tmp/ccheI9jv.s:3545   .debug_str:00000000000004ce .LASF153
     /tmp/ccheI9jv.s:3245   .debug_loc:0000000000000274 .LLST2
     /tmp/ccheI9jv.s:91     .text:0000000000000074 .LVL9
     /tmp/ccheI9jv.s:99     .text:0000000000000084 .LVL10
     /tmp/ccheI9jv.s:107    .text:0000000000000098 .LVL11
     /tmp/ccheI9jv.s:10     .text:0000000000000000 .LFB36
     /tmp/ccheI9jv.s:58     .text:0000000000000040 .LFE36
     /tmp/ccheI9jv.s:3252   .debug_loc:0000000000000297 .LLST0
     /tmp/ccheI9jv.s:233    .text:0000000000000140 .LFB35
     /tmp/ccheI9jv.s:287    .text:0000000000000194 .LFE35
     /tmp/ccheI9jv.s:3288   .debug_loc:0000000000000322 .LLST6
     /tmp/ccheI9jv.s:268    .text:0000000000000178 .LVL26
     /tmp/ccheI9jv.s:129    .text:00000000000000b0 .LFB34
     /tmp/ccheI9jv.s:183    .text:0000000000000104 .LFE34
     /tmp/ccheI9jv.s:3324   .debug_loc:00000000000003ad .LLST3
     /tmp/ccheI9jv.s:164    .text:00000000000000e8 .LVL16
     /tmp/ccheI9jv.s:489    .text:000000000000029c .LVL45
     /tmp/ccheI9jv.s:501    .text:00000000000002b0 .LVL46
     /tmp/ccheI9jv.s:504    .text:00000000000002b4 .LVL47
GAS LISTING /tmp/ccheI9jv.s 			page 21


     /tmp/ccheI9jv.s:387    .text:000000000000020c .LVL36
     /tmp/ccheI9jv.s:419    .text:0000000000000234 .LVL38
     /tmp/ccheI9jv.s:433    .text:0000000000000250 .LVL39
     /tmp/ccheI9jv.s:469    .text:000000000000028c .LVL43
     /tmp/ccheI9jv.s:473    .text:0000000000000294 .LVL44
     /tmp/ccheI9jv.s:321    .text:00000000000001b0 .LVL29
     /tmp/ccheI9jv.s:339    .text:00000000000001d4 .LVL30
     /tmp/ccheI9jv.s:364    .text:00000000000001f8 .LVL33
     /tmp/ccheI9jv.s:370    .text:0000000000000204 .LVL34
     /tmp/ccheI9jv.s:353    .text:00000000000001ec .LVL32
     /tmp/ccheI9jv.s:375    .text:0000000000000208 .LVL35
     /tmp/ccheI9jv.s:192    .text:0000000000000104 .LVL19
     /tmp/ccheI9jv.s:204    .text:0000000000000118 .LVL20
     /tmp/ccheI9jv.s:67     .text:0000000000000040 .LVL6
     /tmp/ccheI9jv.s:89     .text:000000000000006c .LVL8
     /tmp/ccheI9jv.s:84     .text:0000000000000064 .LVL7
     /tmp/ccheI9jv.s:116    .text:00000000000000a4 .LVL12
     /tmp/ccheI9jv.s:14     .text:0000000000000000 .LVL0
     /tmp/ccheI9jv.s:34     .text:0000000000000024 .LVL1
     /tmp/ccheI9jv.s:44     .text:0000000000000030 .LVL2
     /tmp/ccheI9jv.s:49     .text:0000000000000034 .LVL3
     /tmp/ccheI9jv.s:51     .text:0000000000000038 .LVL4
     /tmp/ccheI9jv.s:55     .text:000000000000003c .LVL5
     /tmp/ccheI9jv.s:236    .text:0000000000000140 .LVL23
     /tmp/ccheI9jv.s:251    .text:000000000000015c .LVL24
     /tmp/ccheI9jv.s:254    .text:0000000000000160 .LVL25
     /tmp/ccheI9jv.s:280    .text:000000000000018c .LVL27
     /tmp/ccheI9jv.s:284    .text:0000000000000190 .LVL28
     /tmp/ccheI9jv.s:132    .text:00000000000000b0 .LVL13
     /tmp/ccheI9jv.s:147    .text:00000000000000cc .LVL14
     /tmp/ccheI9jv.s:150    .text:00000000000000d0 .LVL15
     /tmp/ccheI9jv.s:176    .text:00000000000000fc .LVL17
     /tmp/ccheI9jv.s:180    .text:0000000000000100 .LVL18
     /tmp/ccheI9jv.s:527    .debug_info:0000000000000000 .Ldebug_info0

UNDEFINED SYMBOLS
_ZN3TCB7runningE
_ZN4List3addEP3TCB
_ZN9Scheduler3getEv
_ZN3TCB5yieldEPS_S0_
_ZN4List3getEv
_ZN9Scheduler3putEP3TCB
_ZN15MemoryAllocator9mem_allocEm
_ZN15MemoryAllocator8mem_freeEPKv
_ZN4List4peekEv
