GAS LISTING /tmp/ccK5rJ20.s 			page 1


   1              		.file	"semaphore.cpp"
   2              		.option pic
   3              		.option norelax
   4              		.text
   5              	.Ltext0:
   6              		.align	2
   7              		.globl	_ZN3Sem7trywaitEPS_
   9              	_ZN3Sem7trywaitEPS_:
  10              	.LFB36:
  11              		.file 1 "src/semaphore.cpp"
   1:src/semaphore.cpp **** 
   2:src/semaphore.cpp **** #include "../h/semaphore.hpp"
   3:src/semaphore.cpp **** 
   4:src/semaphore.cpp **** Sem* Sem::first = nullptr;
   5:src/semaphore.cpp **** Sem* Sem::last  = nullptr;
   6:src/semaphore.cpp **** 
   7:src/semaphore.cpp **** int Sem::wait(sem_t handle) {
   8:src/semaphore.cpp ****     if (!handle) return SEM_CLOSED;
   9:src/semaphore.cpp ****     if (--handle->value < 0) {
  10:src/semaphore.cpp ****         handle->block();
  11:src/semaphore.cpp ****         if (!handle) return SEMDEAD;
  12:src/semaphore.cpp ****         // sem deallocated while thread waiting
  13:src/semaphore.cpp ****         // returns here after releasing all threads
  14:src/semaphore.cpp ****     }
  15:src/semaphore.cpp ****     return 0;
  16:src/semaphore.cpp **** }
  17:src/semaphore.cpp **** 
  18:src/semaphore.cpp **** int Sem::signal(sem_t handle) {
  19:src/semaphore.cpp ****     if (!handle) return SEM_CLOSED;
  20:src/semaphore.cpp ****     if (++handle->value<= 0) handle->deblock();
  21:src/semaphore.cpp ****     return 0;
  22:src/semaphore.cpp **** }
  23:src/semaphore.cpp **** 
  24:src/semaphore.cpp **** int Sem::trywait(sem_t handle) { /// ??????????????????
  12              		.loc 1 24 32
  13              		.cfi_startproc
  14              	.LVL0:
  25:src/semaphore.cpp **** 
  26:src/semaphore.cpp ****     if (!handle) return SEM_CLOSED; // error code
  15              		.loc 1 26 5
  16 0000 630E0502 		beqz	a0,.L3
  27:src/semaphore.cpp ****     if (handle->value > 0) return sem_wait(handle);
  17              		.loc 1 27 5
  18              		.loc 1 27 17 is_stmt 0
  19 0004 83270500 		lw	a5,0(a0)
  20              		.loc 1 27 5
  21 0008 6346F000 		bgtz	a5,.L9
  28:src/semaphore.cpp ****     return 0; // no success
  22              		.loc 1 28 12
  23 000c 13050000 		li	a0,0
  24              	.LVL1:
  29:src/semaphore.cpp **** }
  25              		.loc 1 29 1
  26 0010 67800000 		ret
  27              	.LVL2:
  28              	.L9:
  24:src/semaphore.cpp **** 
GAS LISTING /tmp/ccK5rJ20.s 			page 2


  29              		.loc 1 24 32 discriminator 1
  30 0014 130101FF 		addi	sp,sp,-16
  31              		.cfi_def_cfa_offset 16
  32 0018 23341100 		sd	ra,8(sp)
  33 001c 23308100 		sd	s0,0(sp)
  34              		.cfi_offset 1, -8
  35              		.cfi_offset 8, -16
  36 0020 13040101 		addi	s0,sp,16
  37              		.cfi_def_cfa 8, 0
  27:src/semaphore.cpp ****     return 0; // no success
  38              		.loc 1 27 28 is_stmt 1 discriminator 1
  27:src/semaphore.cpp ****     return 0; // no success
  39              		.loc 1 27 43 is_stmt 0 discriminator 1
  40 0024 97000000 		call	_Z8sem_waitP3Sem@plt
  40      E7800000 
  41              	.LVL3:
  42              		.loc 1 29 1 discriminator 1
  43 002c 83308100 		ld	ra,8(sp)
  44              		.cfi_restore 1
  45 0030 03340100 		ld	s0,0(sp)
  46              		.cfi_restore 8
  47              		.cfi_def_cfa 2, 16
  48 0034 13010101 		addi	sp,sp,16
  49              		.cfi_def_cfa_offset 0
  50 0038 67800000 		jr	ra
  51              	.LVL4:
  52              	.L3:
  26:src/semaphore.cpp ****     if (handle->value > 0) return sem_wait(handle);
  53              		.loc 1 26 25
  54 003c 1305C0FF 		li	a0,-4
  55              	.LVL5:
  56 0040 67800000 		ret
  57              		.cfi_endproc
  58              	.LFE36:
  60              		.align	2
  61              		.globl	_ZN3SemdlEPv
  63              	_ZN3SemdlEPv:
  64              	.LFB42:
  30:src/semaphore.cpp **** 
  31:src/semaphore.cpp **** void Sem::block() {
  32:src/semaphore.cpp **** 
  33:src/semaphore.cpp ****     TCB* oldRunning = TCB::running;
  34:src/semaphore.cpp ****     oldRunning -> current_state = TCB::BLOCKED;
  35:src/semaphore.cpp **** 
  36:src/semaphore.cpp ****     blocked.add(oldRunning);
  37:src/semaphore.cpp **** 
  38:src/semaphore.cpp ****     TCB::running = Scheduler::get();
  39:src/semaphore.cpp ****     TCB::yield(oldRunning, TCB::running);
  40:src/semaphore.cpp **** }
  41:src/semaphore.cpp **** 
  42:src/semaphore.cpp **** void Sem::deblock() {
  43:src/semaphore.cpp **** 
  44:src/semaphore.cpp ****     // needs modification for timedWait
  45:src/semaphore.cpp **** 
  46:src/semaphore.cpp ****     TCB* tcb = blocked.get();
  47:src/semaphore.cpp **** 
  48:src/semaphore.cpp ****     if (!tcb) return; // should not happen
GAS LISTING /tmp/ccK5rJ20.s 			page 3


  49:src/semaphore.cpp ****     if (tcb -> time_on_sem) {
  50:src/semaphore.cpp ****         // 0 if not timed wait
  51:src/semaphore.cpp ****         tcb -> time_on_sem = 0;
  52:src/semaphore.cpp ****         timedBlock--;
  53:src/semaphore.cpp ****     }
  54:src/semaphore.cpp ****     tcb->current_state = TCB::RUNNABLE;
  55:src/semaphore.cpp ****     Scheduler::put(tcb);
  56:src/semaphore.cpp **** 
  57:src/semaphore.cpp **** }
  58:src/semaphore.cpp **** 
  59:src/semaphore.cpp **** int Sem::timedWait(sem_t handle, time_t time) {
  60:src/semaphore.cpp **** 
  61:src/semaphore.cpp ****     // maksimalno timeout jedinica tajmera
  62:src/semaphore.cpp ****     // uspeh => 0
  63:src/semaphore.cpp ****     // semafor dealociran tokom cekanja => -1 (SEMDEAD)
  64:src/semaphore.cpp ****     // isteklo je vreme => -2 (TIMEOUT)
  65:src/semaphore.cpp **** 
  66:src/semaphore.cpp ****     if (!handle) return SEM_CLOSED;
  67:src/semaphore.cpp **** 
  68:src/semaphore.cpp ****     if (--(handle->value) < 0) {
  69:src/semaphore.cpp **** 
  70:src/semaphore.cpp ****         TCB::running->time_on_sem = time;
  71:src/semaphore.cpp ****         handle->timedBlock++;
  72:src/semaphore.cpp **** 
  73:src/semaphore.cpp ****         handle->block();
  74:src/semaphore.cpp **** 
  75:src/semaphore.cpp ****         if (!handle) return SEMDEAD; // sem deallocated while waiting
  76:src/semaphore.cpp **** 
  77:src/semaphore.cpp ****         handle->timedBlock--;
  78:src/semaphore.cpp ****         if (!TCB::running->time_on_sem) return TIMEOUT;
  79:src/semaphore.cpp ****         else TCB::running->time_on_sem = 0;
  80:src/semaphore.cpp **** 
  81:src/semaphore.cpp ****     }
  82:src/semaphore.cpp **** 
  83:src/semaphore.cpp ****     return 0;
  84:src/semaphore.cpp **** }
  85:src/semaphore.cpp **** 
  86:src/semaphore.cpp **** int Sem::open(sem_t *handle, unsigned int init) { // ne ovde
  87:src/semaphore.cpp ****     auto newSem = new Sem((int)init);
  88:src/semaphore.cpp ****     if (!newSem) return MEMORY_ERR;
  89:src/semaphore.cpp ****     *handle = newSem;
  90:src/semaphore.cpp **** 
  91:src/semaphore.cpp ****     semAdd(*handle); // to sems list
  92:src/semaphore.cpp **** 
  93:src/semaphore.cpp ****     return 0;
  94:src/semaphore.cpp **** }
  95:src/semaphore.cpp **** 
  96:src/semaphore.cpp **** int Sem::s_close(sem_t handle) {
  97:src/semaphore.cpp **** 
  98:src/semaphore.cpp ****     if (!handle) return SEM_CLOSED;
  99:src/semaphore.cpp **** 
 100:src/semaphore.cpp ****     semRemove(handle); // remove from semaphores list
 101:src/semaphore.cpp **** 
 102:src/semaphore.cpp ****     while (handle->blocked.peek()) {
 103:src/semaphore.cpp ****         handle->deblock();
 104:src/semaphore.cpp ****     }
 105:src/semaphore.cpp **** 
GAS LISTING /tmp/ccK5rJ20.s 			page 4


 106:src/semaphore.cpp ****     delete handle;
 107:src/semaphore.cpp ****     return 0;
 108:src/semaphore.cpp **** }
 109:src/semaphore.cpp **** 
 110:src/semaphore.cpp **** void Sem::operator delete(void *ptr) {
  65              		.loc 1 110 38 is_stmt 1
  66              		.cfi_startproc
  67              	.LVL6:
  68 0044 130101FF 		addi	sp,sp,-16
  69              		.cfi_def_cfa_offset 16
  70 0048 23341100 		sd	ra,8(sp)
  71 004c 23308100 		sd	s0,0(sp)
  72              		.cfi_offset 1, -8
  73              		.cfi_offset 8, -16
  74 0050 13040101 		addi	s0,sp,16
  75              		.cfi_def_cfa 8, 0
 111:src/semaphore.cpp ****     MemoryAllocator::mem_free(ptr);
  76              		.loc 1 111 5
  77              		.loc 1 111 30 is_stmt 0
  78 0054 97000000 		call	_ZN15MemoryAllocator8mem_freeEPv@plt
  78      E7800000 
  79              	.LVL7:
 112:src/semaphore.cpp **** }
  80              		.loc 1 112 1
  81 005c 83308100 		ld	ra,8(sp)
  82              		.cfi_restore 1
  83 0060 03340100 		ld	s0,0(sp)
  84              		.cfi_restore 8
  85              		.cfi_def_cfa 2, 16
  86 0064 13010101 		addi	sp,sp,16
  87              		.cfi_def_cfa_offset 0
  88 0068 67800000 		jr	ra
  89              		.cfi_endproc
  90              	.LFE42:
  92              		.align	2
  93              		.globl	_ZN3SemnwEm
  95              	_ZN3SemnwEm:
  96              	.LFB43:
 113:src/semaphore.cpp **** 
 114:src/semaphore.cpp **** void *Sem::operator new(size_t size) {
  97              		.loc 1 114 38 is_stmt 1
  98              		.cfi_startproc
  99              	.LVL8:
 100 006c 130101FF 		addi	sp,sp,-16
 101              		.cfi_def_cfa_offset 16
 102 0070 23341100 		sd	ra,8(sp)
 103 0074 23308100 		sd	s0,0(sp)
 104              		.cfi_offset 1, -8
 105              		.cfi_offset 8, -16
 106 0078 13040101 		addi	s0,sp,16
 107              		.cfi_def_cfa 8, 0
 115:src/semaphore.cpp ****     return MemoryAllocator::mem_alloc((mem_h_size + size + MEM_BLOCK_SIZE - 1) / MEM_BLOCK_SIZE);
 108              		.loc 1 115 5
 109              		.loc 1 115 75 is_stmt 0
 110 007c 13057505 		addi	a0,a0,87
 111              	.LVL9:
 112              		.loc 1 115 38
GAS LISTING /tmp/ccK5rJ20.s 			page 5


 113 0080 13556500 		srli	a0,a0,6
 114              	.LVL10:
 115 0084 97000000 		call	_ZN15MemoryAllocator9mem_allocEm@plt
 115      E7800000 
 116              	.LVL11:
 116:src/semaphore.cpp **** }
 117              		.loc 1 116 1
 118 008c 83308100 		ld	ra,8(sp)
 119              		.cfi_restore 1
 120 0090 03340100 		ld	s0,0(sp)
 121              		.cfi_restore 8
 122              		.cfi_def_cfa 2, 16
 123 0094 13010101 		addi	sp,sp,16
 124              		.cfi_def_cfa_offset 0
 125 0098 67800000 		jr	ra
 126              		.cfi_endproc
 127              	.LFE43:
 129              		.align	2
 130              		.globl	_ZNK3Sem8getValueEv
 132              	_ZNK3Sem8getValueEv:
 133              	.LFB44:
 117:src/semaphore.cpp **** 
 118:src/semaphore.cpp **** int Sem::getValue() const {
 134              		.loc 1 118 27 is_stmt 1
 135              		.cfi_startproc
 136              	.LVL12:
 137 009c 130101FF 		addi	sp,sp,-16
 138              		.cfi_def_cfa_offset 16
 139 00a0 23348100 		sd	s0,8(sp)
 140              		.cfi_offset 8, -8
 141 00a4 13040101 		addi	s0,sp,16
 142              		.cfi_def_cfa 8, 0
 119:src/semaphore.cpp ****     return value;
 143              		.loc 1 119 5
 120:src/semaphore.cpp **** }
 144              		.loc 1 120 1 is_stmt 0
 145 00a8 03250500 		lw	a0,0(a0)
 146              	.LVL13:
 147 00ac 03348100 		ld	s0,8(sp)
 148              		.cfi_restore 8
 149              		.cfi_def_cfa 2, 16
 150 00b0 13010101 		addi	sp,sp,16
 151              		.cfi_def_cfa_offset 0
 152 00b4 67800000 		jr	ra
 153              		.cfi_endproc
 154              	.LFE44:
 156              		.align	2
 157              		.globl	_ZN3Sem6semAddEPS_
 159              	_ZN3Sem6semAddEPS_:
 160              	.LFB45:
 121:src/semaphore.cpp **** 
 122:src/semaphore.cpp **** void Sem::semAdd(Sem* toAdd) {
 161              		.loc 1 122 30 is_stmt 1
 162              		.cfi_startproc
 163              	.LVL14:
 164 00b8 130101FF 		addi	sp,sp,-16
 165              		.cfi_def_cfa_offset 16
GAS LISTING /tmp/ccK5rJ20.s 			page 6


 166 00bc 23348100 		sd	s0,8(sp)
 167              		.cfi_offset 8, -8
 168 00c0 13040101 		addi	s0,sp,16
 169              		.cfi_def_cfa 8, 0
 123:src/semaphore.cpp **** 
 124:src/semaphore.cpp ****     if (!first) first = last = toAdd;
 170              		.loc 1 124 5
 171              		.loc 1 124 9 is_stmt 0
 172 00c4 97070000 		ld	a5,.LANCHOR0
 172      83B70700 
 173              		.loc 1 124 5
 174 00cc 63820702 		beqz	a5,.L20
 125:src/semaphore.cpp ****     else last = last -> next = toAdd;
 175              		.loc 1 125 10 is_stmt 1
 176              		.loc 1 125 25 is_stmt 0
 177 00d0 97070000 		lla	a5,.LANCHOR0
 177      93870700 
 178 00d8 03B78700 		ld	a4,8(a5)
 179              		.loc 1 125 30
 180 00dc 2334A700 		sd	a0,8(a4)
 181              		.loc 1 125 15
 182 00e0 23B4A700 		sd	a0,8(a5)
 183              	.L16:
 126:src/semaphore.cpp **** 
 127:src/semaphore.cpp **** }
 184              		.loc 1 127 1
 185 00e4 03348100 		ld	s0,8(sp)
 186              		.cfi_remember_state
 187              		.cfi_restore 8
 188              		.cfi_def_cfa 2, 16
 189 00e8 13010101 		addi	sp,sp,16
 190              		.cfi_def_cfa_offset 0
 191 00ec 67800000 		jr	ra
 192              	.L20:
 193              		.cfi_restore_state
 124:src/semaphore.cpp ****     else last = last -> next = toAdd;
 194              		.loc 1 124 17 is_stmt 1 discriminator 1
 124:src/semaphore.cpp ****     else last = last -> next = toAdd;
 195              		.loc 1 124 30 is_stmt 0 discriminator 1
 196 00f0 97070000 		lla	a5,.LANCHOR0
 196      93870700 
 197 00f8 23B4A700 		sd	a0,8(a5)
 124:src/semaphore.cpp ****     else last = last -> next = toAdd;
 198              		.loc 1 124 23 discriminator 1
 199 00fc 23B0A700 		sd	a0,0(a5)
 200 0100 6FF05FFE 		j	.L16
 201              		.cfi_endproc
 202              	.LFE45:
 204              		.align	2
 205              		.globl	_ZN3Sem4openEPPS_j
 207              	_ZN3Sem4openEPPS_j:
 208              	.LFB40:
  86:src/semaphore.cpp ****     auto newSem = new Sem((int)init);
 209              		.loc 1 86 49 is_stmt 1
 210              		.cfi_startproc
 211              	.LVL15:
 212 0104 130101FE 		addi	sp,sp,-32
GAS LISTING /tmp/ccK5rJ20.s 			page 7


 213              		.cfi_def_cfa_offset 32
 214 0108 233C1100 		sd	ra,24(sp)
 215 010c 23388100 		sd	s0,16(sp)
 216 0110 23349100 		sd	s1,8(sp)
 217 0114 23302101 		sd	s2,0(sp)
 218              		.cfi_offset 1, -8
 219              		.cfi_offset 8, -16
 220              		.cfi_offset 9, -24
 221              		.cfi_offset 18, -32
 222 0118 13040102 		addi	s0,sp,32
 223              		.cfi_def_cfa 8, 0
 224 011c 13090500 		mv	s2,a0
 225 0120 93840500 		mv	s1,a1
  87:src/semaphore.cpp ****     if (!newSem) return MEMORY_ERR;
 226              		.loc 1 87 5
  87:src/semaphore.cpp ****     if (!newSem) return MEMORY_ERR;
 227              		.loc 1 87 36 is_stmt 0
 228 0124 13050003 		li	a0,48
 229              	.LVL16:
 230 0128 97000000 		call	_ZN3SemnwEm
 230      E7800000 
 231              	.LVL17:
 232              	.LBB15:
 233              	.LBB16:
 234              		.file 2 "src/../h/semaphore.hpp"
   1:src/../h/semaphore.hpp **** 
   2:src/../h/semaphore.hpp **** #ifndef PROJECT_BASE_SEMAPHORE_HPP
   3:src/../h/semaphore.hpp **** #define PROJECT_BASE_SEMAPHORE_HPP
   4:src/../h/semaphore.hpp **** 
   5:src/../h/semaphore.hpp **** #include "Scheduler.hpp"
   6:src/../h/semaphore.hpp **** #include "thread.hpp"
   7:src/../h/semaphore.hpp **** #include "../lib/hw.h"
   8:src/../h/semaphore.hpp **** #include "List.hpp"
   9:src/../h/semaphore.hpp **** 
  10:src/../h/semaphore.hpp **** class Sem;
  11:src/../h/semaphore.hpp **** typedef Sem* sem_t;
  12:src/../h/semaphore.hpp **** 
  13:src/../h/semaphore.hpp **** class Sem {
  14:src/../h/semaphore.hpp **** public:
  15:src/../h/semaphore.hpp **** 
  16:src/../h/semaphore.hpp ****     friend class RISCV;
  17:src/../h/semaphore.hpp **** 
  18:src/../h/semaphore.hpp ****  // puno praznih pokazivaca, razmisli o listi
  19:src/../h/semaphore.hpp **** 
  20:src/../h/semaphore.hpp ****     enum error {
  21:src/../h/semaphore.hpp ****         MEMORY_ERR = -3,
  22:src/../h/semaphore.hpp ****         SEM_CLOSED = -4,
  23:src/../h/semaphore.hpp ****         SEMDEAD = -1,
  24:src/../h/semaphore.hpp ****         TIMEOUT = -2
  25:src/../h/semaphore.hpp ****     };
  26:src/../h/semaphore.hpp **** 
  27:src/../h/semaphore.hpp ****     static int wait(sem_t);
  28:src/../h/semaphore.hpp ****     static int signal(sem_t);
  29:src/../h/semaphore.hpp **** 
  30:src/../h/semaphore.hpp ****     int getValue() const;
  31:src/../h/semaphore.hpp **** 
  32:src/../h/semaphore.hpp ****     static int timedWait(sem_t, time_t time);
GAS LISTING /tmp/ccK5rJ20.s 			page 8


  33:src/../h/semaphore.hpp ****     static int trywait(sem_t);
  34:src/../h/semaphore.hpp **** 
  35:src/../h/semaphore.hpp ****     static int open(sem_t* handle, unsigned init);  // ???
  36:src/../h/semaphore.hpp ****     static int s_close(sem_t handle);
  37:src/../h/semaphore.hpp **** 
  38:src/../h/semaphore.hpp ****     void* operator new(size_t size);
  39:src/../h/semaphore.hpp ****     void operator delete(void* ptr);
  40:src/../h/semaphore.hpp **** 
  41:src/../h/semaphore.hpp **** //    static ListSEM semaphores;
  42:src/../h/semaphore.hpp ****     static Sem* first, *last;
  43:src/../h/semaphore.hpp **** 
  44:src/../h/semaphore.hpp **** private:
  45:src/../h/semaphore.hpp **** 
  46:src/../h/semaphore.hpp ****     explicit Sem(int init = 1) : value(init), next(nullptr), blocked() {}
 235              		.loc 2 46 70
 236 0130 23209500 		sw	s1,0(a0)
 237 0134 23340500 		sd	zero,8(a0)
 238              	.LVL18:
 239              	.LBB17:
 240              	.LBB18:
 241              		.file 3 "src/../h/List.hpp"
   1:src/../h/List.hpp **** //
   2:src/../h/List.hpp **** // Created by os on 5/13/24.
   3:src/../h/List.hpp **** //
   4:src/../h/List.hpp **** 
   5:src/../h/List.hpp **** #ifndef PROJECT_BASE_LIST_HPP
   6:src/../h/List.hpp **** #define PROJECT_BASE_LIST_HPP
   7:src/../h/List.hpp **** #include "thread.hpp"
   8:src/../h/List.hpp **** 
   9:src/../h/List.hpp **** extern void printInteger(uint64);
  10:src/../h/List.hpp **** 
  11:src/../h/List.hpp **** template <typename T>
  12:src/../h/List.hpp **** class List {
  13:src/../h/List.hpp **** 
  14:src/../h/List.hpp **** public:
  15:src/../h/List.hpp **** 
  16:src/../h/List.hpp ****     friend class RISCV;
  17:src/../h/List.hpp **** 
  18:src/../h/List.hpp ****     List() : head(nullptr), tail(nullptr) {};
 242              		.loc 3 18 41
 243 0138 23380500 		sd	zero,16(a0)
 244 013c 233C0500 		sd	zero,24(a0)
 245 0140 23200502 		sw	zero,32(a0)
 246              	.LVL19:
 247              	.LBE18:
 248              	.LBE17:
 249              		.loc 2 46 70
 250 0144 23240502 		sw	zero,40(a0)
 251              	.LVL20:
 252              	.LBE16:
 253              	.LBE15:
  88:src/semaphore.cpp ****     *handle = newSem;
 254              		.loc 1 88 5 is_stmt 1
 255 0148 63060502 		beqz	a0,.L23
  89:src/semaphore.cpp **** 
 256              		.loc 1 89 5
  89:src/semaphore.cpp **** 
GAS LISTING /tmp/ccK5rJ20.s 			page 9


 257              		.loc 1 89 13 is_stmt 0
 258 014c 2330A900 		sd	a0,0(s2)
  91:src/semaphore.cpp **** 
 259              		.loc 1 91 5 is_stmt 1
  91:src/semaphore.cpp **** 
 260              		.loc 1 91 11 is_stmt 0
 261 0150 97000000 		call	_ZN3Sem6semAddEPS_
 261      E7800000 
 262              	.LVL21:
  93:src/semaphore.cpp **** }
 263              		.loc 1 93 5 is_stmt 1
  93:src/semaphore.cpp **** }
 264              		.loc 1 93 12 is_stmt 0
 265 0158 13050000 		li	a0,0
 266              	.L22:
  94:src/semaphore.cpp **** 
 267              		.loc 1 94 1
 268 015c 83308101 		ld	ra,24(sp)
 269              		.cfi_remember_state
 270              		.cfi_restore 1
 271 0160 03340101 		ld	s0,16(sp)
 272              		.cfi_restore 8
 273              		.cfi_def_cfa 2, 32
 274 0164 83348100 		ld	s1,8(sp)
 275              		.cfi_restore 9
 276 0168 03390100 		ld	s2,0(sp)
 277              		.cfi_restore 18
 278              	.LVL22:
 279 016c 13010102 		addi	sp,sp,32
 280              		.cfi_def_cfa_offset 0
 281 0170 67800000 		jr	ra
 282              	.LVL23:
 283              	.L23:
 284              		.cfi_restore_state
  88:src/semaphore.cpp ****     *handle = newSem;
 285              		.loc 1 88 25
 286 0174 1305D0FF 		li	a0,-3
 287              	.LVL24:
 288 0178 6FF05FFE 		j	.L22
 289              		.cfi_endproc
 290              	.LFE40:
 292              		.align	2
 293              		.globl	_ZN3Sem9semRemoveEPS_
 295              	_ZN3Sem9semRemoveEPS_:
 296              	.LFB46:
 128:src/semaphore.cpp **** 
 129:src/semaphore.cpp **** void Sem::semRemove(Sem* toDelete) {
 297              		.loc 1 129 36 is_stmt 1
 298              		.cfi_startproc
 299              	.LVL25:
 300 017c 130101FF 		addi	sp,sp,-16
 301              		.cfi_def_cfa_offset 16
 302 0180 23348100 		sd	s0,8(sp)
 303              		.cfi_offset 8, -8
 304 0184 13040101 		addi	s0,sp,16
 305              		.cfi_def_cfa 8, 0
 130:src/semaphore.cpp **** 
GAS LISTING /tmp/ccK5rJ20.s 			page 10


 131:src/semaphore.cpp ****     Sem* prev = nullptr, *s = nullptr;
 306              		.loc 1 131 5
 307              	.LVL26:
 132:src/semaphore.cpp **** 
 133:src/semaphore.cpp ****     for (s = first; s; s = s->next) {
 308              		.loc 1 133 5
 309              		.loc 1 133 12 is_stmt 0
 310 0188 97070000 		ld	a5,.LANCHOR0
 310      83B70700 
 311              	.LVL27:
 131:src/semaphore.cpp **** 
 312              		.loc 1 131 10
 313 0190 13070000 		li	a4,0
 314              	.LVL28:
 315              	.L30:
 316              		.loc 1 133 21 is_stmt 1 discriminator 1
 317 0194 63820702 		beqz	a5,.L25
 134:src/semaphore.cpp ****         if (s == toDelete) {
 318              		.loc 1 134 9
 319 0198 6388A700 		beq	a5,a0,.L32
 135:src/semaphore.cpp ****             if (prev) prev->next = s->next;
 136:src/semaphore.cpp ****             else first = last = s;
 137:src/semaphore.cpp ****             s->next = nullptr;
 138:src/semaphore.cpp ****             return;
 139:src/semaphore.cpp ****         }
 140:src/semaphore.cpp ****         prev = s;
 320              		.loc 1 140 9 discriminator 2
 321              	.LVL29:
 133:src/semaphore.cpp ****         if (s == toDelete) {
 322              		.loc 1 133 5 discriminator 2
 323              		.loc 1 140 14 is_stmt 0 discriminator 2
 324 019c 13870700 		mv	a4,a5
 133:src/semaphore.cpp ****         if (s == toDelete) {
 325              		.loc 1 133 26 discriminator 2
 326 01a0 83B78700 		ld	a5,8(a5)
 327              	.LVL30:
 133:src/semaphore.cpp ****         if (s == toDelete) {
 328              		.loc 1 133 5 discriminator 2
 329 01a4 6FF01FFF 		j	.L30
 330              	.L32:
 135:src/semaphore.cpp ****             if (prev) prev->next = s->next;
 331              		.loc 1 135 13 is_stmt 1
 332 01a8 630E0700 		beqz	a4,.L28
 135:src/semaphore.cpp ****             if (prev) prev->next = s->next;
 333              		.loc 1 135 23 discriminator 1
 135:src/semaphore.cpp ****             if (prev) prev->next = s->next;
 334              		.loc 1 135 39 is_stmt 0 discriminator 1
 335 01ac 83B68700 		ld	a3,8(a5)
 135:src/semaphore.cpp ****             if (prev) prev->next = s->next;
 336              		.loc 1 135 34 discriminator 1
 337 01b0 2334D700 		sd	a3,8(a4)
 338              	.LVL31:
 339              	.L29:
 137:src/semaphore.cpp ****             return;
 340              		.loc 1 137 13 is_stmt 1
 137:src/semaphore.cpp ****             return;
 341              		.loc 1 137 21 is_stmt 0
GAS LISTING /tmp/ccK5rJ20.s 			page 11


 342 01b4 23B40700 		sd	zero,8(a5)
 138:src/semaphore.cpp ****         }
 343              		.loc 1 138 13 is_stmt 1
 344              	.L25:
 141:src/semaphore.cpp ****     }
 142:src/semaphore.cpp **** }
 345              		.loc 1 142 1 is_stmt 0
 346 01b8 03348100 		ld	s0,8(sp)
 347              		.cfi_remember_state
 348              		.cfi_restore 8
 349              		.cfi_def_cfa 2, 16
 350 01bc 13010101 		addi	sp,sp,16
 351              		.cfi_def_cfa_offset 0
 352 01c0 67800000 		jr	ra
 353              	.LVL32:
 354              	.L28:
 355              		.cfi_restore_state
 136:src/semaphore.cpp ****             s->next = nullptr;
 356              		.loc 1 136 18 is_stmt 1
 136:src/semaphore.cpp ****             s->next = nullptr;
 357              		.loc 1 136 31 is_stmt 0
 358 01c4 17070000 		lla	a4,.LANCHOR0
 358      13070700 
 359              	.LVL33:
 360 01cc 2334F700 		sd	a5,8(a4)
 136:src/semaphore.cpp ****             s->next = nullptr;
 361              		.loc 1 136 24
 362 01d0 2330F700 		sd	a5,0(a4)
 363 01d4 6FF01FFE 		j	.L29
 364              		.cfi_endproc
 365              	.LFE46:
 367              		.section	.text._ZN4ListI3TCBE3addEPS0_,"axG",@progbits,_ZN4ListI3TCBE3addEPS0_,comdat
 368              		.align	2
 369              		.weak	_ZN4ListI3TCBE3addEPS0_
 371              	_ZN4ListI3TCBE3addEPS0_:
 372              	.LFB50:
  19:src/../h/List.hpp **** 
  20:src/../h/List.hpp ****     void add(T*);
  21:src/../h/List.hpp ****     T* get();
  22:src/../h/List.hpp ****     T* peek();
  23:src/../h/List.hpp **** 
  24:src/../h/List.hpp ****     inline int size() {return count;}
  25:src/../h/List.hpp **** 
  26:src/../h/List.hpp **** private:
  27:src/../h/List.hpp **** 
  28:src/../h/List.hpp ****     struct Elem {
  29:src/../h/List.hpp ****         T* data;
  30:src/../h/List.hpp ****         Elem* next;
  31:src/../h/List.hpp **** 
  32:src/../h/List.hpp ****         explicit Elem(T* data) : data(data), next(nullptr) {}
  33:src/../h/List.hpp ****     };
  34:src/../h/List.hpp **** 
  35:src/../h/List.hpp ****     Elem *head, *tail;
  36:src/../h/List.hpp ****     int count = 0;
  37:src/../h/List.hpp **** 
  38:src/../h/List.hpp ****     void remove(T *t);
  39:src/../h/List.hpp **** };
GAS LISTING /tmp/ccK5rJ20.s 			page 12


  40:src/../h/List.hpp **** 
  41:src/../h/List.hpp **** typedef List<TCB> ListTCB;
  42:src/../h/List.hpp **** using ListSEM = List<Sem>;
  43:src/../h/List.hpp **** 
  44:src/../h/List.hpp **** template <typename T>
  45:src/../h/List.hpp **** void List<T>::add(T *t) {
 373              		.loc 3 45 6 is_stmt 1
 374              		.cfi_startproc
 375              	.LVL34:
 376 0000 130101FE 		addi	sp,sp,-32
 377              		.cfi_def_cfa_offset 32
 378 0004 233C1100 		sd	ra,24(sp)
 379 0008 23388100 		sd	s0,16(sp)
 380 000c 23349100 		sd	s1,8(sp)
 381 0010 23302101 		sd	s2,0(sp)
 382              		.cfi_offset 1, -8
 383              		.cfi_offset 8, -16
 384              		.cfi_offset 9, -24
 385              		.cfi_offset 18, -32
 386 0014 13040102 		addi	s0,sp,32
 387              		.cfi_def_cfa 8, 0
 388 0018 93040500 		mv	s1,a0
 389 001c 13890500 		mv	s2,a1
  46:src/../h/List.hpp **** 
  47:src/../h/List.hpp ****     Elem* toAdd = new Elem(t);
 390              		.loc 3 47 19 is_stmt 0
 391 0020 13050001 		li	a0,16
 392              	.LVL35:
 393 0024 97000000 		call	_Znwm@plt
 393      E7800000 
 394              	.LVL36:
 395              	.LBB19:
 396              	.LBB20:
  32:src/../h/List.hpp ****     };
 397              		.loc 3 32 58
 398 002c 23302501 		sd	s2,0(a0)
 399 0030 23340500 		sd	zero,8(a0)
 400              	.LVL37:
 401              	.LBE20:
 402              	.LBE19:
  48:src/../h/List.hpp **** 
  49:src/../h/List.hpp ****     if (!head) head = tail = toAdd;
 403              		.loc 3 49 10
 404 0034 83B70400 		ld	a5,0(s1)
 405              		.loc 3 49 5
 406 0038 638A0702 		beqz	a5,.L37
  50:src/../h/List.hpp ****     else tail = tail -> next = toAdd;
 407              		.loc 3 50 17
 408 003c 83B78400 		ld	a5,8(s1)
 409              		.loc 3 50 10
 410 0040 23B4A700 		sd	a0,8(a5)
 411 0044 23B4A400 		sd	a0,8(s1)
 412              	.L35:
  51:src/../h/List.hpp **** 
  52:src/../h/List.hpp ****     count++;
 413              		.loc 3 52 5
 414 0048 83A70401 		lw	a5,16(s1)
GAS LISTING /tmp/ccK5rJ20.s 			page 13


 415 004c 9B871700 		addiw	a5,a5,1
 416 0050 23A8F400 		sw	a5,16(s1)
  53:src/../h/List.hpp **** }
 417              		.loc 3 53 1
 418 0054 83308101 		ld	ra,24(sp)
 419              		.cfi_remember_state
 420              		.cfi_restore 1
 421 0058 03340101 		ld	s0,16(sp)
 422              		.cfi_restore 8
 423              		.cfi_def_cfa 2, 32
 424 005c 83348100 		ld	s1,8(sp)
 425              		.cfi_restore 9
 426              	.LVL38:
 427 0060 03390100 		ld	s2,0(sp)
 428              		.cfi_restore 18
 429              	.LVL39:
 430 0064 13010102 		addi	sp,sp,32
 431              		.cfi_def_cfa_offset 0
 432 0068 67800000 		jr	ra
 433              	.LVL40:
 434              	.L37:
 435              		.cfi_restore_state
  49:src/../h/List.hpp ****     else tail = tail -> next = toAdd;
 436              		.loc 3 49 16 discriminator 1
 437 006c 23B4A400 		sd	a0,8(s1)
 438 0070 23B0A400 		sd	a0,0(s1)
 439 0074 6FF05FFD 		j	.L35
 440              		.cfi_endproc
 441              	.LFE50:
 443              		.text
 444              		.align	2
 445              		.globl	_ZN3Sem5blockEv
 447              	_ZN3Sem5blockEv:
 448              	.LFB37:
  31:src/semaphore.cpp **** 
 449              		.loc 1 31 19 is_stmt 1
 450              		.cfi_startproc
 451              	.LVL41:
 452 01d8 130101FE 		addi	sp,sp,-32
 453              		.cfi_def_cfa_offset 32
 454 01dc 233C1100 		sd	ra,24(sp)
 455 01e0 23388100 		sd	s0,16(sp)
 456 01e4 23349100 		sd	s1,8(sp)
 457 01e8 23302101 		sd	s2,0(sp)
 458              		.cfi_offset 1, -8
 459              		.cfi_offset 8, -16
 460              		.cfi_offset 9, -24
 461              		.cfi_offset 18, -32
 462 01ec 13040102 		addi	s0,sp,32
 463              		.cfi_def_cfa 8, 0
  33:src/semaphore.cpp ****     oldRunning -> current_state = TCB::BLOCKED;
 464              		.loc 1 33 5
  33:src/semaphore.cpp ****     oldRunning -> current_state = TCB::BLOCKED;
 465              		.loc 1 33 10 is_stmt 0
 466 01f0 17090000 		la	s2,_ZN3TCB7runningE
 466      03390900 
 467 01f8 83340900 		ld	s1,0(s2)
GAS LISTING /tmp/ccK5rJ20.s 			page 14


 468              	.LVL42:
  34:src/semaphore.cpp **** 
 469              		.loc 1 34 5 is_stmt 1
  34:src/semaphore.cpp **** 
 470              		.loc 1 34 33 is_stmt 0
 471 01fc 93074000 		li	a5,4
 472 0200 23A4F406 		sw	a5,104(s1)
  36:src/semaphore.cpp **** 
 473              		.loc 1 36 5 is_stmt 1
  36:src/semaphore.cpp **** 
 474              		.loc 1 36 16 is_stmt 0
 475 0204 93850400 		mv	a1,s1
 476 0208 13050501 		addi	a0,a0,16
 477              	.LVL43:
 478 020c 97000000 		call	_ZN4ListI3TCBE3addEPS0_
 478      E7800000 
 479              	.LVL44:
  38:src/semaphore.cpp ****     TCB::yield(oldRunning, TCB::running);
 480              		.loc 1 38 5 is_stmt 1
  38:src/semaphore.cpp ****     TCB::yield(oldRunning, TCB::running);
 481              		.loc 1 38 34 is_stmt 0
 482 0214 97000000 		call	_ZN9Scheduler3getEv@plt
 482      E7800000 
 483              	.LVL45:
 484 021c 93050500 		mv	a1,a0
  38:src/semaphore.cpp ****     TCB::yield(oldRunning, TCB::running);
 485              		.loc 1 38 18
 486 0220 2330A900 		sd	a0,0(s2)
  39:src/semaphore.cpp **** }
 487              		.loc 1 39 5 is_stmt 1
  39:src/semaphore.cpp **** }
 488              		.loc 1 39 15 is_stmt 0
 489 0224 13850400 		mv	a0,s1
 490 0228 97000000 		call	_ZN3TCB5yieldEPS_S0_@plt
 490      E7800000 
 491              	.LVL46:
  40:src/semaphore.cpp **** 
 492              		.loc 1 40 1
 493 0230 83308101 		ld	ra,24(sp)
 494              		.cfi_restore 1
 495 0234 03340101 		ld	s0,16(sp)
 496              		.cfi_restore 8
 497              		.cfi_def_cfa 2, 32
 498 0238 83348100 		ld	s1,8(sp)
 499              		.cfi_restore 9
 500              	.LVL47:
 501 023c 03390100 		ld	s2,0(sp)
 502              		.cfi_restore 18
 503 0240 13010102 		addi	sp,sp,32
 504              		.cfi_def_cfa_offset 0
 505 0244 67800000 		jr	ra
 506              		.cfi_endproc
 507              	.LFE37:
 509              		.align	2
 510              		.globl	_ZN3Sem4waitEPS_
 512              	_ZN3Sem4waitEPS_:
 513              	.LFB34:
GAS LISTING /tmp/ccK5rJ20.s 			page 15


   7:src/semaphore.cpp ****     if (!handle) return SEM_CLOSED;
 514              		.loc 1 7 29 is_stmt 1
 515              		.cfi_startproc
 516              	.LVL48:
   8:src/semaphore.cpp ****     if (--handle->value < 0) {
 517              		.loc 1 8 5
 518 0248 63060504 		beqz	a0,.L42
   9:src/semaphore.cpp ****         handle->block();
 519              		.loc 1 9 5
   9:src/semaphore.cpp ****         handle->block();
 520              		.loc 1 9 19 is_stmt 0
 521 024c 83270500 		lw	a5,0(a0)
   9:src/semaphore.cpp ****         handle->block();
 522              		.loc 1 9 9
 523 0250 9B87F7FF 		addiw	a5,a5,-1
   9:src/semaphore.cpp ****         handle->block();
 524              		.loc 1 9 25
 525 0254 2320F500 		sw	a5,0(a0)
   9:src/semaphore.cpp ****         handle->block();
 526              		.loc 1 9 5
 527 0258 13970702 		slli	a4,a5,32
 528 025c 63460700 		bltz	a4,.L48
  15:src/semaphore.cpp **** }
 529              		.loc 1 15 12
 530 0260 13050000 		li	a0,0
 531              	.LVL49:
  16:src/semaphore.cpp **** 
 532              		.loc 1 16 1
 533 0264 67800000 		ret
 534              	.LVL50:
 535              	.L48:
   7:src/semaphore.cpp ****     if (!handle) return SEM_CLOSED;
 536              		.loc 1 7 29
 537 0268 130101FF 		addi	sp,sp,-16
 538              		.cfi_def_cfa_offset 16
 539 026c 23341100 		sd	ra,8(sp)
 540 0270 23308100 		sd	s0,0(sp)
 541              		.cfi_offset 1, -8
 542              		.cfi_offset 8, -16
 543 0274 13040101 		addi	s0,sp,16
 544              		.cfi_def_cfa 8, 0
  10:src/semaphore.cpp ****         if (!handle) return SEMDEAD;
 545              		.loc 1 10 9 is_stmt 1
  10:src/semaphore.cpp ****         if (!handle) return SEMDEAD;
 546              		.loc 1 10 22 is_stmt 0
 547 0278 97000000 		call	_ZN3Sem5blockEv
 547      E7800000 
 548              	.LVL51:
  11:src/semaphore.cpp ****         // sem deallocated while thread waiting
 549              		.loc 1 11 9 is_stmt 1
  15:src/semaphore.cpp **** }
 550              		.loc 1 15 12 is_stmt 0
 551 0280 13050000 		li	a0,0
  16:src/semaphore.cpp **** 
 552              		.loc 1 16 1
 553 0284 83308100 		ld	ra,8(sp)
 554              		.cfi_restore 1
GAS LISTING /tmp/ccK5rJ20.s 			page 16


 555 0288 03340100 		ld	s0,0(sp)
 556              		.cfi_restore 8
 557              		.cfi_def_cfa 2, 16
 558 028c 13010101 		addi	sp,sp,16
 559              		.cfi_def_cfa_offset 0
 560 0290 67800000 		jr	ra
 561              	.LVL52:
 562              	.L42:
   8:src/semaphore.cpp ****     if (--handle->value < 0) {
 563              		.loc 1 8 25
 564 0294 1305C0FF 		li	a0,-4
 565              	.LVL53:
 566 0298 67800000 		ret
 567              		.cfi_endproc
 568              	.LFE34:
 570              		.align	2
 571              		.globl	_ZN3Sem9timedWaitEPS_m
 573              	_ZN3Sem9timedWaitEPS_m:
 574              	.LFB39:
  59:src/semaphore.cpp **** 
 575              		.loc 1 59 47 is_stmt 1
 576              		.cfi_startproc
 577              	.LVL54:
  66:src/semaphore.cpp **** 
 578              		.loc 1 66 5
 579 029c 630C0508 		beqz	a0,.L51
  59:src/semaphore.cpp **** 
 580              		.loc 1 59 47 is_stmt 0
 581 02a0 130101FE 		addi	sp,sp,-32
 582              		.cfi_def_cfa_offset 32
 583 02a4 233C1100 		sd	ra,24(sp)
 584 02a8 23388100 		sd	s0,16(sp)
 585 02ac 23349100 		sd	s1,8(sp)
 586 02b0 23302101 		sd	s2,0(sp)
 587              		.cfi_offset 1, -8
 588              		.cfi_offset 8, -16
 589              		.cfi_offset 9, -24
 590              		.cfi_offset 18, -32
 591 02b4 13040102 		addi	s0,sp,32
 592              		.cfi_def_cfa 8, 0
 593 02b8 93040500 		mv	s1,a0
  68:src/semaphore.cpp **** 
 594              		.loc 1 68 5 is_stmt 1
  68:src/semaphore.cpp **** 
 595              		.loc 1 68 20 is_stmt 0
 596 02bc 83270500 		lw	a5,0(a0)
  68:src/semaphore.cpp **** 
 597              		.loc 1 68 9
 598 02c0 9B87F7FF 		addiw	a5,a5,-1
  68:src/semaphore.cpp **** 
 599              		.loc 1 68 27
 600 02c4 2320F500 		sw	a5,0(a0)
  68:src/semaphore.cpp **** 
 601              		.loc 1 68 5
 602 02c8 13970702 		slli	a4,a5,32
 603 02cc 63400702 		bltz	a4,.L58
  83:src/semaphore.cpp **** }
GAS LISTING /tmp/ccK5rJ20.s 			page 17


 604              		.loc 1 83 12
 605 02d0 13050000 		li	a0,0
 606              	.LVL55:
 607              	.L50:
  84:src/semaphore.cpp **** 
 608              		.loc 1 84 1
 609 02d4 83308101 		ld	ra,24(sp)
 610              		.cfi_remember_state
 611              		.cfi_restore 1
 612 02d8 03340101 		ld	s0,16(sp)
 613              		.cfi_restore 8
 614              		.cfi_def_cfa 2, 32
 615 02dc 83348100 		ld	s1,8(sp)
 616              		.cfi_restore 9
 617              	.LVL56:
 618 02e0 03390100 		ld	s2,0(sp)
 619              		.cfi_restore 18
 620 02e4 13010102 		addi	sp,sp,32
 621              		.cfi_def_cfa_offset 0
 622 02e8 67800000 		jr	ra
 623              	.LVL57:
 624              	.L58:
 625              		.cfi_restore_state
  70:src/semaphore.cpp ****         handle->timedBlock++;
 626              		.loc 1 70 9 is_stmt 1
  70:src/semaphore.cpp ****         handle->timedBlock++;
 627              		.loc 1 70 23 is_stmt 0
 628 02ec 17090000 		la	s2,_ZN3TCB7runningE
 628      03390900 
 629 02f4 83370900 		ld	a5,0(s2)
  70:src/semaphore.cpp ****         handle->timedBlock++;
 630              		.loc 1 70 35
 631 02f8 23BCB700 		sd	a1,24(a5)
  71:src/semaphore.cpp **** 
 632              		.loc 1 71 9 is_stmt 1
  71:src/semaphore.cpp **** 
 633              		.loc 1 71 17 is_stmt 0
 634 02fc 83278502 		lw	a5,40(a0)
  71:src/semaphore.cpp **** 
 635              		.loc 1 71 27
 636 0300 9B871700 		addiw	a5,a5,1
 637 0304 2324F502 		sw	a5,40(a0)
  73:src/semaphore.cpp **** 
 638              		.loc 1 73 9 is_stmt 1
  73:src/semaphore.cpp **** 
 639              		.loc 1 73 22 is_stmt 0
 640 0308 97000000 		call	_ZN3Sem5blockEv
 640      E7800000 
 641              	.LVL58:
  75:src/semaphore.cpp **** 
 642              		.loc 1 75 9 is_stmt 1
  77:src/semaphore.cpp ****         if (!TCB::running->time_on_sem) return TIMEOUT;
 643              		.loc 1 77 9
  77:src/semaphore.cpp ****         if (!TCB::running->time_on_sem) return TIMEOUT;
 644              		.loc 1 77 17 is_stmt 0
 645 0310 83A78402 		lw	a5,40(s1)
  77:src/semaphore.cpp ****         if (!TCB::running->time_on_sem) return TIMEOUT;
GAS LISTING /tmp/ccK5rJ20.s 			page 18


 646              		.loc 1 77 27
 647 0314 9B87F7FF 		addiw	a5,a5,-1
 648 0318 23A4F402 		sw	a5,40(s1)
  78:src/semaphore.cpp ****         else TCB::running->time_on_sem = 0;
 649              		.loc 1 78 9 is_stmt 1
  78:src/semaphore.cpp ****         else TCB::running->time_on_sem = 0;
 650              		.loc 1 78 28 is_stmt 0
 651 031c 83370900 		ld	a5,0(s2)
 652 0320 03B78701 		ld	a4,24(a5)
  78:src/semaphore.cpp ****         else TCB::running->time_on_sem = 0;
 653              		.loc 1 78 9
 654 0324 630C0700 		beqz	a4,.L53
  79:src/semaphore.cpp **** 
 655              		.loc 1 79 14 is_stmt 1
  79:src/semaphore.cpp **** 
 656              		.loc 1 79 40 is_stmt 0
 657 0328 23BC0700 		sd	zero,24(a5)
  83:src/semaphore.cpp **** }
 658              		.loc 1 83 12
 659 032c 13050000 		li	a0,0
 660 0330 6FF05FFA 		j	.L50
 661              	.LVL59:
 662              	.L51:
 663              		.cfi_def_cfa_register 2
 664              		.cfi_restore 1
 665              		.cfi_restore 8
 666              		.cfi_restore 9
 667              		.cfi_restore 18
  66:src/semaphore.cpp **** 
 668              		.loc 1 66 25
 669 0334 1305C0FF 		li	a0,-4
 670              	.LVL60:
  84:src/semaphore.cpp **** 
 671              		.loc 1 84 1
 672 0338 67800000 		ret
 673              	.LVL61:
 674              	.L53:
 675              		.cfi_def_cfa_register 8
 676              		.cfi_offset 1, -8
 677              		.cfi_offset 8, -16
 678              		.cfi_offset 9, -24
 679              		.cfi_offset 18, -32
  78:src/semaphore.cpp ****         else TCB::running->time_on_sem = 0;
 680              		.loc 1 78 48
 681 033c 1305E0FF 		li	a0,-2
 682 0340 6FF05FF9 		j	.L50
 683              		.cfi_endproc
 684              	.LFE39:
 686              		.section	.text._ZN4ListI3TCBE3getEv,"axG",@progbits,_ZN4ListI3TCBE3getEv,comdat
 687              		.align	2
 688              		.weak	_ZN4ListI3TCBE3getEv
 690              	_ZN4ListI3TCBE3getEv:
 691              	.LFB51:
  54:src/../h/List.hpp **** 
  55:src/../h/List.hpp **** template <typename T>
  56:src/../h/List.hpp **** T* List<T>::get() {
 692              		.loc 3 56 4 is_stmt 1
GAS LISTING /tmp/ccK5rJ20.s 			page 19


 693              		.cfi_startproc
 694              	.LVL62:
 695 0000 130101FE 		addi	sp,sp,-32
 696              		.cfi_def_cfa_offset 32
 697 0004 233C1100 		sd	ra,24(sp)
 698 0008 23388100 		sd	s0,16(sp)
 699 000c 23349100 		sd	s1,8(sp)
 700 0010 23302101 		sd	s2,0(sp)
 701              		.cfi_offset 1, -8
 702              		.cfi_offset 8, -16
 703              		.cfi_offset 9, -24
 704              		.cfi_offset 18, -32
 705 0014 13040102 		addi	s0,sp,32
 706              		.cfi_def_cfa 8, 0
 707 0018 93040500 		mv	s1,a0
  57:src/../h/List.hpp **** 
  58:src/../h/List.hpp ****     if (!head) return nullptr;
 708              		.loc 3 58 10 is_stmt 0
 709 001c 03350500 		ld	a0,0(a0)
 710              	.LVL63:
 711              		.loc 3 58 5
 712 0020 63060504 		beqz	a0,.L62
  59:src/../h/List.hpp **** 
  60:src/../h/List.hpp ****     T* t = head -> data;
 713              		.loc 3 60 8
 714 0024 03390500 		ld	s2,0(a0)
 715              	.LVL64:
  61:src/../h/List.hpp ****     Elem* oldHead = head;
  62:src/../h/List.hpp ****     head = head -> next;
 716              		.loc 3 62 20
 717 0028 83378500 		ld	a5,8(a0)
 718              		.loc 3 62 5
 719 002c 23B0F400 		sd	a5,0(s1)
  63:src/../h/List.hpp **** 
  64:src/../h/List.hpp ****     if (!head) tail = nullptr;
 720              		.loc 3 64 5
 721 0030 638A0702 		beqz	a5,.L64
 722              	.L61:
  65:src/../h/List.hpp **** 
  66:src/../h/List.hpp ****     delete oldHead;
 723              		.loc 3 66 5
 724 0034 97000000 		call	_ZdlPv@plt
 724      E7800000 
 725              	.LVL65:
  67:src/../h/List.hpp ****     count--;
 726              		.loc 3 67 5
 727 003c 83A70401 		lw	a5,16(s1)
 728 0040 9B87F7FF 		addiw	a5,a5,-1
 729 0044 23A8F400 		sw	a5,16(s1)
 730              	.LVL66:
 731              	.L59:
  68:src/../h/List.hpp ****     return t;
  69:src/../h/List.hpp **** }
 732              		.loc 3 69 1
 733 0048 13050900 		mv	a0,s2
 734 004c 83308101 		ld	ra,24(sp)
 735              		.cfi_remember_state
GAS LISTING /tmp/ccK5rJ20.s 			page 20


 736              		.cfi_restore 1
 737 0050 03340101 		ld	s0,16(sp)
 738              		.cfi_restore 8
 739              		.cfi_def_cfa 2, 32
 740 0054 83348100 		ld	s1,8(sp)
 741              		.cfi_restore 9
 742              	.LVL67:
 743 0058 03390100 		ld	s2,0(sp)
 744              		.cfi_restore 18
 745 005c 13010102 		addi	sp,sp,32
 746              		.cfi_def_cfa_offset 0
 747 0060 67800000 		jr	ra
 748              	.LVL68:
 749              	.L64:
 750              		.cfi_restore_state
  64:src/../h/List.hpp **** 
 751              		.loc 3 64 16 discriminator 1
 752 0064 23B40400 		sd	zero,8(s1)
 753 0068 6FF0DFFC 		j	.L61
 754              	.LVL69:
 755              	.L62:
  58:src/../h/List.hpp **** 
 756              		.loc 3 58 23
 757 006c 13090500 		mv	s2,a0
 758 0070 6FF09FFD 		j	.L59
 759              		.cfi_endproc
 760              	.LFE51:
 762              		.text
 763              		.align	2
 764              		.globl	_ZN3Sem7deblockEv
 766              	_ZN3Sem7deblockEv:
 767              	.LFB38:
  42:src/semaphore.cpp **** 
 768              		.loc 1 42 21 is_stmt 1
 769              		.cfi_startproc
 770              	.LVL70:
 771 0344 130101FE 		addi	sp,sp,-32
 772              		.cfi_def_cfa_offset 32
 773 0348 233C1100 		sd	ra,24(sp)
 774 034c 23388100 		sd	s0,16(sp)
 775 0350 23349100 		sd	s1,8(sp)
 776              		.cfi_offset 1, -8
 777              		.cfi_offset 8, -16
 778              		.cfi_offset 9, -24
 779 0354 13040102 		addi	s0,sp,32
 780              		.cfi_def_cfa 8, 0
 781 0358 93040500 		mv	s1,a0
  46:src/semaphore.cpp **** 
 782              		.loc 1 46 5
  46:src/semaphore.cpp **** 
 783              		.loc 1 46 27 is_stmt 0
 784 035c 13050501 		addi	a0,a0,16
 785              	.LVL71:
 786 0360 97000000 		call	_ZN4ListI3TCBE3getEv
 786      E7800000 
 787              	.LVL72:
  48:src/semaphore.cpp ****     if (tcb -> time_on_sem) {
GAS LISTING /tmp/ccK5rJ20.s 			page 21


 788              		.loc 1 48 5 is_stmt 1
 789 0368 63040502 		beqz	a0,.L65
  49:src/semaphore.cpp ****         // 0 if not timed wait
 790              		.loc 1 49 5
  49:src/semaphore.cpp ****         // 0 if not timed wait
 791              		.loc 1 49 16 is_stmt 0
 792 036c 83378501 		ld	a5,24(a0)
  49:src/semaphore.cpp ****         // 0 if not timed wait
 793              		.loc 1 49 5
 794 0370 638A0700 		beqz	a5,.L67
  51:src/semaphore.cpp ****         timedBlock--;
 795              		.loc 1 51 9 is_stmt 1
  51:src/semaphore.cpp ****         timedBlock--;
 796              		.loc 1 51 28 is_stmt 0
 797 0374 233C0500 		sd	zero,24(a0)
  52:src/semaphore.cpp ****     }
 798              		.loc 1 52 9 is_stmt 1
 799 0378 83A78402 		lw	a5,40(s1)
  52:src/semaphore.cpp ****     }
 800              		.loc 1 52 19 is_stmt 0
 801 037c 9B87F7FF 		addiw	a5,a5,-1
 802 0380 23A4F402 		sw	a5,40(s1)
 803              	.L67:
  54:src/semaphore.cpp ****     Scheduler::put(tcb);
 804              		.loc 1 54 5 is_stmt 1
  54:src/semaphore.cpp ****     Scheduler::put(tcb);
 805              		.loc 1 54 24 is_stmt 0
 806 0384 23240506 		sw	zero,104(a0)
  55:src/semaphore.cpp **** 
 807              		.loc 1 55 5 is_stmt 1
  55:src/semaphore.cpp **** 
 808              		.loc 1 55 19 is_stmt 0
 809 0388 97000000 		call	_ZN9Scheduler3putEP3TCB@plt
 809      E7800000 
 810              	.LVL73:
 811              	.L65:
  57:src/semaphore.cpp **** 
 812              		.loc 1 57 1
 813 0390 83308101 		ld	ra,24(sp)
 814              		.cfi_restore 1
 815 0394 03340101 		ld	s0,16(sp)
 816              		.cfi_restore 8
 817              		.cfi_def_cfa 2, 32
 818 0398 83348100 		ld	s1,8(sp)
 819              		.cfi_restore 9
 820              	.LVL74:
 821 039c 13010102 		addi	sp,sp,32
 822              		.cfi_def_cfa_offset 0
 823 03a0 67800000 		jr	ra
 824              		.cfi_endproc
 825              	.LFE38:
 827              		.align	2
 828              		.globl	_ZN3Sem6signalEPS_
 830              	_ZN3Sem6signalEPS_:
 831              	.LFB35:
  18:src/semaphore.cpp ****     if (!handle) return SEM_CLOSED;
 832              		.loc 1 18 31 is_stmt 1
GAS LISTING /tmp/ccK5rJ20.s 			page 22


 833              		.cfi_startproc
 834              	.LVL75:
  19:src/semaphore.cpp ****     if (++handle->value<= 0) handle->deblock();
 835              		.loc 1 19 5
 836 03a4 63060504 		beqz	a0,.L71
  20:src/semaphore.cpp ****     return 0;
 837              		.loc 1 20 5
  20:src/semaphore.cpp ****     return 0;
 838              		.loc 1 20 19 is_stmt 0
 839 03a8 83270500 		lw	a5,0(a0)
  20:src/semaphore.cpp ****     return 0;
 840              		.loc 1 20 9
 841 03ac 9B871700 		addiw	a5,a5,1
 842 03b0 1B870700 		sext.w	a4,a5
  20:src/semaphore.cpp ****     return 0;
 843              		.loc 1 20 24
 844 03b4 2320F500 		sw	a5,0(a0)
  20:src/semaphore.cpp ****     return 0;
 845              		.loc 1 20 5
 846 03b8 6356E000 		blez	a4,.L77
  21:src/semaphore.cpp **** }
 847              		.loc 1 21 12
 848 03bc 13050000 		li	a0,0
 849              	.LVL76:
  22:src/semaphore.cpp **** 
 850              		.loc 1 22 1
 851 03c0 67800000 		ret
 852              	.LVL77:
 853              	.L77:
  18:src/semaphore.cpp ****     if (!handle) return SEM_CLOSED;
 854              		.loc 1 18 31 discriminator 1
 855 03c4 130101FF 		addi	sp,sp,-16
 856              		.cfi_def_cfa_offset 16
 857 03c8 23341100 		sd	ra,8(sp)
 858 03cc 23308100 		sd	s0,0(sp)
 859              		.cfi_offset 1, -8
 860              		.cfi_offset 8, -16
 861 03d0 13040101 		addi	s0,sp,16
 862              		.cfi_def_cfa 8, 0
  20:src/semaphore.cpp ****     return 0;
 863              		.loc 1 20 30 is_stmt 1 discriminator 1
  20:src/semaphore.cpp ****     return 0;
 864              		.loc 1 20 45 is_stmt 0 discriminator 1
 865 03d4 97000000 		call	_ZN3Sem7deblockEv
 865      E7800000 
 866              	.LVL78:
  21:src/semaphore.cpp **** }
 867              		.loc 1 21 12 discriminator 1
 868 03dc 13050000 		li	a0,0
  22:src/semaphore.cpp **** 
 869              		.loc 1 22 1 discriminator 1
 870 03e0 83308100 		ld	ra,8(sp)
 871              		.cfi_restore 1
 872 03e4 03340100 		ld	s0,0(sp)
 873              		.cfi_restore 8
 874              		.cfi_def_cfa 2, 16
 875 03e8 13010101 		addi	sp,sp,16
GAS LISTING /tmp/ccK5rJ20.s 			page 23


 876              		.cfi_def_cfa_offset 0
 877 03ec 67800000 		jr	ra
 878              	.LVL79:
 879              	.L71:
  19:src/semaphore.cpp ****     if (++handle->value<= 0) handle->deblock();
 880              		.loc 1 19 25
 881 03f0 1305C0FF 		li	a0,-4
 882              	.LVL80:
 883 03f4 67800000 		ret
 884              		.cfi_endproc
 885              	.LFE35:
 887              		.section	.text._ZN4ListI3TCBE4peekEv,"axG",@progbits,_ZN4ListI3TCBE4peekEv,comdat
 888              		.align	2
 889              		.weak	_ZN4ListI3TCBE4peekEv
 891              	_ZN4ListI3TCBE4peekEv:
 892              	.LFB52:
  70:src/../h/List.hpp **** 
  71:src/../h/List.hpp **** template <typename T>
  72:src/../h/List.hpp **** T* List<T>::peek() {
 893              		.loc 3 72 4 is_stmt 1
 894              		.cfi_startproc
 895              	.LVL81:
 896 0000 130101FF 		addi	sp,sp,-16
 897              		.cfi_def_cfa_offset 16
 898 0004 23348100 		sd	s0,8(sp)
 899              		.cfi_offset 8, -8
 900 0008 13040101 		addi	s0,sp,16
 901              		.cfi_def_cfa 8, 0
  73:src/../h/List.hpp ****     if (head) return head->data;
 902              		.loc 3 73 9 is_stmt 0
 903 000c 03350500 		ld	a0,0(a0)
 904              	.LVL82:
 905              		.loc 3 73 5
 906 0010 63040500 		beqz	a0,.L78
 907              		.loc 3 73 28 discriminator 1
 908 0014 03350500 		ld	a0,0(a0)
 909              	.L78:
  74:src/../h/List.hpp ****     else return nullptr;
  75:src/../h/List.hpp **** }
 910              		.loc 3 75 1
 911 0018 03348100 		ld	s0,8(sp)
 912              		.cfi_restore 8
 913              		.cfi_def_cfa 2, 16
 914 001c 13010101 		addi	sp,sp,16
 915              		.cfi_def_cfa_offset 0
 916 0020 67800000 		jr	ra
 917              		.cfi_endproc
 918              	.LFE52:
 920              		.text
 921              		.align	2
 922              		.globl	_ZN3Sem7s_closeEPS_
 924              	_ZN3Sem7s_closeEPS_:
 925              	.LFB41:
  96:src/semaphore.cpp **** 
 926              		.loc 1 96 32 is_stmt 1
 927              		.cfi_startproc
 928              	.LVL83:
GAS LISTING /tmp/ccK5rJ20.s 			page 24


  98:src/semaphore.cpp **** 
 929              		.loc 1 98 5
 930 03f8 63040506 		beqz	a0,.L85
  96:src/semaphore.cpp **** 
 931              		.loc 1 96 32 is_stmt 0
 932 03fc 130101FE 		addi	sp,sp,-32
 933              		.cfi_def_cfa_offset 32
 934 0400 233C1100 		sd	ra,24(sp)
 935 0404 23388100 		sd	s0,16(sp)
 936 0408 23349100 		sd	s1,8(sp)
 937              		.cfi_offset 1, -8
 938              		.cfi_offset 8, -16
 939              		.cfi_offset 9, -24
 940 040c 13040102 		addi	s0,sp,32
 941              		.cfi_def_cfa 8, 0
 942 0410 93040500 		mv	s1,a0
 100:src/semaphore.cpp **** 
 943              		.loc 1 100 5 is_stmt 1
 100:src/semaphore.cpp **** 
 944              		.loc 1 100 14 is_stmt 0
 945 0414 97000000 		call	_ZN3Sem9semRemoveEPS_
 945      E7800000 
 946              	.LVL84:
 947              	.L84:
 102:src/semaphore.cpp ****         handle->deblock();
 948              		.loc 1 102 5 is_stmt 1
 102:src/semaphore.cpp ****         handle->deblock();
 949              		.loc 1 102 33
 102:src/semaphore.cpp ****         handle->deblock();
 950              		.loc 1 102 32 is_stmt 0
 951 041c 13850401 		addi	a0,s1,16
 952 0420 97000000 		call	_ZN4ListI3TCBE4peekEv
 952      E7800000 
 953              	.LVL85:
 102:src/semaphore.cpp ****         handle->deblock();
 954              		.loc 1 102 33
 955 0428 630A0500 		beqz	a0,.L83
 103:src/semaphore.cpp ****     }
 956              		.loc 1 103 9 is_stmt 1
 103:src/semaphore.cpp ****     }
 957              		.loc 1 103 24 is_stmt 0
 958 042c 13850400 		mv	a0,s1
 959 0430 97000000 		call	_ZN3Sem7deblockEv
 959      E7800000 
 960              	.LVL86:
 102:src/semaphore.cpp ****         handle->deblock();
 961              		.loc 1 102 5
 962 0438 6FF05FFE 		j	.L84
 963              	.L83:
 106:src/semaphore.cpp ****     return 0;
 964              		.loc 1 106 5 is_stmt 1 discriminator 1
 106:src/semaphore.cpp ****     return 0;
 965              		.loc 1 106 12 is_stmt 0 discriminator 1
 966 043c 13850400 		mv	a0,s1
 967 0440 97000000 		call	_ZN3SemdlEPv
 967      E7800000 
 968              	.LVL87:
GAS LISTING /tmp/ccK5rJ20.s 			page 25


 107:src/semaphore.cpp **** }
 969              		.loc 1 107 5 is_stmt 1 discriminator 1
 107:src/semaphore.cpp **** }
 970              		.loc 1 107 12 is_stmt 0 discriminator 1
 971 0448 13050000 		li	a0,0
 108:src/semaphore.cpp **** 
 972              		.loc 1 108 1 discriminator 1
 973 044c 83308101 		ld	ra,24(sp)
 974              		.cfi_restore 1
 975 0450 03340101 		ld	s0,16(sp)
 976              		.cfi_restore 8
 977              		.cfi_def_cfa 2, 32
 978 0454 83348100 		ld	s1,8(sp)
 979              		.cfi_restore 9
 980              	.LVL88:
 981 0458 13010102 		addi	sp,sp,32
 982              		.cfi_def_cfa_offset 0
 983 045c 67800000 		jr	ra
 984              	.LVL89:
 985              	.L85:
  98:src/semaphore.cpp **** 
 986              		.loc 1 98 25
 987 0460 1305C0FF 		li	a0,-4
 988              	.LVL90:
 108:src/semaphore.cpp **** 
 989              		.loc 1 108 1
 990 0464 67800000 		ret
 991              		.cfi_endproc
 992              	.LFE41:
 994              		.globl	_ZN3Sem4lastE
 995              		.globl	_ZN3Sem5firstE
 996              		.bss
 997              		.align	3
 998              		.set	.LANCHOR0,. + 0
 1001              	_ZN3Sem5firstE:
 1002 0000 00000000 		.zero	8
 1002      00000000 
 1005              	_ZN3Sem4lastE:
 1006 0008 00000000 		.zero	8
 1006      00000000 
 1007              		.text
 1008              	.Letext0:
 1009              		.file 4 "src/../h/../lib/hw.h"
 1010              		.file 5 "src/../h/../h/Memoryallocator.hpp"
 1011              		.file 6 "src/../h/thread.hpp"
 1012              		.file 7 "src/../h/../h/syscall_c.h"
 1013              		.file 8 "src/../h/Scheduler.hpp"
GAS LISTING /tmp/ccK5rJ20.s 			page 26

