GAS LISTING /tmp/ccGKKNOI.s 			page 1


   1              		.file	"syscall_cpp.cpp"
   2              		.option pic
   3              		.option norelax
   4              		.text
   5              	.Ltext0:
   6              		.section	.text._ZN6Thread3runEv,"axG",@progbits,_ZN6Thread3runEv,comdat
   7              		.align	2
   8              		.weak	_ZN6Thread3runEv
  10              	_ZN6Thread3runEv:
  11              	.LFB0:
  12              		.file 1 "src/../h/syscall_cpp.hpp"
   1:src/../h/syscall_cpp.hpp **** //
   2:src/../h/syscall_cpp.hpp **** // Created by os on 4/6/24.
   3:src/../h/syscall_cpp.hpp **** //
   4:src/../h/syscall_cpp.hpp **** 
   5:src/../h/syscall_cpp.hpp **** #ifndef PROJECT_BASE_SYSCALL_CPP_HPP
   6:src/../h/syscall_cpp.hpp **** #define PROJECT_BASE_SYSCALL_CPP_HPP
   7:src/../h/syscall_cpp.hpp **** 
   8:src/../h/syscall_cpp.hpp **** #include "syscall_c.hpp"
   9:src/../h/syscall_cpp.hpp **** 
  10:src/../h/syscall_cpp.hpp **** void* operator new    (size_t);
  11:src/../h/syscall_cpp.hpp **** void* operator new[]  (size_t);
  12:src/../h/syscall_cpp.hpp **** void  operator delete (void*) noexcept;
  13:src/../h/syscall_cpp.hpp **** void  operator delete[](void*)noexcept;
  14:src/../h/syscall_cpp.hpp **** 
  15:src/../h/syscall_cpp.hpp **** class Thread {
  16:src/../h/syscall_cpp.hpp **** 
  17:src/../h/syscall_cpp.hpp **** public:
  18:src/../h/syscall_cpp.hpp **** 
  19:src/../h/syscall_cpp.hpp ****     Thread (void (*body)(void*), void* arg);
  20:src/../h/syscall_cpp.hpp ****     virtual ~Thread ();
  21:src/../h/syscall_cpp.hpp ****     int start ();
  22:src/../h/syscall_cpp.hpp ****     static void dispatch ();
  23:src/../h/syscall_cpp.hpp ****     static int sleep (time_t);
  24:src/../h/syscall_cpp.hpp **** 
  25:src/../h/syscall_cpp.hpp **** protected:
  26:src/../h/syscall_cpp.hpp ****     Thread ();
  27:src/../h/syscall_cpp.hpp ****     virtual void run () {};
  13              		.loc 1 27 18
  14              		.cfi_startproc
  15              	.LVL0:
  16 0000 130101FF 		addi	sp,sp,-16
  17              		.cfi_def_cfa_offset 16
  18 0004 23348100 		sd	s0,8(sp)
  19              		.cfi_offset 8, -8
  20 0008 13040101 		addi	s0,sp,16
  21              		.cfi_def_cfa 8, 0
  22              		.loc 1 27 26 is_stmt 0
  23 000c 03348100 		ld	s0,8(sp)
  24              		.cfi_restore 8
  25              		.cfi_def_cfa 2, 16
  26 0010 13010101 		addi	sp,sp,16
  27              		.cfi_def_cfa_offset 0
  28 0014 67800000 		jr	ra
  29              		.cfi_endproc
  30              	.LFE0:
  32              		.section	.text._ZN14PeriodicThread18periodicActivationEv,"axG",@progbits,_ZN14PeriodicThread18peri
GAS LISTING /tmp/ccGKKNOI.s 			page 2


  33              		.align	2
  34              		.weak	_ZN14PeriodicThread18periodicActivationEv
  36              	_ZN14PeriodicThread18periodicActivationEv:
  37              	.LFB1:
  28:src/../h/syscall_cpp.hpp **** 
  29:src/../h/syscall_cpp.hpp **** private:
  30:src/../h/syscall_cpp.hpp ****     thread_t myHandle{};
  31:src/../h/syscall_cpp.hpp ****     void (*body)(void*);
  32:src/../h/syscall_cpp.hpp ****     void* arg;
  33:src/../h/syscall_cpp.hpp ****     static void wrapper(void*);
  34:src/../h/syscall_cpp.hpp **** 
  35:src/../h/syscall_cpp.hpp **** };
  36:src/../h/syscall_cpp.hpp **** 
  37:src/../h/syscall_cpp.hpp **** 
  38:src/../h/syscall_cpp.hpp **** class Semaphore {
  39:src/../h/syscall_cpp.hpp **** public:
  40:src/../h/syscall_cpp.hpp ****     Semaphore (unsigned init = 1);
  41:src/../h/syscall_cpp.hpp ****     virtual ~Semaphore ();
  42:src/../h/syscall_cpp.hpp ****     int wait ();
  43:src/../h/syscall_cpp.hpp ****     int signal ();
  44:src/../h/syscall_cpp.hpp ****     int timedWait (time_t);
  45:src/../h/syscall_cpp.hpp ****     int tryWait();
  46:src/../h/syscall_cpp.hpp **** private:
  47:src/../h/syscall_cpp.hpp ****     sem_t myHandle;
  48:src/../h/syscall_cpp.hpp **** };
  49:src/../h/syscall_cpp.hpp **** 
  50:src/../h/syscall_cpp.hpp **** 
  51:src/../h/syscall_cpp.hpp **** class PeriodicThread : public Thread {
  52:src/../h/syscall_cpp.hpp **** public:
  53:src/../h/syscall_cpp.hpp ****     void terminate ();
  54:src/../h/syscall_cpp.hpp **** protected:
  55:src/../h/syscall_cpp.hpp ****     PeriodicThread (time_t period);
  56:src/../h/syscall_cpp.hpp ****     virtual void periodicActivation () {}
  38              		.loc 1 56 18 is_stmt 1
  39              		.cfi_startproc
  40              	.LVL1:
  41 0000 130101FF 		addi	sp,sp,-16
  42              		.cfi_def_cfa_offset 16
  43 0004 23348100 		sd	s0,8(sp)
  44              		.cfi_offset 8, -8
  45 0008 13040101 		addi	s0,sp,16
  46              		.cfi_def_cfa 8, 0
  47              		.loc 1 56 41 is_stmt 0
  48 000c 03348100 		ld	s0,8(sp)
  49              		.cfi_restore 8
  50              		.cfi_def_cfa 2, 16
  51 0010 13010101 		addi	sp,sp,16
  52              		.cfi_def_cfa_offset 0
  53 0014 67800000 		jr	ra
  54              		.cfi_endproc
  55              	.LFE1:
  57              		.text
  58              		.align	2
  59              		.globl	_ZN6Thread7wrapperEPv
  61              	_ZN6Thread7wrapperEPv:
  62              	.LFB19:
  63              		.file 2 "src/syscall_cpp.cpp"
GAS LISTING /tmp/ccGKKNOI.s 			page 3


   1:src/syscall_cpp.cpp **** #include "../h/syscall_cpp.hpp"
   2:src/syscall_cpp.cpp **** #include "../h/Memoryallocator.hpp"
   3:src/syscall_cpp.cpp **** 
   4:src/syscall_cpp.cpp **** void* operator new (size_t size) {
   5:src/syscall_cpp.cpp ****     // operator new prosledjuje bajtove
   6:src/syscall_cpp.cpp ****     return mem_alloc(size);
   7:src/syscall_cpp.cpp **** }
   8:src/syscall_cpp.cpp **** 
   9:src/syscall_cpp.cpp **** void* operator new[](size_t size) {
  10:src/syscall_cpp.cpp ****     // operator new prosledjuje bajtove
  11:src/syscall_cpp.cpp ****     return mem_alloc(size);
  12:src/syscall_cpp.cpp **** }
  13:src/syscall_cpp.cpp **** 
  14:src/syscall_cpp.cpp **** void operator delete[](void* ptr) noexcept {
  15:src/syscall_cpp.cpp ****      mem_free(ptr);
  16:src/syscall_cpp.cpp **** }
  17:src/syscall_cpp.cpp **** 
  18:src/syscall_cpp.cpp **** void operator delete(void *ptr) noexcept {
  19:src/syscall_cpp.cpp ****     mem_free(ptr);
  20:src/syscall_cpp.cpp **** }
  21:src/syscall_cpp.cpp **** 
  22:src/syscall_cpp.cpp **** Thread::Thread(void (*body)(void *), void *arg) {
  23:src/syscall_cpp.cpp ****     this->body = body;
  24:src/syscall_cpp.cpp ****     this->arg = arg;
  25:src/syscall_cpp.cpp ****     this->myHandle = nullptr;
  26:src/syscall_cpp.cpp **** }
  27:src/syscall_cpp.cpp **** 
  28:src/syscall_cpp.cpp **** Thread::Thread() {
  29:src/syscall_cpp.cpp ****     this->body = wrapper;
  30:src/syscall_cpp.cpp ****     this->arg  = (void*) this;
  31:src/syscall_cpp.cpp ****     this->myHandle = nullptr;
  32:src/syscall_cpp.cpp **** }
  33:src/syscall_cpp.cpp **** 
  34:src/syscall_cpp.cpp **** Thread::~Thread() {
  35:src/syscall_cpp.cpp ****     delete &this->myHandle;
  36:src/syscall_cpp.cpp **** }
  37:src/syscall_cpp.cpp **** 
  38:src/syscall_cpp.cpp **** int Thread::sleep(time_t time) {
  39:src/syscall_cpp.cpp ****     return time_sleep(time);
  40:src/syscall_cpp.cpp **** }
  41:src/syscall_cpp.cpp **** 
  42:src/syscall_cpp.cpp **** void Thread::dispatch() {
  43:src/syscall_cpp.cpp ****     thread_dispatch();
  44:src/syscall_cpp.cpp **** }
  45:src/syscall_cpp.cpp **** 
  46:src/syscall_cpp.cpp **** int Thread::start() {
  47:src/syscall_cpp.cpp ****     return thread_create(&myHandle, this->body, this->arg);
  48:src/syscall_cpp.cpp **** }
  49:src/syscall_cpp.cpp **** 
  50:src/syscall_cpp.cpp **** void Thread::wrapper(void *arg) {
  64              		.loc 2 50 33 is_stmt 1
  65              		.cfi_startproc
  66              	.LVL2:
  67 0000 130101FF 		addi	sp,sp,-16
  68              		.cfi_def_cfa_offset 16
  69 0004 23341100 		sd	ra,8(sp)
  70 0008 23308100 		sd	s0,0(sp)
GAS LISTING /tmp/ccGKKNOI.s 			page 4


  71              		.cfi_offset 1, -8
  72              		.cfi_offset 8, -16
  73 000c 13040101 		addi	s0,sp,16
  74              		.cfi_def_cfa 8, 0
  51:src/syscall_cpp.cpp ****     auto* t = (Thread*) arg;
  75              		.loc 2 51 5
  76              	.LVL3:
  52:src/syscall_cpp.cpp ****     t->run();
  77              		.loc 2 52 5
  78              		.loc 2 52 12 is_stmt 0
  79 0010 83370500 		ld	a5,0(a0)
  80 0014 83B70701 		ld	a5,16(a5)
  81              		.loc 2 52 11
  82 0018 E7800700 		jalr	a5
  83              	.LVL4:
  53:src/syscall_cpp.cpp **** }
  84              		.loc 2 53 1
  85 001c 83308100 		ld	ra,8(sp)
  86              		.cfi_restore 1
  87 0020 03340100 		ld	s0,0(sp)
  88              		.cfi_restore 8
  89              		.cfi_def_cfa 2, 16
  90 0024 13010101 		addi	sp,sp,16
  91              		.cfi_def_cfa_offset 0
  92 0028 67800000 		jr	ra
  93              		.cfi_endproc
  94              	.LFE19:
  96              		.align	2
  97              		.globl	_ZN14PeriodicThread3runEv
  99              	_ZN14PeriodicThread3runEv:
 100              	.LFB37:
  54:src/syscall_cpp.cpp **** 
  55:src/syscall_cpp.cpp **** Semaphore::Semaphore(unsigned int init) : myHandle(nullptr) {
  56:src/syscall_cpp.cpp ****     sem_open(&myHandle, init);
  57:src/syscall_cpp.cpp **** }
  58:src/syscall_cpp.cpp **** 
  59:src/syscall_cpp.cpp **** Semaphore::~Semaphore() {
  60:src/syscall_cpp.cpp ****     if (myHandle) sem_close(myHandle);
  61:src/syscall_cpp.cpp **** }
  62:src/syscall_cpp.cpp **** 
  63:src/syscall_cpp.cpp **** int Semaphore::wait() {
  64:src/syscall_cpp.cpp ****     if (myHandle) return sem_wait(myHandle);
  65:src/syscall_cpp.cpp ****     return -1;
  66:src/syscall_cpp.cpp **** }
  67:src/syscall_cpp.cpp **** 
  68:src/syscall_cpp.cpp **** int Semaphore::signal() {
  69:src/syscall_cpp.cpp ****     if (myHandle) return sem_signal(myHandle);
  70:src/syscall_cpp.cpp ****     return -1;
  71:src/syscall_cpp.cpp **** }
  72:src/syscall_cpp.cpp **** 
  73:src/syscall_cpp.cpp **** int Semaphore::timedWait(time_t time) {
  74:src/syscall_cpp.cpp ****     if (myHandle && time) return sem_timedwait(myHandle, time);
  75:src/syscall_cpp.cpp ****     return -1;
  76:src/syscall_cpp.cpp **** }
  77:src/syscall_cpp.cpp **** 
  78:src/syscall_cpp.cpp **** int Semaphore::tryWait() {
  79:src/syscall_cpp.cpp ****     if (myHandle) return sem_trywait(myHandle);
GAS LISTING /tmp/ccGKKNOI.s 			page 5


  80:src/syscall_cpp.cpp ****     return -1;
  81:src/syscall_cpp.cpp **** }
  82:src/syscall_cpp.cpp **** 
  83:src/syscall_cpp.cpp **** char Console::getc() {
  84:src/syscall_cpp.cpp ****     return ::getc();
  85:src/syscall_cpp.cpp **** }
  86:src/syscall_cpp.cpp **** 
  87:src/syscall_cpp.cpp **** void Console::putc(char c) {
  88:src/syscall_cpp.cpp ****     ::putc(c);
  89:src/syscall_cpp.cpp **** }
  90:src/syscall_cpp.cpp **** 
  91:src/syscall_cpp.cpp **** PeriodicThread::PeriodicThread(time_t period) : period(period) {}
  92:src/syscall_cpp.cpp **** 
  93:src/syscall_cpp.cpp **** void PeriodicThread::terminate() {
  94:src/syscall_cpp.cpp ****     thread_exit();
  95:src/syscall_cpp.cpp **** }
  96:src/syscall_cpp.cpp **** 
  97:src/syscall_cpp.cpp **** void PeriodicThread::run() {
 101              		.loc 2 97 28 is_stmt 1
 102              		.cfi_startproc
 103              	.LVL5:
 104 002c 130101FE 		addi	sp,sp,-32
 105              		.cfi_def_cfa_offset 32
 106 0030 233C1100 		sd	ra,24(sp)
 107 0034 23388100 		sd	s0,16(sp)
 108 0038 23349100 		sd	s1,8(sp)
 109              		.cfi_offset 1, -8
 110              		.cfi_offset 8, -16
 111              		.cfi_offset 9, -24
 112 003c 13040102 		addi	s0,sp,32
 113              		.cfi_def_cfa 8, 0
 114 0040 93040500 		mv	s1,a0
 115              	.LVL6:
 116              	.L8:
  98:src/syscall_cpp.cpp ****     while (true) {
 117              		.loc 2 98 5 discriminator 1
  99:src/syscall_cpp.cpp ****         periodicActivation();
 118              		.loc 2 99 9 discriminator 1
 119              		.loc 2 99 28 is_stmt 0 discriminator 1
 120 0044 83B70400 		ld	a5,0(s1)
 121 0048 83B78701 		ld	a5,24(a5)
 122              		.loc 2 99 27 discriminator 1
 123 004c 13850400 		mv	a0,s1
 124 0050 E7800700 		jalr	a5
 125              	.LVL7:
 100:src/syscall_cpp.cpp ****         time_sleep(period);
 126              		.loc 2 100 9 is_stmt 1 discriminator 1
 127              		.loc 2 100 19 is_stmt 0 discriminator 1
 128 0054 03B50402 		ld	a0,32(s1)
 129 0058 97000000 		call	_Z10time_sleepm@plt
 129      E7800000 
 130              	.LVL8:
  98:src/syscall_cpp.cpp ****     while (true) {
 131              		.loc 2 98 5 is_stmt 1 discriminator 1
 132 0060 6FF05FFE 		j	.L8
 133              		.cfi_endproc
 134              	.LFE37:
GAS LISTING /tmp/ccGKKNOI.s 			page 6


 136              		.align	2
 137              		.globl	_ZN9SemaphoreD2Ev
 139              	_ZN9SemaphoreD2Ev:
 140              	.LFB24:
  59:src/syscall_cpp.cpp ****     if (myHandle) sem_close(myHandle);
 141              		.loc 2 59 1
 142              		.cfi_startproc
 143              		.cfi_personality 0x9b,DW.ref.__gxx_personality_v0
 144              		.cfi_lsda 0x1b,.LLSDA24
 145              	.LVL9:
 146              	.LBB5:
  59:src/syscall_cpp.cpp ****     if (myHandle) sem_close(myHandle);
 147              		.loc 2 59 23 is_stmt 0
 148 0064 97070000 		lla	a5,_ZTV9Semaphore+16
 148      93870700 
 149 006c 2330F500 		sd	a5,0(a0)
  60:src/syscall_cpp.cpp **** }
 150              		.loc 2 60 5 is_stmt 1
  60:src/syscall_cpp.cpp **** }
 151              		.loc 2 60 9 is_stmt 0
 152 0070 03358500 		ld	a0,8(a0)
 153              	.LVL10:
  60:src/syscall_cpp.cpp **** }
 154              		.loc 2 60 5
 155 0074 63060502 		beqz	a0,.L13
 156              	.LBE5:
  59:src/syscall_cpp.cpp ****     if (myHandle) sem_close(myHandle);
 157              		.loc 2 59 1 discriminator 1
 158 0078 130101FF 		addi	sp,sp,-16
 159              		.cfi_def_cfa_offset 16
 160 007c 23341100 		sd	ra,8(sp)
 161 0080 23308100 		sd	s0,0(sp)
 162              		.cfi_offset 1, -8
 163              		.cfi_offset 8, -16
 164 0084 13040101 		addi	s0,sp,16
 165              		.cfi_def_cfa 8, 0
 166              	.LBB6:
  60:src/syscall_cpp.cpp **** }
 167              		.loc 2 60 19 is_stmt 1 discriminator 1
  60:src/syscall_cpp.cpp **** }
 168              		.loc 2 60 28 is_stmt 0 discriminator 1
 169 0088 97000000 		call	_Z9sem_closeP3Sem@plt
 169      E7800000 
 170              	.LVL11:
 171              	.LBE6:
  61:src/syscall_cpp.cpp **** 
 172              		.loc 2 61 1 discriminator 1
 173 0090 83308100 		ld	ra,8(sp)
 174              		.cfi_restore 1
 175 0094 03340100 		ld	s0,0(sp)
 176              		.cfi_restore 8
 177              		.cfi_def_cfa 2, 16
 178 0098 13010101 		addi	sp,sp,16
 179              		.cfi_def_cfa_offset 0
 180 009c 67800000 		jr	ra
 181              	.L13:
 182 00a0 67800000 		ret
GAS LISTING /tmp/ccGKKNOI.s 			page 7


 183              		.cfi_endproc
 184              	.LFE24:
 185              		.globl	__gxx_personality_v0
 186              		.section	.gcc_except_table,"a",@progbits
 187              	.LLSDA24:
 188 0000 FF       		.byte	0xff
 189 0001 FF       		.byte	0xff
 190 0002 03       		.byte	0x3
 191 0003 00       		.byte	0
 192              		.text
 194              		.globl	_ZN9SemaphoreD1Ev
 195              		.set	_ZN9SemaphoreD1Ev,_ZN9SemaphoreD2Ev
 196              		.align	2
 197              		.globl	_Znwm
 199              	_Znwm:
 200              	.LFB2:
   4:src/syscall_cpp.cpp ****     // operator new prosledjuje bajtove
 201              		.loc 2 4 34 is_stmt 1
 202              		.cfi_startproc
 203              	.LVL12:
 204 00a4 130101FF 		addi	sp,sp,-16
 205              		.cfi_def_cfa_offset 16
 206 00a8 23341100 		sd	ra,8(sp)
 207 00ac 23308100 		sd	s0,0(sp)
 208              		.cfi_offset 1, -8
 209              		.cfi_offset 8, -16
 210 00b0 13040101 		addi	s0,sp,16
 211              		.cfi_def_cfa 8, 0
   6:src/syscall_cpp.cpp **** }
 212              		.loc 2 6 5
   6:src/syscall_cpp.cpp **** }
 213              		.loc 2 6 21 is_stmt 0
 214 00b4 97000000 		call	_Z9mem_allocm@plt
 214      E7800000 
 215              	.LVL13:
   7:src/syscall_cpp.cpp **** 
 216              		.loc 2 7 1
 217 00bc 83308100 		ld	ra,8(sp)
 218              		.cfi_restore 1
 219 00c0 03340100 		ld	s0,0(sp)
 220              		.cfi_restore 8
 221              		.cfi_def_cfa 2, 16
 222 00c4 13010101 		addi	sp,sp,16
 223              		.cfi_def_cfa_offset 0
 224 00c8 67800000 		jr	ra
 225              		.cfi_endproc
 226              	.LFE2:
 228              		.align	2
 229              		.globl	_Znam
 231              	_Znam:
 232              	.LFB3:
   9:src/syscall_cpp.cpp ****     // operator new prosledjuje bajtove
 233              		.loc 2 9 35 is_stmt 1
 234              		.cfi_startproc
 235              	.LVL14:
 236 00cc 130101FF 		addi	sp,sp,-16
 237              		.cfi_def_cfa_offset 16
GAS LISTING /tmp/ccGKKNOI.s 			page 8


 238 00d0 23341100 		sd	ra,8(sp)
 239 00d4 23308100 		sd	s0,0(sp)
 240              		.cfi_offset 1, -8
 241              		.cfi_offset 8, -16
 242 00d8 13040101 		addi	s0,sp,16
 243              		.cfi_def_cfa 8, 0
  11:src/syscall_cpp.cpp **** }
 244              		.loc 2 11 5
  11:src/syscall_cpp.cpp **** }
 245              		.loc 2 11 21 is_stmt 0
 246 00dc 97000000 		call	_Z9mem_allocm@plt
 246      E7800000 
 247              	.LVL15:
  12:src/syscall_cpp.cpp **** 
 248              		.loc 2 12 1
 249 00e4 83308100 		ld	ra,8(sp)
 250              		.cfi_restore 1
 251 00e8 03340100 		ld	s0,0(sp)
 252              		.cfi_restore 8
 253              		.cfi_def_cfa 2, 16
 254 00ec 13010101 		addi	sp,sp,16
 255              		.cfi_def_cfa_offset 0
 256 00f0 67800000 		jr	ra
 257              		.cfi_endproc
 258              	.LFE3:
 260              		.align	2
 261              		.globl	_ZdaPv
 263              	_ZdaPv:
 264              	.LFB4:
  14:src/syscall_cpp.cpp ****      mem_free(ptr);
 265              		.loc 2 14 44 is_stmt 1
 266              		.cfi_startproc
 267              		.cfi_personality 0x9b,DW.ref.__gxx_personality_v0
 268              		.cfi_lsda 0x1b,.LLSDA4
 269              	.LVL16:
 270 00f4 130101FF 		addi	sp,sp,-16
 271              		.cfi_def_cfa_offset 16
 272 00f8 23341100 		sd	ra,8(sp)
 273 00fc 23308100 		sd	s0,0(sp)
 274              		.cfi_offset 1, -8
 275              		.cfi_offset 8, -16
 276 0100 13040101 		addi	s0,sp,16
 277              		.cfi_def_cfa 8, 0
  15:src/syscall_cpp.cpp **** }
 278              		.loc 2 15 6
  15:src/syscall_cpp.cpp **** }
 279              		.loc 2 15 14 is_stmt 0
 280 0104 97000000 		call	_Z8mem_freePv@plt
 280      E7800000 
 281              	.LVL17:
  16:src/syscall_cpp.cpp **** 
 282              		.loc 2 16 1
 283 010c 83308100 		ld	ra,8(sp)
 284              		.cfi_restore 1
 285 0110 03340100 		ld	s0,0(sp)
 286              		.cfi_restore 8
 287              		.cfi_def_cfa 2, 16
GAS LISTING /tmp/ccGKKNOI.s 			page 9


 288 0114 13010101 		addi	sp,sp,16
 289              		.cfi_def_cfa_offset 0
 290 0118 67800000 		jr	ra
 291              		.cfi_endproc
 292              	.LFE4:
 293              		.section	.gcc_except_table
 294              	.LLSDA4:
 295 0004 FF       		.byte	0xff
 296 0005 FF       		.byte	0xff
 297 0006 03       		.byte	0x3
 298 0007 00       		.byte	0
 299              		.text
 301              		.align	2
 302              		.globl	_ZdlPv
 304              	_ZdlPv:
 305              	.LFB5:
  18:src/syscall_cpp.cpp ****     mem_free(ptr);
 306              		.loc 2 18 42 is_stmt 1
 307              		.cfi_startproc
 308              		.cfi_personality 0x9b,DW.ref.__gxx_personality_v0
 309              		.cfi_lsda 0x1b,.LLSDA5
 310              	.LVL18:
 311 011c 130101FF 		addi	sp,sp,-16
 312              		.cfi_def_cfa_offset 16
 313 0120 23341100 		sd	ra,8(sp)
 314 0124 23308100 		sd	s0,0(sp)
 315              		.cfi_offset 1, -8
 316              		.cfi_offset 8, -16
 317 0128 13040101 		addi	s0,sp,16
 318              		.cfi_def_cfa 8, 0
  19:src/syscall_cpp.cpp **** }
 319              		.loc 2 19 5
  19:src/syscall_cpp.cpp **** }
 320              		.loc 2 19 13 is_stmt 0
 321 012c 97000000 		call	_Z8mem_freePv@plt
 321      E7800000 
 322              	.LVL19:
  20:src/syscall_cpp.cpp **** 
 323              		.loc 2 20 1
 324 0134 83308100 		ld	ra,8(sp)
 325              		.cfi_restore 1
 326 0138 03340100 		ld	s0,0(sp)
 327              		.cfi_restore 8
 328              		.cfi_def_cfa 2, 16
 329 013c 13010101 		addi	sp,sp,16
 330              		.cfi_def_cfa_offset 0
 331 0140 67800000 		jr	ra
 332              		.cfi_endproc
 333              	.LFE5:
 334              		.section	.gcc_except_table
 335              	.LLSDA5:
 336 0008 FF       		.byte	0xff
 337 0009 FF       		.byte	0xff
 338 000a 03       		.byte	0x3
 339 000b 00       		.byte	0
 340              		.text
 342              		.align	2
GAS LISTING /tmp/ccGKKNOI.s 			page 10


 343              		.globl	_ZN6ThreadD2Ev
 345              	_ZN6ThreadD2Ev:
 346              	.LFB13:
  34:src/syscall_cpp.cpp ****     delete &this->myHandle;
 347              		.loc 2 34 1 is_stmt 1
 348              		.cfi_startproc
 349              	.LVL20:
 350              	.LBB7:
  34:src/syscall_cpp.cpp ****     delete &this->myHandle;
 351              		.loc 2 34 17 is_stmt 0
 352 0144 97070000 		lla	a5,_ZTV6Thread+16
 352      93870700 
 353 014c 2330F500 		sd	a5,0(a0)
  35:src/syscall_cpp.cpp **** }
 354              		.loc 2 35 5 is_stmt 1
  35:src/syscall_cpp.cpp **** }
 355              		.loc 2 35 12 is_stmt 0
 356 0150 13058500 		addi	a0,a0,8
 357              	.LVL21:
  35:src/syscall_cpp.cpp **** }
 358              		.loc 2 35 27
 359 0154 63060502 		beqz	a0,.L27
 360              	.LBE7:
  34:src/syscall_cpp.cpp ****     delete &this->myHandle;
 361              		.loc 2 34 1 discriminator 1
 362 0158 130101FF 		addi	sp,sp,-16
 363              		.cfi_def_cfa_offset 16
 364 015c 23341100 		sd	ra,8(sp)
 365 0160 23308100 		sd	s0,0(sp)
 366              		.cfi_offset 1, -8
 367              		.cfi_offset 8, -16
 368 0164 13040101 		addi	s0,sp,16
 369              		.cfi_def_cfa 8, 0
 370              	.LBB8:
  35:src/syscall_cpp.cpp **** }
 371              		.loc 2 35 19 discriminator 1
 372 0168 97000000 		call	_ZdlPv
 372      E7800000 
 373              	.LVL22:
 374              	.LBE8:
  36:src/syscall_cpp.cpp **** 
 375              		.loc 2 36 1 discriminator 1
 376 0170 83308100 		ld	ra,8(sp)
 377              		.cfi_restore 1
 378 0174 03340100 		ld	s0,0(sp)
 379              		.cfi_restore 8
 380              		.cfi_def_cfa 2, 16
 381 0178 13010101 		addi	sp,sp,16
 382              		.cfi_def_cfa_offset 0
 383 017c 67800000 		jr	ra
 384              	.L27:
 385 0180 67800000 		ret
 386              		.cfi_endproc
 387              	.LFE13:
 389              		.globl	_ZN6ThreadD1Ev
 390              		.set	_ZN6ThreadD1Ev,_ZN6ThreadD2Ev
 391              		.section	.text._ZN14PeriodicThreadD2Ev,"axG",@progbits,_ZN14PeriodicThreadD5Ev,comdat
GAS LISTING /tmp/ccGKKNOI.s 			page 11


 392              		.align	2
 393              		.weak	_ZN14PeriodicThreadD2Ev
 395              	_ZN14PeriodicThreadD2Ev:
 396              	.LFB39:
  51:src/../h/syscall_cpp.hpp **** public:
 397              		.loc 1 51 7 is_stmt 1
 398              		.cfi_startproc
 399              	.LVL23:
 400 0000 130101FF 		addi	sp,sp,-16
 401              		.cfi_def_cfa_offset 16
 402 0004 23341100 		sd	ra,8(sp)
 403 0008 23308100 		sd	s0,0(sp)
 404              		.cfi_offset 1, -8
 405              		.cfi_offset 8, -16
 406 000c 13040101 		addi	s0,sp,16
 407              		.cfi_def_cfa 8, 0
 408              	.LBB9:
  51:src/../h/syscall_cpp.hpp **** public:
 409              		.loc 1 51 7 is_stmt 0
 410 0010 97070000 		lla	a5,_ZTV14PeriodicThread+16
 410      93870700 
 411 0018 2330F500 		sd	a5,0(a0)
 412 001c 97000000 		call	_ZN6ThreadD2Ev
 412      E7800000 
 413              	.LVL24:
 414              	.LBE9:
 415 0024 83308100 		ld	ra,8(sp)
 416              		.cfi_restore 1
 417 0028 03340100 		ld	s0,0(sp)
 418              		.cfi_restore 8
 419              		.cfi_def_cfa 2, 16
 420 002c 13010101 		addi	sp,sp,16
 421              		.cfi_def_cfa_offset 0
 422 0030 67800000 		jr	ra
 423              		.cfi_endproc
 424              	.LFE39:
 426              		.weak	_ZN14PeriodicThreadD1Ev
 427              		.set	_ZN14PeriodicThreadD1Ev,_ZN14PeriodicThreadD2Ev
 428              		.text
 429              		.align	2
 430              		.globl	_ZN6ThreadD0Ev
 432              	_ZN6ThreadD0Ev:
 433              	.LFB15:
  34:src/syscall_cpp.cpp ****     delete &this->myHandle;
 434              		.loc 2 34 1 is_stmt 1
 435              		.cfi_startproc
 436              	.LVL25:
 437 0184 130101FE 		addi	sp,sp,-32
 438              		.cfi_def_cfa_offset 32
 439 0188 233C1100 		sd	ra,24(sp)
 440 018c 23388100 		sd	s0,16(sp)
 441 0190 23349100 		sd	s1,8(sp)
 442              		.cfi_offset 1, -8
 443              		.cfi_offset 8, -16
 444              		.cfi_offset 9, -24
 445 0194 13040102 		addi	s0,sp,32
 446              		.cfi_def_cfa 8, 0
GAS LISTING /tmp/ccGKKNOI.s 			page 12


 447 0198 93040500 		mv	s1,a0
  36:src/syscall_cpp.cpp **** 
 448              		.loc 2 36 1 is_stmt 0
 449 019c 97000000 		call	_ZN6ThreadD1Ev
 449      E7800000 
 450              	.LVL26:
 451 01a4 13850400 		mv	a0,s1
 452 01a8 97000000 		call	_ZdlPv
 452      E7800000 
 453              	.LVL27:
 454 01b0 83308101 		ld	ra,24(sp)
 455              		.cfi_restore 1
 456 01b4 03340101 		ld	s0,16(sp)
 457              		.cfi_restore 8
 458              		.cfi_def_cfa 2, 32
 459 01b8 83348100 		ld	s1,8(sp)
 460              		.cfi_restore 9
 461              	.LVL28:
 462 01bc 13010102 		addi	sp,sp,32
 463              		.cfi_def_cfa_offset 0
 464 01c0 67800000 		jr	ra
 465              		.cfi_endproc
 466              	.LFE15:
 468              		.align	2
 469              		.globl	_ZN9SemaphoreD0Ev
 471              	_ZN9SemaphoreD0Ev:
 472              	.LFB26:
  59:src/syscall_cpp.cpp ****     if (myHandle) sem_close(myHandle);
 473              		.loc 2 59 1 is_stmt 1
 474              		.cfi_startproc
 475              	.LVL29:
 476 01c4 130101FE 		addi	sp,sp,-32
 477              		.cfi_def_cfa_offset 32
 478 01c8 233C1100 		sd	ra,24(sp)
 479 01cc 23388100 		sd	s0,16(sp)
 480 01d0 23349100 		sd	s1,8(sp)
 481              		.cfi_offset 1, -8
 482              		.cfi_offset 8, -16
 483              		.cfi_offset 9, -24
 484 01d4 13040102 		addi	s0,sp,32
 485              		.cfi_def_cfa 8, 0
 486 01d8 93040500 		mv	s1,a0
  61:src/syscall_cpp.cpp **** 
 487              		.loc 2 61 1 is_stmt 0
 488 01dc 97000000 		call	_ZN9SemaphoreD1Ev
 488      E7800000 
 489              	.LVL30:
 490 01e4 13850400 		mv	a0,s1
 491 01e8 97000000 		call	_ZdlPv
 491      E7800000 
 492              	.LVL31:
 493 01f0 83308101 		ld	ra,24(sp)
 494              		.cfi_restore 1
 495 01f4 03340101 		ld	s0,16(sp)
 496              		.cfi_restore 8
 497              		.cfi_def_cfa 2, 32
 498 01f8 83348100 		ld	s1,8(sp)
GAS LISTING /tmp/ccGKKNOI.s 			page 13


 499              		.cfi_restore 9
 500              	.LVL32:
 501 01fc 13010102 		addi	sp,sp,32
 502              		.cfi_def_cfa_offset 0
 503 0200 67800000 		jr	ra
 504              		.cfi_endproc
 505              	.LFE26:
 507              		.section	.text._ZN14PeriodicThreadD0Ev,"axG",@progbits,_ZN14PeriodicThreadD5Ev,comdat
 508              		.align	2
 509              		.weak	_ZN14PeriodicThreadD0Ev
 511              	_ZN14PeriodicThreadD0Ev:
 512              	.LFB41:
  51:src/../h/syscall_cpp.hpp **** public:
 513              		.loc 1 51 7 is_stmt 1
 514              		.cfi_startproc
 515              	.LVL33:
 516 0000 130101FE 		addi	sp,sp,-32
 517              		.cfi_def_cfa_offset 32
 518 0004 233C1100 		sd	ra,24(sp)
 519 0008 23388100 		sd	s0,16(sp)
 520 000c 23349100 		sd	s1,8(sp)
 521              		.cfi_offset 1, -8
 522              		.cfi_offset 8, -16
 523              		.cfi_offset 9, -24
 524 0010 13040102 		addi	s0,sp,32
 525              		.cfi_def_cfa 8, 0
 526 0014 93040500 		mv	s1,a0
 527              	.LVL34:
 528              	.LBB10:
 529              	.LBB11:
  51:src/../h/syscall_cpp.hpp **** public:
 530              		.loc 1 51 7 is_stmt 0
 531 0018 97070000 		lla	a5,_ZTV14PeriodicThread+16
 531      93870700 
 532 0020 2330F500 		sd	a5,0(a0)
 533 0024 97000000 		call	_ZN6ThreadD2Ev
 533      E7800000 
 534              	.LVL35:
 535              	.LBE11:
 536              	.LBE10:
 537 002c 13850400 		mv	a0,s1
 538 0030 97000000 		call	_ZdlPv
 538      E7800000 
 539              	.LVL36:
 540 0038 83308101 		ld	ra,24(sp)
 541              		.cfi_restore 1
 542 003c 03340101 		ld	s0,16(sp)
 543              		.cfi_restore 8
 544              		.cfi_def_cfa 2, 32
 545 0040 83348100 		ld	s1,8(sp)
 546              		.cfi_restore 9
 547              	.LVL37:
 548 0044 13010102 		addi	sp,sp,32
 549              		.cfi_def_cfa_offset 0
 550 0048 67800000 		jr	ra
 551              		.cfi_endproc
 552              	.LFE41:
GAS LISTING /tmp/ccGKKNOI.s 			page 14


 554              		.text
 555              		.align	2
 556              		.globl	_ZN6ThreadC2EPFvPvES0_
 558              	_ZN6ThreadC2EPFvPvES0_:
 559              	.LFB7:
  22:src/syscall_cpp.cpp ****     this->body = body;
 560              		.loc 2 22 1 is_stmt 1
 561              		.cfi_startproc
 562              	.LVL38:
 563 0204 130101FF 		addi	sp,sp,-16
 564              		.cfi_def_cfa_offset 16
 565 0208 23348100 		sd	s0,8(sp)
 566              		.cfi_offset 8, -8
 567 020c 13040101 		addi	s0,sp,16
 568              		.cfi_def_cfa 8, 0
 569              	.LBB12:
  22:src/syscall_cpp.cpp ****     this->body = body;
 570              		.loc 2 22 47 is_stmt 0
 571 0210 97070000 		lla	a5,_ZTV6Thread+16
 571      93870700 
 572 0218 2330F500 		sd	a5,0(a0)
 573 021c 23340500 		sd	zero,8(a0)
  23:src/syscall_cpp.cpp ****     this->arg = arg;
 574              		.loc 2 23 5 is_stmt 1
  23:src/syscall_cpp.cpp ****     this->arg = arg;
 575              		.loc 2 23 16 is_stmt 0
 576 0220 2338B500 		sd	a1,16(a0)
  24:src/syscall_cpp.cpp ****     this->myHandle = nullptr;
 577              		.loc 2 24 5 is_stmt 1
  24:src/syscall_cpp.cpp ****     this->myHandle = nullptr;
 578              		.loc 2 24 15 is_stmt 0
 579 0224 233CC500 		sd	a2,24(a0)
  25:src/syscall_cpp.cpp **** }
 580              		.loc 2 25 5 is_stmt 1
 581              	.LBE12:
  26:src/syscall_cpp.cpp **** 
 582              		.loc 2 26 1 is_stmt 0
 583 0228 03348100 		ld	s0,8(sp)
 584              		.cfi_restore 8
 585              		.cfi_def_cfa 2, 16
 586 022c 13010101 		addi	sp,sp,16
 587              		.cfi_def_cfa_offset 0
 588 0230 67800000 		jr	ra
 589              		.cfi_endproc
 590              	.LFE7:
 592              		.globl	_ZN6ThreadC1EPFvPvES0_
 593              		.set	_ZN6ThreadC1EPFvPvES0_,_ZN6ThreadC2EPFvPvES0_
 594              		.align	2
 595              		.globl	_ZN6ThreadC2Ev
 597              	_ZN6ThreadC2Ev:
 598              	.LFB10:
  28:src/syscall_cpp.cpp ****     this->body = wrapper;
 599              		.loc 2 28 1 is_stmt 1
 600              		.cfi_startproc
 601              	.LVL39:
 602 0234 130101FF 		addi	sp,sp,-16
 603              		.cfi_def_cfa_offset 16
GAS LISTING /tmp/ccGKKNOI.s 			page 15


 604 0238 23348100 		sd	s0,8(sp)
 605              		.cfi_offset 8, -8
 606 023c 13040101 		addi	s0,sp,16
 607              		.cfi_def_cfa 8, 0
 608              	.LBB13:
  28:src/syscall_cpp.cpp ****     this->body = wrapper;
 609              		.loc 2 28 16 is_stmt 0
 610 0240 97070000 		lla	a5,_ZTV6Thread+16
 610      93870700 
 611 0248 2330F500 		sd	a5,0(a0)
 612 024c 23340500 		sd	zero,8(a0)
  29:src/syscall_cpp.cpp ****     this->arg  = (void*) this;
 613              		.loc 2 29 5 is_stmt 1
  29:src/syscall_cpp.cpp ****     this->arg  = (void*) this;
 614              		.loc 2 29 16 is_stmt 0
 615 0250 97070000 		lla	a5,_ZN6Thread7wrapperEPv
 615      93870700 
 616 0258 2338F500 		sd	a5,16(a0)
  30:src/syscall_cpp.cpp ****     this->myHandle = nullptr;
 617              		.loc 2 30 5 is_stmt 1
  30:src/syscall_cpp.cpp ****     this->myHandle = nullptr;
 618              		.loc 2 30 16 is_stmt 0
 619 025c 233CA500 		sd	a0,24(a0)
  31:src/syscall_cpp.cpp **** }
 620              		.loc 2 31 5 is_stmt 1
 621              	.LBE13:
  32:src/syscall_cpp.cpp **** 
 622              		.loc 2 32 1 is_stmt 0
 623 0260 03348100 		ld	s0,8(sp)
 624              		.cfi_restore 8
 625              		.cfi_def_cfa 2, 16
 626 0264 13010101 		addi	sp,sp,16
 627              		.cfi_def_cfa_offset 0
 628 0268 67800000 		jr	ra
 629              		.cfi_endproc
 630              	.LFE10:
 632              		.globl	_ZN6ThreadC1Ev
 633              		.set	_ZN6ThreadC1Ev,_ZN6ThreadC2Ev
 634              		.align	2
 635              		.globl	_ZN6Thread5sleepEm
 637              	_ZN6Thread5sleepEm:
 638              	.LFB16:
  38:src/syscall_cpp.cpp ****     return time_sleep(time);
 639              		.loc 2 38 32 is_stmt 1
 640              		.cfi_startproc
 641              	.LVL40:
 642 026c 130101FF 		addi	sp,sp,-16
 643              		.cfi_def_cfa_offset 16
 644 0270 23341100 		sd	ra,8(sp)
 645 0274 23308100 		sd	s0,0(sp)
 646              		.cfi_offset 1, -8
 647              		.cfi_offset 8, -16
 648 0278 13040101 		addi	s0,sp,16
 649              		.cfi_def_cfa 8, 0
  39:src/syscall_cpp.cpp **** }
 650              		.loc 2 39 5
  39:src/syscall_cpp.cpp **** }
GAS LISTING /tmp/ccGKKNOI.s 			page 16


 651              		.loc 2 39 22 is_stmt 0
 652 027c 97000000 		call	_Z10time_sleepm@plt
 652      E7800000 
 653              	.LVL41:
  40:src/syscall_cpp.cpp **** 
 654              		.loc 2 40 1
 655 0284 83308100 		ld	ra,8(sp)
 656              		.cfi_restore 1
 657 0288 03340100 		ld	s0,0(sp)
 658              		.cfi_restore 8
 659              		.cfi_def_cfa 2, 16
 660 028c 13010101 		addi	sp,sp,16
 661              		.cfi_def_cfa_offset 0
 662 0290 67800000 		jr	ra
 663              		.cfi_endproc
 664              	.LFE16:
 666              		.align	2
 667              		.globl	_ZN6Thread8dispatchEv
 669              	_ZN6Thread8dispatchEv:
 670              	.LFB17:
  42:src/syscall_cpp.cpp ****     thread_dispatch();
 671              		.loc 2 42 25 is_stmt 1
 672              		.cfi_startproc
 673 0294 130101FF 		addi	sp,sp,-16
 674              		.cfi_def_cfa_offset 16
 675 0298 23341100 		sd	ra,8(sp)
 676 029c 23308100 		sd	s0,0(sp)
 677              		.cfi_offset 1, -8
 678              		.cfi_offset 8, -16
 679 02a0 13040101 		addi	s0,sp,16
 680              		.cfi_def_cfa 8, 0
  43:src/syscall_cpp.cpp **** }
 681              		.loc 2 43 5
  43:src/syscall_cpp.cpp **** }
 682              		.loc 2 43 20 is_stmt 0
 683 02a4 97000000 		call	_Z15thread_dispatchv@plt
 683      E7800000 
 684              	.LVL42:
  44:src/syscall_cpp.cpp **** 
 685              		.loc 2 44 1
 686 02ac 83308100 		ld	ra,8(sp)
 687              		.cfi_restore 1
 688 02b0 03340100 		ld	s0,0(sp)
 689              		.cfi_restore 8
 690              		.cfi_def_cfa 2, 16
 691 02b4 13010101 		addi	sp,sp,16
 692              		.cfi_def_cfa_offset 0
 693 02b8 67800000 		jr	ra
 694              		.cfi_endproc
 695              	.LFE17:
 697              		.align	2
 698              		.globl	_ZN6Thread5startEv
 700              	_ZN6Thread5startEv:
 701              	.LFB18:
  46:src/syscall_cpp.cpp ****     return thread_create(&myHandle, this->body, this->arg);
 702              		.loc 2 46 21 is_stmt 1
 703              		.cfi_startproc
GAS LISTING /tmp/ccGKKNOI.s 			page 17


 704              	.LVL43:
 705 02bc 130101FF 		addi	sp,sp,-16
 706              		.cfi_def_cfa_offset 16
 707 02c0 23341100 		sd	ra,8(sp)
 708 02c4 23308100 		sd	s0,0(sp)
 709              		.cfi_offset 1, -8
 710              		.cfi_offset 8, -16
 711 02c8 13040101 		addi	s0,sp,16
 712              		.cfi_def_cfa 8, 0
  47:src/syscall_cpp.cpp **** }
 713              		.loc 2 47 5
  47:src/syscall_cpp.cpp **** }
 714              		.loc 2 47 25 is_stmt 0
 715 02cc 03368501 		ld	a2,24(a0)
 716 02d0 83350501 		ld	a1,16(a0)
 717 02d4 13058500 		addi	a0,a0,8
 718              	.LVL44:
 719 02d8 97000000 		call	_Z13thread_createPP3TCBPFvPvES2_@plt
 719      E7800000 
 720              	.LVL45:
  48:src/syscall_cpp.cpp **** 
 721              		.loc 2 48 1
 722 02e0 83308100 		ld	ra,8(sp)
 723              		.cfi_restore 1
 724 02e4 03340100 		ld	s0,0(sp)
 725              		.cfi_restore 8
 726              		.cfi_def_cfa 2, 16
 727 02e8 13010101 		addi	sp,sp,16
 728              		.cfi_def_cfa_offset 0
 729 02ec 67800000 		jr	ra
 730              		.cfi_endproc
 731              	.LFE18:
 733              		.align	2
 734              		.globl	_ZN9SemaphoreC2Ej
 736              	_ZN9SemaphoreC2Ej:
 737              	.LFB21:
  55:src/syscall_cpp.cpp ****     sem_open(&myHandle, init);
 738              		.loc 2 55 1 is_stmt 1
 739              		.cfi_startproc
 740              	.LVL46:
 741 02f0 130101FF 		addi	sp,sp,-16
 742              		.cfi_def_cfa_offset 16
 743 02f4 23341100 		sd	ra,8(sp)
 744 02f8 23308100 		sd	s0,0(sp)
 745              		.cfi_offset 1, -8
 746              		.cfi_offset 8, -16
 747 02fc 13040101 		addi	s0,sp,16
 748              		.cfi_def_cfa 8, 0
 749              	.LBB14:
  55:src/syscall_cpp.cpp ****     sem_open(&myHandle, init);
 750              		.loc 2 55 59 is_stmt 0
 751 0300 97070000 		lla	a5,_ZTV9Semaphore+16
 751      93870700 
 752 0308 2330F500 		sd	a5,0(a0)
 753 030c 23340500 		sd	zero,8(a0)
  56:src/syscall_cpp.cpp **** }
 754              		.loc 2 56 5 is_stmt 1
GAS LISTING /tmp/ccGKKNOI.s 			page 18


  56:src/syscall_cpp.cpp **** }
 755              		.loc 2 56 13 is_stmt 0
 756 0310 13058500 		addi	a0,a0,8
 757              	.LVL47:
 758 0314 97000000 		call	_Z8sem_openPP3Semj@plt
 758      E7800000 
 759              	.LVL48:
 760              	.LBE14:
  57:src/syscall_cpp.cpp **** 
 761              		.loc 2 57 1
 762 031c 83308100 		ld	ra,8(sp)
 763              		.cfi_restore 1
 764 0320 03340100 		ld	s0,0(sp)
 765              		.cfi_restore 8
 766              		.cfi_def_cfa 2, 16
 767 0324 13010101 		addi	sp,sp,16
 768              		.cfi_def_cfa_offset 0
 769 0328 67800000 		jr	ra
 770              		.cfi_endproc
 771              	.LFE21:
 773              		.globl	_ZN9SemaphoreC1Ej
 774              		.set	_ZN9SemaphoreC1Ej,_ZN9SemaphoreC2Ej
 775              		.align	2
 776              		.globl	_ZN9Semaphore4waitEv
 778              	_ZN9Semaphore4waitEv:
 779              	.LFB27:
  63:src/syscall_cpp.cpp ****     if (myHandle) return sem_wait(myHandle);
 780              		.loc 2 63 23 is_stmt 1
 781              		.cfi_startproc
 782              	.LVL49:
  64:src/syscall_cpp.cpp ****     return -1;
 783              		.loc 2 64 5
  64:src/syscall_cpp.cpp ****     return -1;
 784              		.loc 2 64 9 is_stmt 0
 785 032c 03358500 		ld	a0,8(a0)
 786              	.LVL50:
  64:src/syscall_cpp.cpp ****     return -1;
 787              		.loc 2 64 5
 788 0330 63060502 		beqz	a0,.L52
  63:src/syscall_cpp.cpp ****     if (myHandle) return sem_wait(myHandle);
 789              		.loc 2 63 23 discriminator 1
 790 0334 130101FF 		addi	sp,sp,-16
 791              		.cfi_def_cfa_offset 16
 792 0338 23341100 		sd	ra,8(sp)
 793 033c 23308100 		sd	s0,0(sp)
 794              		.cfi_offset 1, -8
 795              		.cfi_offset 8, -16
 796 0340 13040101 		addi	s0,sp,16
 797              		.cfi_def_cfa 8, 0
  64:src/syscall_cpp.cpp ****     return -1;
 798              		.loc 2 64 19 is_stmt 1 discriminator 1
  64:src/syscall_cpp.cpp ****     return -1;
 799              		.loc 2 64 34 is_stmt 0 discriminator 1
 800 0344 97000000 		call	_Z8sem_waitP3Sem@plt
 800      E7800000 
 801              	.LVL51:
  66:src/syscall_cpp.cpp **** 
GAS LISTING /tmp/ccGKKNOI.s 			page 19


 802              		.loc 2 66 1 discriminator 1
 803 034c 83308100 		ld	ra,8(sp)
 804              		.cfi_restore 1
 805 0350 03340100 		ld	s0,0(sp)
 806              		.cfi_restore 8
 807              		.cfi_def_cfa 2, 16
 808 0354 13010101 		addi	sp,sp,16
 809              		.cfi_def_cfa_offset 0
 810 0358 67800000 		jr	ra
 811              	.L52:
  65:src/syscall_cpp.cpp **** }
 812              		.loc 2 65 13
 813 035c 1305F0FF 		li	a0,-1
  66:src/syscall_cpp.cpp **** 
 814              		.loc 2 66 1
 815 0360 67800000 		ret
 816              		.cfi_endproc
 817              	.LFE27:
 819              		.align	2
 820              		.globl	_ZN9Semaphore6signalEv
 822              	_ZN9Semaphore6signalEv:
 823              	.LFB28:
  68:src/syscall_cpp.cpp ****     if (myHandle) return sem_signal(myHandle);
 824              		.loc 2 68 25 is_stmt 1
 825              		.cfi_startproc
 826              	.LVL52:
  69:src/syscall_cpp.cpp ****     return -1;
 827              		.loc 2 69 5
  69:src/syscall_cpp.cpp ****     return -1;
 828              		.loc 2 69 9 is_stmt 0
 829 0364 03358500 		ld	a0,8(a0)
 830              	.LVL53:
  69:src/syscall_cpp.cpp ****     return -1;
 831              		.loc 2 69 5
 832 0368 63060502 		beqz	a0,.L59
  68:src/syscall_cpp.cpp ****     if (myHandle) return sem_signal(myHandle);
 833              		.loc 2 68 25 discriminator 1
 834 036c 130101FF 		addi	sp,sp,-16
 835              		.cfi_def_cfa_offset 16
 836 0370 23341100 		sd	ra,8(sp)
 837 0374 23308100 		sd	s0,0(sp)
 838              		.cfi_offset 1, -8
 839              		.cfi_offset 8, -16
 840 0378 13040101 		addi	s0,sp,16
 841              		.cfi_def_cfa 8, 0
  69:src/syscall_cpp.cpp ****     return -1;
 842              		.loc 2 69 19 is_stmt 1 discriminator 1
  69:src/syscall_cpp.cpp ****     return -1;
 843              		.loc 2 69 36 is_stmt 0 discriminator 1
 844 037c 97000000 		call	_Z10sem_signalP3Sem@plt
 844      E7800000 
 845              	.LVL54:
  71:src/syscall_cpp.cpp **** 
 846              		.loc 2 71 1 discriminator 1
 847 0384 83308100 		ld	ra,8(sp)
 848              		.cfi_restore 1
 849 0388 03340100 		ld	s0,0(sp)
GAS LISTING /tmp/ccGKKNOI.s 			page 20


 850              		.cfi_restore 8
 851              		.cfi_def_cfa 2, 16
 852 038c 13010101 		addi	sp,sp,16
 853              		.cfi_def_cfa_offset 0
 854 0390 67800000 		jr	ra
 855              	.L59:
  70:src/syscall_cpp.cpp **** }
 856              		.loc 2 70 13
 857 0394 1305F0FF 		li	a0,-1
  71:src/syscall_cpp.cpp **** 
 858              		.loc 2 71 1
 859 0398 67800000 		ret
 860              		.cfi_endproc
 861              	.LFE28:
 863              		.align	2
 864              		.globl	_ZN9Semaphore9timedWaitEm
 866              	_ZN9Semaphore9timedWaitEm:
 867              	.LFB29:
  73:src/syscall_cpp.cpp ****     if (myHandle && time) return sem_timedwait(myHandle, time);
 868              		.loc 2 73 39 is_stmt 1
 869              		.cfi_startproc
 870              	.LVL55:
  74:src/syscall_cpp.cpp ****     return -1;
 871              		.loc 2 74 5
  74:src/syscall_cpp.cpp ****     return -1;
 872              		.loc 2 74 9 is_stmt 0
 873 039c 03358500 		ld	a0,8(a0)
 874              	.LVL56:
  74:src/syscall_cpp.cpp ****     return -1;
 875              		.loc 2 74 5
 876 03a0 63080502 		beqz	a0,.L66
  74:src/syscall_cpp.cpp ****     return -1;
 877              		.loc 2 74 18 discriminator 1
 878 03a4 638A0502 		beqz	a1,.L67
  73:src/syscall_cpp.cpp ****     if (myHandle && time) return sem_timedwait(myHandle, time);
 879              		.loc 2 73 39 discriminator 2
 880 03a8 130101FF 		addi	sp,sp,-16
 881              		.cfi_def_cfa_offset 16
 882 03ac 23341100 		sd	ra,8(sp)
 883 03b0 23308100 		sd	s0,0(sp)
 884              		.cfi_offset 1, -8
 885              		.cfi_offset 8, -16
 886 03b4 13040101 		addi	s0,sp,16
 887              		.cfi_def_cfa 8, 0
  74:src/syscall_cpp.cpp ****     return -1;
 888              		.loc 2 74 27 is_stmt 1 discriminator 2
  74:src/syscall_cpp.cpp ****     return -1;
 889              		.loc 2 74 47 is_stmt 0 discriminator 2
 890 03b8 97000000 		call	_Z13sem_timedwaitP3Semm@plt
 890      E7800000 
 891              	.LVL57:
  76:src/syscall_cpp.cpp **** 
 892              		.loc 2 76 1 discriminator 2
 893 03c0 83308100 		ld	ra,8(sp)
 894              		.cfi_restore 1
 895 03c4 03340100 		ld	s0,0(sp)
 896              		.cfi_restore 8
GAS LISTING /tmp/ccGKKNOI.s 			page 21


 897              		.cfi_def_cfa 2, 16
 898 03c8 13010101 		addi	sp,sp,16
 899              		.cfi_def_cfa_offset 0
 900 03cc 67800000 		jr	ra
 901              	.LVL58:
 902              	.L66:
  75:src/syscall_cpp.cpp **** }
 903              		.loc 2 75 13
 904 03d0 1305F0FF 		li	a0,-1
 905 03d4 67800000 		ret
 906              	.L67:
 907 03d8 1305F0FF 		li	a0,-1
  76:src/syscall_cpp.cpp **** 
 908              		.loc 2 76 1
 909 03dc 67800000 		ret
 910              		.cfi_endproc
 911              	.LFE29:
 913              		.align	2
 914              		.globl	_ZN9Semaphore7tryWaitEv
 916              	_ZN9Semaphore7tryWaitEv:
 917              	.LFB30:
  78:src/syscall_cpp.cpp ****     if (myHandle) return sem_trywait(myHandle);
 918              		.loc 2 78 26 is_stmt 1
 919              		.cfi_startproc
 920              	.LVL59:
  79:src/syscall_cpp.cpp ****     return -1;
 921              		.loc 2 79 5
  79:src/syscall_cpp.cpp ****     return -1;
 922              		.loc 2 79 9 is_stmt 0
 923 03e0 03358500 		ld	a0,8(a0)
 924              	.LVL60:
  79:src/syscall_cpp.cpp ****     return -1;
 925              		.loc 2 79 5
 926 03e4 63060502 		beqz	a0,.L74
  78:src/syscall_cpp.cpp ****     if (myHandle) return sem_trywait(myHandle);
 927              		.loc 2 78 26 discriminator 1
 928 03e8 130101FF 		addi	sp,sp,-16
 929              		.cfi_def_cfa_offset 16
 930 03ec 23341100 		sd	ra,8(sp)
 931 03f0 23308100 		sd	s0,0(sp)
 932              		.cfi_offset 1, -8
 933              		.cfi_offset 8, -16
 934 03f4 13040101 		addi	s0,sp,16
 935              		.cfi_def_cfa 8, 0
  79:src/syscall_cpp.cpp ****     return -1;
 936              		.loc 2 79 19 is_stmt 1 discriminator 1
  79:src/syscall_cpp.cpp ****     return -1;
 937              		.loc 2 79 37 is_stmt 0 discriminator 1
 938 03f8 97000000 		call	_Z11sem_trywaitP3Sem@plt
 938      E7800000 
 939              	.LVL61:
  81:src/syscall_cpp.cpp **** 
 940              		.loc 2 81 1 discriminator 1
 941 0400 83308100 		ld	ra,8(sp)
 942              		.cfi_restore 1
 943 0404 03340100 		ld	s0,0(sp)
 944              		.cfi_restore 8
GAS LISTING /tmp/ccGKKNOI.s 			page 22


 945              		.cfi_def_cfa 2, 16
 946 0408 13010101 		addi	sp,sp,16
 947              		.cfi_def_cfa_offset 0
 948 040c 67800000 		jr	ra
 949              	.L74:
  80:src/syscall_cpp.cpp **** }
 950              		.loc 2 80 13
 951 0410 1305F0FF 		li	a0,-1
  81:src/syscall_cpp.cpp **** 
 952              		.loc 2 81 1
 953 0414 67800000 		ret
 954              		.cfi_endproc
 955              	.LFE30:
 957              		.align	2
 958              		.globl	_ZN7Console4getcEv
 960              	_ZN7Console4getcEv:
 961              	.LFB31:
  83:src/syscall_cpp.cpp ****     return ::getc();
 962              		.loc 2 83 22 is_stmt 1
 963              		.cfi_startproc
 964 0418 130101FF 		addi	sp,sp,-16
 965              		.cfi_def_cfa_offset 16
 966 041c 23341100 		sd	ra,8(sp)
 967 0420 23308100 		sd	s0,0(sp)
 968              		.cfi_offset 1, -8
 969              		.cfi_offset 8, -16
 970 0424 13040101 		addi	s0,sp,16
 971              		.cfi_def_cfa 8, 0
  84:src/syscall_cpp.cpp **** }
 972              		.loc 2 84 5
  84:src/syscall_cpp.cpp **** }
 973              		.loc 2 84 18 is_stmt 0
 974 0428 97000000 		call	_Z4getcv@plt
 974      E7800000 
 975              	.LVL62:
  85:src/syscall_cpp.cpp **** 
 976              		.loc 2 85 1
 977 0430 83308100 		ld	ra,8(sp)
 978              		.cfi_restore 1
 979 0434 03340100 		ld	s0,0(sp)
 980              		.cfi_restore 8
 981              		.cfi_def_cfa 2, 16
 982 0438 13010101 		addi	sp,sp,16
 983              		.cfi_def_cfa_offset 0
 984 043c 67800000 		jr	ra
 985              		.cfi_endproc
 986              	.LFE31:
 988              		.align	2
 989              		.globl	_ZN7Console4putcEc
 991              	_ZN7Console4putcEc:
 992              	.LFB32:
  87:src/syscall_cpp.cpp ****     ::putc(c);
 993              		.loc 2 87 28 is_stmt 1
 994              		.cfi_startproc
 995              	.LVL63:
 996 0440 130101FF 		addi	sp,sp,-16
 997              		.cfi_def_cfa_offset 16
GAS LISTING /tmp/ccGKKNOI.s 			page 23


 998 0444 23341100 		sd	ra,8(sp)
 999 0448 23308100 		sd	s0,0(sp)
 1000              		.cfi_offset 1, -8
 1001              		.cfi_offset 8, -16
 1002 044c 13040101 		addi	s0,sp,16
 1003              		.cfi_def_cfa 8, 0
  88:src/syscall_cpp.cpp **** }
 1004              		.loc 2 88 5
  88:src/syscall_cpp.cpp **** }
 1005              		.loc 2 88 11 is_stmt 0
 1006 0450 97000000 		call	_Z4putcc@plt
 1006      E7800000 
 1007              	.LVL64:
  89:src/syscall_cpp.cpp **** 
 1008              		.loc 2 89 1
 1009 0458 83308100 		ld	ra,8(sp)
 1010              		.cfi_restore 1
 1011 045c 03340100 		ld	s0,0(sp)
 1012              		.cfi_restore 8
 1013              		.cfi_def_cfa 2, 16
 1014 0460 13010101 		addi	sp,sp,16
 1015              		.cfi_def_cfa_offset 0
 1016 0464 67800000 		jr	ra
 1017              		.cfi_endproc
 1018              	.LFE32:
 1020              		.align	2
 1021              		.globl	_ZN14PeriodicThreadC2Em
 1023              	_ZN14PeriodicThreadC2Em:
 1024              	.LFB34:
  91:src/syscall_cpp.cpp **** 
 1025              		.loc 2 91 1 is_stmt 1
 1026              		.cfi_startproc
 1027              	.LVL65:
 1028 0468 130101FE 		addi	sp,sp,-32
 1029              		.cfi_def_cfa_offset 32
 1030 046c 233C1100 		sd	ra,24(sp)
 1031 0470 23388100 		sd	s0,16(sp)
 1032 0474 23349100 		sd	s1,8(sp)
 1033 0478 23302101 		sd	s2,0(sp)
 1034              		.cfi_offset 1, -8
 1035              		.cfi_offset 8, -16
 1036              		.cfi_offset 9, -24
 1037              		.cfi_offset 18, -32
 1038 047c 13040102 		addi	s0,sp,32
 1039              		.cfi_def_cfa 8, 0
 1040 0480 93040500 		mv	s1,a0
 1041 0484 13890500 		mv	s2,a1
 1042              	.LBB15:
  91:src/syscall_cpp.cpp **** 
 1043              		.loc 2 91 62 is_stmt 0
 1044 0488 97000000 		call	_ZN6ThreadC2Ev
 1044      E7800000 
 1045              	.LVL66:
 1046 0490 97070000 		lla	a5,_ZTV14PeriodicThread+16
 1046      93870700 
 1047 0498 23B0F400 		sd	a5,0(s1)
 1048 049c 23B02403 		sd	s2,32(s1)
GAS LISTING /tmp/ccGKKNOI.s 			page 24


 1049              	.LBE15:
  91:src/syscall_cpp.cpp **** 
 1050              		.loc 2 91 65
 1051 04a0 83308101 		ld	ra,24(sp)
 1052              		.cfi_restore 1
 1053 04a4 03340101 		ld	s0,16(sp)
 1054              		.cfi_restore 8
 1055              		.cfi_def_cfa 2, 32
 1056 04a8 83348100 		ld	s1,8(sp)
 1057              		.cfi_restore 9
 1058              	.LVL67:
 1059 04ac 03390100 		ld	s2,0(sp)
 1060              		.cfi_restore 18
 1061              	.LVL68:
 1062 04b0 13010102 		addi	sp,sp,32
 1063              		.cfi_def_cfa_offset 0
 1064 04b4 67800000 		jr	ra
 1065              		.cfi_endproc
 1066              	.LFE34:
 1068              		.globl	_ZN14PeriodicThreadC1Em
 1069              		.set	_ZN14PeriodicThreadC1Em,_ZN14PeriodicThreadC2Em
 1070              		.align	2
 1071              		.globl	_ZN14PeriodicThread9terminateEv
 1073              	_ZN14PeriodicThread9terminateEv:
 1074              	.LFB36:
  93:src/syscall_cpp.cpp ****     thread_exit();
 1075              		.loc 2 93 34 is_stmt 1
 1076              		.cfi_startproc
 1077              	.LVL69:
 1078 04b8 130101FF 		addi	sp,sp,-16
 1079              		.cfi_def_cfa_offset 16
 1080 04bc 23341100 		sd	ra,8(sp)
 1081 04c0 23308100 		sd	s0,0(sp)
 1082              		.cfi_offset 1, -8
 1083              		.cfi_offset 8, -16
 1084 04c4 13040101 		addi	s0,sp,16
 1085              		.cfi_def_cfa 8, 0
  94:src/syscall_cpp.cpp **** }
 1086              		.loc 2 94 5
  94:src/syscall_cpp.cpp **** }
 1087              		.loc 2 94 16 is_stmt 0
 1088 04c8 97000000 		call	_Z11thread_exitv@plt
 1088      E7800000 
 1089              	.LVL70:
  95:src/syscall_cpp.cpp **** 
 1090              		.loc 2 95 1
 1091 04d0 83308100 		ld	ra,8(sp)
 1092              		.cfi_restore 1
 1093 04d4 03340100 		ld	s0,0(sp)
 1094              		.cfi_restore 8
 1095              		.cfi_def_cfa 2, 16
 1096 04d8 13010101 		addi	sp,sp,16
 1097              		.cfi_def_cfa_offset 0
 1098 04dc 67800000 		jr	ra
 1099              		.cfi_endproc
 1100              	.LFE36:
 1102              		.weak	_ZTV6Thread
GAS LISTING /tmp/ccGKKNOI.s 			page 25


 1103              		.section	.data.rel.ro.local._ZTV6Thread,"awG",@progbits,_ZTV6Thread,comdat
 1104              		.align	3
 1107              	_ZTV6Thread:
 1108 0000 00000000 		.dword	0
 1108      00000000 
 1109 0008 00000000 		.dword	0
 1109      00000000 
 1110 0010 00000000 		.dword	_ZN6ThreadD1Ev
 1110      00000000 
 1111 0018 00000000 		.dword	_ZN6ThreadD0Ev
 1111      00000000 
 1112 0020 00000000 		.dword	_ZN6Thread3runEv
 1112      00000000 
 1113              		.weak	_ZTV9Semaphore
 1114              		.section	.data.rel.ro.local._ZTV9Semaphore,"awG",@progbits,_ZTV9Semaphore,comdat
 1115              		.align	3
 1118              	_ZTV9Semaphore:
 1119 0000 00000000 		.dword	0
 1119      00000000 
 1120 0008 00000000 		.dword	0
 1120      00000000 
 1121 0010 00000000 		.dword	_ZN9SemaphoreD1Ev
 1121      00000000 
 1122 0018 00000000 		.dword	_ZN9SemaphoreD0Ev
 1122      00000000 
 1123              		.weak	_ZTV14PeriodicThread
 1124              		.section	.data.rel.ro.local._ZTV14PeriodicThread,"awG",@progbits,_ZTV14PeriodicThread,comdat
 1125              		.align	3
 1128              	_ZTV14PeriodicThread:
 1129 0000 00000000 		.dword	0
 1129      00000000 
 1130 0008 00000000 		.dword	0
 1130      00000000 
 1131 0010 00000000 		.dword	_ZN14PeriodicThreadD1Ev
 1131      00000000 
 1132 0018 00000000 		.dword	_ZN14PeriodicThreadD0Ev
 1132      00000000 
 1133 0020 00000000 		.dword	_ZN14PeriodicThread3runEv
 1133      00000000 
 1134 0028 00000000 		.dword	_ZN14PeriodicThread18periodicActivationEv
 1134      00000000 
 1135              		.text
 1136              	.Letext0:
 1137              		.file 3 "src/../h/../lib/hw.h"
 1138              		.file 4 "src/../h/syscall_c.hpp"
 1139              		.file 5 "src/../h/Memoryallocator.hpp"
 4340              		.align	3
 4343              	DW.ref.__gxx_personality_v0:
 4344 0000 00000000 		.dword	__gxx_personality_v0
 4344      00000000 
 4345              		.ident	"GCC: (Ubuntu 9.4.0-1ubuntu1~20.04) 9.4.0"
 4346              		.section	.note.GNU-stack,"",@progbits
GAS LISTING /tmp/ccGKKNOI.s 			page 26

