GAS LISTING /tmp/ccM7q2CX.s 			page 1


   1              		.file	"syscall_c.cpp"
   2              		.option pic
   3              		.option norelax
   4              		.text
   5              	.Ltext0:
   6              		.align	2
   7              		.globl	_Z11system_callmmmmm
   9              	_Z11system_callmmmmm:
  10              	.LFB34:
  11              		.file 1 "src/syscall_c.cpp"
   1:src/syscall_c.cpp **** #include "../h/syscall_c.h"
   2:src/syscall_c.cpp **** #include "../h/Memoryallocator.hpp"
   3:src/syscall_c.cpp **** 
   4:src/syscall_c.cpp **** 
   5:src/syscall_c.cpp **** // opsta funkcija, opsti argumenti
   6:src/syscall_c.cpp **** // op code -> registar a0 ___ argumenti reg a1 .. a4
   7:src/syscall_c.cpp **** 
   8:src/syscall_c.cpp **** void system_call(uint64 op_code, uint64 a1 = 0, uint64 a2 = 0, uint64 a3 = 0, uint64 a4 = 0) {
  12              		.loc 1 8 94
  13              		.cfi_startproc
  14              	.LVL0:
  15 0000 130101FF 		addi	sp,sp,-16
  16              		.cfi_def_cfa_offset 16
  17 0004 23348100 		sd	s0,8(sp)
  18              		.cfi_offset 8, -8
  19 0008 13040101 		addi	s0,sp,16
  20              		.cfi_def_cfa 8, 0
   9:src/syscall_c.cpp ****     __asm__ volatile("ecall");
  21              		.loc 1 9 5
  22              		.loc 1 9 30 is_stmt 0
  23              	#APP
  24              	# 9 "src/syscall_c.cpp" 1
  10              	}
  25              		ecall
  26              	# 0 "" 2
  27              		.loc 1 10 1
  28              	#NO_APP
  29 0010 03348100 		ld	s0,8(sp)
  30              		.cfi_restore 8
  31              		.cfi_def_cfa 2, 16
  32 0014 13010101 		addi	sp,sp,16
  33              		.cfi_def_cfa_offset 0
  34 0018 67800000 		jr	ra
  35              		.cfi_endproc
  36              	.LFE34:
  38              		.align	2
  39              		.globl	_Z9mem_allocm
  41              	_Z9mem_allocm:
  42              	.LFB35:
  11:src/syscall_c.cpp **** 
  12:src/syscall_c.cpp **** // size (bytes) => syscall -> num of block
  13:src/syscall_c.cpp **** void* mem_alloc (size_t size) {
  43              		.loc 1 13 31 is_stmt 1
  44              		.cfi_startproc
  45              	.LVL1:
  14:src/syscall_c.cpp ****     if (!size) return nullptr;
  46              		.loc 1 14 5
GAS LISTING /tmp/ccM7q2CX.s 			page 2


  47 001c 63040504 		beqz	a0,.L5
  13:src/syscall_c.cpp ****     if (!size) return nullptr;
  48              		.loc 1 13 31 is_stmt 0
  49 0020 130101FF 		addi	sp,sp,-16
  50              		.cfi_def_cfa_offset 16
  51 0024 23341100 		sd	ra,8(sp)
  52 0028 23308100 		sd	s0,0(sp)
  53              		.cfi_offset 1, -8
  54              		.cfi_offset 8, -16
  55 002c 13040101 		addi	s0,sp,16
  56              		.cfi_def_cfa 8, 0
  15:src/syscall_c.cpp ****     void volatile *ptr;
  57              		.loc 1 15 5 is_stmt 1
  16:src/syscall_c.cpp ****     uint64 blocks = (mem_h_size + size + MEM_BLOCK_SIZE - 1) / MEM_BLOCK_SIZE;
  58              		.loc 1 16 5
  59              		.loc 1 16 57 is_stmt 0
  60 0030 13057505 		addi	a0,a0,87
  61              	.LVL2:
  17:src/syscall_c.cpp ****     system_call(MEM_ALLOC, blocks);
  62              		.loc 1 17 5 is_stmt 1
  63              		.loc 1 17 16 is_stmt 0
  64 0034 13070000 		li	a4,0
  65 0038 93060000 		li	a3,0
  66 003c 13060000 		li	a2,0
  67 0040 93556500 		srli	a1,a0,6
  68              	.LVL3:
  69 0044 13051000 		li	a0,1
  70              	.LVL4:
  71 0048 97000000 		call	_Z11system_callmmmmm
  71      E7800000 
  72              	.LVL5:
  18:src/syscall_c.cpp ****     __asm__ volatile("mv %0, a0" : "=r"(ptr));
  73              		.loc 1 18 5 is_stmt 1
  74              		.loc 1 18 46 is_stmt 0
  75              	#APP
  76              	# 18 "src/syscall_c.cpp" 1
  19              	    return (void*)ptr;
  77              		mv a0, a0
  78              	# 0 "" 2
  79              	.LVL6:
  80              		.loc 1 19 5 is_stmt 1
  20:src/syscall_c.cpp **** }
  81              		.loc 1 20 1 is_stmt 0
  82              	#NO_APP
  83 0054 83308100 		ld	ra,8(sp)
  84              		.cfi_restore 1
  85 0058 03340100 		ld	s0,0(sp)
  86              		.cfi_restore 8
  87              		.cfi_def_cfa 2, 16
  88 005c 13010101 		addi	sp,sp,16
  89              		.cfi_def_cfa_offset 0
  90 0060 67800000 		jr	ra
  91              	.LVL7:
  92              	.L5:
  14:src/syscall_c.cpp ****     void volatile *ptr;
  93              		.loc 1 14 23
  94 0064 13050000 		li	a0,0
GAS LISTING /tmp/ccM7q2CX.s 			page 3


  95              	.LVL8:
  96              		.loc 1 20 1
  97 0068 67800000 		ret
  98              		.cfi_endproc
  99              	.LFE35:
 101              		.align	2
 102              		.globl	_Z8mem_freePv
 104              	_Z8mem_freePv:
 105              	.LFB36:
  21:src/syscall_c.cpp **** 
  22:src/syscall_c.cpp **** int mem_free(void* ptr) {
 106              		.loc 1 22 25 is_stmt 1
 107              		.cfi_startproc
 108              	.LVL9:
 109 006c 130101FE 		addi	sp,sp,-32
 110              		.cfi_def_cfa_offset 32
 111 0070 233C1100 		sd	ra,24(sp)
 112 0074 23388100 		sd	s0,16(sp)
 113              		.cfi_offset 1, -8
 114              		.cfi_offset 8, -16
 115 0078 13040102 		addi	s0,sp,32
 116              		.cfi_def_cfa 8, 0
 117 007c 93050500 		mv	a1,a0
  23:src/syscall_c.cpp ****     int volatile a0;
 118              		.loc 1 23 5
  24:src/syscall_c.cpp ****     system_call(MEM_FREE, (uint64)ptr);
 119              		.loc 1 24 5
 120              		.loc 1 24 16 is_stmt 0
 121 0080 13070000 		li	a4,0
 122 0084 93060000 		li	a3,0
 123 0088 13060000 		li	a2,0
 124 008c 13052000 		li	a0,2
 125              	.LVL10:
 126 0090 97000000 		call	_Z11system_callmmmmm
 126      E7800000 
 127              	.LVL11:
  25:src/syscall_c.cpp ****     __asm__ volatile("mv %0, a0" : "=r"(a0));
 128              		.loc 1 25 5 is_stmt 1
 129              		.loc 1 25 45 is_stmt 0
 130              	#APP
 131              	# 25 "src/syscall_c.cpp" 1
  26              	    return a0;
 132              		mv a5, a0
 133              	# 0 "" 2
 134              	#NO_APP
 135 009c 2326F4FE 		sw	a5,-20(s0)
 136              		.loc 1 26 5 is_stmt 1
 137              		.loc 1 26 12 is_stmt 0
 138 00a0 0325C4FE 		lw	a0,-20(s0)
  27:src/syscall_c.cpp **** }
 139              		.loc 1 27 1
 140 00a4 1B050500 		sext.w	a0,a0
 141 00a8 83308101 		ld	ra,24(sp)
 142              		.cfi_restore 1
 143 00ac 03340101 		ld	s0,16(sp)
 144              		.cfi_restore 8
 145              		.cfi_def_cfa 2, 32
GAS LISTING /tmp/ccM7q2CX.s 			page 4


 146 00b0 13010102 		addi	sp,sp,32
 147              		.cfi_def_cfa_offset 0
 148 00b4 67800000 		jr	ra
 149              		.cfi_endproc
 150              	.LFE36:
 152              		.align	2
 153              		.globl	_Z13thread_createPP3TCBPFvPvES2_
 155              	_Z13thread_createPP3TCBPFvPvES2_:
 156              	.LFB37:
  28:src/syscall_c.cpp **** 
  29:src/syscall_c.cpp **** // sistemski poziv thread_create prima
  30:src/syscall_c.cpp **** // dodatno void* stack_space
  31:src/syscall_c.cpp **** 
  32:src/syscall_c.cpp **** int thread_create(thread_t *handle, void (*start_routine)(void *), void *arg) {
 157              		.loc 1 32 79 is_stmt 1
 158              		.cfi_startproc
 159              	.LVL12:
 160 00b8 130101FC 		addi	sp,sp,-64
 161              		.cfi_def_cfa_offset 64
 162 00bc 233C1102 		sd	ra,56(sp)
 163 00c0 23388102 		sd	s0,48(sp)
 164 00c4 23349102 		sd	s1,40(sp)
 165 00c8 23302103 		sd	s2,32(sp)
 166 00cc 233C3101 		sd	s3,24(sp)
 167              		.cfi_offset 1, -8
 168              		.cfi_offset 8, -16
 169              		.cfi_offset 9, -24
 170              		.cfi_offset 18, -32
 171              		.cfi_offset 19, -40
 172 00d0 13040104 		addi	s0,sp,64
 173              		.cfi_def_cfa 8, 0
 174 00d4 13090500 		mv	s2,a0
 175 00d8 93840500 		mv	s1,a1
 176 00dc 93090600 		mv	s3,a2
  33:src/syscall_c.cpp ****     int volatile ret;
 177              		.loc 1 33 5
  34:src/syscall_c.cpp ****     void* stack_space = nullptr;
 178              		.loc 1 34 5
 179              	.LVL13:
  35:src/syscall_c.cpp ****     if (start_routine) stack_space = mem_alloc(DEFAULT_STACK_SIZE);
 180              		.loc 1 35 5
 181 00e0 638C0504 		beqz	a1,.L14
 182              		.loc 1 35 24 discriminator 1
 183              		.loc 1 35 47 is_stmt 0 discriminator 1
 184 00e4 37150000 		li	a0,4096
 185              	.LVL14:
 186 00e8 97000000 		call	_Z9mem_allocm
 186      E7800000 
 187              	.LVL15:
 188 00f0 13070500 		mv	a4,a0
 189              	.LVL16:
 190              	.L13:
  36:src/syscall_c.cpp ****     system_call(THREAD_CREATE, (uint64)handle, (uint64)start_routine, (uint64)arg, (uint64)stack_sp
 191              		.loc 1 36 5 is_stmt 1
 192              		.loc 1 36 16 is_stmt 0
 193 00f4 93860900 		mv	a3,s3
 194 00f8 13860400 		mv	a2,s1
GAS LISTING /tmp/ccM7q2CX.s 			page 5


 195 00fc 93050900 		mv	a1,s2
 196 0100 13051001 		li	a0,17
 197 0104 97000000 		call	_Z11system_callmmmmm
 197      E7800000 
 198              	.LVL17:
  37:src/syscall_c.cpp ****     __asm__ volatile("mv %0, a0" : "=r"(ret));
 199              		.loc 1 37 5 is_stmt 1
 200              		.loc 1 37 46 is_stmt 0
 201              	#APP
 202              	# 37 "src/syscall_c.cpp" 1
  38              	    return ret;
 203              		mv a5, a0
 204              	# 0 "" 2
 205              	#NO_APP
 206 0110 2326F4FC 		sw	a5,-52(s0)
 207              		.loc 1 38 5 is_stmt 1
 208              		.loc 1 38 12 is_stmt 0
 209 0114 0325C4FC 		lw	a0,-52(s0)
  39:src/syscall_c.cpp **** }
 210              		.loc 1 39 1
 211 0118 1B050500 		sext.w	a0,a0
 212 011c 83308103 		ld	ra,56(sp)
 213              		.cfi_remember_state
 214              		.cfi_restore 1
 215 0120 03340103 		ld	s0,48(sp)
 216              		.cfi_restore 8
 217              		.cfi_def_cfa 2, 64
 218 0124 83348102 		ld	s1,40(sp)
 219              		.cfi_restore 9
 220              	.LVL18:
 221 0128 03390102 		ld	s2,32(sp)
 222              		.cfi_restore 18
 223              	.LVL19:
 224 012c 83398101 		ld	s3,24(sp)
 225              		.cfi_restore 19
 226              	.LVL20:
 227 0130 13010104 		addi	sp,sp,64
 228              		.cfi_def_cfa_offset 0
 229 0134 67800000 		jr	ra
 230              	.LVL21:
 231              	.L14:
 232              		.cfi_restore_state
  34:src/syscall_c.cpp ****     if (start_routine) stack_space = mem_alloc(DEFAULT_STACK_SIZE);
 233              		.loc 1 34 11
 234 0138 13070000 		li	a4,0
 235 013c 6FF09FFB 		j	.L13
 236              		.cfi_endproc
 237              	.LFE37:
 239              		.align	2
 240              		.globl	_Z11thread_exitv
 242              	_Z11thread_exitv:
 243              	.LFB38:
  40:src/syscall_c.cpp **** 
  41:src/syscall_c.cpp **** int thread_exit() {
 244              		.loc 1 41 19 is_stmt 1
 245              		.cfi_startproc
 246 0140 130101FE 		addi	sp,sp,-32
GAS LISTING /tmp/ccM7q2CX.s 			page 6


 247              		.cfi_def_cfa_offset 32
 248 0144 233C1100 		sd	ra,24(sp)
 249 0148 23388100 		sd	s0,16(sp)
 250              		.cfi_offset 1, -8
 251              		.cfi_offset 8, -16
 252 014c 13040102 		addi	s0,sp,32
 253              		.cfi_def_cfa 8, 0
  42:src/syscall_c.cpp ****     int volatile a0;
 254              		.loc 1 42 5
  43:src/syscall_c.cpp ****     system_call(THREAD_EXIT);
 255              		.loc 1 43 5
 256              		.loc 1 43 16 is_stmt 0
 257 0150 13070000 		li	a4,0
 258 0154 93060000 		li	a3,0
 259 0158 13060000 		li	a2,0
 260 015c 93050000 		li	a1,0
 261 0160 13052001 		li	a0,18
 262 0164 97000000 		call	_Z11system_callmmmmm
 262      E7800000 
 263              	.LVL22:
  44:src/syscall_c.cpp ****     __asm__ volatile("mv %0, a0" : "=r"(a0));
 264              		.loc 1 44 5 is_stmt 1
 265              		.loc 1 44 45 is_stmt 0
 266              	#APP
 267              	# 44 "src/syscall_c.cpp" 1
  45              	    return a0;
 268              		mv a5, a0
 269              	# 0 "" 2
 270              	#NO_APP
 271 0170 2326F4FE 		sw	a5,-20(s0)
 272              		.loc 1 45 5 is_stmt 1
 273              		.loc 1 45 12 is_stmt 0
 274 0174 0325C4FE 		lw	a0,-20(s0)
  46:src/syscall_c.cpp **** }
 275              		.loc 1 46 1
 276 0178 1B050500 		sext.w	a0,a0
 277 017c 83308101 		ld	ra,24(sp)
 278              		.cfi_restore 1
 279 0180 03340101 		ld	s0,16(sp)
 280              		.cfi_restore 8
 281              		.cfi_def_cfa 2, 32
 282 0184 13010102 		addi	sp,sp,32
 283              		.cfi_def_cfa_offset 0
 284 0188 67800000 		jr	ra
 285              		.cfi_endproc
 286              	.LFE38:
 288              		.align	2
 289              		.globl	_Z15thread_dispatchv
 291              	_Z15thread_dispatchv:
 292              	.LFB39:
  47:src/syscall_c.cpp **** 
  48:src/syscall_c.cpp **** void thread_dispatch() {
 293              		.loc 1 48 24 is_stmt 1
 294              		.cfi_startproc
 295 018c 130101FF 		addi	sp,sp,-16
 296              		.cfi_def_cfa_offset 16
 297 0190 23341100 		sd	ra,8(sp)
GAS LISTING /tmp/ccM7q2CX.s 			page 7


 298 0194 23308100 		sd	s0,0(sp)
 299              		.cfi_offset 1, -8
 300              		.cfi_offset 8, -16
 301 0198 13040101 		addi	s0,sp,16
 302              		.cfi_def_cfa 8, 0
  49:src/syscall_c.cpp ****     system_call(THREAD_DISPATCH);
 303              		.loc 1 49 5
 304              		.loc 1 49 16 is_stmt 0
 305 019c 13070000 		li	a4,0
 306 01a0 93060000 		li	a3,0
 307 01a4 13060000 		li	a2,0
 308 01a8 93050000 		li	a1,0
 309 01ac 13053001 		li	a0,19
 310 01b0 97000000 		call	_Z11system_callmmmmm
 310      E7800000 
 311              	.LVL23:
  50:src/syscall_c.cpp **** 
  51:src/syscall_c.cpp **** }
 312              		.loc 1 51 1
 313 01b8 83308100 		ld	ra,8(sp)
 314              		.cfi_restore 1
 315 01bc 03340100 		ld	s0,0(sp)
 316              		.cfi_restore 8
 317              		.cfi_def_cfa 2, 16
 318 01c0 13010101 		addi	sp,sp,16
 319              		.cfi_def_cfa_offset 0
 320 01c4 67800000 		jr	ra
 321              		.cfi_endproc
 322              	.LFE39:
 324              		.align	2
 325              		.globl	_Z8sem_openPP3Semj
 327              	_Z8sem_openPP3Semj:
 328              	.LFB40:
  52:src/syscall_c.cpp **** 
  53:src/syscall_c.cpp **** int sem_open(sem_t* handle, unsigned init) {
 329              		.loc 1 53 44 is_stmt 1
 330              		.cfi_startproc
 331              	.LVL24:
 332 01c8 130101FE 		addi	sp,sp,-32
 333              		.cfi_def_cfa_offset 32
 334 01cc 233C1100 		sd	ra,24(sp)
 335 01d0 23388100 		sd	s0,16(sp)
 336              		.cfi_offset 1, -8
 337              		.cfi_offset 8, -16
 338 01d4 13040102 		addi	s0,sp,32
 339              		.cfi_def_cfa 8, 0
  54:src/syscall_c.cpp ****     //if (init <= 0 || !handle) return -1;
  55:src/syscall_c.cpp ****     int volatile a0;
 340              		.loc 1 55 5
  56:src/syscall_c.cpp ****     system_call(SEM_OPEN, (uint64)handle, init);
 341              		.loc 1 56 5
 342              		.loc 1 56 16 is_stmt 0
 343 01d8 13070000 		li	a4,0
 344 01dc 93060000 		li	a3,0
 345 01e0 13960502 		slli	a2,a1,32
 346 01e4 13560602 		srli	a2,a2,32
 347 01e8 93050500 		mv	a1,a0
GAS LISTING /tmp/ccM7q2CX.s 			page 8


 348              	.LVL25:
 349 01ec 13051002 		li	a0,33
 350              	.LVL26:
 351 01f0 97000000 		call	_Z11system_callmmmmm
 351      E7800000 
 352              	.LVL27:
  57:src/syscall_c.cpp ****     __asm__ volatile("mv %0, a0" : "=r"(a0));
 353              		.loc 1 57 5 is_stmt 1
 354              		.loc 1 57 45 is_stmt 0
 355              	#APP
 356              	# 57 "src/syscall_c.cpp" 1
  58              	    return a0;
 357              		mv a5, a0
 358              	# 0 "" 2
 359              	#NO_APP
 360 01fc 2326F4FE 		sw	a5,-20(s0)
 361              		.loc 1 58 5 is_stmt 1
 362              		.loc 1 58 12 is_stmt 0
 363 0200 0325C4FE 		lw	a0,-20(s0)
  59:src/syscall_c.cpp **** }
 364              		.loc 1 59 1
 365 0204 1B050500 		sext.w	a0,a0
 366 0208 83308101 		ld	ra,24(sp)
 367              		.cfi_restore 1
 368 020c 03340101 		ld	s0,16(sp)
 369              		.cfi_restore 8
 370              		.cfi_def_cfa 2, 32
 371 0210 13010102 		addi	sp,sp,32
 372              		.cfi_def_cfa_offset 0
 373 0214 67800000 		jr	ra
 374              		.cfi_endproc
 375              	.LFE40:
 377              		.align	2
 378              		.globl	_Z9sem_closeP3Sem
 380              	_Z9sem_closeP3Sem:
 381              	.LFB41:
  60:src/syscall_c.cpp **** 
  61:src/syscall_c.cpp **** int sem_close(sem_t handle) {
 382              		.loc 1 61 29 is_stmt 1
 383              		.cfi_startproc
 384              	.LVL28:
  62:src/syscall_c.cpp ****     if (!handle) return -1; // no sem
 385              		.loc 1 62 5
 386 0218 63080504 		beqz	a0,.L24
  61:src/syscall_c.cpp ****     if (!handle) return -1; // no sem
 387              		.loc 1 61 29 is_stmt 0
 388 021c 130101FE 		addi	sp,sp,-32
 389              		.cfi_def_cfa_offset 32
 390 0220 233C1100 		sd	ra,24(sp)
 391 0224 23388100 		sd	s0,16(sp)
 392              		.cfi_offset 1, -8
 393              		.cfi_offset 8, -16
 394 0228 13040102 		addi	s0,sp,32
 395              		.cfi_def_cfa 8, 0
 396 022c 93050500 		mv	a1,a0
  63:src/syscall_c.cpp ****     int volatile a0;
 397              		.loc 1 63 5 is_stmt 1
GAS LISTING /tmp/ccM7q2CX.s 			page 9


  64:src/syscall_c.cpp ****     system_call(SEM_CLOSE, (uint64)handle);
 398              		.loc 1 64 5
 399              		.loc 1 64 16 is_stmt 0
 400 0230 13070000 		li	a4,0
 401 0234 93060000 		li	a3,0
 402 0238 13060000 		li	a2,0
 403 023c 13052002 		li	a0,34
 404              	.LVL29:
 405 0240 97000000 		call	_Z11system_callmmmmm
 405      E7800000 
 406              	.LVL30:
  65:src/syscall_c.cpp ****     __asm__ volatile("mv %0, a0" : "=r"(a0));
 407              		.loc 1 65 5 is_stmt 1
 408              		.loc 1 65 45 is_stmt 0
 409              	#APP
 410              	# 65 "src/syscall_c.cpp" 1
  66              	    return a0;
 411              		mv a5, a0
 412              	# 0 "" 2
 413              	#NO_APP
 414 024c 2326F4FE 		sw	a5,-20(s0)
 415              		.loc 1 66 5 is_stmt 1
 416              		.loc 1 66 12 is_stmt 0
 417 0250 0325C4FE 		lw	a0,-20(s0)
 418 0254 1B050500 		sext.w	a0,a0
  67:src/syscall_c.cpp **** }
 419              		.loc 1 67 1
 420 0258 83308101 		ld	ra,24(sp)
 421              		.cfi_restore 1
 422 025c 03340101 		ld	s0,16(sp)
 423              		.cfi_restore 8
 424              		.cfi_def_cfa 2, 32
 425 0260 13010102 		addi	sp,sp,32
 426              		.cfi_def_cfa_offset 0
 427 0264 67800000 		jr	ra
 428              	.LVL31:
 429              	.L24:
  62:src/syscall_c.cpp ****     int volatile a0;
 430              		.loc 1 62 26
 431 0268 1305F0FF 		li	a0,-1
 432              	.LVL32:
 433              		.loc 1 67 1
 434 026c 67800000 		ret
 435              		.cfi_endproc
 436              	.LFE41:
 438              		.align	2
 439              		.globl	_Z8sem_waitP3Sem
 441              	_Z8sem_waitP3Sem:
 442              	.LFB42:
  68:src/syscall_c.cpp **** 
  69:src/syscall_c.cpp **** int sem_wait(sem_t id) {
 443              		.loc 1 69 24 is_stmt 1
 444              		.cfi_startproc
 445              	.LVL33:
 446 0270 130101FE 		addi	sp,sp,-32
 447              		.cfi_def_cfa_offset 32
 448 0274 233C1100 		sd	ra,24(sp)
GAS LISTING /tmp/ccM7q2CX.s 			page 10


 449 0278 23388100 		sd	s0,16(sp)
 450              		.cfi_offset 1, -8
 451              		.cfi_offset 8, -16
 452 027c 13040102 		addi	s0,sp,32
 453              		.cfi_def_cfa 8, 0
 454 0280 93050500 		mv	a1,a0
  70:src/syscall_c.cpp ****     int volatile a0;
 455              		.loc 1 70 5
  71:src/syscall_c.cpp ****     system_call(SEM_WAIT, (uint64)id);
 456              		.loc 1 71 5
 457              		.loc 1 71 16 is_stmt 0
 458 0284 13070000 		li	a4,0
 459 0288 93060000 		li	a3,0
 460 028c 13060000 		li	a2,0
 461 0290 13053002 		li	a0,35
 462              	.LVL34:
 463 0294 97000000 		call	_Z11system_callmmmmm
 463      E7800000 
 464              	.LVL35:
  72:src/syscall_c.cpp ****     __asm__ volatile("mv %0, a0" : "=r"(a0));
 465              		.loc 1 72 5 is_stmt 1
 466              		.loc 1 72 45 is_stmt 0
 467              	#APP
 468              	# 72 "src/syscall_c.cpp" 1
  73              	    return a0;
 469              		mv a5, a0
 470              	# 0 "" 2
 471              	#NO_APP
 472 02a0 2326F4FE 		sw	a5,-20(s0)
 473              		.loc 1 73 5 is_stmt 1
 474              		.loc 1 73 12 is_stmt 0
 475 02a4 0325C4FE 		lw	a0,-20(s0)
  74:src/syscall_c.cpp **** }
 476              		.loc 1 74 1
 477 02a8 1B050500 		sext.w	a0,a0
 478 02ac 83308101 		ld	ra,24(sp)
 479              		.cfi_restore 1
 480 02b0 03340101 		ld	s0,16(sp)
 481              		.cfi_restore 8
 482              		.cfi_def_cfa 2, 32
 483 02b4 13010102 		addi	sp,sp,32
 484              		.cfi_def_cfa_offset 0
 485 02b8 67800000 		jr	ra
 486              		.cfi_endproc
 487              	.LFE42:
 489              		.align	2
 490              		.globl	_Z13sem_timedwaitP3Semm
 492              	_Z13sem_timedwaitP3Semm:
 493              	.LFB43:
  75:src/syscall_c.cpp **** 
  76:src/syscall_c.cpp **** int sem_timedwait(sem_t id, time_t timeout) {
 494              		.loc 1 76 45 is_stmt 1
 495              		.cfi_startproc
 496              	.LVL36:
 497 02bc 130101FE 		addi	sp,sp,-32
 498              		.cfi_def_cfa_offset 32
 499 02c0 233C1100 		sd	ra,24(sp)
GAS LISTING /tmp/ccM7q2CX.s 			page 11


 500 02c4 23388100 		sd	s0,16(sp)
 501              		.cfi_offset 1, -8
 502              		.cfi_offset 8, -16
 503 02c8 13040102 		addi	s0,sp,32
 504              		.cfi_def_cfa 8, 0
 505 02cc 13860500 		mv	a2,a1
  77:src/syscall_c.cpp ****     int volatile a0;
 506              		.loc 1 77 5
  78:src/syscall_c.cpp ****     system_call(SEM_TIMEDWAIT, (uint64)id, (uint64)timeout);
 507              		.loc 1 78 5
 508              		.loc 1 78 16 is_stmt 0
 509 02d0 13070000 		li	a4,0
 510 02d4 93060000 		li	a3,0
 511 02d8 93050500 		mv	a1,a0
 512              	.LVL37:
 513 02dc 13055002 		li	a0,37
 514              	.LVL38:
 515 02e0 97000000 		call	_Z11system_callmmmmm
 515      E7800000 
 516              	.LVL39:
  79:src/syscall_c.cpp ****     __asm__ volatile("mv %0, a0" : "=r"(a0));
 517              		.loc 1 79 5 is_stmt 1
 518              		.loc 1 79 45 is_stmt 0
 519              	#APP
 520              	# 79 "src/syscall_c.cpp" 1
  80              	    return a0;
 521              		mv a5, a0
 522              	# 0 "" 2
 523              	#NO_APP
 524 02ec 2326F4FE 		sw	a5,-20(s0)
 525              		.loc 1 80 5 is_stmt 1
 526              		.loc 1 80 12 is_stmt 0
 527 02f0 0325C4FE 		lw	a0,-20(s0)
  81:src/syscall_c.cpp **** }
 528              		.loc 1 81 1
 529 02f4 1B050500 		sext.w	a0,a0
 530 02f8 83308101 		ld	ra,24(sp)
 531              		.cfi_restore 1
 532 02fc 03340101 		ld	s0,16(sp)
 533              		.cfi_restore 8
 534              		.cfi_def_cfa 2, 32
 535 0300 13010102 		addi	sp,sp,32
 536              		.cfi_def_cfa_offset 0
 537 0304 67800000 		jr	ra
 538              		.cfi_endproc
 539              	.LFE43:
 541              		.align	2
 542              		.globl	_Z11sem_trywaitP3Sem
 544              	_Z11sem_trywaitP3Sem:
 545              	.LFB44:
  82:src/syscall_c.cpp **** 
  83:src/syscall_c.cpp **** int sem_trywait(sem_t id) {
 546              		.loc 1 83 27 is_stmt 1
 547              		.cfi_startproc
 548              	.LVL40:
 549 0308 130101FE 		addi	sp,sp,-32
 550              		.cfi_def_cfa_offset 32
GAS LISTING /tmp/ccM7q2CX.s 			page 12


 551 030c 233C1100 		sd	ra,24(sp)
 552 0310 23388100 		sd	s0,16(sp)
 553              		.cfi_offset 1, -8
 554              		.cfi_offset 8, -16
 555 0314 13040102 		addi	s0,sp,32
 556              		.cfi_def_cfa 8, 0
 557 0318 93050500 		mv	a1,a0
  84:src/syscall_c.cpp ****     int volatile a0;
 558              		.loc 1 84 5
  85:src/syscall_c.cpp ****     system_call(SEM_TRYWAIT, (uint64)id);
 559              		.loc 1 85 5
 560              		.loc 1 85 16 is_stmt 0
 561 031c 13070000 		li	a4,0
 562 0320 93060000 		li	a3,0
 563 0324 13060000 		li	a2,0
 564 0328 13056002 		li	a0,38
 565              	.LVL41:
 566 032c 97000000 		call	_Z11system_callmmmmm
 566      E7800000 
 567              	.LVL42:
  86:src/syscall_c.cpp ****     __asm__ volatile("mv %0, a0" : "=r"(a0));
 568              		.loc 1 86 5 is_stmt 1
 569              		.loc 1 86 45 is_stmt 0
 570              	#APP
 571              	# 86 "src/syscall_c.cpp" 1
  87              	    return a0;
 572              		mv a5, a0
 573              	# 0 "" 2
 574              	#NO_APP
 575 0338 2326F4FE 		sw	a5,-20(s0)
 576              		.loc 1 87 5 is_stmt 1
 577              		.loc 1 87 12 is_stmt 0
 578 033c 0325C4FE 		lw	a0,-20(s0)
  88:src/syscall_c.cpp **** }
 579              		.loc 1 88 1
 580 0340 1B050500 		sext.w	a0,a0
 581 0344 83308101 		ld	ra,24(sp)
 582              		.cfi_restore 1
 583 0348 03340101 		ld	s0,16(sp)
 584              		.cfi_restore 8
 585              		.cfi_def_cfa 2, 32
 586 034c 13010102 		addi	sp,sp,32
 587              		.cfi_def_cfa_offset 0
 588 0350 67800000 		jr	ra
 589              		.cfi_endproc
 590              	.LFE44:
 592              		.align	2
 593              		.globl	_Z10sem_signalP3Sem
 595              	_Z10sem_signalP3Sem:
 596              	.LFB45:
  89:src/syscall_c.cpp **** 
  90:src/syscall_c.cpp **** int sem_signal(sem_t id) {
 597              		.loc 1 90 26 is_stmt 1
 598              		.cfi_startproc
 599              	.LVL43:
 600 0354 130101FE 		addi	sp,sp,-32
 601              		.cfi_def_cfa_offset 32
GAS LISTING /tmp/ccM7q2CX.s 			page 13


 602 0358 233C1100 		sd	ra,24(sp)
 603 035c 23388100 		sd	s0,16(sp)
 604              		.cfi_offset 1, -8
 605              		.cfi_offset 8, -16
 606 0360 13040102 		addi	s0,sp,32
 607              		.cfi_def_cfa 8, 0
 608 0364 93050500 		mv	a1,a0
  91:src/syscall_c.cpp ****     int volatile a0;
 609              		.loc 1 91 5
  92:src/syscall_c.cpp ****     system_call(SEM_SIGNAL, (uint64)id);
 610              		.loc 1 92 5
 611              		.loc 1 92 16 is_stmt 0
 612 0368 13070000 		li	a4,0
 613 036c 93060000 		li	a3,0
 614 0370 13060000 		li	a2,0
 615 0374 13054002 		li	a0,36
 616              	.LVL44:
 617 0378 97000000 		call	_Z11system_callmmmmm
 617      E7800000 
 618              	.LVL45:
  93:src/syscall_c.cpp ****     __asm__ volatile("mv %0, a0" : "=r"(a0));
 619              		.loc 1 93 5 is_stmt 1
 620              		.loc 1 93 45 is_stmt 0
 621              	#APP
 622              	# 93 "src/syscall_c.cpp" 1
  94              	    return a0;
 623              		mv a5, a0
 624              	# 0 "" 2
 625              	#NO_APP
 626 0384 2326F4FE 		sw	a5,-20(s0)
 627              		.loc 1 94 5 is_stmt 1
 628              		.loc 1 94 12 is_stmt 0
 629 0388 0325C4FE 		lw	a0,-20(s0)
  95:src/syscall_c.cpp **** }
 630              		.loc 1 95 1
 631 038c 1B050500 		sext.w	a0,a0
 632 0390 83308101 		ld	ra,24(sp)
 633              		.cfi_restore 1
 634 0394 03340101 		ld	s0,16(sp)
 635              		.cfi_restore 8
 636              		.cfi_def_cfa 2, 32
 637 0398 13010102 		addi	sp,sp,32
 638              		.cfi_def_cfa_offset 0
 639 039c 67800000 		jr	ra
 640              		.cfi_endproc
 641              	.LFE45:
 643              		.align	2
 644              		.globl	_Z10time_sleepm
 646              	_Z10time_sleepm:
 647              	.LFB46:
  96:src/syscall_c.cpp **** 
  97:src/syscall_c.cpp **** int time_sleep (time_t time) {
 648              		.loc 1 97 30 is_stmt 1
 649              		.cfi_startproc
 650              	.LVL46:
 651 03a0 130101FE 		addi	sp,sp,-32
 652              		.cfi_def_cfa_offset 32
GAS LISTING /tmp/ccM7q2CX.s 			page 14


 653 03a4 233C1100 		sd	ra,24(sp)
 654 03a8 23388100 		sd	s0,16(sp)
 655              		.cfi_offset 1, -8
 656              		.cfi_offset 8, -16
 657 03ac 13040102 		addi	s0,sp,32
 658              		.cfi_def_cfa 8, 0
 659 03b0 93050500 		mv	a1,a0
  98:src/syscall_c.cpp ****     int volatile a0;
 660              		.loc 1 98 5
  99:src/syscall_c.cpp ****     system_call(TIME_SLEEP, (uint64)time);
 661              		.loc 1 99 5
 662              		.loc 1 99 16 is_stmt 0
 663 03b4 13070000 		li	a4,0
 664 03b8 93060000 		li	a3,0
 665 03bc 13060000 		li	a2,0
 666 03c0 13051003 		li	a0,49
 667              	.LVL47:
 668 03c4 97000000 		call	_Z11system_callmmmmm
 668      E7800000 
 669              	.LVL48:
 100:src/syscall_c.cpp ****     __asm__ volatile("mv %0, a0" : "=r"(a0));
 670              		.loc 1 100 5 is_stmt 1
 671              		.loc 1 100 45 is_stmt 0
 672              	#APP
 673              	# 100 "src/syscall_c.cpp" 1
 101              	    return a0;
 674              		mv a5, a0
 675              	# 0 "" 2
 676              	#NO_APP
 677 03d0 2326F4FE 		sw	a5,-20(s0)
 678              		.loc 1 101 5 is_stmt 1
 679              		.loc 1 101 12 is_stmt 0
 680 03d4 0325C4FE 		lw	a0,-20(s0)
 102:src/syscall_c.cpp **** }
 681              		.loc 1 102 1
 682 03d8 1B050500 		sext.w	a0,a0
 683 03dc 83308101 		ld	ra,24(sp)
 684              		.cfi_restore 1
 685 03e0 03340101 		ld	s0,16(sp)
 686              		.cfi_restore 8
 687              		.cfi_def_cfa 2, 32
 688 03e4 13010102 		addi	sp,sp,32
 689              		.cfi_def_cfa_offset 0
 690 03e8 67800000 		jr	ra
 691              		.cfi_endproc
 692              	.LFE46:
 694              		.align	2
 695              		.globl	_Z4getcv
 697              	_Z4getcv:
 698              	.LFB47:
 103:src/syscall_c.cpp **** 
 104:src/syscall_c.cpp **** char getc() {
 699              		.loc 1 104 13 is_stmt 1
 700              		.cfi_startproc
 701 03ec 130101FE 		addi	sp,sp,-32
 702              		.cfi_def_cfa_offset 32
 703 03f0 233C1100 		sd	ra,24(sp)
GAS LISTING /tmp/ccM7q2CX.s 			page 15


 704 03f4 23388100 		sd	s0,16(sp)
 705              		.cfi_offset 1, -8
 706              		.cfi_offset 8, -16
 707 03f8 13040102 		addi	s0,sp,32
 708              		.cfi_def_cfa 8, 0
 105:src/syscall_c.cpp ****     char volatile a0;
 709              		.loc 1 105 5
 106:src/syscall_c.cpp ****     system_call(GETC);
 710              		.loc 1 106 5
 711              		.loc 1 106 16 is_stmt 0
 712 03fc 13070000 		li	a4,0
 713 0400 93060000 		li	a3,0
 714 0404 13060000 		li	a2,0
 715 0408 93050000 		li	a1,0
 716 040c 13051004 		li	a0,65
 717 0410 97000000 		call	_Z11system_callmmmmm
 717      E7800000 
 718              	.LVL49:
 107:src/syscall_c.cpp ****     __asm__ volatile("mv %0, a0" : "=r"(a0));
 719              		.loc 1 107 5 is_stmt 1
 720              		.loc 1 107 45 is_stmt 0
 721              	#APP
 722              	# 107 "src/syscall_c.cpp" 1
 108              	    return a0;
 723              		mv a5, a0
 724              	# 0 "" 2
 725              	#NO_APP
 726 041c A307F4FE 		sb	a5,-17(s0)
 727              		.loc 1 108 5 is_stmt 1
 728              		.loc 1 108 12 is_stmt 0
 729 0420 0345F4FE 		lbu	a0,-17(s0)
 109:src/syscall_c.cpp **** }
 730              		.loc 1 109 1
 731 0424 1375F50F 		andi	a0,a0,0xff
 732 0428 83308101 		ld	ra,24(sp)
 733              		.cfi_restore 1
 734 042c 03340101 		ld	s0,16(sp)
 735              		.cfi_restore 8
 736              		.cfi_def_cfa 2, 32
 737 0430 13010102 		addi	sp,sp,32
 738              		.cfi_def_cfa_offset 0
 739 0434 67800000 		jr	ra
 740              		.cfi_endproc
 741              	.LFE47:
 743              		.align	2
 744              		.globl	_Z4putcc
 746              	_Z4putcc:
 747              	.LFB48:
 110:src/syscall_c.cpp **** 
 111:src/syscall_c.cpp **** void putc(char c) {
 748              		.loc 1 111 19 is_stmt 1
 749              		.cfi_startproc
 750              	.LVL50:
 751 0438 130101FF 		addi	sp,sp,-16
 752              		.cfi_def_cfa_offset 16
 753 043c 23341100 		sd	ra,8(sp)
 754 0440 23308100 		sd	s0,0(sp)
GAS LISTING /tmp/ccM7q2CX.s 			page 16


 755              		.cfi_offset 1, -8
 756              		.cfi_offset 8, -16
 757 0444 13040101 		addi	s0,sp,16
 758              		.cfi_def_cfa 8, 0
 759 0448 93050500 		mv	a1,a0
 112:src/syscall_c.cpp ****     system_call(PUTC, c);
 760              		.loc 1 112 5
 761              		.loc 1 112 16 is_stmt 0
 762 044c 13070000 		li	a4,0
 763 0450 93060000 		li	a3,0
 764 0454 13060000 		li	a2,0
 765 0458 13052004 		li	a0,66
 766              	.LVL51:
 767 045c 97000000 		call	_Z11system_callmmmmm
 767      E7800000 
 768              	.LVL52:
 113:src/syscall_c.cpp **** }
 769              		.loc 1 113 1
 770 0464 83308100 		ld	ra,8(sp)
 771              		.cfi_restore 1
 772 0468 03340100 		ld	s0,0(sp)
 773              		.cfi_restore 8
 774              		.cfi_def_cfa 2, 16
 775 046c 13010101 		addi	sp,sp,16
 776              		.cfi_def_cfa_offset 0
 777 0470 67800000 		jr	ra
 778              		.cfi_endproc
 779              	.LFE48:
 781              	.Letext0:
 782              		.file 2 "src/../h/../lib/hw.h"
 783              		.file 3 "src/../h/../h/Memoryallocator.hpp"
 784              		.file 4 "src/../h/thread.hpp"
 785              		.file 5 "src/../h/List.hpp"
 786              		.file 6 "src/../h/semaphore.hpp"
 787              		.file 7 "src/../h/syscall_c.h"
GAS LISTING /tmp/ccM7q2CX.s 			page 17


DEFINED SYMBOLS
                            *ABS*:0000000000000000 syscall_c.cpp
     /tmp/ccM7q2CX.s:9      .text:0000000000000000 _Z11system_callmmmmm
     /tmp/ccM7q2CX.s:13     .text:0000000000000000 .L0 
     /tmp/ccM7q2CX.s:15     .text:0000000000000000 .L0 
     /tmp/ccM7q2CX.s:16     .text:0000000000000004 .L0 
     /tmp/ccM7q2CX.s:18     .text:0000000000000008 .L0 
     /tmp/ccM7q2CX.s:20     .text:000000000000000c .L0 
     /tmp/ccM7q2CX.s:22     .text:000000000000000c .L0 
   src/syscall_c.cpp:9      .text:000000000000000c .L0 
     /tmp/ccM7q2CX.s:29     .text:0000000000000010 .L0 
     /tmp/ccM7q2CX.s:30     .text:0000000000000014 .L0 
     /tmp/ccM7q2CX.s:31     .text:0000000000000014 .L0 
     /tmp/ccM7q2CX.s:33     .text:0000000000000018 .L0 
     /tmp/ccM7q2CX.s:35     .text:000000000000001c .L0 
     /tmp/ccM7q2CX.s:41     .text:000000000000001c _Z9mem_allocm
     /tmp/ccM7q2CX.s:44     .text:000000000000001c .L0 
     /tmp/ccM7q2CX.s:46     .text:000000000000001c .L0 
     /tmp/ccM7q2CX.s:47     .text:000000000000001c .L0 
     /tmp/ccM7q2CX.s:49     .text:0000000000000020 .L0 
     /tmp/ccM7q2CX.s:50     .text:0000000000000024 .L0 
     /tmp/ccM7q2CX.s:53     .text:000000000000002c .L0 
     /tmp/ccM7q2CX.s:54     .text:000000000000002c .L0 
     /tmp/ccM7q2CX.s:56     .text:0000000000000030 .L0 
     /tmp/ccM7q2CX.s:58     .text:0000000000000030 .L0 
     /tmp/ccM7q2CX.s:59     .text:0000000000000030 .L0 
     /tmp/ccM7q2CX.s:60     .text:0000000000000030 .L0 
     /tmp/ccM7q2CX.s:63     .text:0000000000000034 .L0 
     /tmp/ccM7q2CX.s:64     .text:0000000000000034 .L0 
     /tmp/ccM7q2CX.s:74     .text:0000000000000050 .L0 
   src/syscall_c.cpp:18     .text:0000000000000050 .L0 
     /tmp/ccM7q2CX.s:81     .text:0000000000000054 .L0 
     /tmp/ccM7q2CX.s:83     .text:0000000000000054 .L0 
     /tmp/ccM7q2CX.s:84     .text:0000000000000058 .L0 
     /tmp/ccM7q2CX.s:86     .text:000000000000005c .L0 
     /tmp/ccM7q2CX.s:87     .text:000000000000005c .L0 
     /tmp/ccM7q2CX.s:89     .text:0000000000000060 .L0 
     /tmp/ccM7q2CX.s:94     .text:0000000000000064 .L0 
     /tmp/ccM7q2CX.s:97     .text:0000000000000068 .L0 
     /tmp/ccM7q2CX.s:98     .text:000000000000006c .L0 
     /tmp/ccM7q2CX.s:104    .text:000000000000006c _Z8mem_freePv
     /tmp/ccM7q2CX.s:107    .text:000000000000006c .L0 
     /tmp/ccM7q2CX.s:109    .text:000000000000006c .L0 
     /tmp/ccM7q2CX.s:110    .text:0000000000000070 .L0 
     /tmp/ccM7q2CX.s:113    .text:0000000000000078 .L0 
     /tmp/ccM7q2CX.s:114    .text:0000000000000078 .L0 
     /tmp/ccM7q2CX.s:116    .text:000000000000007c .L0 
     /tmp/ccM7q2CX.s:119    .text:0000000000000080 .L0 
     /tmp/ccM7q2CX.s:120    .text:0000000000000080 .L0 
     /tmp/ccM7q2CX.s:121    .text:0000000000000080 .L0 
     /tmp/ccM7q2CX.s:129    .text:0000000000000098 .L0 
   src/syscall_c.cpp:25     .text:0000000000000098 .L0 
     /tmp/ccM7q2CX.s:137    .text:00000000000000a0 .L0 
     /tmp/ccM7q2CX.s:138    .text:00000000000000a0 .L0 
     /tmp/ccM7q2CX.s:140    .text:00000000000000a4 .L0 
     /tmp/ccM7q2CX.s:142    .text:00000000000000ac .L0 
     /tmp/ccM7q2CX.s:144    .text:00000000000000b0 .L0 
GAS LISTING /tmp/ccM7q2CX.s 			page 18


     /tmp/ccM7q2CX.s:145    .text:00000000000000b0 .L0 
     /tmp/ccM7q2CX.s:147    .text:00000000000000b4 .L0 
     /tmp/ccM7q2CX.s:149    .text:00000000000000b8 .L0 
     /tmp/ccM7q2CX.s:155    .text:00000000000000b8 _Z13thread_createPP3TCBPFvPvES2_
     /tmp/ccM7q2CX.s:158    .text:00000000000000b8 .L0 
     /tmp/ccM7q2CX.s:160    .text:00000000000000b8 .L0 
     /tmp/ccM7q2CX.s:161    .text:00000000000000bc .L0 
     /tmp/ccM7q2CX.s:167    .text:00000000000000d0 .L0 
     /tmp/ccM7q2CX.s:168    .text:00000000000000d0 .L0 
     /tmp/ccM7q2CX.s:169    .text:00000000000000d0 .L0 
     /tmp/ccM7q2CX.s:170    .text:00000000000000d0 .L0 
     /tmp/ccM7q2CX.s:171    .text:00000000000000d0 .L0 
     /tmp/ccM7q2CX.s:173    .text:00000000000000d4 .L0 
     /tmp/ccM7q2CX.s:178    .text:00000000000000e0 .L0 
     /tmp/ccM7q2CX.s:180    .text:00000000000000e0 .L0 
     /tmp/ccM7q2CX.s:181    .text:00000000000000e0 .L0 
     /tmp/ccM7q2CX.s:183    .text:00000000000000e4 .L0 
     /tmp/ccM7q2CX.s:184    .text:00000000000000e4 .L0 
     /tmp/ccM7q2CX.s:192    .text:00000000000000f4 .L0 
     /tmp/ccM7q2CX.s:193    .text:00000000000000f4 .L0 
     /tmp/ccM7q2CX.s:200    .text:000000000000010c .L0 
   src/syscall_c.cpp:37     .text:000000000000010c .L0 
     /tmp/ccM7q2CX.s:208    .text:0000000000000114 .L0 
     /tmp/ccM7q2CX.s:209    .text:0000000000000114 .L0 
     /tmp/ccM7q2CX.s:211    .text:0000000000000118 .L0 
     /tmp/ccM7q2CX.s:213    .text:0000000000000120 .L0 
     /tmp/ccM7q2CX.s:214    .text:0000000000000120 .L0 
     /tmp/ccM7q2CX.s:216    .text:0000000000000124 .L0 
     /tmp/ccM7q2CX.s:217    .text:0000000000000124 .L0 
     /tmp/ccM7q2CX.s:219    .text:0000000000000128 .L0 
     /tmp/ccM7q2CX.s:222    .text:000000000000012c .L0 
     /tmp/ccM7q2CX.s:225    .text:0000000000000130 .L0 
     /tmp/ccM7q2CX.s:228    .text:0000000000000134 .L0 
     /tmp/ccM7q2CX.s:232    .text:0000000000000138 .L0 
     /tmp/ccM7q2CX.s:234    .text:0000000000000138 .L0 
     /tmp/ccM7q2CX.s:236    .text:0000000000000140 .L0 
     /tmp/ccM7q2CX.s:242    .text:0000000000000140 _Z11thread_exitv
     /tmp/ccM7q2CX.s:245    .text:0000000000000140 .L0 
     /tmp/ccM7q2CX.s:246    .text:0000000000000140 .L0 
     /tmp/ccM7q2CX.s:247    .text:0000000000000144 .L0 
     /tmp/ccM7q2CX.s:250    .text:000000000000014c .L0 
     /tmp/ccM7q2CX.s:251    .text:000000000000014c .L0 
     /tmp/ccM7q2CX.s:253    .text:0000000000000150 .L0 
     /tmp/ccM7q2CX.s:255    .text:0000000000000150 .L0 
     /tmp/ccM7q2CX.s:256    .text:0000000000000150 .L0 
     /tmp/ccM7q2CX.s:257    .text:0000000000000150 .L0 
     /tmp/ccM7q2CX.s:265    .text:000000000000016c .L0 
   src/syscall_c.cpp:44     .text:000000000000016c .L0 
     /tmp/ccM7q2CX.s:273    .text:0000000000000174 .L0 
     /tmp/ccM7q2CX.s:274    .text:0000000000000174 .L0 
     /tmp/ccM7q2CX.s:276    .text:0000000000000178 .L0 
     /tmp/ccM7q2CX.s:278    .text:0000000000000180 .L0 
     /tmp/ccM7q2CX.s:280    .text:0000000000000184 .L0 
     /tmp/ccM7q2CX.s:281    .text:0000000000000184 .L0 
     /tmp/ccM7q2CX.s:283    .text:0000000000000188 .L0 
     /tmp/ccM7q2CX.s:285    .text:000000000000018c .L0 
     /tmp/ccM7q2CX.s:291    .text:000000000000018c _Z15thread_dispatchv
GAS LISTING /tmp/ccM7q2CX.s 			page 19


     /tmp/ccM7q2CX.s:294    .text:000000000000018c .L0 
     /tmp/ccM7q2CX.s:295    .text:000000000000018c .L0 
     /tmp/ccM7q2CX.s:296    .text:0000000000000190 .L0 
     /tmp/ccM7q2CX.s:299    .text:0000000000000198 .L0 
     /tmp/ccM7q2CX.s:300    .text:0000000000000198 .L0 
     /tmp/ccM7q2CX.s:302    .text:000000000000019c .L0 
     /tmp/ccM7q2CX.s:304    .text:000000000000019c .L0 
     /tmp/ccM7q2CX.s:305    .text:000000000000019c .L0 
     /tmp/ccM7q2CX.s:313    .text:00000000000001b8 .L0 
     /tmp/ccM7q2CX.s:314    .text:00000000000001bc .L0 
     /tmp/ccM7q2CX.s:316    .text:00000000000001c0 .L0 
     /tmp/ccM7q2CX.s:317    .text:00000000000001c0 .L0 
     /tmp/ccM7q2CX.s:319    .text:00000000000001c4 .L0 
     /tmp/ccM7q2CX.s:321    .text:00000000000001c8 .L0 
     /tmp/ccM7q2CX.s:327    .text:00000000000001c8 _Z8sem_openPP3Semj
     /tmp/ccM7q2CX.s:330    .text:00000000000001c8 .L0 
     /tmp/ccM7q2CX.s:332    .text:00000000000001c8 .L0 
     /tmp/ccM7q2CX.s:333    .text:00000000000001cc .L0 
     /tmp/ccM7q2CX.s:336    .text:00000000000001d4 .L0 
     /tmp/ccM7q2CX.s:337    .text:00000000000001d4 .L0 
     /tmp/ccM7q2CX.s:339    .text:00000000000001d8 .L0 
     /tmp/ccM7q2CX.s:341    .text:00000000000001d8 .L0 
     /tmp/ccM7q2CX.s:342    .text:00000000000001d8 .L0 
     /tmp/ccM7q2CX.s:343    .text:00000000000001d8 .L0 
     /tmp/ccM7q2CX.s:354    .text:00000000000001f8 .L0 
   src/syscall_c.cpp:57     .text:00000000000001f8 .L0 
     /tmp/ccM7q2CX.s:362    .text:0000000000000200 .L0 
     /tmp/ccM7q2CX.s:363    .text:0000000000000200 .L0 
     /tmp/ccM7q2CX.s:365    .text:0000000000000204 .L0 
     /tmp/ccM7q2CX.s:367    .text:000000000000020c .L0 
     /tmp/ccM7q2CX.s:369    .text:0000000000000210 .L0 
     /tmp/ccM7q2CX.s:370    .text:0000000000000210 .L0 
     /tmp/ccM7q2CX.s:372    .text:0000000000000214 .L0 
     /tmp/ccM7q2CX.s:374    .text:0000000000000218 .L0 
     /tmp/ccM7q2CX.s:380    .text:0000000000000218 _Z9sem_closeP3Sem
     /tmp/ccM7q2CX.s:383    .text:0000000000000218 .L0 
     /tmp/ccM7q2CX.s:385    .text:0000000000000218 .L0 
     /tmp/ccM7q2CX.s:386    .text:0000000000000218 .L0 
     /tmp/ccM7q2CX.s:388    .text:000000000000021c .L0 
     /tmp/ccM7q2CX.s:389    .text:0000000000000220 .L0 
     /tmp/ccM7q2CX.s:392    .text:0000000000000228 .L0 
     /tmp/ccM7q2CX.s:393    .text:0000000000000228 .L0 
     /tmp/ccM7q2CX.s:395    .text:000000000000022c .L0 
     /tmp/ccM7q2CX.s:398    .text:0000000000000230 .L0 
     /tmp/ccM7q2CX.s:399    .text:0000000000000230 .L0 
     /tmp/ccM7q2CX.s:400    .text:0000000000000230 .L0 
     /tmp/ccM7q2CX.s:408    .text:0000000000000248 .L0 
   src/syscall_c.cpp:65     .text:0000000000000248 .L0 
     /tmp/ccM7q2CX.s:416    .text:0000000000000250 .L0 
     /tmp/ccM7q2CX.s:417    .text:0000000000000250 .L0 
     /tmp/ccM7q2CX.s:420    .text:0000000000000258 .L0 
     /tmp/ccM7q2CX.s:421    .text:000000000000025c .L0 
     /tmp/ccM7q2CX.s:423    .text:0000000000000260 .L0 
     /tmp/ccM7q2CX.s:424    .text:0000000000000260 .L0 
     /tmp/ccM7q2CX.s:426    .text:0000000000000264 .L0 
     /tmp/ccM7q2CX.s:431    .text:0000000000000268 .L0 
     /tmp/ccM7q2CX.s:434    .text:000000000000026c .L0 
GAS LISTING /tmp/ccM7q2CX.s 			page 20


     /tmp/ccM7q2CX.s:435    .text:0000000000000270 .L0 
     /tmp/ccM7q2CX.s:441    .text:0000000000000270 _Z8sem_waitP3Sem
     /tmp/ccM7q2CX.s:444    .text:0000000000000270 .L0 
     /tmp/ccM7q2CX.s:446    .text:0000000000000270 .L0 
     /tmp/ccM7q2CX.s:447    .text:0000000000000274 .L0 
     /tmp/ccM7q2CX.s:450    .text:000000000000027c .L0 
     /tmp/ccM7q2CX.s:451    .text:000000000000027c .L0 
     /tmp/ccM7q2CX.s:453    .text:0000000000000280 .L0 
     /tmp/ccM7q2CX.s:456    .text:0000000000000284 .L0 
     /tmp/ccM7q2CX.s:457    .text:0000000000000284 .L0 
     /tmp/ccM7q2CX.s:458    .text:0000000000000284 .L0 
     /tmp/ccM7q2CX.s:466    .text:000000000000029c .L0 
   src/syscall_c.cpp:72     .text:000000000000029c .L0 
     /tmp/ccM7q2CX.s:474    .text:00000000000002a4 .L0 
     /tmp/ccM7q2CX.s:475    .text:00000000000002a4 .L0 
     /tmp/ccM7q2CX.s:477    .text:00000000000002a8 .L0 
     /tmp/ccM7q2CX.s:479    .text:00000000000002b0 .L0 
     /tmp/ccM7q2CX.s:481    .text:00000000000002b4 .L0 
     /tmp/ccM7q2CX.s:482    .text:00000000000002b4 .L0 
     /tmp/ccM7q2CX.s:484    .text:00000000000002b8 .L0 
     /tmp/ccM7q2CX.s:486    .text:00000000000002bc .L0 
     /tmp/ccM7q2CX.s:492    .text:00000000000002bc _Z13sem_timedwaitP3Semm
     /tmp/ccM7q2CX.s:495    .text:00000000000002bc .L0 
     /tmp/ccM7q2CX.s:497    .text:00000000000002bc .L0 
     /tmp/ccM7q2CX.s:498    .text:00000000000002c0 .L0 
     /tmp/ccM7q2CX.s:501    .text:00000000000002c8 .L0 
     /tmp/ccM7q2CX.s:502    .text:00000000000002c8 .L0 
     /tmp/ccM7q2CX.s:504    .text:00000000000002cc .L0 
     /tmp/ccM7q2CX.s:507    .text:00000000000002d0 .L0 
     /tmp/ccM7q2CX.s:508    .text:00000000000002d0 .L0 
     /tmp/ccM7q2CX.s:509    .text:00000000000002d0 .L0 
     /tmp/ccM7q2CX.s:518    .text:00000000000002e8 .L0 
   src/syscall_c.cpp:79     .text:00000000000002e8 .L0 
     /tmp/ccM7q2CX.s:526    .text:00000000000002f0 .L0 
     /tmp/ccM7q2CX.s:527    .text:00000000000002f0 .L0 
     /tmp/ccM7q2CX.s:529    .text:00000000000002f4 .L0 
     /tmp/ccM7q2CX.s:531    .text:00000000000002fc .L0 
     /tmp/ccM7q2CX.s:533    .text:0000000000000300 .L0 
     /tmp/ccM7q2CX.s:534    .text:0000000000000300 .L0 
     /tmp/ccM7q2CX.s:536    .text:0000000000000304 .L0 
     /tmp/ccM7q2CX.s:538    .text:0000000000000308 .L0 
     /tmp/ccM7q2CX.s:544    .text:0000000000000308 _Z11sem_trywaitP3Sem
     /tmp/ccM7q2CX.s:547    .text:0000000000000308 .L0 
     /tmp/ccM7q2CX.s:549    .text:0000000000000308 .L0 
     /tmp/ccM7q2CX.s:550    .text:000000000000030c .L0 
     /tmp/ccM7q2CX.s:553    .text:0000000000000314 .L0 
     /tmp/ccM7q2CX.s:554    .text:0000000000000314 .L0 
     /tmp/ccM7q2CX.s:556    .text:0000000000000318 .L0 
     /tmp/ccM7q2CX.s:559    .text:000000000000031c .L0 
     /tmp/ccM7q2CX.s:560    .text:000000000000031c .L0 
     /tmp/ccM7q2CX.s:561    .text:000000000000031c .L0 
     /tmp/ccM7q2CX.s:569    .text:0000000000000334 .L0 
   src/syscall_c.cpp:86     .text:0000000000000334 .L0 
     /tmp/ccM7q2CX.s:577    .text:000000000000033c .L0 
     /tmp/ccM7q2CX.s:578    .text:000000000000033c .L0 
     /tmp/ccM7q2CX.s:580    .text:0000000000000340 .L0 
     /tmp/ccM7q2CX.s:582    .text:0000000000000348 .L0 
GAS LISTING /tmp/ccM7q2CX.s 			page 21


     /tmp/ccM7q2CX.s:584    .text:000000000000034c .L0 
     /tmp/ccM7q2CX.s:585    .text:000000000000034c .L0 
     /tmp/ccM7q2CX.s:587    .text:0000000000000350 .L0 
     /tmp/ccM7q2CX.s:589    .text:0000000000000354 .L0 
     /tmp/ccM7q2CX.s:595    .text:0000000000000354 _Z10sem_signalP3Sem
     /tmp/ccM7q2CX.s:598    .text:0000000000000354 .L0 
     /tmp/ccM7q2CX.s:600    .text:0000000000000354 .L0 
     /tmp/ccM7q2CX.s:601    .text:0000000000000358 .L0 
     /tmp/ccM7q2CX.s:604    .text:0000000000000360 .L0 
     /tmp/ccM7q2CX.s:605    .text:0000000000000360 .L0 
     /tmp/ccM7q2CX.s:607    .text:0000000000000364 .L0 
     /tmp/ccM7q2CX.s:610    .text:0000000000000368 .L0 
     /tmp/ccM7q2CX.s:611    .text:0000000000000368 .L0 
     /tmp/ccM7q2CX.s:612    .text:0000000000000368 .L0 
     /tmp/ccM7q2CX.s:620    .text:0000000000000380 .L0 
   src/syscall_c.cpp:93     .text:0000000000000380 .L0 
     /tmp/ccM7q2CX.s:628    .text:0000000000000388 .L0 
     /tmp/ccM7q2CX.s:629    .text:0000000000000388 .L0 
     /tmp/ccM7q2CX.s:631    .text:000000000000038c .L0 
     /tmp/ccM7q2CX.s:633    .text:0000000000000394 .L0 
     /tmp/ccM7q2CX.s:635    .text:0000000000000398 .L0 
     /tmp/ccM7q2CX.s:636    .text:0000000000000398 .L0 
     /tmp/ccM7q2CX.s:638    .text:000000000000039c .L0 
     /tmp/ccM7q2CX.s:640    .text:00000000000003a0 .L0 
     /tmp/ccM7q2CX.s:646    .text:00000000000003a0 _Z10time_sleepm
     /tmp/ccM7q2CX.s:649    .text:00000000000003a0 .L0 
     /tmp/ccM7q2CX.s:651    .text:00000000000003a0 .L0 
     /tmp/ccM7q2CX.s:652    .text:00000000000003a4 .L0 
     /tmp/ccM7q2CX.s:655    .text:00000000000003ac .L0 
     /tmp/ccM7q2CX.s:656    .text:00000000000003ac .L0 
     /tmp/ccM7q2CX.s:658    .text:00000000000003b0 .L0 
     /tmp/ccM7q2CX.s:661    .text:00000000000003b4 .L0 
     /tmp/ccM7q2CX.s:662    .text:00000000000003b4 .L0 
     /tmp/ccM7q2CX.s:663    .text:00000000000003b4 .L0 
     /tmp/ccM7q2CX.s:671    .text:00000000000003cc .L0 
   src/syscall_c.cpp:100    .text:00000000000003cc .L0 
     /tmp/ccM7q2CX.s:679    .text:00000000000003d4 .L0 
     /tmp/ccM7q2CX.s:680    .text:00000000000003d4 .L0 
     /tmp/ccM7q2CX.s:682    .text:00000000000003d8 .L0 
     /tmp/ccM7q2CX.s:684    .text:00000000000003e0 .L0 
     /tmp/ccM7q2CX.s:686    .text:00000000000003e4 .L0 
     /tmp/ccM7q2CX.s:687    .text:00000000000003e4 .L0 
     /tmp/ccM7q2CX.s:689    .text:00000000000003e8 .L0 
     /tmp/ccM7q2CX.s:691    .text:00000000000003ec .L0 
     /tmp/ccM7q2CX.s:697    .text:00000000000003ec _Z4getcv
     /tmp/ccM7q2CX.s:700    .text:00000000000003ec .L0 
     /tmp/ccM7q2CX.s:701    .text:00000000000003ec .L0 
     /tmp/ccM7q2CX.s:702    .text:00000000000003f0 .L0 
     /tmp/ccM7q2CX.s:705    .text:00000000000003f8 .L0 
     /tmp/ccM7q2CX.s:706    .text:00000000000003f8 .L0 
     /tmp/ccM7q2CX.s:708    .text:00000000000003fc .L0 
     /tmp/ccM7q2CX.s:710    .text:00000000000003fc .L0 
     /tmp/ccM7q2CX.s:711    .text:00000000000003fc .L0 
     /tmp/ccM7q2CX.s:712    .text:00000000000003fc .L0 
     /tmp/ccM7q2CX.s:720    .text:0000000000000418 .L0 
   src/syscall_c.cpp:107    .text:0000000000000418 .L0 
     /tmp/ccM7q2CX.s:728    .text:0000000000000420 .L0 
GAS LISTING /tmp/ccM7q2CX.s 			page 22


     /tmp/ccM7q2CX.s:729    .text:0000000000000420 .L0 
     /tmp/ccM7q2CX.s:731    .text:0000000000000424 .L0 
     /tmp/ccM7q2CX.s:733    .text:000000000000042c .L0 
     /tmp/ccM7q2CX.s:735    .text:0000000000000430 .L0 
     /tmp/ccM7q2CX.s:736    .text:0000000000000430 .L0 
     /tmp/ccM7q2CX.s:738    .text:0000000000000434 .L0 
     /tmp/ccM7q2CX.s:740    .text:0000000000000438 .L0 
     /tmp/ccM7q2CX.s:746    .text:0000000000000438 _Z4putcc
     /tmp/ccM7q2CX.s:749    .text:0000000000000438 .L0 
     /tmp/ccM7q2CX.s:751    .text:0000000000000438 .L0 
     /tmp/ccM7q2CX.s:752    .text:000000000000043c .L0 
     /tmp/ccM7q2CX.s:755    .text:0000000000000444 .L0 
     /tmp/ccM7q2CX.s:756    .text:0000000000000444 .L0 
     /tmp/ccM7q2CX.s:758    .text:0000000000000448 .L0 
     /tmp/ccM7q2CX.s:761    .text:000000000000044c .L0 
     /tmp/ccM7q2CX.s:762    .text:000000000000044c .L0 
     /tmp/ccM7q2CX.s:770    .text:0000000000000464 .L0 
     /tmp/ccM7q2CX.s:771    .text:0000000000000468 .L0 
     /tmp/ccM7q2CX.s:773    .text:000000000000046c .L0 
     /tmp/ccM7q2CX.s:774    .text:000000000000046c .L0 
     /tmp/ccM7q2CX.s:776    .text:0000000000000470 .L0 
     /tmp/ccM7q2CX.s:778    .text:0000000000000474 .L0 
     /tmp/ccM7q2CX.s:788    .text:0000000000000474 .L0 
     /tmp/ccM7q2CX.s:92     .text:0000000000000064 .L5
     /tmp/ccM7q2CX.s:231    .text:0000000000000138 .L14
     /tmp/ccM7q2CX.s:190    .text:00000000000000f4 .L13
     /tmp/ccM7q2CX.s:429    .text:0000000000000268 .L24
     /tmp/ccM7q2CX.s:2578   .debug_abbrev:0000000000000000 .Ldebug_abbrev0
     /tmp/ccM7q2CX.s:4183   .debug_str:00000000000006db .LASF152
     /tmp/ccM7q2CX.s:4065   .debug_str:0000000000000409 .LASF153
     /tmp/ccM7q2CX.s:3997   .debug_str:0000000000000285 .LASF154
     /tmp/ccM7q2CX.s:5      .text:0000000000000000 .Ltext0
     /tmp/ccM7q2CX.s:781    .text:0000000000000474 .Letext0
     /tmp/ccM7q2CX.s:3909   .debug_line:0000000000000000 .Ldebug_line0
     /tmp/ccM7q2CX.s:4013   .debug_str:00000000000002eb .LASF0
     /tmp/ccM7q2CX.s:4039   .debug_str:000000000000036c .LASF1
     /tmp/ccM7q2CX.s:4127   .debug_str:0000000000000587 .LASF2
     /tmp/ccM7q2CX.s:4133   .debug_str:00000000000005b4 .LASF4
     /tmp/ccM7q2CX.s:4019   .debug_str:000000000000030e .LASF3
     /tmp/ccM7q2CX.s:3919   .debug_str:0000000000000052 .LASF5
     /tmp/ccM7q2CX.s:4103   .debug_str:00000000000004f4 .LASF6
     /tmp/ccM7q2CX.s:4095   .debug_str:00000000000004c0 .LASF7
     /tmp/ccM7q2CX.s:4029   .debug_str:0000000000000341 .LASF8
     /tmp/ccM7q2CX.s:3991   .debug_str:0000000000000248 .LASF9
     /tmp/ccM7q2CX.s:4001   .debug_str:00000000000002af .LASF10
     /tmp/ccM7q2CX.s:3947   .debug_str:000000000000010a .LASF11
     /tmp/ccM7q2CX.s:3985   .debug_str:0000000000000219 .LASF12
     /tmp/ccM7q2CX.s:3961   .debug_str:0000000000000162 .LASF13
     /tmp/ccM7q2CX.s:3945   .debug_str:00000000000000fa .LASF14
     /tmp/ccM7q2CX.s:4161   .debug_str:000000000000065d .LASF15
     /tmp/ccM7q2CX.s:3979   .debug_str:00000000000001cb .LASF16
     /tmp/ccM7q2CX.s:4149   .debug_str:0000000000000607 .LASF17
     /tmp/ccM7q2CX.s:4109   .debug_str:0000000000000516 .LASF18
     /tmp/ccM7q2CX.s:4021   .debug_str:0000000000000320 .LASF19
     /tmp/ccM7q2CX.s:3977   .debug_str:00000000000001c5 .LASF155
     /tmp/ccM7q2CX.s:4031   .debug_str:0000000000000354 .LASF20
     /tmp/ccM7q2CX.s:3953   .debug_str:0000000000000127 .LASF21
GAS LISTING /tmp/ccM7q2CX.s 			page 23


     /tmp/ccM7q2CX.s:4107   .debug_str:000000000000050e .LASF22
     /tmp/ccM7q2CX.s:3937   .debug_str:00000000000000c3 .LASF23
     /tmp/ccM7q2CX.s:4051   .debug_str:00000000000003b9 .LASF24
     /tmp/ccM7q2CX.s:4169   .debug_str:000000000000068f .LASF156
     /tmp/ccM7q2CX.s:4219   .debug_str:0000000000000871 .LASF25
     /tmp/ccM7q2CX.s:4185   .debug_str:000000000000079f .LASF26
     /tmp/ccM7q2CX.s:4181   .debug_str:00000000000006d3 .LASF157
     /tmp/ccM7q2CX.s:4231   .debug_str:00000000000008a6 .LASF27
     /tmp/ccM7q2CX.s:4215   .debug_str:0000000000000855 .LASF29
     /tmp/ccM7q2CX.s:3943   .debug_str:00000000000000ec .LASF28
     /tmp/ccM7q2CX.s:3983   .debug_str:00000000000001f1 .LASF30
     /tmp/ccM7q2CX.s:4041   .debug_str:000000000000037f .LASF43
     /tmp/ccM7q2CX.s:3927   .debug_str:000000000000008c .LASF45
     /tmp/ccM7q2CX.s:3971   .debug_str:00000000000001a9 .LASF59
     /tmp/ccM7q2CX.s:3955   .debug_str:0000000000000130 .LASF61
     /tmp/ccM7q2CX.s:4139   .debug_str:00000000000005d2 .LASF31
     /tmp/ccM7q2CX.s:4145   .debug_str:00000000000005ea .LASF33
     /tmp/ccM7q2CX.s:4045   .debug_str:000000000000038d .LASF32
     /tmp/ccM7q2CX.s:4203   .debug_str:0000000000000805 .LASF34
     /tmp/ccM7q2CX.s:3921   .debug_str:0000000000000059 .LASF158
     /tmp/ccM7q2CX.s:4047   .debug_str:000000000000039a .LASF159
     /tmp/ccM7q2CX.s:4171   .debug_str:0000000000000697 .LASF35
     /tmp/ccM7q2CX.s:4167   .debug_str:0000000000000679 .LASF36
     /tmp/ccM7q2CX.s:4055   .debug_str:00000000000003d4 .LASF37
     /tmp/ccM7q2CX.s:3963   .debug_str:0000000000000172 .LASF38
     /tmp/ccM7q2CX.s:4135   .debug_str:00000000000005bb .LASF39
     /tmp/ccM7q2CX.s:3917   .debug_str:0000000000000046 .LASF40
     /tmp/ccM7q2CX.s:4237   .debug_str:00000000000008b9 .LASF41
     /tmp/ccM7q2CX.s:3999   .debug_str:00000000000002a3 .LASF42
     /tmp/ccM7q2CX.s:3913   .debug_str:000000000000000e .LASF44
     /tmp/ccM7q2CX.s:4089   .debug_str:0000000000000499 .LASF46
     /tmp/ccM7q2CX.s:4049   .debug_str:00000000000003b0 .LASF47
     /tmp/ccM7q2CX.s:4123   .debug_str:000000000000056a .LASF48
     /tmp/ccM7q2CX.s:3929   .debug_str:00000000000000a1 .LASF49
     /tmp/ccM7q2CX.s:4131   .debug_str:00000000000005a8 .LASF50
     /tmp/ccM7q2CX.s:3975   .debug_str:00000000000001b7 .LASF51
     /tmp/ccM7q2CX.s:4117   .debug_str:0000000000000540 .LASF52
     /tmp/ccM7q2CX.s:3969   .debug_str:00000000000001a1 .LASF53
     /tmp/ccM7q2CX.s:4235   .debug_str:00000000000008b4 .LASF54
     /tmp/ccM7q2CX.s:4143   .debug_str:00000000000005e4 .LASF55
     /tmp/ccM7q2CX.s:4195   .debug_str:00000000000007db .LASF56
     /tmp/ccM7q2CX.s:4071   .debug_str:000000000000043a .LASF57
     /tmp/ccM7q2CX.s:4147   .debug_str:00000000000005fe .LASF58
     /tmp/ccM7q2CX.s:4239   .debug_str:00000000000008c6 .LASF160
     /tmp/ccM7q2CX.s:3965   .debug_str:0000000000000183 .LASF161
     /tmp/ccM7q2CX.s:3915   .debug_str:000000000000001e .LASF162
     /tmp/ccM7q2CX.s:4205   .debug_str:000000000000081e .LASF163
     /tmp/ccM7q2CX.s:3923   .debug_str:0000000000000064 .LASF164
     /tmp/ccM7q2CX.s:4217   .debug_str:0000000000000865 .LASF60
     /tmp/ccM7q2CX.s:4189   .debug_str:00000000000007b2 .LASF62
     /tmp/ccM7q2CX.s:4115   .debug_str:000000000000053b .LASF63
     /tmp/ccM7q2CX.s:3933   .debug_str:00000000000000b6 .LASF64
     /tmp/ccM7q2CX.s:4075   .debug_str:000000000000044d .LASF65
     /tmp/ccM7q2CX.s:4201   .debug_str:0000000000000800 .LASF68
     /tmp/ccM7q2CX.s:4033   .debug_str:000000000000035d .LASF66
     /tmp/ccM7q2CX.s:3949   .debug_str:0000000000000119 .LASF67
     /tmp/ccM7q2CX.s:3925   .debug_str:0000000000000076 .LASF69
GAS LISTING /tmp/ccM7q2CX.s 			page 24


     /tmp/ccM7q2CX.s:4129   .debug_str:0000000000000595 .LASF89
     /tmp/ccM7q2CX.s:4153   .debug_str:000000000000062e .LASF165
     /tmp/ccM7q2CX.s:4035   .debug_str:0000000000000362 .LASF70
     /tmp/ccM7q2CX.s:4087   .debug_str:0000000000000489 .LASF71
     /tmp/ccM7q2CX.s:4155   .debug_str:000000000000063d .LASF72
     /tmp/ccM7q2CX.s:4081   .debug_str:0000000000000467 .LASF73
     /tmp/ccM7q2CX.s:4223   .debug_str:0000000000000880 .LASF74
     /tmp/ccM7q2CX.s:3973   .debug_str:00000000000001b2 .LASF75
     /tmp/ccM7q2CX.s:4015   .debug_str:00000000000002f8 .LASF76
     /tmp/ccM7q2CX.s:4165   .debug_str:0000000000000672 .LASF77
     /tmp/ccM7q2CX.s:4105   .debug_str:00000000000004fb .LASF78
     /tmp/ccM7q2CX.s:3931   .debug_str:00000000000000ac .LASF79
     /tmp/ccM7q2CX.s:3987   .debug_str:0000000000000228 .LASF80
     /tmp/ccM7q2CX.s:4211   .debug_str:0000000000000844 .LASF81
     /tmp/ccM7q2CX.s:3941   .debug_str:00000000000000d8 .LASF82
     /tmp/ccM7q2CX.s:4083   .debug_str:000000000000046c .LASF83
     /tmp/ccM7q2CX.s:4053   .debug_str:00000000000003c1 .LASF84
     /tmp/ccM7q2CX.s:4027   .debug_str:0000000000000339 .LASF85
     /tmp/ccM7q2CX.s:4197   .debug_str:00000000000007e3 .LASF86
     /tmp/ccM7q2CX.s:3993   .debug_str:0000000000000258 .LASF87
     /tmp/ccM7q2CX.s:4157   .debug_str:0000000000000642 .LASF88
     /tmp/ccM7q2CX.s:3939   .debug_str:00000000000000cc .LASF90
     /tmp/ccM7q2CX.s:4011   .debug_str:00000000000002e5 .LASF91
     /tmp/ccM7q2CX.s:3981   .debug_str:00000000000001e1 .LASF92
     /tmp/ccM7q2CX.s:4233   .debug_str:00000000000008ac .LASF93
     /tmp/ccM7q2CX.s:4137   .debug_str:00000000000005c0 .LASF94
     /tmp/ccM7q2CX.s:4007   .debug_str:00000000000002d6 .LASF95
     /tmp/ccM7q2CX.s:4091   .debug_str:00000000000004a6 .LASF96
     /tmp/ccM7q2CX.s:4191   .debug_str:00000000000007c9 .LASF166
     /tmp/ccM7q2CX.s:4243   .debug_str:00000000000008f7 .LASF97
     /tmp/ccM7q2CX.s:3989   .debug_str:000000000000023f .LASF98
     /tmp/ccM7q2CX.s:4175   .debug_str:00000000000006a7 .LASF99
     /tmp/ccM7q2CX.s:4193   .debug_str:00000000000007cf .LASF100
     /tmp/ccM7q2CX.s:3967   .debug_str:0000000000000191 .LASF101
     /tmp/ccM7q2CX.s:3951   .debug_str:000000000000011e .LASF102
     /tmp/ccM7q2CX.s:3957   .debug_str:0000000000000143 .LASF103
     /tmp/ccM7q2CX.s:4077   .debug_str:0000000000000452 .LASF104
     /tmp/ccM7q2CX.s:4177   .debug_str:00000000000006b5 .LASF105
     /tmp/ccM7q2CX.s:4187   .debug_str:00000000000007a4 .LASF106
     /tmp/ccM7q2CX.s:4125   .debug_str:000000000000057b .LASF107
     /tmp/ccM7q2CX.s:4225   .debug_str:0000000000000886 .LASF108
     /tmp/ccM7q2CX.s:4025   .debug_str:0000000000000334 .LASF109
     /tmp/ccM7q2CX.s:4073   .debug_str:0000000000000448 .LASF110
     /tmp/ccM7q2CX.s:4213   .debug_str:000000000000084c .LASF111
     /tmp/ccM7q2CX.s:4063   .debug_str:0000000000000404 .LASF112
     /tmp/ccM7q2CX.s:4163   .debug_str:0000000000000669 .LASF113
     /tmp/ccM7q2CX.s:747    .text:0000000000000438 .LFB48
     /tmp/ccM7q2CX.s:779    .text:0000000000000474 .LFE48
     /tmp/ccM7q2CX.s:3548   .debug_loc:0000000000000000 .LLST17
     /tmp/ccM7q2CX.s:768    .text:0000000000000464 .LVL52
     /tmp/ccM7q2CX.s:4173   .debug_str:00000000000006a2 .LASF114
     /tmp/ccM7q2CX.s:4017   .debug_str:0000000000000309 .LASF115
     /tmp/ccM7q2CX.s:4209   .debug_str:000000000000083b .LASF117
     /tmp/ccM7q2CX.s:698    .text:00000000000003ec .LFB47
     /tmp/ccM7q2CX.s:741    .text:0000000000000438 .LFE47
     /tmp/ccM7q2CX.s:718    .text:0000000000000418 .LVL49
     /tmp/ccM7q2CX.s:4121   .debug_str:000000000000055f .LASF116
GAS LISTING /tmp/ccM7q2CX.s 			page 25


     /tmp/ccM7q2CX.s:4101   .debug_str:00000000000004e4 .LASF118
     /tmp/ccM7q2CX.s:647    .text:00000000000003a0 .LFB46
     /tmp/ccM7q2CX.s:692    .text:00000000000003ec .LFE46
     /tmp/ccM7q2CX.s:4097   .debug_str:00000000000004d3 .LASF119
     /tmp/ccM7q2CX.s:3562   .debug_loc:0000000000000039 .LLST16
     /tmp/ccM7q2CX.s:669    .text:00000000000003cc .LVL48
     /tmp/ccM7q2CX.s:4005   .debug_str:00000000000002cb .LASF120
     /tmp/ccM7q2CX.s:4119   .debug_str:000000000000054b .LASF121
     /tmp/ccM7q2CX.s:596    .text:0000000000000354 .LFB45
     /tmp/ccM7q2CX.s:641    .text:00000000000003a0 .LFE45
     /tmp/ccM7q2CX.s:3580   .debug_loc:0000000000000085 .LLST15
     /tmp/ccM7q2CX.s:618    .text:0000000000000380 .LVL45
     /tmp/ccM7q2CX.s:4099   .debug_str:00000000000004d8 .LASF122
     /tmp/ccM7q2CX.s:4207   .debug_str:0000000000000826 .LASF123
     /tmp/ccM7q2CX.s:545    .text:0000000000000308 .LFB44
     /tmp/ccM7q2CX.s:590    .text:0000000000000354 .LFE44
     /tmp/ccM7q2CX.s:3598   .debug_loc:00000000000000d1 .LLST14
     /tmp/ccM7q2CX.s:567    .text:0000000000000334 .LVL42
     /tmp/ccM7q2CX.s:3911   .debug_str:0000000000000000 .LASF124
     /tmp/ccM7q2CX.s:4085   .debug_str:0000000000000471 .LASF125
     /tmp/ccM7q2CX.s:493    .text:00000000000002bc .LFB43
     /tmp/ccM7q2CX.s:539    .text:0000000000000308 .LFE43
     /tmp/ccM7q2CX.s:3616   .debug_loc:000000000000011d .LLST12
     /tmp/ccM7q2CX.s:4023   .debug_str:000000000000032c .LASF126
     /tmp/ccM7q2CX.s:3634   .debug_loc:0000000000000169 .LLST13
     /tmp/ccM7q2CX.s:516    .text:00000000000002e8 .LVL39
     /tmp/ccM7q2CX.s:4141   .debug_str:00000000000005db .LASF127
     /tmp/ccM7q2CX.s:4057   .debug_str:00000000000003db .LASF128
     /tmp/ccM7q2CX.s:442    .text:0000000000000270 .LFB42
     /tmp/ccM7q2CX.s:487    .text:00000000000002bc .LFE42
     /tmp/ccM7q2CX.s:3652   .debug_loc:00000000000001b5 .LLST11
     /tmp/ccM7q2CX.s:464    .text:000000000000029c .LVL35
     /tmp/ccM7q2CX.s:4111   .debug_str:0000000000000521 .LASF129
     /tmp/ccM7q2CX.s:4093   .debug_str:00000000000004ae .LASF130
     /tmp/ccM7q2CX.s:381    .text:0000000000000218 .LFB41
     /tmp/ccM7q2CX.s:436    .text:0000000000000270 .LFE41
     /tmp/ccM7q2CX.s:4221   .debug_str:0000000000000879 .LASF131
     /tmp/ccM7q2CX.s:3670   .debug_loc:0000000000000201 .LLST10
     /tmp/ccM7q2CX.s:406    .text:0000000000000248 .LVL30
     /tmp/ccM7q2CX.s:4199   .debug_str:00000000000007f7 .LASF132
     /tmp/ccM7q2CX.s:4179   .debug_str:00000000000006c0 .LASF133
     /tmp/ccM7q2CX.s:328    .text:00000000000001c8 .LFB40
     /tmp/ccM7q2CX.s:375    .text:0000000000000218 .LFE40
     /tmp/ccM7q2CX.s:3699   .debug_loc:0000000000000276 .LLST8
     /tmp/ccM7q2CX.s:3935   .debug_str:00000000000000be .LASF134
     /tmp/ccM7q2CX.s:3717   .debug_loc:00000000000002c2 .LLST9
     /tmp/ccM7q2CX.s:352    .text:00000000000001f8 .LVL27
     /tmp/ccM7q2CX.s:4113   .debug_str:000000000000052b .LASF135
     /tmp/ccM7q2CX.s:4069   .debug_str:0000000000000425 .LASF136
     /tmp/ccM7q2CX.s:292    .text:000000000000018c .LFB39
     /tmp/ccM7q2CX.s:322    .text:00000000000001c8 .LFE39
     /tmp/ccM7q2CX.s:311    .text:00000000000001b8 .LVL23
     /tmp/ccM7q2CX.s:4061   .debug_str:00000000000003f8 .LASF137
     /tmp/ccM7q2CX.s:4151   .debug_str:000000000000061d .LASF138
     /tmp/ccM7q2CX.s:243    .text:0000000000000140 .LFB38
     /tmp/ccM7q2CX.s:286    .text:000000000000018c .LFE38
     /tmp/ccM7q2CX.s:263    .text:000000000000016c .LVL22
GAS LISTING /tmp/ccM7q2CX.s 			page 26


     /tmp/ccM7q2CX.s:4159   .debug_str:000000000000064f .LASF139
     /tmp/ccM7q2CX.s:3995   .debug_str:0000000000000264 .LASF140
     /tmp/ccM7q2CX.s:156    .text:00000000000000b8 .LFB37
     /tmp/ccM7q2CX.s:237    .text:0000000000000140 .LFE37
     /tmp/ccM7q2CX.s:3731   .debug_loc:00000000000002fb .LLST4
     /tmp/ccM7q2CX.s:4241   .debug_str:00000000000008e9 .LASF141
     /tmp/ccM7q2CX.s:3753   .debug_loc:000000000000035a .LLST5
     /tmp/ccM7q2CX.s:3775   .debug_loc:00000000000003b9 .LLST6
     /tmp/ccM7q2CX.s:4059   .debug_str:00000000000003ec .LASF142
     /tmp/ccM7q2CX.s:3797   .debug_loc:0000000000000418 .LLST7
     /tmp/ccM7q2CX.s:187    .text:00000000000000f0 .LVL15
     /tmp/ccM7q2CX.s:198    .text:000000000000010c .LVL17
     /tmp/ccM7q2CX.s:4009   .debug_str:00000000000002dc .LASF143
     /tmp/ccM7q2CX.s:4229   .debug_str:0000000000000898 .LASF144
     /tmp/ccM7q2CX.s:105    .text:000000000000006c .LFB36
     /tmp/ccM7q2CX.s:150    .text:00000000000000b8 .LFE36
     /tmp/ccM7q2CX.s:3814   .debug_loc:0000000000000463 .LLST3
     /tmp/ccM7q2CX.s:127    .text:0000000000000098 .LVL11
     /tmp/ccM7q2CX.s:4067   .debug_str:000000000000041b .LASF145
     /tmp/ccM7q2CX.s:4003   .debug_str:00000000000002bd .LASF146
     /tmp/ccM7q2CX.s:42     .text:000000000000001c .LFB35
     /tmp/ccM7q2CX.s:99     .text:000000000000006c .LFE35
     /tmp/ccM7q2CX.s:4037   .debug_str:0000000000000367 .LASF147
     /tmp/ccM7q2CX.s:3832   .debug_loc:00000000000004af .LLST0
     /tmp/ccM7q2CX.s:3863   .debug_loc:0000000000000527 .LLST1
     /tmp/ccM7q2CX.s:4227   .debug_str:0000000000000891 .LASF148
     /tmp/ccM7q2CX.s:3870   .debug_loc:000000000000054a .LLST2
     /tmp/ccM7q2CX.s:72     .text:0000000000000050 .LVL5
     /tmp/ccM7q2CX.s:4079   .debug_str:000000000000045b .LASF149
     /tmp/ccM7q2CX.s:3959   .debug_str:000000000000014d .LASF150
     /tmp/ccM7q2CX.s:10     .text:0000000000000000 .LFB34
     /tmp/ccM7q2CX.s:36     .text:000000000000001c .LFE34
     /tmp/ccM7q2CX.s:4043   .debug_str:0000000000000385 .LASF151
     /tmp/ccM7q2CX.s:750    .text:0000000000000438 .LVL50
     /tmp/ccM7q2CX.s:766    .text:000000000000045c .LVL51
     /tmp/ccM7q2CX.s:650    .text:00000000000003a0 .LVL46
     /tmp/ccM7q2CX.s:667    .text:00000000000003c4 .LVL47
     /tmp/ccM7q2CX.s:599    .text:0000000000000354 .LVL43
     /tmp/ccM7q2CX.s:616    .text:0000000000000378 .LVL44
     /tmp/ccM7q2CX.s:548    .text:0000000000000308 .LVL40
     /tmp/ccM7q2CX.s:565    .text:000000000000032c .LVL41
     /tmp/ccM7q2CX.s:496    .text:00000000000002bc .LVL36
     /tmp/ccM7q2CX.s:514    .text:00000000000002e0 .LVL38
     /tmp/ccM7q2CX.s:512    .text:00000000000002dc .LVL37
     /tmp/ccM7q2CX.s:445    .text:0000000000000270 .LVL33
     /tmp/ccM7q2CX.s:462    .text:0000000000000294 .LVL34
     /tmp/ccM7q2CX.s:384    .text:0000000000000218 .LVL28
     /tmp/ccM7q2CX.s:404    .text:0000000000000240 .LVL29
     /tmp/ccM7q2CX.s:428    .text:0000000000000268 .LVL31
     /tmp/ccM7q2CX.s:432    .text:000000000000026c .LVL32
     /tmp/ccM7q2CX.s:331    .text:00000000000001c8 .LVL24
     /tmp/ccM7q2CX.s:350    .text:00000000000001f0 .LVL26
     /tmp/ccM7q2CX.s:348    .text:00000000000001ec .LVL25
     /tmp/ccM7q2CX.s:159    .text:00000000000000b8 .LVL12
     /tmp/ccM7q2CX.s:185    .text:00000000000000e8 .LVL14
     /tmp/ccM7q2CX.s:223    .text:000000000000012c .LVL19
     /tmp/ccM7q2CX.s:230    .text:0000000000000138 .LVL21
GAS LISTING /tmp/ccM7q2CX.s 			page 27


     /tmp/ccM7q2CX.s:220    .text:0000000000000128 .LVL18
     /tmp/ccM7q2CX.s:226    .text:0000000000000130 .LVL20
     /tmp/ccM7q2CX.s:179    .text:00000000000000e0 .LVL13
     /tmp/ccM7q2CX.s:189    .text:00000000000000f4 .LVL16
     /tmp/ccM7q2CX.s:108    .text:000000000000006c .LVL9
     /tmp/ccM7q2CX.s:125    .text:0000000000000090 .LVL10
     /tmp/ccM7q2CX.s:45     .text:000000000000001c .LVL1
     /tmp/ccM7q2CX.s:61     .text:0000000000000034 .LVL2
     /tmp/ccM7q2CX.s:70     .text:0000000000000048 .LVL4
     /tmp/ccM7q2CX.s:91     .text:0000000000000064 .LVL7
     /tmp/ccM7q2CX.s:95     .text:0000000000000068 .LVL8
     /tmp/ccM7q2CX.s:79     .text:0000000000000054 .LVL6
     /tmp/ccM7q2CX.s:68     .text:0000000000000044 .LVL3
     /tmp/ccM7q2CX.s:789    .debug_info:0000000000000000 .Ldebug_info0

NO UNDEFINED SYMBOLS
