GAS LISTING /tmp/ccGKKNOI.s 			page 1


   1              		.file	"syscall_cpp.cpp"
   2              		.option pic
   3              		.option norelax
   4              		.text
   5              	.Ltext0:
   6              		.section	.text._ZN6Thread3runEv,"axG",@progbits,_ZN6Thread3runEv,comdat
   7              		.align	2
   8              		.weak	_ZN6Thread3runEv
  10              	_ZN6Thread3runEv:
  11              	.LFB0:
  12              		.file 1 "src/../h/syscall_cpp.hpp"
   1:src/../h/syscall_cpp.hpp **** //
   2:src/../h/syscall_cpp.hpp **** // Created by os on 4/6/24.
   3:src/../h/syscall_cpp.hpp **** //
   4:src/../h/syscall_cpp.hpp **** 
   5:src/../h/syscall_cpp.hpp **** #ifndef PROJECT_BASE_SYSCALL_CPP_HPP
   6:src/../h/syscall_cpp.hpp **** #define PROJECT_BASE_SYSCALL_CPP_HPP
   7:src/../h/syscall_cpp.hpp **** 
   8:src/../h/syscall_cpp.hpp **** #include "syscall_c.hpp"
   9:src/../h/syscall_cpp.hpp **** 
  10:src/../h/syscall_cpp.hpp **** void* operator new    (size_t);
  11:src/../h/syscall_cpp.hpp **** void* operator new[]  (size_t);
  12:src/../h/syscall_cpp.hpp **** void  operator delete (void*) noexcept;
  13:src/../h/syscall_cpp.hpp **** void  operator delete[](void*)noexcept;
  14:src/../h/syscall_cpp.hpp **** 
  15:src/../h/syscall_cpp.hpp **** class Thread {
  16:src/../h/syscall_cpp.hpp **** 
  17:src/../h/syscall_cpp.hpp **** public:
  18:src/../h/syscall_cpp.hpp **** 
  19:src/../h/syscall_cpp.hpp ****     Thread (void (*body)(void*), void* arg);
  20:src/../h/syscall_cpp.hpp ****     virtual ~Thread ();
  21:src/../h/syscall_cpp.hpp ****     int start ();
  22:src/../h/syscall_cpp.hpp ****     static void dispatch ();
  23:src/../h/syscall_cpp.hpp ****     static int sleep (time_t);
  24:src/../h/syscall_cpp.hpp **** 
  25:src/../h/syscall_cpp.hpp **** protected:
  26:src/../h/syscall_cpp.hpp ****     Thread ();
  27:src/../h/syscall_cpp.hpp ****     virtual void run () {};
  13              		.loc 1 27 18
  14              		.cfi_startproc
  15              	.LVL0:
  16 0000 130101FF 		addi	sp,sp,-16
  17              		.cfi_def_cfa_offset 16
  18 0004 23348100 		sd	s0,8(sp)
  19              		.cfi_offset 8, -8
  20 0008 13040101 		addi	s0,sp,16
  21              		.cfi_def_cfa 8, 0
  22              		.loc 1 27 26 is_stmt 0
  23 000c 03348100 		ld	s0,8(sp)
  24              		.cfi_restore 8
  25              		.cfi_def_cfa 2, 16
  26 0010 13010101 		addi	sp,sp,16
  27              		.cfi_def_cfa_offset 0
  28 0014 67800000 		jr	ra
  29              		.cfi_endproc
  30              	.LFE0:
  32              		.section	.text._ZN14PeriodicThread18periodicActivationEv,"axG",@progbits,_ZN14PeriodicThread18peri
GAS LISTING /tmp/ccGKKNOI.s 			page 2


  33              		.align	2
  34              		.weak	_ZN14PeriodicThread18periodicActivationEv
  36              	_ZN14PeriodicThread18periodicActivationEv:
  37              	.LFB1:
  28:src/../h/syscall_cpp.hpp **** 
  29:src/../h/syscall_cpp.hpp **** private:
  30:src/../h/syscall_cpp.hpp ****     thread_t myHandle{};
  31:src/../h/syscall_cpp.hpp ****     void (*body)(void*);
  32:src/../h/syscall_cpp.hpp ****     void* arg;
  33:src/../h/syscall_cpp.hpp ****     static void wrapper(void*);
  34:src/../h/syscall_cpp.hpp **** 
  35:src/../h/syscall_cpp.hpp **** };
  36:src/../h/syscall_cpp.hpp **** 
  37:src/../h/syscall_cpp.hpp **** 
  38:src/../h/syscall_cpp.hpp **** class Semaphore {
  39:src/../h/syscall_cpp.hpp **** public:
  40:src/../h/syscall_cpp.hpp ****     Semaphore (unsigned init = 1);
  41:src/../h/syscall_cpp.hpp ****     virtual ~Semaphore ();
  42:src/../h/syscall_cpp.hpp ****     int wait ();
  43:src/../h/syscall_cpp.hpp ****     int signal ();
  44:src/../h/syscall_cpp.hpp ****     int timedWait (time_t);
  45:src/../h/syscall_cpp.hpp ****     int tryWait();
  46:src/../h/syscall_cpp.hpp **** private:
  47:src/../h/syscall_cpp.hpp ****     sem_t myHandle;
  48:src/../h/syscall_cpp.hpp **** };
  49:src/../h/syscall_cpp.hpp **** 
  50:src/../h/syscall_cpp.hpp **** 
  51:src/../h/syscall_cpp.hpp **** class PeriodicThread : public Thread {
  52:src/../h/syscall_cpp.hpp **** public:
  53:src/../h/syscall_cpp.hpp ****     void terminate ();
  54:src/../h/syscall_cpp.hpp **** protected:
  55:src/../h/syscall_cpp.hpp ****     PeriodicThread (time_t period);
  56:src/../h/syscall_cpp.hpp ****     virtual void periodicActivation () {}
  38              		.loc 1 56 18 is_stmt 1
  39              		.cfi_startproc
  40              	.LVL1:
  41 0000 130101FF 		addi	sp,sp,-16
  42              		.cfi_def_cfa_offset 16
  43 0004 23348100 		sd	s0,8(sp)
  44              		.cfi_offset 8, -8
  45 0008 13040101 		addi	s0,sp,16
  46              		.cfi_def_cfa 8, 0
  47              		.loc 1 56 41 is_stmt 0
  48 000c 03348100 		ld	s0,8(sp)
  49              		.cfi_restore 8
  50              		.cfi_def_cfa 2, 16
  51 0010 13010101 		addi	sp,sp,16
  52              		.cfi_def_cfa_offset 0
  53 0014 67800000 		jr	ra
  54              		.cfi_endproc
  55              	.LFE1:
  57              		.text
  58              		.align	2
  59              		.globl	_ZN6Thread7wrapperEPv
  61              	_ZN6Thread7wrapperEPv:
  62              	.LFB19:
  63              		.file 2 "src/syscall_cpp.cpp"
GAS LISTING /tmp/ccGKKNOI.s 			page 3


   1:src/syscall_cpp.cpp **** #include "../h/syscall_cpp.hpp"
   2:src/syscall_cpp.cpp **** #include "../h/Memoryallocator.hpp"
   3:src/syscall_cpp.cpp **** 
   4:src/syscall_cpp.cpp **** void* operator new (size_t size) {
   5:src/syscall_cpp.cpp ****     // operator new prosledjuje bajtove
   6:src/syscall_cpp.cpp ****     return mem_alloc(size);
   7:src/syscall_cpp.cpp **** }
   8:src/syscall_cpp.cpp **** 
   9:src/syscall_cpp.cpp **** void* operator new[](size_t size) {
  10:src/syscall_cpp.cpp ****     // operator new prosledjuje bajtove
  11:src/syscall_cpp.cpp ****     return mem_alloc(size);
  12:src/syscall_cpp.cpp **** }
  13:src/syscall_cpp.cpp **** 
  14:src/syscall_cpp.cpp **** void operator delete[](void* ptr) noexcept {
  15:src/syscall_cpp.cpp ****      mem_free(ptr);
  16:src/syscall_cpp.cpp **** }
  17:src/syscall_cpp.cpp **** 
  18:src/syscall_cpp.cpp **** void operator delete(void *ptr) noexcept {
  19:src/syscall_cpp.cpp ****     mem_free(ptr);
  20:src/syscall_cpp.cpp **** }
  21:src/syscall_cpp.cpp **** 
  22:src/syscall_cpp.cpp **** Thread::Thread(void (*body)(void *), void *arg) {
  23:src/syscall_cpp.cpp ****     this->body = body;
  24:src/syscall_cpp.cpp ****     this->arg = arg;
  25:src/syscall_cpp.cpp ****     this->myHandle = nullptr;
  26:src/syscall_cpp.cpp **** }
  27:src/syscall_cpp.cpp **** 
  28:src/syscall_cpp.cpp **** Thread::Thread() {
  29:src/syscall_cpp.cpp ****     this->body = wrapper;
  30:src/syscall_cpp.cpp ****     this->arg  = (void*) this;
  31:src/syscall_cpp.cpp ****     this->myHandle = nullptr;
  32:src/syscall_cpp.cpp **** }
  33:src/syscall_cpp.cpp **** 
  34:src/syscall_cpp.cpp **** Thread::~Thread() {
  35:src/syscall_cpp.cpp ****     delete &this->myHandle;
  36:src/syscall_cpp.cpp **** }
  37:src/syscall_cpp.cpp **** 
  38:src/syscall_cpp.cpp **** int Thread::sleep(time_t time) {
  39:src/syscall_cpp.cpp ****     return time_sleep(time);
  40:src/syscall_cpp.cpp **** }
  41:src/syscall_cpp.cpp **** 
  42:src/syscall_cpp.cpp **** void Thread::dispatch() {
  43:src/syscall_cpp.cpp ****     thread_dispatch();
  44:src/syscall_cpp.cpp **** }
  45:src/syscall_cpp.cpp **** 
  46:src/syscall_cpp.cpp **** int Thread::start() {
  47:src/syscall_cpp.cpp ****     return thread_create(&myHandle, this->body, this->arg);
  48:src/syscall_cpp.cpp **** }
  49:src/syscall_cpp.cpp **** 
  50:src/syscall_cpp.cpp **** void Thread::wrapper(void *arg) {
  64              		.loc 2 50 33 is_stmt 1
  65              		.cfi_startproc
  66              	.LVL2:
  67 0000 130101FF 		addi	sp,sp,-16
  68              		.cfi_def_cfa_offset 16
  69 0004 23341100 		sd	ra,8(sp)
  70 0008 23308100 		sd	s0,0(sp)
GAS LISTING /tmp/ccGKKNOI.s 			page 4


  71              		.cfi_offset 1, -8
  72              		.cfi_offset 8, -16
  73 000c 13040101 		addi	s0,sp,16
  74              		.cfi_def_cfa 8, 0
  51:src/syscall_cpp.cpp ****     auto* t = (Thread*) arg;
  75              		.loc 2 51 5
  76              	.LVL3:
  52:src/syscall_cpp.cpp ****     t->run();
  77              		.loc 2 52 5
  78              		.loc 2 52 12 is_stmt 0
  79 0010 83370500 		ld	a5,0(a0)
  80 0014 83B70701 		ld	a5,16(a5)
  81              		.loc 2 52 11
  82 0018 E7800700 		jalr	a5
  83              	.LVL4:
  53:src/syscall_cpp.cpp **** }
  84              		.loc 2 53 1
  85 001c 83308100 		ld	ra,8(sp)
  86              		.cfi_restore 1
  87 0020 03340100 		ld	s0,0(sp)
  88              		.cfi_restore 8
  89              		.cfi_def_cfa 2, 16
  90 0024 13010101 		addi	sp,sp,16
  91              		.cfi_def_cfa_offset 0
  92 0028 67800000 		jr	ra
  93              		.cfi_endproc
  94              	.LFE19:
  96              		.align	2
  97              		.globl	_ZN14PeriodicThread3runEv
  99              	_ZN14PeriodicThread3runEv:
 100              	.LFB37:
  54:src/syscall_cpp.cpp **** 
  55:src/syscall_cpp.cpp **** Semaphore::Semaphore(unsigned int init) : myHandle(nullptr) {
  56:src/syscall_cpp.cpp ****     sem_open(&myHandle, init);
  57:src/syscall_cpp.cpp **** }
  58:src/syscall_cpp.cpp **** 
  59:src/syscall_cpp.cpp **** Semaphore::~Semaphore() {
  60:src/syscall_cpp.cpp ****     if (myHandle) sem_close(myHandle);
  61:src/syscall_cpp.cpp **** }
  62:src/syscall_cpp.cpp **** 
  63:src/syscall_cpp.cpp **** int Semaphore::wait() {
  64:src/syscall_cpp.cpp ****     if (myHandle) return sem_wait(myHandle);
  65:src/syscall_cpp.cpp ****     return -1;
  66:src/syscall_cpp.cpp **** }
  67:src/syscall_cpp.cpp **** 
  68:src/syscall_cpp.cpp **** int Semaphore::signal() {
  69:src/syscall_cpp.cpp ****     if (myHandle) return sem_signal(myHandle);
  70:src/syscall_cpp.cpp ****     return -1;
  71:src/syscall_cpp.cpp **** }
  72:src/syscall_cpp.cpp **** 
  73:src/syscall_cpp.cpp **** int Semaphore::timedWait(time_t time) {
  74:src/syscall_cpp.cpp ****     if (myHandle && time) return sem_timedwait(myHandle, time);
  75:src/syscall_cpp.cpp ****     return -1;
  76:src/syscall_cpp.cpp **** }
  77:src/syscall_cpp.cpp **** 
  78:src/syscall_cpp.cpp **** int Semaphore::tryWait() {
  79:src/syscall_cpp.cpp ****     if (myHandle) return sem_trywait(myHandle);
GAS LISTING /tmp/ccGKKNOI.s 			page 5


  80:src/syscall_cpp.cpp ****     return -1;
  81:src/syscall_cpp.cpp **** }
  82:src/syscall_cpp.cpp **** 
  83:src/syscall_cpp.cpp **** char Console::getc() {
  84:src/syscall_cpp.cpp ****     return ::getc();
  85:src/syscall_cpp.cpp **** }
  86:src/syscall_cpp.cpp **** 
  87:src/syscall_cpp.cpp **** void Console::putc(char c) {
  88:src/syscall_cpp.cpp ****     ::putc(c);
  89:src/syscall_cpp.cpp **** }
  90:src/syscall_cpp.cpp **** 
  91:src/syscall_cpp.cpp **** PeriodicThread::PeriodicThread(time_t period) : period(period) {}
  92:src/syscall_cpp.cpp **** 
  93:src/syscall_cpp.cpp **** void PeriodicThread::terminate() {
  94:src/syscall_cpp.cpp ****     thread_exit();
  95:src/syscall_cpp.cpp **** }
  96:src/syscall_cpp.cpp **** 
  97:src/syscall_cpp.cpp **** void PeriodicThread::run() {
 101              		.loc 2 97 28 is_stmt 1
 102              		.cfi_startproc
 103              	.LVL5:
 104 002c 130101FE 		addi	sp,sp,-32
 105              		.cfi_def_cfa_offset 32
 106 0030 233C1100 		sd	ra,24(sp)
 107 0034 23388100 		sd	s0,16(sp)
 108 0038 23349100 		sd	s1,8(sp)
 109              		.cfi_offset 1, -8
 110              		.cfi_offset 8, -16
 111              		.cfi_offset 9, -24
 112 003c 13040102 		addi	s0,sp,32
 113              		.cfi_def_cfa 8, 0
 114 0040 93040500 		mv	s1,a0
 115              	.LVL6:
 116              	.L8:
  98:src/syscall_cpp.cpp ****     while (true) {
 117              		.loc 2 98 5 discriminator 1
  99:src/syscall_cpp.cpp ****         periodicActivation();
 118              		.loc 2 99 9 discriminator 1
 119              		.loc 2 99 28 is_stmt 0 discriminator 1
 120 0044 83B70400 		ld	a5,0(s1)
 121 0048 83B78701 		ld	a5,24(a5)
 122              		.loc 2 99 27 discriminator 1
 123 004c 13850400 		mv	a0,s1
 124 0050 E7800700 		jalr	a5
 125              	.LVL7:
 100:src/syscall_cpp.cpp ****         time_sleep(period);
 126              		.loc 2 100 9 is_stmt 1 discriminator 1
 127              		.loc 2 100 19 is_stmt 0 discriminator 1
 128 0054 03B50402 		ld	a0,32(s1)
 129 0058 97000000 		call	_Z10time_sleepm@plt
 129      E7800000 
 130              	.LVL8:
  98:src/syscall_cpp.cpp ****     while (true) {
 131              		.loc 2 98 5 is_stmt 1 discriminator 1
 132 0060 6FF05FFE 		j	.L8
 133              		.cfi_endproc
 134              	.LFE37:
GAS LISTING /tmp/ccGKKNOI.s 			page 6


 136              		.align	2
 137              		.globl	_ZN9SemaphoreD2Ev
 139              	_ZN9SemaphoreD2Ev:
 140              	.LFB24:
  59:src/syscall_cpp.cpp ****     if (myHandle) sem_close(myHandle);
 141              		.loc 2 59 1
 142              		.cfi_startproc
 143              		.cfi_personality 0x9b,DW.ref.__gxx_personality_v0
 144              		.cfi_lsda 0x1b,.LLSDA24
 145              	.LVL9:
 146              	.LBB5:
  59:src/syscall_cpp.cpp ****     if (myHandle) sem_close(myHandle);
 147              		.loc 2 59 23 is_stmt 0
 148 0064 97070000 		lla	a5,_ZTV9Semaphore+16
 148      93870700 
 149 006c 2330F500 		sd	a5,0(a0)
  60:src/syscall_cpp.cpp **** }
 150              		.loc 2 60 5 is_stmt 1
  60:src/syscall_cpp.cpp **** }
 151              		.loc 2 60 9 is_stmt 0
 152 0070 03358500 		ld	a0,8(a0)
 153              	.LVL10:
  60:src/syscall_cpp.cpp **** }
 154              		.loc 2 60 5
 155 0074 63060502 		beqz	a0,.L13
 156              	.LBE5:
  59:src/syscall_cpp.cpp ****     if (myHandle) sem_close(myHandle);
 157              		.loc 2 59 1 discriminator 1
 158 0078 130101FF 		addi	sp,sp,-16
 159              		.cfi_def_cfa_offset 16
 160 007c 23341100 		sd	ra,8(sp)
 161 0080 23308100 		sd	s0,0(sp)
 162              		.cfi_offset 1, -8
 163              		.cfi_offset 8, -16
 164 0084 13040101 		addi	s0,sp,16
 165              		.cfi_def_cfa 8, 0
 166              	.LBB6:
  60:src/syscall_cpp.cpp **** }
 167              		.loc 2 60 19 is_stmt 1 discriminator 1
  60:src/syscall_cpp.cpp **** }
 168              		.loc 2 60 28 is_stmt 0 discriminator 1
 169 0088 97000000 		call	_Z9sem_closeP3Sem@plt
 169      E7800000 
 170              	.LVL11:
 171              	.LBE6:
  61:src/syscall_cpp.cpp **** 
 172              		.loc 2 61 1 discriminator 1
 173 0090 83308100 		ld	ra,8(sp)
 174              		.cfi_restore 1
 175 0094 03340100 		ld	s0,0(sp)
 176              		.cfi_restore 8
 177              		.cfi_def_cfa 2, 16
 178 0098 13010101 		addi	sp,sp,16
 179              		.cfi_def_cfa_offset 0
 180 009c 67800000 		jr	ra
 181              	.L13:
 182 00a0 67800000 		ret
GAS LISTING /tmp/ccGKKNOI.s 			page 7


 183              		.cfi_endproc
 184              	.LFE24:
 185              		.globl	__gxx_personality_v0
 186              		.section	.gcc_except_table,"a",@progbits
 187              	.LLSDA24:
 188 0000 FF       		.byte	0xff
 189 0001 FF       		.byte	0xff
 190 0002 03       		.byte	0x3
 191 0003 00       		.byte	0
 192              		.text
 194              		.globl	_ZN9SemaphoreD1Ev
 195              		.set	_ZN9SemaphoreD1Ev,_ZN9SemaphoreD2Ev
 196              		.align	2
 197              		.globl	_Znwm
 199              	_Znwm:
 200              	.LFB2:
   4:src/syscall_cpp.cpp ****     // operator new prosledjuje bajtove
 201              		.loc 2 4 34 is_stmt 1
 202              		.cfi_startproc
 203              	.LVL12:
 204 00a4 130101FF 		addi	sp,sp,-16
 205              		.cfi_def_cfa_offset 16
 206 00a8 23341100 		sd	ra,8(sp)
 207 00ac 23308100 		sd	s0,0(sp)
 208              		.cfi_offset 1, -8
 209              		.cfi_offset 8, -16
 210 00b0 13040101 		addi	s0,sp,16
 211              		.cfi_def_cfa 8, 0
   6:src/syscall_cpp.cpp **** }
 212              		.loc 2 6 5
   6:src/syscall_cpp.cpp **** }
 213              		.loc 2 6 21 is_stmt 0
 214 00b4 97000000 		call	_Z9mem_allocm@plt
 214      E7800000 
 215              	.LVL13:
   7:src/syscall_cpp.cpp **** 
 216              		.loc 2 7 1
 217 00bc 83308100 		ld	ra,8(sp)
 218              		.cfi_restore 1
 219 00c0 03340100 		ld	s0,0(sp)
 220              		.cfi_restore 8
 221              		.cfi_def_cfa 2, 16
 222 00c4 13010101 		addi	sp,sp,16
 223              		.cfi_def_cfa_offset 0
 224 00c8 67800000 		jr	ra
 225              		.cfi_endproc
 226              	.LFE2:
 228              		.align	2
 229              		.globl	_Znam
 231              	_Znam:
 232              	.LFB3:
   9:src/syscall_cpp.cpp ****     // operator new prosledjuje bajtove
 233              		.loc 2 9 35 is_stmt 1
 234              		.cfi_startproc
 235              	.LVL14:
 236 00cc 130101FF 		addi	sp,sp,-16
 237              		.cfi_def_cfa_offset 16
GAS LISTING /tmp/ccGKKNOI.s 			page 8


 238 00d0 23341100 		sd	ra,8(sp)
 239 00d4 23308100 		sd	s0,0(sp)
 240              		.cfi_offset 1, -8
 241              		.cfi_offset 8, -16
 242 00d8 13040101 		addi	s0,sp,16
 243              		.cfi_def_cfa 8, 0
  11:src/syscall_cpp.cpp **** }
 244              		.loc 2 11 5
  11:src/syscall_cpp.cpp **** }
 245              		.loc 2 11 21 is_stmt 0
 246 00dc 97000000 		call	_Z9mem_allocm@plt
 246      E7800000 
 247              	.LVL15:
  12:src/syscall_cpp.cpp **** 
 248              		.loc 2 12 1
 249 00e4 83308100 		ld	ra,8(sp)
 250              		.cfi_restore 1
 251 00e8 03340100 		ld	s0,0(sp)
 252              		.cfi_restore 8
 253              		.cfi_def_cfa 2, 16
 254 00ec 13010101 		addi	sp,sp,16
 255              		.cfi_def_cfa_offset 0
 256 00f0 67800000 		jr	ra
 257              		.cfi_endproc
 258              	.LFE3:
 260              		.align	2
 261              		.globl	_ZdaPv
 263              	_ZdaPv:
 264              	.LFB4:
  14:src/syscall_cpp.cpp ****      mem_free(ptr);
 265              		.loc 2 14 44 is_stmt 1
 266              		.cfi_startproc
 267              		.cfi_personality 0x9b,DW.ref.__gxx_personality_v0
 268              		.cfi_lsda 0x1b,.LLSDA4
 269              	.LVL16:
 270 00f4 130101FF 		addi	sp,sp,-16
 271              		.cfi_def_cfa_offset 16
 272 00f8 23341100 		sd	ra,8(sp)
 273 00fc 23308100 		sd	s0,0(sp)
 274              		.cfi_offset 1, -8
 275              		.cfi_offset 8, -16
 276 0100 13040101 		addi	s0,sp,16
 277              		.cfi_def_cfa 8, 0
  15:src/syscall_cpp.cpp **** }
 278              		.loc 2 15 6
  15:src/syscall_cpp.cpp **** }
 279              		.loc 2 15 14 is_stmt 0
 280 0104 97000000 		call	_Z8mem_freePv@plt
 280      E7800000 
 281              	.LVL17:
  16:src/syscall_cpp.cpp **** 
 282              		.loc 2 16 1
 283 010c 83308100 		ld	ra,8(sp)
 284              		.cfi_restore 1
 285 0110 03340100 		ld	s0,0(sp)
 286              		.cfi_restore 8
 287              		.cfi_def_cfa 2, 16
GAS LISTING /tmp/ccGKKNOI.s 			page 9


 288 0114 13010101 		addi	sp,sp,16
 289              		.cfi_def_cfa_offset 0
 290 0118 67800000 		jr	ra
 291              		.cfi_endproc
 292              	.LFE4:
 293              		.section	.gcc_except_table
 294              	.LLSDA4:
 295 0004 FF       		.byte	0xff
 296 0005 FF       		.byte	0xff
 297 0006 03       		.byte	0x3
 298 0007 00       		.byte	0
 299              		.text
 301              		.align	2
 302              		.globl	_ZdlPv
 304              	_ZdlPv:
 305              	.LFB5:
  18:src/syscall_cpp.cpp ****     mem_free(ptr);
 306              		.loc 2 18 42 is_stmt 1
 307              		.cfi_startproc
 308              		.cfi_personality 0x9b,DW.ref.__gxx_personality_v0
 309              		.cfi_lsda 0x1b,.LLSDA5
 310              	.LVL18:
 311 011c 130101FF 		addi	sp,sp,-16
 312              		.cfi_def_cfa_offset 16
 313 0120 23341100 		sd	ra,8(sp)
 314 0124 23308100 		sd	s0,0(sp)
 315              		.cfi_offset 1, -8
 316              		.cfi_offset 8, -16
 317 0128 13040101 		addi	s0,sp,16
 318              		.cfi_def_cfa 8, 0
  19:src/syscall_cpp.cpp **** }
 319              		.loc 2 19 5
  19:src/syscall_cpp.cpp **** }
 320              		.loc 2 19 13 is_stmt 0
 321 012c 97000000 		call	_Z8mem_freePv@plt
 321      E7800000 
 322              	.LVL19:
  20:src/syscall_cpp.cpp **** 
 323              		.loc 2 20 1
 324 0134 83308100 		ld	ra,8(sp)
 325              		.cfi_restore 1
 326 0138 03340100 		ld	s0,0(sp)
 327              		.cfi_restore 8
 328              		.cfi_def_cfa 2, 16
 329 013c 13010101 		addi	sp,sp,16
 330              		.cfi_def_cfa_offset 0
 331 0140 67800000 		jr	ra
 332              		.cfi_endproc
 333              	.LFE5:
 334              		.section	.gcc_except_table
 335              	.LLSDA5:
 336 0008 FF       		.byte	0xff
 337 0009 FF       		.byte	0xff
 338 000a 03       		.byte	0x3
 339 000b 00       		.byte	0
 340              		.text
 342              		.align	2
GAS LISTING /tmp/ccGKKNOI.s 			page 10


 343              		.globl	_ZN6ThreadD2Ev
 345              	_ZN6ThreadD2Ev:
 346              	.LFB13:
  34:src/syscall_cpp.cpp ****     delete &this->myHandle;
 347              		.loc 2 34 1 is_stmt 1
 348              		.cfi_startproc
 349              	.LVL20:
 350              	.LBB7:
  34:src/syscall_cpp.cpp ****     delete &this->myHandle;
 351              		.loc 2 34 17 is_stmt 0
 352 0144 97070000 		lla	a5,_ZTV6Thread+16
 352      93870700 
 353 014c 2330F500 		sd	a5,0(a0)
  35:src/syscall_cpp.cpp **** }
 354              		.loc 2 35 5 is_stmt 1
  35:src/syscall_cpp.cpp **** }
 355              		.loc 2 35 12 is_stmt 0
 356 0150 13058500 		addi	a0,a0,8
 357              	.LVL21:
  35:src/syscall_cpp.cpp **** }
 358              		.loc 2 35 27
 359 0154 63060502 		beqz	a0,.L27
 360              	.LBE7:
  34:src/syscall_cpp.cpp ****     delete &this->myHandle;
 361              		.loc 2 34 1 discriminator 1
 362 0158 130101FF 		addi	sp,sp,-16
 363              		.cfi_def_cfa_offset 16
 364 015c 23341100 		sd	ra,8(sp)
 365 0160 23308100 		sd	s0,0(sp)
 366              		.cfi_offset 1, -8
 367              		.cfi_offset 8, -16
 368 0164 13040101 		addi	s0,sp,16
 369              		.cfi_def_cfa 8, 0
 370              	.LBB8:
  35:src/syscall_cpp.cpp **** }
 371              		.loc 2 35 19 discriminator 1
 372 0168 97000000 		call	_ZdlPv
 372      E7800000 
 373              	.LVL22:
 374              	.LBE8:
  36:src/syscall_cpp.cpp **** 
 375              		.loc 2 36 1 discriminator 1
 376 0170 83308100 		ld	ra,8(sp)
 377              		.cfi_restore 1
 378 0174 03340100 		ld	s0,0(sp)
 379              		.cfi_restore 8
 380              		.cfi_def_cfa 2, 16
 381 0178 13010101 		addi	sp,sp,16
 382              		.cfi_def_cfa_offset 0
 383 017c 67800000 		jr	ra
 384              	.L27:
 385 0180 67800000 		ret
 386              		.cfi_endproc
 387              	.LFE13:
 389              		.globl	_ZN6ThreadD1Ev
 390              		.set	_ZN6ThreadD1Ev,_ZN6ThreadD2Ev
 391              		.section	.text._ZN14PeriodicThreadD2Ev,"axG",@progbits,_ZN14PeriodicThreadD5Ev,comdat
GAS LISTING /tmp/ccGKKNOI.s 			page 11


 392              		.align	2
 393              		.weak	_ZN14PeriodicThreadD2Ev
 395              	_ZN14PeriodicThreadD2Ev:
 396              	.LFB39:
  51:src/../h/syscall_cpp.hpp **** public:
 397              		.loc 1 51 7 is_stmt 1
 398              		.cfi_startproc
 399              	.LVL23:
 400 0000 130101FF 		addi	sp,sp,-16
 401              		.cfi_def_cfa_offset 16
 402 0004 23341100 		sd	ra,8(sp)
 403 0008 23308100 		sd	s0,0(sp)
 404              		.cfi_offset 1, -8
 405              		.cfi_offset 8, -16
 406 000c 13040101 		addi	s0,sp,16
 407              		.cfi_def_cfa 8, 0
 408              	.LBB9:
  51:src/../h/syscall_cpp.hpp **** public:
 409              		.loc 1 51 7 is_stmt 0
 410 0010 97070000 		lla	a5,_ZTV14PeriodicThread+16
 410      93870700 
 411 0018 2330F500 		sd	a5,0(a0)
 412 001c 97000000 		call	_ZN6ThreadD2Ev
 412      E7800000 
 413              	.LVL24:
 414              	.LBE9:
 415 0024 83308100 		ld	ra,8(sp)
 416              		.cfi_restore 1
 417 0028 03340100 		ld	s0,0(sp)
 418              		.cfi_restore 8
 419              		.cfi_def_cfa 2, 16
 420 002c 13010101 		addi	sp,sp,16
 421              		.cfi_def_cfa_offset 0
 422 0030 67800000 		jr	ra
 423              		.cfi_endproc
 424              	.LFE39:
 426              		.weak	_ZN14PeriodicThreadD1Ev
 427              		.set	_ZN14PeriodicThreadD1Ev,_ZN14PeriodicThreadD2Ev
 428              		.text
 429              		.align	2
 430              		.globl	_ZN6ThreadD0Ev
 432              	_ZN6ThreadD0Ev:
 433              	.LFB15:
  34:src/syscall_cpp.cpp ****     delete &this->myHandle;
 434              		.loc 2 34 1 is_stmt 1
 435              		.cfi_startproc
 436              	.LVL25:
 437 0184 130101FE 		addi	sp,sp,-32
 438              		.cfi_def_cfa_offset 32
 439 0188 233C1100 		sd	ra,24(sp)
 440 018c 23388100 		sd	s0,16(sp)
 441 0190 23349100 		sd	s1,8(sp)
 442              		.cfi_offset 1, -8
 443              		.cfi_offset 8, -16
 444              		.cfi_offset 9, -24
 445 0194 13040102 		addi	s0,sp,32
 446              		.cfi_def_cfa 8, 0
GAS LISTING /tmp/ccGKKNOI.s 			page 12


 447 0198 93040500 		mv	s1,a0
  36:src/syscall_cpp.cpp **** 
 448              		.loc 2 36 1 is_stmt 0
 449 019c 97000000 		call	_ZN6ThreadD1Ev
 449      E7800000 
 450              	.LVL26:
 451 01a4 13850400 		mv	a0,s1
 452 01a8 97000000 		call	_ZdlPv
 452      E7800000 
 453              	.LVL27:
 454 01b0 83308101 		ld	ra,24(sp)
 455              		.cfi_restore 1
 456 01b4 03340101 		ld	s0,16(sp)
 457              		.cfi_restore 8
 458              		.cfi_def_cfa 2, 32
 459 01b8 83348100 		ld	s1,8(sp)
 460              		.cfi_restore 9
 461              	.LVL28:
 462 01bc 13010102 		addi	sp,sp,32
 463              		.cfi_def_cfa_offset 0
 464 01c0 67800000 		jr	ra
 465              		.cfi_endproc
 466              	.LFE15:
 468              		.align	2
 469              		.globl	_ZN9SemaphoreD0Ev
 471              	_ZN9SemaphoreD0Ev:
 472              	.LFB26:
  59:src/syscall_cpp.cpp ****     if (myHandle) sem_close(myHandle);
 473              		.loc 2 59 1 is_stmt 1
 474              		.cfi_startproc
 475              	.LVL29:
 476 01c4 130101FE 		addi	sp,sp,-32
 477              		.cfi_def_cfa_offset 32
 478 01c8 233C1100 		sd	ra,24(sp)
 479 01cc 23388100 		sd	s0,16(sp)
 480 01d0 23349100 		sd	s1,8(sp)
 481              		.cfi_offset 1, -8
 482              		.cfi_offset 8, -16
 483              		.cfi_offset 9, -24
 484 01d4 13040102 		addi	s0,sp,32
 485              		.cfi_def_cfa 8, 0
 486 01d8 93040500 		mv	s1,a0
  61:src/syscall_cpp.cpp **** 
 487              		.loc 2 61 1 is_stmt 0
 488 01dc 97000000 		call	_ZN9SemaphoreD1Ev
 488      E7800000 
 489              	.LVL30:
 490 01e4 13850400 		mv	a0,s1
 491 01e8 97000000 		call	_ZdlPv
 491      E7800000 
 492              	.LVL31:
 493 01f0 83308101 		ld	ra,24(sp)
 494              		.cfi_restore 1
 495 01f4 03340101 		ld	s0,16(sp)
 496              		.cfi_restore 8
 497              		.cfi_def_cfa 2, 32
 498 01f8 83348100 		ld	s1,8(sp)
GAS LISTING /tmp/ccGKKNOI.s 			page 13


 499              		.cfi_restore 9
 500              	.LVL32:
 501 01fc 13010102 		addi	sp,sp,32
 502              		.cfi_def_cfa_offset 0
 503 0200 67800000 		jr	ra
 504              		.cfi_endproc
 505              	.LFE26:
 507              		.section	.text._ZN14PeriodicThreadD0Ev,"axG",@progbits,_ZN14PeriodicThreadD5Ev,comdat
 508              		.align	2
 509              		.weak	_ZN14PeriodicThreadD0Ev
 511              	_ZN14PeriodicThreadD0Ev:
 512              	.LFB41:
  51:src/../h/syscall_cpp.hpp **** public:
 513              		.loc 1 51 7 is_stmt 1
 514              		.cfi_startproc
 515              	.LVL33:
 516 0000 130101FE 		addi	sp,sp,-32
 517              		.cfi_def_cfa_offset 32
 518 0004 233C1100 		sd	ra,24(sp)
 519 0008 23388100 		sd	s0,16(sp)
 520 000c 23349100 		sd	s1,8(sp)
 521              		.cfi_offset 1, -8
 522              		.cfi_offset 8, -16
 523              		.cfi_offset 9, -24
 524 0010 13040102 		addi	s0,sp,32
 525              		.cfi_def_cfa 8, 0
 526 0014 93040500 		mv	s1,a0
 527              	.LVL34:
 528              	.LBB10:
 529              	.LBB11:
  51:src/../h/syscall_cpp.hpp **** public:
 530              		.loc 1 51 7 is_stmt 0
 531 0018 97070000 		lla	a5,_ZTV14PeriodicThread+16
 531      93870700 
 532 0020 2330F500 		sd	a5,0(a0)
 533 0024 97000000 		call	_ZN6ThreadD2Ev
 533      E7800000 
 534              	.LVL35:
 535              	.LBE11:
 536              	.LBE10:
 537 002c 13850400 		mv	a0,s1
 538 0030 97000000 		call	_ZdlPv
 538      E7800000 
 539              	.LVL36:
 540 0038 83308101 		ld	ra,24(sp)
 541              		.cfi_restore 1
 542 003c 03340101 		ld	s0,16(sp)
 543              		.cfi_restore 8
 544              		.cfi_def_cfa 2, 32
 545 0040 83348100 		ld	s1,8(sp)
 546              		.cfi_restore 9
 547              	.LVL37:
 548 0044 13010102 		addi	sp,sp,32
 549              		.cfi_def_cfa_offset 0
 550 0048 67800000 		jr	ra
 551              		.cfi_endproc
 552              	.LFE41:
GAS LISTING /tmp/ccGKKNOI.s 			page 14


 554              		.text
 555              		.align	2
 556              		.globl	_ZN6ThreadC2EPFvPvES0_
 558              	_ZN6ThreadC2EPFvPvES0_:
 559              	.LFB7:
  22:src/syscall_cpp.cpp ****     this->body = body;
 560              		.loc 2 22 1 is_stmt 1
 561              		.cfi_startproc
 562              	.LVL38:
 563 0204 130101FF 		addi	sp,sp,-16
 564              		.cfi_def_cfa_offset 16
 565 0208 23348100 		sd	s0,8(sp)
 566              		.cfi_offset 8, -8
 567 020c 13040101 		addi	s0,sp,16
 568              		.cfi_def_cfa 8, 0
 569              	.LBB12:
  22:src/syscall_cpp.cpp ****     this->body = body;
 570              		.loc 2 22 47 is_stmt 0
 571 0210 97070000 		lla	a5,_ZTV6Thread+16
 571      93870700 
 572 0218 2330F500 		sd	a5,0(a0)
 573 021c 23340500 		sd	zero,8(a0)
  23:src/syscall_cpp.cpp ****     this->arg = arg;
 574              		.loc 2 23 5 is_stmt 1
  23:src/syscall_cpp.cpp ****     this->arg = arg;
 575              		.loc 2 23 16 is_stmt 0
 576 0220 2338B500 		sd	a1,16(a0)
  24:src/syscall_cpp.cpp ****     this->myHandle = nullptr;
 577              		.loc 2 24 5 is_stmt 1
  24:src/syscall_cpp.cpp ****     this->myHandle = nullptr;
 578              		.loc 2 24 15 is_stmt 0
 579 0224 233CC500 		sd	a2,24(a0)
  25:src/syscall_cpp.cpp **** }
 580              		.loc 2 25 5 is_stmt 1
 581              	.LBE12:
  26:src/syscall_cpp.cpp **** 
 582              		.loc 2 26 1 is_stmt 0
 583 0228 03348100 		ld	s0,8(sp)
 584              		.cfi_restore 8
 585              		.cfi_def_cfa 2, 16
 586 022c 13010101 		addi	sp,sp,16
 587              		.cfi_def_cfa_offset 0
 588 0230 67800000 		jr	ra
 589              		.cfi_endproc
 590              	.LFE7:
 592              		.globl	_ZN6ThreadC1EPFvPvES0_
 593              		.set	_ZN6ThreadC1EPFvPvES0_,_ZN6ThreadC2EPFvPvES0_
 594              		.align	2
 595              		.globl	_ZN6ThreadC2Ev
 597              	_ZN6ThreadC2Ev:
 598              	.LFB10:
  28:src/syscall_cpp.cpp ****     this->body = wrapper;
 599              		.loc 2 28 1 is_stmt 1
 600              		.cfi_startproc
 601              	.LVL39:
 602 0234 130101FF 		addi	sp,sp,-16
 603              		.cfi_def_cfa_offset 16
GAS LISTING /tmp/ccGKKNOI.s 			page 15


 604 0238 23348100 		sd	s0,8(sp)
 605              		.cfi_offset 8, -8
 606 023c 13040101 		addi	s0,sp,16
 607              		.cfi_def_cfa 8, 0
 608              	.LBB13:
  28:src/syscall_cpp.cpp ****     this->body = wrapper;
 609              		.loc 2 28 16 is_stmt 0
 610 0240 97070000 		lla	a5,_ZTV6Thread+16
 610      93870700 
 611 0248 2330F500 		sd	a5,0(a0)
 612 024c 23340500 		sd	zero,8(a0)
  29:src/syscall_cpp.cpp ****     this->arg  = (void*) this;
 613              		.loc 2 29 5 is_stmt 1
  29:src/syscall_cpp.cpp ****     this->arg  = (void*) this;
 614              		.loc 2 29 16 is_stmt 0
 615 0250 97070000 		lla	a5,_ZN6Thread7wrapperEPv
 615      93870700 
 616 0258 2338F500 		sd	a5,16(a0)
  30:src/syscall_cpp.cpp ****     this->myHandle = nullptr;
 617              		.loc 2 30 5 is_stmt 1
  30:src/syscall_cpp.cpp ****     this->myHandle = nullptr;
 618              		.loc 2 30 16 is_stmt 0
 619 025c 233CA500 		sd	a0,24(a0)
  31:src/syscall_cpp.cpp **** }
 620              		.loc 2 31 5 is_stmt 1
 621              	.LBE13:
  32:src/syscall_cpp.cpp **** 
 622              		.loc 2 32 1 is_stmt 0
 623 0260 03348100 		ld	s0,8(sp)
 624              		.cfi_restore 8
 625              		.cfi_def_cfa 2, 16
 626 0264 13010101 		addi	sp,sp,16
 627              		.cfi_def_cfa_offset 0
 628 0268 67800000 		jr	ra
 629              		.cfi_endproc
 630              	.LFE10:
 632              		.globl	_ZN6ThreadC1Ev
 633              		.set	_ZN6ThreadC1Ev,_ZN6ThreadC2Ev
 634              		.align	2
 635              		.globl	_ZN6Thread5sleepEm
 637              	_ZN6Thread5sleepEm:
 638              	.LFB16:
  38:src/syscall_cpp.cpp ****     return time_sleep(time);
 639              		.loc 2 38 32 is_stmt 1
 640              		.cfi_startproc
 641              	.LVL40:
 642 026c 130101FF 		addi	sp,sp,-16
 643              		.cfi_def_cfa_offset 16
 644 0270 23341100 		sd	ra,8(sp)
 645 0274 23308100 		sd	s0,0(sp)
 646              		.cfi_offset 1, -8
 647              		.cfi_offset 8, -16
 648 0278 13040101 		addi	s0,sp,16
 649              		.cfi_def_cfa 8, 0
  39:src/syscall_cpp.cpp **** }
 650              		.loc 2 39 5
  39:src/syscall_cpp.cpp **** }
GAS LISTING /tmp/ccGKKNOI.s 			page 16


 651              		.loc 2 39 22 is_stmt 0
 652 027c 97000000 		call	_Z10time_sleepm@plt
 652      E7800000 
 653              	.LVL41:
  40:src/syscall_cpp.cpp **** 
 654              		.loc 2 40 1
 655 0284 83308100 		ld	ra,8(sp)
 656              		.cfi_restore 1
 657 0288 03340100 		ld	s0,0(sp)
 658              		.cfi_restore 8
 659              		.cfi_def_cfa 2, 16
 660 028c 13010101 		addi	sp,sp,16
 661              		.cfi_def_cfa_offset 0
 662 0290 67800000 		jr	ra
 663              		.cfi_endproc
 664              	.LFE16:
 666              		.align	2
 667              		.globl	_ZN6Thread8dispatchEv
 669              	_ZN6Thread8dispatchEv:
 670              	.LFB17:
  42:src/syscall_cpp.cpp ****     thread_dispatch();
 671              		.loc 2 42 25 is_stmt 1
 672              		.cfi_startproc
 673 0294 130101FF 		addi	sp,sp,-16
 674              		.cfi_def_cfa_offset 16
 675 0298 23341100 		sd	ra,8(sp)
 676 029c 23308100 		sd	s0,0(sp)
 677              		.cfi_offset 1, -8
 678              		.cfi_offset 8, -16
 679 02a0 13040101 		addi	s0,sp,16
 680              		.cfi_def_cfa 8, 0
  43:src/syscall_cpp.cpp **** }
 681              		.loc 2 43 5
  43:src/syscall_cpp.cpp **** }
 682              		.loc 2 43 20 is_stmt 0
 683 02a4 97000000 		call	_Z15thread_dispatchv@plt
 683      E7800000 
 684              	.LVL42:
  44:src/syscall_cpp.cpp **** 
 685              		.loc 2 44 1
 686 02ac 83308100 		ld	ra,8(sp)
 687              		.cfi_restore 1
 688 02b0 03340100 		ld	s0,0(sp)
 689              		.cfi_restore 8
 690              		.cfi_def_cfa 2, 16
 691 02b4 13010101 		addi	sp,sp,16
 692              		.cfi_def_cfa_offset 0
 693 02b8 67800000 		jr	ra
 694              		.cfi_endproc
 695              	.LFE17:
 697              		.align	2
 698              		.globl	_ZN6Thread5startEv
 700              	_ZN6Thread5startEv:
 701              	.LFB18:
  46:src/syscall_cpp.cpp ****     return thread_create(&myHandle, this->body, this->arg);
 702              		.loc 2 46 21 is_stmt 1
 703              		.cfi_startproc
GAS LISTING /tmp/ccGKKNOI.s 			page 17


 704              	.LVL43:
 705 02bc 130101FF 		addi	sp,sp,-16
 706              		.cfi_def_cfa_offset 16
 707 02c0 23341100 		sd	ra,8(sp)
 708 02c4 23308100 		sd	s0,0(sp)
 709              		.cfi_offset 1, -8
 710              		.cfi_offset 8, -16
 711 02c8 13040101 		addi	s0,sp,16
 712              		.cfi_def_cfa 8, 0
  47:src/syscall_cpp.cpp **** }
 713              		.loc 2 47 5
  47:src/syscall_cpp.cpp **** }
 714              		.loc 2 47 25 is_stmt 0
 715 02cc 03368501 		ld	a2,24(a0)
 716 02d0 83350501 		ld	a1,16(a0)
 717 02d4 13058500 		addi	a0,a0,8
 718              	.LVL44:
 719 02d8 97000000 		call	_Z13thread_createPP3TCBPFvPvES2_@plt
 719      E7800000 
 720              	.LVL45:
  48:src/syscall_cpp.cpp **** 
 721              		.loc 2 48 1
 722 02e0 83308100 		ld	ra,8(sp)
 723              		.cfi_restore 1
 724 02e4 03340100 		ld	s0,0(sp)
 725              		.cfi_restore 8
 726              		.cfi_def_cfa 2, 16
 727 02e8 13010101 		addi	sp,sp,16
 728              		.cfi_def_cfa_offset 0
 729 02ec 67800000 		jr	ra
 730              		.cfi_endproc
 731              	.LFE18:
 733              		.align	2
 734              		.globl	_ZN9SemaphoreC2Ej
 736              	_ZN9SemaphoreC2Ej:
 737              	.LFB21:
  55:src/syscall_cpp.cpp ****     sem_open(&myHandle, init);
 738              		.loc 2 55 1 is_stmt 1
 739              		.cfi_startproc
 740              	.LVL46:
 741 02f0 130101FF 		addi	sp,sp,-16
 742              		.cfi_def_cfa_offset 16
 743 02f4 23341100 		sd	ra,8(sp)
 744 02f8 23308100 		sd	s0,0(sp)
 745              		.cfi_offset 1, -8
 746              		.cfi_offset 8, -16
 747 02fc 13040101 		addi	s0,sp,16
 748              		.cfi_def_cfa 8, 0
 749              	.LBB14:
  55:src/syscall_cpp.cpp ****     sem_open(&myHandle, init);
 750              		.loc 2 55 59 is_stmt 0
 751 0300 97070000 		lla	a5,_ZTV9Semaphore+16
 751      93870700 
 752 0308 2330F500 		sd	a5,0(a0)
 753 030c 23340500 		sd	zero,8(a0)
  56:src/syscall_cpp.cpp **** }
 754              		.loc 2 56 5 is_stmt 1
GAS LISTING /tmp/ccGKKNOI.s 			page 18


  56:src/syscall_cpp.cpp **** }
 755              		.loc 2 56 13 is_stmt 0
 756 0310 13058500 		addi	a0,a0,8
 757              	.LVL47:
 758 0314 97000000 		call	_Z8sem_openPP3Semj@plt
 758      E7800000 
 759              	.LVL48:
 760              	.LBE14:
  57:src/syscall_cpp.cpp **** 
 761              		.loc 2 57 1
 762 031c 83308100 		ld	ra,8(sp)
 763              		.cfi_restore 1
 764 0320 03340100 		ld	s0,0(sp)
 765              		.cfi_restore 8
 766              		.cfi_def_cfa 2, 16
 767 0324 13010101 		addi	sp,sp,16
 768              		.cfi_def_cfa_offset 0
 769 0328 67800000 		jr	ra
 770              		.cfi_endproc
 771              	.LFE21:
 773              		.globl	_ZN9SemaphoreC1Ej
 774              		.set	_ZN9SemaphoreC1Ej,_ZN9SemaphoreC2Ej
 775              		.align	2
 776              		.globl	_ZN9Semaphore4waitEv
 778              	_ZN9Semaphore4waitEv:
 779              	.LFB27:
  63:src/syscall_cpp.cpp ****     if (myHandle) return sem_wait(myHandle);
 780              		.loc 2 63 23 is_stmt 1
 781              		.cfi_startproc
 782              	.LVL49:
  64:src/syscall_cpp.cpp ****     return -1;
 783              		.loc 2 64 5
  64:src/syscall_cpp.cpp ****     return -1;
 784              		.loc 2 64 9 is_stmt 0
 785 032c 03358500 		ld	a0,8(a0)
 786              	.LVL50:
  64:src/syscall_cpp.cpp ****     return -1;
 787              		.loc 2 64 5
 788 0330 63060502 		beqz	a0,.L52
  63:src/syscall_cpp.cpp ****     if (myHandle) return sem_wait(myHandle);
 789              		.loc 2 63 23 discriminator 1
 790 0334 130101FF 		addi	sp,sp,-16
 791              		.cfi_def_cfa_offset 16
 792 0338 23341100 		sd	ra,8(sp)
 793 033c 23308100 		sd	s0,0(sp)
 794              		.cfi_offset 1, -8
 795              		.cfi_offset 8, -16
 796 0340 13040101 		addi	s0,sp,16
 797              		.cfi_def_cfa 8, 0
  64:src/syscall_cpp.cpp ****     return -1;
 798              		.loc 2 64 19 is_stmt 1 discriminator 1
  64:src/syscall_cpp.cpp ****     return -1;
 799              		.loc 2 64 34 is_stmt 0 discriminator 1
 800 0344 97000000 		call	_Z8sem_waitP3Sem@plt
 800      E7800000 
 801              	.LVL51:
  66:src/syscall_cpp.cpp **** 
GAS LISTING /tmp/ccGKKNOI.s 			page 19


 802              		.loc 2 66 1 discriminator 1
 803 034c 83308100 		ld	ra,8(sp)
 804              		.cfi_restore 1
 805 0350 03340100 		ld	s0,0(sp)
 806              		.cfi_restore 8
 807              		.cfi_def_cfa 2, 16
 808 0354 13010101 		addi	sp,sp,16
 809              		.cfi_def_cfa_offset 0
 810 0358 67800000 		jr	ra
 811              	.L52:
  65:src/syscall_cpp.cpp **** }
 812              		.loc 2 65 13
 813 035c 1305F0FF 		li	a0,-1
  66:src/syscall_cpp.cpp **** 
 814              		.loc 2 66 1
 815 0360 67800000 		ret
 816              		.cfi_endproc
 817              	.LFE27:
 819              		.align	2
 820              		.globl	_ZN9Semaphore6signalEv
 822              	_ZN9Semaphore6signalEv:
 823              	.LFB28:
  68:src/syscall_cpp.cpp ****     if (myHandle) return sem_signal(myHandle);
 824              		.loc 2 68 25 is_stmt 1
 825              		.cfi_startproc
 826              	.LVL52:
  69:src/syscall_cpp.cpp ****     return -1;
 827              		.loc 2 69 5
  69:src/syscall_cpp.cpp ****     return -1;
 828              		.loc 2 69 9 is_stmt 0
 829 0364 03358500 		ld	a0,8(a0)
 830              	.LVL53:
  69:src/syscall_cpp.cpp ****     return -1;
 831              		.loc 2 69 5
 832 0368 63060502 		beqz	a0,.L59
  68:src/syscall_cpp.cpp ****     if (myHandle) return sem_signal(myHandle);
 833              		.loc 2 68 25 discriminator 1
 834 036c 130101FF 		addi	sp,sp,-16
 835              		.cfi_def_cfa_offset 16
 836 0370 23341100 		sd	ra,8(sp)
 837 0374 23308100 		sd	s0,0(sp)
 838              		.cfi_offset 1, -8
 839              		.cfi_offset 8, -16
 840 0378 13040101 		addi	s0,sp,16
 841              		.cfi_def_cfa 8, 0
  69:src/syscall_cpp.cpp ****     return -1;
 842              		.loc 2 69 19 is_stmt 1 discriminator 1
  69:src/syscall_cpp.cpp ****     return -1;
 843              		.loc 2 69 36 is_stmt 0 discriminator 1
 844 037c 97000000 		call	_Z10sem_signalP3Sem@plt
 844      E7800000 
 845              	.LVL54:
  71:src/syscall_cpp.cpp **** 
 846              		.loc 2 71 1 discriminator 1
 847 0384 83308100 		ld	ra,8(sp)
 848              		.cfi_restore 1
 849 0388 03340100 		ld	s0,0(sp)
GAS LISTING /tmp/ccGKKNOI.s 			page 20


 850              		.cfi_restore 8
 851              		.cfi_def_cfa 2, 16
 852 038c 13010101 		addi	sp,sp,16
 853              		.cfi_def_cfa_offset 0
 854 0390 67800000 		jr	ra
 855              	.L59:
  70:src/syscall_cpp.cpp **** }
 856              		.loc 2 70 13
 857 0394 1305F0FF 		li	a0,-1
  71:src/syscall_cpp.cpp **** 
 858              		.loc 2 71 1
 859 0398 67800000 		ret
 860              		.cfi_endproc
 861              	.LFE28:
 863              		.align	2
 864              		.globl	_ZN9Semaphore9timedWaitEm
 866              	_ZN9Semaphore9timedWaitEm:
 867              	.LFB29:
  73:src/syscall_cpp.cpp ****     if (myHandle && time) return sem_timedwait(myHandle, time);
 868              		.loc 2 73 39 is_stmt 1
 869              		.cfi_startproc
 870              	.LVL55:
  74:src/syscall_cpp.cpp ****     return -1;
 871              		.loc 2 74 5
  74:src/syscall_cpp.cpp ****     return -1;
 872              		.loc 2 74 9 is_stmt 0
 873 039c 03358500 		ld	a0,8(a0)
 874              	.LVL56:
  74:src/syscall_cpp.cpp ****     return -1;
 875              		.loc 2 74 5
 876 03a0 63080502 		beqz	a0,.L66
  74:src/syscall_cpp.cpp ****     return -1;
 877              		.loc 2 74 18 discriminator 1
 878 03a4 638A0502 		beqz	a1,.L67
  73:src/syscall_cpp.cpp ****     if (myHandle && time) return sem_timedwait(myHandle, time);
 879              		.loc 2 73 39 discriminator 2
 880 03a8 130101FF 		addi	sp,sp,-16
 881              		.cfi_def_cfa_offset 16
 882 03ac 23341100 		sd	ra,8(sp)
 883 03b0 23308100 		sd	s0,0(sp)
 884              		.cfi_offset 1, -8
 885              		.cfi_offset 8, -16
 886 03b4 13040101 		addi	s0,sp,16
 887              		.cfi_def_cfa 8, 0
  74:src/syscall_cpp.cpp ****     return -1;
 888              		.loc 2 74 27 is_stmt 1 discriminator 2
  74:src/syscall_cpp.cpp ****     return -1;
 889              		.loc 2 74 47 is_stmt 0 discriminator 2
 890 03b8 97000000 		call	_Z13sem_timedwaitP3Semm@plt
 890      E7800000 
 891              	.LVL57:
  76:src/syscall_cpp.cpp **** 
 892              		.loc 2 76 1 discriminator 2
 893 03c0 83308100 		ld	ra,8(sp)
 894              		.cfi_restore 1
 895 03c4 03340100 		ld	s0,0(sp)
 896              		.cfi_restore 8
GAS LISTING /tmp/ccGKKNOI.s 			page 21


 897              		.cfi_def_cfa 2, 16
 898 03c8 13010101 		addi	sp,sp,16
 899              		.cfi_def_cfa_offset 0
 900 03cc 67800000 		jr	ra
 901              	.LVL58:
 902              	.L66:
  75:src/syscall_cpp.cpp **** }
 903              		.loc 2 75 13
 904 03d0 1305F0FF 		li	a0,-1
 905 03d4 67800000 		ret
 906              	.L67:
 907 03d8 1305F0FF 		li	a0,-1
  76:src/syscall_cpp.cpp **** 
 908              		.loc 2 76 1
 909 03dc 67800000 		ret
 910              		.cfi_endproc
 911              	.LFE29:
 913              		.align	2
 914              		.globl	_ZN9Semaphore7tryWaitEv
 916              	_ZN9Semaphore7tryWaitEv:
 917              	.LFB30:
  78:src/syscall_cpp.cpp ****     if (myHandle) return sem_trywait(myHandle);
 918              		.loc 2 78 26 is_stmt 1
 919              		.cfi_startproc
 920              	.LVL59:
  79:src/syscall_cpp.cpp ****     return -1;
 921              		.loc 2 79 5
  79:src/syscall_cpp.cpp ****     return -1;
 922              		.loc 2 79 9 is_stmt 0
 923 03e0 03358500 		ld	a0,8(a0)
 924              	.LVL60:
  79:src/syscall_cpp.cpp ****     return -1;
 925              		.loc 2 79 5
 926 03e4 63060502 		beqz	a0,.L74
  78:src/syscall_cpp.cpp ****     if (myHandle) return sem_trywait(myHandle);
 927              		.loc 2 78 26 discriminator 1
 928 03e8 130101FF 		addi	sp,sp,-16
 929              		.cfi_def_cfa_offset 16
 930 03ec 23341100 		sd	ra,8(sp)
 931 03f0 23308100 		sd	s0,0(sp)
 932              		.cfi_offset 1, -8
 933              		.cfi_offset 8, -16
 934 03f4 13040101 		addi	s0,sp,16
 935              		.cfi_def_cfa 8, 0
  79:src/syscall_cpp.cpp ****     return -1;
 936              		.loc 2 79 19 is_stmt 1 discriminator 1
  79:src/syscall_cpp.cpp ****     return -1;
 937              		.loc 2 79 37 is_stmt 0 discriminator 1
 938 03f8 97000000 		call	_Z11sem_trywaitP3Sem@plt
 938      E7800000 
 939              	.LVL61:
  81:src/syscall_cpp.cpp **** 
 940              		.loc 2 81 1 discriminator 1
 941 0400 83308100 		ld	ra,8(sp)
 942              		.cfi_restore 1
 943 0404 03340100 		ld	s0,0(sp)
 944              		.cfi_restore 8
GAS LISTING /tmp/ccGKKNOI.s 			page 22


 945              		.cfi_def_cfa 2, 16
 946 0408 13010101 		addi	sp,sp,16
 947              		.cfi_def_cfa_offset 0
 948 040c 67800000 		jr	ra
 949              	.L74:
  80:src/syscall_cpp.cpp **** }
 950              		.loc 2 80 13
 951 0410 1305F0FF 		li	a0,-1
  81:src/syscall_cpp.cpp **** 
 952              		.loc 2 81 1
 953 0414 67800000 		ret
 954              		.cfi_endproc
 955              	.LFE30:
 957              		.align	2
 958              		.globl	_ZN7Console4getcEv
 960              	_ZN7Console4getcEv:
 961              	.LFB31:
  83:src/syscall_cpp.cpp ****     return ::getc();
 962              		.loc 2 83 22 is_stmt 1
 963              		.cfi_startproc
 964 0418 130101FF 		addi	sp,sp,-16
 965              		.cfi_def_cfa_offset 16
 966 041c 23341100 		sd	ra,8(sp)
 967 0420 23308100 		sd	s0,0(sp)
 968              		.cfi_offset 1, -8
 969              		.cfi_offset 8, -16
 970 0424 13040101 		addi	s0,sp,16
 971              		.cfi_def_cfa 8, 0
  84:src/syscall_cpp.cpp **** }
 972              		.loc 2 84 5
  84:src/syscall_cpp.cpp **** }
 973              		.loc 2 84 18 is_stmt 0
 974 0428 97000000 		call	_Z4getcv@plt
 974      E7800000 
 975              	.LVL62:
  85:src/syscall_cpp.cpp **** 
 976              		.loc 2 85 1
 977 0430 83308100 		ld	ra,8(sp)
 978              		.cfi_restore 1
 979 0434 03340100 		ld	s0,0(sp)
 980              		.cfi_restore 8
 981              		.cfi_def_cfa 2, 16
 982 0438 13010101 		addi	sp,sp,16
 983              		.cfi_def_cfa_offset 0
 984 043c 67800000 		jr	ra
 985              		.cfi_endproc
 986              	.LFE31:
 988              		.align	2
 989              		.globl	_ZN7Console4putcEc
 991              	_ZN7Console4putcEc:
 992              	.LFB32:
  87:src/syscall_cpp.cpp ****     ::putc(c);
 993              		.loc 2 87 28 is_stmt 1
 994              		.cfi_startproc
 995              	.LVL63:
 996 0440 130101FF 		addi	sp,sp,-16
 997              		.cfi_def_cfa_offset 16
GAS LISTING /tmp/ccGKKNOI.s 			page 23


 998 0444 23341100 		sd	ra,8(sp)
 999 0448 23308100 		sd	s0,0(sp)
 1000              		.cfi_offset 1, -8
 1001              		.cfi_offset 8, -16
 1002 044c 13040101 		addi	s0,sp,16
 1003              		.cfi_def_cfa 8, 0
  88:src/syscall_cpp.cpp **** }
 1004              		.loc 2 88 5
  88:src/syscall_cpp.cpp **** }
 1005              		.loc 2 88 11 is_stmt 0
 1006 0450 97000000 		call	_Z4putcc@plt
 1006      E7800000 
 1007              	.LVL64:
  89:src/syscall_cpp.cpp **** 
 1008              		.loc 2 89 1
 1009 0458 83308100 		ld	ra,8(sp)
 1010              		.cfi_restore 1
 1011 045c 03340100 		ld	s0,0(sp)
 1012              		.cfi_restore 8
 1013              		.cfi_def_cfa 2, 16
 1014 0460 13010101 		addi	sp,sp,16
 1015              		.cfi_def_cfa_offset 0
 1016 0464 67800000 		jr	ra
 1017              		.cfi_endproc
 1018              	.LFE32:
 1020              		.align	2
 1021              		.globl	_ZN14PeriodicThreadC2Em
 1023              	_ZN14PeriodicThreadC2Em:
 1024              	.LFB34:
  91:src/syscall_cpp.cpp **** 
 1025              		.loc 2 91 1 is_stmt 1
 1026              		.cfi_startproc
 1027              	.LVL65:
 1028 0468 130101FE 		addi	sp,sp,-32
 1029              		.cfi_def_cfa_offset 32
 1030 046c 233C1100 		sd	ra,24(sp)
 1031 0470 23388100 		sd	s0,16(sp)
 1032 0474 23349100 		sd	s1,8(sp)
 1033 0478 23302101 		sd	s2,0(sp)
 1034              		.cfi_offset 1, -8
 1035              		.cfi_offset 8, -16
 1036              		.cfi_offset 9, -24
 1037              		.cfi_offset 18, -32
 1038 047c 13040102 		addi	s0,sp,32
 1039              		.cfi_def_cfa 8, 0
 1040 0480 93040500 		mv	s1,a0
 1041 0484 13890500 		mv	s2,a1
 1042              	.LBB15:
  91:src/syscall_cpp.cpp **** 
 1043              		.loc 2 91 62 is_stmt 0
 1044 0488 97000000 		call	_ZN6ThreadC2Ev
 1044      E7800000 
 1045              	.LVL66:
 1046 0490 97070000 		lla	a5,_ZTV14PeriodicThread+16
 1046      93870700 
 1047 0498 23B0F400 		sd	a5,0(s1)
 1048 049c 23B02403 		sd	s2,32(s1)
GAS LISTING /tmp/ccGKKNOI.s 			page 24


 1049              	.LBE15:
  91:src/syscall_cpp.cpp **** 
 1050              		.loc 2 91 65
 1051 04a0 83308101 		ld	ra,24(sp)
 1052              		.cfi_restore 1
 1053 04a4 03340101 		ld	s0,16(sp)
 1054              		.cfi_restore 8
 1055              		.cfi_def_cfa 2, 32
 1056 04a8 83348100 		ld	s1,8(sp)
 1057              		.cfi_restore 9
 1058              	.LVL67:
 1059 04ac 03390100 		ld	s2,0(sp)
 1060              		.cfi_restore 18
 1061              	.LVL68:
 1062 04b0 13010102 		addi	sp,sp,32
 1063              		.cfi_def_cfa_offset 0
 1064 04b4 67800000 		jr	ra
 1065              		.cfi_endproc
 1066              	.LFE34:
 1068              		.globl	_ZN14PeriodicThreadC1Em
 1069              		.set	_ZN14PeriodicThreadC1Em,_ZN14PeriodicThreadC2Em
 1070              		.align	2
 1071              		.globl	_ZN14PeriodicThread9terminateEv
 1073              	_ZN14PeriodicThread9terminateEv:
 1074              	.LFB36:
  93:src/syscall_cpp.cpp ****     thread_exit();
 1075              		.loc 2 93 34 is_stmt 1
 1076              		.cfi_startproc
 1077              	.LVL69:
 1078 04b8 130101FF 		addi	sp,sp,-16
 1079              		.cfi_def_cfa_offset 16
 1080 04bc 23341100 		sd	ra,8(sp)
 1081 04c0 23308100 		sd	s0,0(sp)
 1082              		.cfi_offset 1, -8
 1083              		.cfi_offset 8, -16
 1084 04c4 13040101 		addi	s0,sp,16
 1085              		.cfi_def_cfa 8, 0
  94:src/syscall_cpp.cpp **** }
 1086              		.loc 2 94 5
  94:src/syscall_cpp.cpp **** }
 1087              		.loc 2 94 16 is_stmt 0
 1088 04c8 97000000 		call	_Z11thread_exitv@plt
 1088      E7800000 
 1089              	.LVL70:
  95:src/syscall_cpp.cpp **** 
 1090              		.loc 2 95 1
 1091 04d0 83308100 		ld	ra,8(sp)
 1092              		.cfi_restore 1
 1093 04d4 03340100 		ld	s0,0(sp)
 1094              		.cfi_restore 8
 1095              		.cfi_def_cfa 2, 16
 1096 04d8 13010101 		addi	sp,sp,16
 1097              		.cfi_def_cfa_offset 0
 1098 04dc 67800000 		jr	ra
 1099              		.cfi_endproc
 1100              	.LFE36:
 1102              		.weak	_ZTV6Thread
GAS LISTING /tmp/ccGKKNOI.s 			page 25


 1103              		.section	.data.rel.ro.local._ZTV6Thread,"awG",@progbits,_ZTV6Thread,comdat
 1104              		.align	3
 1107              	_ZTV6Thread:
 1108 0000 00000000 		.dword	0
 1108      00000000 
 1109 0008 00000000 		.dword	0
 1109      00000000 
 1110 0010 00000000 		.dword	_ZN6ThreadD1Ev
 1110      00000000 
 1111 0018 00000000 		.dword	_ZN6ThreadD0Ev
 1111      00000000 
 1112 0020 00000000 		.dword	_ZN6Thread3runEv
 1112      00000000 
 1113              		.weak	_ZTV9Semaphore
 1114              		.section	.data.rel.ro.local._ZTV9Semaphore,"awG",@progbits,_ZTV9Semaphore,comdat
 1115              		.align	3
 1118              	_ZTV9Semaphore:
 1119 0000 00000000 		.dword	0
 1119      00000000 
 1120 0008 00000000 		.dword	0
 1120      00000000 
 1121 0010 00000000 		.dword	_ZN9SemaphoreD1Ev
 1121      00000000 
 1122 0018 00000000 		.dword	_ZN9SemaphoreD0Ev
 1122      00000000 
 1123              		.weak	_ZTV14PeriodicThread
 1124              		.section	.data.rel.ro.local._ZTV14PeriodicThread,"awG",@progbits,_ZTV14PeriodicThread,comdat
 1125              		.align	3
 1128              	_ZTV14PeriodicThread:
 1129 0000 00000000 		.dword	0
 1129      00000000 
 1130 0008 00000000 		.dword	0
 1130      00000000 
 1131 0010 00000000 		.dword	_ZN14PeriodicThreadD1Ev
 1131      00000000 
 1132 0018 00000000 		.dword	_ZN14PeriodicThreadD0Ev
 1132      00000000 
 1133 0020 00000000 		.dword	_ZN14PeriodicThread3runEv
 1133      00000000 
 1134 0028 00000000 		.dword	_ZN14PeriodicThread18periodicActivationEv
 1134      00000000 
 1135              		.text
 1136              	.Letext0:
 1137              		.file 3 "src/../h/../lib/hw.h"
 1138              		.file 4 "src/../h/syscall_c.hpp"
 1139              		.file 5 "src/../h/Memoryallocator.hpp"
 4340              		.align	3
 4343              	DW.ref.__gxx_personality_v0:
 4344 0000 00000000 		.dword	__gxx_personality_v0
 4344      00000000 
 4345              		.ident	"GCC: (Ubuntu 9.4.0-1ubuntu1~20.04) 9.4.0"
 4346              		.section	.note.GNU-stack,"",@progbits
GAS LISTING /tmp/ccGKKNOI.s 			page 26


DEFINED SYMBOLS
                            *ABS*:0000000000000000 syscall_cpp.cpp
     /tmp/ccGKKNOI.s:10     .text._ZN6Thread3runEv:0000000000000000 _ZN6Thread3runEv
     /tmp/ccGKKNOI.s:14     .text._ZN6Thread3runEv:0000000000000000 .L0 
     /tmp/ccGKKNOI.s:16     .text._ZN6Thread3runEv:0000000000000000 .L0 
     /tmp/ccGKKNOI.s:17     .text._ZN6Thread3runEv:0000000000000004 .L0 
     /tmp/ccGKKNOI.s:19     .text._ZN6Thread3runEv:0000000000000008 .L0 
     /tmp/ccGKKNOI.s:21     .text._ZN6Thread3runEv:000000000000000c .L0 
     /tmp/ccGKKNOI.s:23     .text._ZN6Thread3runEv:000000000000000c .L0 
     /tmp/ccGKKNOI.s:24     .text._ZN6Thread3runEv:0000000000000010 .L0 
     /tmp/ccGKKNOI.s:25     .text._ZN6Thread3runEv:0000000000000010 .L0 
     /tmp/ccGKKNOI.s:27     .text._ZN6Thread3runEv:0000000000000014 .L0 
     /tmp/ccGKKNOI.s:29     .text._ZN6Thread3runEv:0000000000000018 .L0 
     /tmp/ccGKKNOI.s:36     .text._ZN14PeriodicThread18periodicActivationEv:0000000000000000 _ZN14PeriodicThread18periodicActivationEv
     /tmp/ccGKKNOI.s:39     .text._ZN14PeriodicThread18periodicActivationEv:0000000000000000 .L0 
     /tmp/ccGKKNOI.s:41     .text._ZN14PeriodicThread18periodicActivationEv:0000000000000000 .L0 
     /tmp/ccGKKNOI.s:42     .text._ZN14PeriodicThread18periodicActivationEv:0000000000000004 .L0 
     /tmp/ccGKKNOI.s:44     .text._ZN14PeriodicThread18periodicActivationEv:0000000000000008 .L0 
     /tmp/ccGKKNOI.s:46     .text._ZN14PeriodicThread18periodicActivationEv:000000000000000c .L0 
     /tmp/ccGKKNOI.s:48     .text._ZN14PeriodicThread18periodicActivationEv:000000000000000c .L0 
     /tmp/ccGKKNOI.s:49     .text._ZN14PeriodicThread18periodicActivationEv:0000000000000010 .L0 
     /tmp/ccGKKNOI.s:50     .text._ZN14PeriodicThread18periodicActivationEv:0000000000000010 .L0 
     /tmp/ccGKKNOI.s:52     .text._ZN14PeriodicThread18periodicActivationEv:0000000000000014 .L0 
     /tmp/ccGKKNOI.s:54     .text._ZN14PeriodicThread18periodicActivationEv:0000000000000018 .L0 
     /tmp/ccGKKNOI.s:61     .text:0000000000000000 _ZN6Thread7wrapperEPv
     /tmp/ccGKKNOI.s:65     .text:0000000000000000 .L0 
     /tmp/ccGKKNOI.s:67     .text:0000000000000000 .L0 
     /tmp/ccGKKNOI.s:68     .text:0000000000000004 .L0 
     /tmp/ccGKKNOI.s:71     .text:000000000000000c .L0 
     /tmp/ccGKKNOI.s:72     .text:000000000000000c .L0 
     /tmp/ccGKKNOI.s:74     .text:0000000000000010 .L0 
     /tmp/ccGKKNOI.s:77     .text:0000000000000010 .L0 
     /tmp/ccGKKNOI.s:78     .text:0000000000000010 .L0 
     /tmp/ccGKKNOI.s:79     .text:0000000000000010 .L0 
     /tmp/ccGKKNOI.s:82     .text:0000000000000018 .L0 
     /tmp/ccGKKNOI.s:85     .text:000000000000001c .L0 
     /tmp/ccGKKNOI.s:86     .text:0000000000000020 .L0 
     /tmp/ccGKKNOI.s:88     .text:0000000000000024 .L0 
     /tmp/ccGKKNOI.s:89     .text:0000000000000024 .L0 
     /tmp/ccGKKNOI.s:91     .text:0000000000000028 .L0 
     /tmp/ccGKKNOI.s:93     .text:000000000000002c .L0 
     /tmp/ccGKKNOI.s:99     .text:000000000000002c _ZN14PeriodicThread3runEv
     /tmp/ccGKKNOI.s:102    .text:000000000000002c .L0 
     /tmp/ccGKKNOI.s:104    .text:000000000000002c .L0 
     /tmp/ccGKKNOI.s:105    .text:0000000000000030 .L0 
     /tmp/ccGKKNOI.s:109    .text:000000000000003c .L0 
     /tmp/ccGKKNOI.s:110    .text:000000000000003c .L0 
     /tmp/ccGKKNOI.s:111    .text:000000000000003c .L0 
     /tmp/ccGKKNOI.s:113    .text:0000000000000040 .L0 
     /tmp/ccGKKNOI.s:118    .text:0000000000000044 .L0 
     /tmp/ccGKKNOI.s:119    .text:0000000000000044 .L0 
     /tmp/ccGKKNOI.s:120    .text:0000000000000044 .L0 
     /tmp/ccGKKNOI.s:123    .text:000000000000004c .L0 
     /tmp/ccGKKNOI.s:127    .text:0000000000000054 .L0 
     /tmp/ccGKKNOI.s:128    .text:0000000000000054 .L0 
     /tmp/ccGKKNOI.s:132    .text:0000000000000060 .L0 
     /tmp/ccGKKNOI.s:133    .text:0000000000000064 .L0 
GAS LISTING /tmp/ccGKKNOI.s 			page 27


     /tmp/ccGKKNOI.s:139    .text:0000000000000064 _ZN9SemaphoreD2Ev
     /tmp/ccGKKNOI.s:142    .text:0000000000000064 .L0 
     /tmp/ccGKKNOI.s:4343   .data.rel.local.DW.ref.__gxx_personality_v0:0000000000000000 DW.ref.__gxx_personality_v0
     /tmp/ccGKKNOI.s:147    .text:0000000000000064 .L0 
     /tmp/ccGKKNOI.s:1118   .data.rel.ro.local._ZTV9Semaphore:0000000000000000 _ZTV9Semaphore
     /tmp/ccGKKNOI.s:148    .text:0000000000000064 .L0 
     /tmp/ccGKKNOI.s:151    .text:0000000000000070 .L0 
     /tmp/ccGKKNOI.s:152    .text:0000000000000070 .L0 
     /tmp/ccGKKNOI.s:155    .text:0000000000000074 .L0 
     /tmp/ccGKKNOI.s:158    .text:0000000000000078 .L0 
     /tmp/ccGKKNOI.s:159    .text:000000000000007c .L0 
     /tmp/ccGKKNOI.s:162    .text:0000000000000084 .L0 
     /tmp/ccGKKNOI.s:163    .text:0000000000000084 .L0 
     /tmp/ccGKKNOI.s:165    .text:0000000000000088 .L0 
     /tmp/ccGKKNOI.s:168    .text:0000000000000088 .L0 
     /tmp/ccGKKNOI.s:169    .text:0000000000000088 .L0 
     /tmp/ccGKKNOI.s:173    .text:0000000000000090 .L0 
     /tmp/ccGKKNOI.s:174    .text:0000000000000094 .L0 
     /tmp/ccGKKNOI.s:176    .text:0000000000000098 .L0 
     /tmp/ccGKKNOI.s:177    .text:0000000000000098 .L0 
     /tmp/ccGKKNOI.s:179    .text:000000000000009c .L0 
     /tmp/ccGKKNOI.s:183    .text:00000000000000a4 .L0 
     /tmp/ccGKKNOI.s:139    .text:0000000000000064 _ZN9SemaphoreD1Ev
     /tmp/ccGKKNOI.s:199    .text:00000000000000a4 _Znwm
     /tmp/ccGKKNOI.s:202    .text:00000000000000a4 .L0 
     /tmp/ccGKKNOI.s:204    .text:00000000000000a4 .L0 
     /tmp/ccGKKNOI.s:205    .text:00000000000000a8 .L0 
     /tmp/ccGKKNOI.s:208    .text:00000000000000b0 .L0 
     /tmp/ccGKKNOI.s:209    .text:00000000000000b0 .L0 
     /tmp/ccGKKNOI.s:211    .text:00000000000000b4 .L0 
     /tmp/ccGKKNOI.s:213    .text:00000000000000b4 .L0 
     /tmp/ccGKKNOI.s:214    .text:00000000000000b4 .L0 
     /tmp/ccGKKNOI.s:217    .text:00000000000000bc .L0 
     /tmp/ccGKKNOI.s:218    .text:00000000000000c0 .L0 
     /tmp/ccGKKNOI.s:220    .text:00000000000000c4 .L0 
     /tmp/ccGKKNOI.s:221    .text:00000000000000c4 .L0 
     /tmp/ccGKKNOI.s:223    .text:00000000000000c8 .L0 
     /tmp/ccGKKNOI.s:225    .text:00000000000000cc .L0 
     /tmp/ccGKKNOI.s:231    .text:00000000000000cc _Znam
     /tmp/ccGKKNOI.s:234    .text:00000000000000cc .L0 
     /tmp/ccGKKNOI.s:236    .text:00000000000000cc .L0 
     /tmp/ccGKKNOI.s:237    .text:00000000000000d0 .L0 
     /tmp/ccGKKNOI.s:240    .text:00000000000000d8 .L0 
     /tmp/ccGKKNOI.s:241    .text:00000000000000d8 .L0 
     /tmp/ccGKKNOI.s:243    .text:00000000000000dc .L0 
     /tmp/ccGKKNOI.s:245    .text:00000000000000dc .L0 
     /tmp/ccGKKNOI.s:246    .text:00000000000000dc .L0 
     /tmp/ccGKKNOI.s:249    .text:00000000000000e4 .L0 
     /tmp/ccGKKNOI.s:250    .text:00000000000000e8 .L0 
     /tmp/ccGKKNOI.s:252    .text:00000000000000ec .L0 
     /tmp/ccGKKNOI.s:253    .text:00000000000000ec .L0 
     /tmp/ccGKKNOI.s:255    .text:00000000000000f0 .L0 
     /tmp/ccGKKNOI.s:257    .text:00000000000000f4 .L0 
     /tmp/ccGKKNOI.s:263    .text:00000000000000f4 _ZdaPv
     /tmp/ccGKKNOI.s:266    .text:00000000000000f4 .L0 
     /tmp/ccGKKNOI.s:270    .text:00000000000000f4 .L0 
     /tmp/ccGKKNOI.s:271    .text:00000000000000f8 .L0 
GAS LISTING /tmp/ccGKKNOI.s 			page 28


     /tmp/ccGKKNOI.s:274    .text:0000000000000100 .L0 
     /tmp/ccGKKNOI.s:275    .text:0000000000000100 .L0 
     /tmp/ccGKKNOI.s:277    .text:0000000000000104 .L0 
     /tmp/ccGKKNOI.s:279    .text:0000000000000104 .L0 
     /tmp/ccGKKNOI.s:280    .text:0000000000000104 .L0 
     /tmp/ccGKKNOI.s:283    .text:000000000000010c .L0 
     /tmp/ccGKKNOI.s:284    .text:0000000000000110 .L0 
     /tmp/ccGKKNOI.s:286    .text:0000000000000114 .L0 
     /tmp/ccGKKNOI.s:287    .text:0000000000000114 .L0 
     /tmp/ccGKKNOI.s:289    .text:0000000000000118 .L0 
     /tmp/ccGKKNOI.s:291    .text:000000000000011c .L0 
     /tmp/ccGKKNOI.s:304    .text:000000000000011c _ZdlPv
     /tmp/ccGKKNOI.s:307    .text:000000000000011c .L0 
     /tmp/ccGKKNOI.s:311    .text:000000000000011c .L0 
     /tmp/ccGKKNOI.s:312    .text:0000000000000120 .L0 
     /tmp/ccGKKNOI.s:315    .text:0000000000000128 .L0 
     /tmp/ccGKKNOI.s:316    .text:0000000000000128 .L0 
     /tmp/ccGKKNOI.s:318    .text:000000000000012c .L0 
     /tmp/ccGKKNOI.s:320    .text:000000000000012c .L0 
     /tmp/ccGKKNOI.s:321    .text:000000000000012c .L0 
     /tmp/ccGKKNOI.s:324    .text:0000000000000134 .L0 
     /tmp/ccGKKNOI.s:325    .text:0000000000000138 .L0 
     /tmp/ccGKKNOI.s:327    .text:000000000000013c .L0 
     /tmp/ccGKKNOI.s:328    .text:000000000000013c .L0 
     /tmp/ccGKKNOI.s:330    .text:0000000000000140 .L0 
     /tmp/ccGKKNOI.s:332    .text:0000000000000144 .L0 
     /tmp/ccGKKNOI.s:345    .text:0000000000000144 _ZN6ThreadD2Ev
     /tmp/ccGKKNOI.s:348    .text:0000000000000144 .L0 
     /tmp/ccGKKNOI.s:351    .text:0000000000000144 .L0 
     /tmp/ccGKKNOI.s:1107   .data.rel.ro.local._ZTV6Thread:0000000000000000 _ZTV6Thread
     /tmp/ccGKKNOI.s:352    .text:0000000000000144 .L0 
     /tmp/ccGKKNOI.s:355    .text:0000000000000150 .L0 
     /tmp/ccGKKNOI.s:356    .text:0000000000000150 .L0 
     /tmp/ccGKKNOI.s:359    .text:0000000000000154 .L0 
     /tmp/ccGKKNOI.s:362    .text:0000000000000158 .L0 
     /tmp/ccGKKNOI.s:363    .text:000000000000015c .L0 
     /tmp/ccGKKNOI.s:366    .text:0000000000000164 .L0 
     /tmp/ccGKKNOI.s:367    .text:0000000000000164 .L0 
     /tmp/ccGKKNOI.s:369    .text:0000000000000168 .L0 
     /tmp/ccGKKNOI.s:372    .text:0000000000000168 .L0 
     /tmp/ccGKKNOI.s:376    .text:0000000000000170 .L0 
     /tmp/ccGKKNOI.s:377    .text:0000000000000174 .L0 
     /tmp/ccGKKNOI.s:379    .text:0000000000000178 .L0 
     /tmp/ccGKKNOI.s:380    .text:0000000000000178 .L0 
     /tmp/ccGKKNOI.s:382    .text:000000000000017c .L0 
     /tmp/ccGKKNOI.s:386    .text:0000000000000184 .L0 
     /tmp/ccGKKNOI.s:345    .text:0000000000000144 _ZN6ThreadD1Ev
     /tmp/ccGKKNOI.s:395    .text._ZN14PeriodicThreadD2Ev:0000000000000000 _ZN14PeriodicThreadD2Ev
     /tmp/ccGKKNOI.s:398    .text._ZN14PeriodicThreadD2Ev:0000000000000000 .L0 
     /tmp/ccGKKNOI.s:400    .text._ZN14PeriodicThreadD2Ev:0000000000000000 .L0 
     /tmp/ccGKKNOI.s:401    .text._ZN14PeriodicThreadD2Ev:0000000000000004 .L0 
     /tmp/ccGKKNOI.s:404    .text._ZN14PeriodicThreadD2Ev:000000000000000c .L0 
     /tmp/ccGKKNOI.s:405    .text._ZN14PeriodicThreadD2Ev:000000000000000c .L0 
     /tmp/ccGKKNOI.s:407    .text._ZN14PeriodicThreadD2Ev:0000000000000010 .L0 
     /tmp/ccGKKNOI.s:1128   .data.rel.ro.local._ZTV14PeriodicThread:0000000000000000 _ZTV14PeriodicThread
     /tmp/ccGKKNOI.s:410    .text._ZN14PeriodicThreadD2Ev:0000000000000010 .L0 
     /tmp/ccGKKNOI.s:416    .text._ZN14PeriodicThreadD2Ev:0000000000000028 .L0 
GAS LISTING /tmp/ccGKKNOI.s 			page 29


     /tmp/ccGKKNOI.s:418    .text._ZN14PeriodicThreadD2Ev:000000000000002c .L0 
     /tmp/ccGKKNOI.s:419    .text._ZN14PeriodicThreadD2Ev:000000000000002c .L0 
     /tmp/ccGKKNOI.s:421    .text._ZN14PeriodicThreadD2Ev:0000000000000030 .L0 
     /tmp/ccGKKNOI.s:423    .text._ZN14PeriodicThreadD2Ev:0000000000000034 .L0 
     /tmp/ccGKKNOI.s:395    .text._ZN14PeriodicThreadD2Ev:0000000000000000 _ZN14PeriodicThreadD1Ev
     /tmp/ccGKKNOI.s:432    .text:0000000000000184 _ZN6ThreadD0Ev
     /tmp/ccGKKNOI.s:435    .text:0000000000000184 .L0 
     /tmp/ccGKKNOI.s:437    .text:0000000000000184 .L0 
     /tmp/ccGKKNOI.s:438    .text:0000000000000188 .L0 
     /tmp/ccGKKNOI.s:442    .text:0000000000000194 .L0 
     /tmp/ccGKKNOI.s:443    .text:0000000000000194 .L0 
     /tmp/ccGKKNOI.s:444    .text:0000000000000194 .L0 
     /tmp/ccGKKNOI.s:446    .text:0000000000000198 .L0 
     /tmp/ccGKKNOI.s:449    .text:000000000000019c .L0 
     /tmp/ccGKKNOI.s:455    .text:00000000000001b4 .L0 
     /tmp/ccGKKNOI.s:457    .text:00000000000001b8 .L0 
     /tmp/ccGKKNOI.s:458    .text:00000000000001b8 .L0 
     /tmp/ccGKKNOI.s:460    .text:00000000000001bc .L0 
     /tmp/ccGKKNOI.s:463    .text:00000000000001c0 .L0 
     /tmp/ccGKKNOI.s:465    .text:00000000000001c4 .L0 
     /tmp/ccGKKNOI.s:471    .text:00000000000001c4 _ZN9SemaphoreD0Ev
     /tmp/ccGKKNOI.s:474    .text:00000000000001c4 .L0 
     /tmp/ccGKKNOI.s:476    .text:00000000000001c4 .L0 
     /tmp/ccGKKNOI.s:477    .text:00000000000001c8 .L0 
     /tmp/ccGKKNOI.s:481    .text:00000000000001d4 .L0 
     /tmp/ccGKKNOI.s:482    .text:00000000000001d4 .L0 
     /tmp/ccGKKNOI.s:483    .text:00000000000001d4 .L0 
     /tmp/ccGKKNOI.s:485    .text:00000000000001d8 .L0 
     /tmp/ccGKKNOI.s:488    .text:00000000000001dc .L0 
     /tmp/ccGKKNOI.s:494    .text:00000000000001f4 .L0 
     /tmp/ccGKKNOI.s:496    .text:00000000000001f8 .L0 
     /tmp/ccGKKNOI.s:497    .text:00000000000001f8 .L0 
     /tmp/ccGKKNOI.s:499    .text:00000000000001fc .L0 
     /tmp/ccGKKNOI.s:502    .text:0000000000000200 .L0 
     /tmp/ccGKKNOI.s:504    .text:0000000000000204 .L0 
     /tmp/ccGKKNOI.s:511    .text._ZN14PeriodicThreadD0Ev:0000000000000000 _ZN14PeriodicThreadD0Ev
     /tmp/ccGKKNOI.s:514    .text._ZN14PeriodicThreadD0Ev:0000000000000000 .L0 
     /tmp/ccGKKNOI.s:516    .text._ZN14PeriodicThreadD0Ev:0000000000000000 .L0 
     /tmp/ccGKKNOI.s:517    .text._ZN14PeriodicThreadD0Ev:0000000000000004 .L0 
     /tmp/ccGKKNOI.s:521    .text._ZN14PeriodicThreadD0Ev:0000000000000010 .L0 
     /tmp/ccGKKNOI.s:522    .text._ZN14PeriodicThreadD0Ev:0000000000000010 .L0 
     /tmp/ccGKKNOI.s:523    .text._ZN14PeriodicThreadD0Ev:0000000000000010 .L0 
     /tmp/ccGKKNOI.s:525    .text._ZN14PeriodicThreadD0Ev:0000000000000014 .L0 
     /tmp/ccGKKNOI.s:531    .text._ZN14PeriodicThreadD0Ev:0000000000000018 .L0 
     /tmp/ccGKKNOI.s:541    .text._ZN14PeriodicThreadD0Ev:000000000000003c .L0 
     /tmp/ccGKKNOI.s:543    .text._ZN14PeriodicThreadD0Ev:0000000000000040 .L0 
     /tmp/ccGKKNOI.s:544    .text._ZN14PeriodicThreadD0Ev:0000000000000040 .L0 
     /tmp/ccGKKNOI.s:546    .text._ZN14PeriodicThreadD0Ev:0000000000000044 .L0 
     /tmp/ccGKKNOI.s:549    .text._ZN14PeriodicThreadD0Ev:0000000000000048 .L0 
     /tmp/ccGKKNOI.s:551    .text._ZN14PeriodicThreadD0Ev:000000000000004c .L0 
     /tmp/ccGKKNOI.s:558    .text:0000000000000204 _ZN6ThreadC2EPFvPvES0_
     /tmp/ccGKKNOI.s:561    .text:0000000000000204 .L0 
     /tmp/ccGKKNOI.s:563    .text:0000000000000204 .L0 
     /tmp/ccGKKNOI.s:564    .text:0000000000000208 .L0 
     /tmp/ccGKKNOI.s:566    .text:000000000000020c .L0 
     /tmp/ccGKKNOI.s:568    .text:0000000000000210 .L0 
     /tmp/ccGKKNOI.s:571    .text:0000000000000210 .L0 
GAS LISTING /tmp/ccGKKNOI.s 			page 30


     /tmp/ccGKKNOI.s:575    .text:0000000000000220 .L0 
     /tmp/ccGKKNOI.s:576    .text:0000000000000220 .L0 
     /tmp/ccGKKNOI.s:578    .text:0000000000000224 .L0 
     /tmp/ccGKKNOI.s:579    .text:0000000000000224 .L0 
     /tmp/ccGKKNOI.s:582    .text:0000000000000228 .L0 
     /tmp/ccGKKNOI.s:583    .text:0000000000000228 .L0 
     /tmp/ccGKKNOI.s:584    .text:000000000000022c .L0 
     /tmp/ccGKKNOI.s:585    .text:000000000000022c .L0 
     /tmp/ccGKKNOI.s:587    .text:0000000000000230 .L0 
     /tmp/ccGKKNOI.s:589    .text:0000000000000234 .L0 
     /tmp/ccGKKNOI.s:558    .text:0000000000000204 _ZN6ThreadC1EPFvPvES0_
     /tmp/ccGKKNOI.s:597    .text:0000000000000234 _ZN6ThreadC2Ev
     /tmp/ccGKKNOI.s:600    .text:0000000000000234 .L0 
     /tmp/ccGKKNOI.s:602    .text:0000000000000234 .L0 
     /tmp/ccGKKNOI.s:603    .text:0000000000000238 .L0 
     /tmp/ccGKKNOI.s:605    .text:000000000000023c .L0 
     /tmp/ccGKKNOI.s:607    .text:0000000000000240 .L0 
     /tmp/ccGKKNOI.s:610    .text:0000000000000240 .L0 
     /tmp/ccGKKNOI.s:614    .text:0000000000000250 .L0 
     /tmp/ccGKKNOI.s:615    .text:0000000000000250 .L0 
     /tmp/ccGKKNOI.s:618    .text:000000000000025c .L0 
     /tmp/ccGKKNOI.s:619    .text:000000000000025c .L0 
     /tmp/ccGKKNOI.s:622    .text:0000000000000260 .L0 
     /tmp/ccGKKNOI.s:623    .text:0000000000000260 .L0 
     /tmp/ccGKKNOI.s:624    .text:0000000000000264 .L0 
     /tmp/ccGKKNOI.s:625    .text:0000000000000264 .L0 
     /tmp/ccGKKNOI.s:627    .text:0000000000000268 .L0 
     /tmp/ccGKKNOI.s:629    .text:000000000000026c .L0 
     /tmp/ccGKKNOI.s:597    .text:0000000000000234 _ZN6ThreadC1Ev
     /tmp/ccGKKNOI.s:637    .text:000000000000026c _ZN6Thread5sleepEm
     /tmp/ccGKKNOI.s:640    .text:000000000000026c .L0 
     /tmp/ccGKKNOI.s:642    .text:000000000000026c .L0 
     /tmp/ccGKKNOI.s:643    .text:0000000000000270 .L0 
     /tmp/ccGKKNOI.s:646    .text:0000000000000278 .L0 
     /tmp/ccGKKNOI.s:647    .text:0000000000000278 .L0 
     /tmp/ccGKKNOI.s:649    .text:000000000000027c .L0 
     /tmp/ccGKKNOI.s:651    .text:000000000000027c .L0 
     /tmp/ccGKKNOI.s:652    .text:000000000000027c .L0 
     /tmp/ccGKKNOI.s:655    .text:0000000000000284 .L0 
     /tmp/ccGKKNOI.s:656    .text:0000000000000288 .L0 
     /tmp/ccGKKNOI.s:658    .text:000000000000028c .L0 
     /tmp/ccGKKNOI.s:659    .text:000000000000028c .L0 
     /tmp/ccGKKNOI.s:661    .text:0000000000000290 .L0 
     /tmp/ccGKKNOI.s:663    .text:0000000000000294 .L0 
     /tmp/ccGKKNOI.s:669    .text:0000000000000294 _ZN6Thread8dispatchEv
     /tmp/ccGKKNOI.s:672    .text:0000000000000294 .L0 
     /tmp/ccGKKNOI.s:673    .text:0000000000000294 .L0 
     /tmp/ccGKKNOI.s:674    .text:0000000000000298 .L0 
     /tmp/ccGKKNOI.s:677    .text:00000000000002a0 .L0 
     /tmp/ccGKKNOI.s:678    .text:00000000000002a0 .L0 
     /tmp/ccGKKNOI.s:680    .text:00000000000002a4 .L0 
     /tmp/ccGKKNOI.s:682    .text:00000000000002a4 .L0 
     /tmp/ccGKKNOI.s:683    .text:00000000000002a4 .L0 
     /tmp/ccGKKNOI.s:686    .text:00000000000002ac .L0 
     /tmp/ccGKKNOI.s:687    .text:00000000000002b0 .L0 
     /tmp/ccGKKNOI.s:689    .text:00000000000002b4 .L0 
     /tmp/ccGKKNOI.s:690    .text:00000000000002b4 .L0 
GAS LISTING /tmp/ccGKKNOI.s 			page 31


     /tmp/ccGKKNOI.s:692    .text:00000000000002b8 .L0 
     /tmp/ccGKKNOI.s:694    .text:00000000000002bc .L0 
     /tmp/ccGKKNOI.s:700    .text:00000000000002bc _ZN6Thread5startEv
     /tmp/ccGKKNOI.s:703    .text:00000000000002bc .L0 
     /tmp/ccGKKNOI.s:705    .text:00000000000002bc .L0 
     /tmp/ccGKKNOI.s:706    .text:00000000000002c0 .L0 
     /tmp/ccGKKNOI.s:709    .text:00000000000002c8 .L0 
     /tmp/ccGKKNOI.s:710    .text:00000000000002c8 .L0 
     /tmp/ccGKKNOI.s:712    .text:00000000000002cc .L0 
     /tmp/ccGKKNOI.s:714    .text:00000000000002cc .L0 
     /tmp/ccGKKNOI.s:715    .text:00000000000002cc .L0 
     /tmp/ccGKKNOI.s:722    .text:00000000000002e0 .L0 
     /tmp/ccGKKNOI.s:723    .text:00000000000002e4 .L0 
     /tmp/ccGKKNOI.s:725    .text:00000000000002e8 .L0 
     /tmp/ccGKKNOI.s:726    .text:00000000000002e8 .L0 
     /tmp/ccGKKNOI.s:728    .text:00000000000002ec .L0 
     /tmp/ccGKKNOI.s:730    .text:00000000000002f0 .L0 
     /tmp/ccGKKNOI.s:736    .text:00000000000002f0 _ZN9SemaphoreC2Ej
     /tmp/ccGKKNOI.s:739    .text:00000000000002f0 .L0 
     /tmp/ccGKKNOI.s:741    .text:00000000000002f0 .L0 
     /tmp/ccGKKNOI.s:742    .text:00000000000002f4 .L0 
     /tmp/ccGKKNOI.s:745    .text:00000000000002fc .L0 
     /tmp/ccGKKNOI.s:746    .text:00000000000002fc .L0 
     /tmp/ccGKKNOI.s:748    .text:0000000000000300 .L0 
     /tmp/ccGKKNOI.s:751    .text:0000000000000300 .L0 
     /tmp/ccGKKNOI.s:755    .text:0000000000000310 .L0 
     /tmp/ccGKKNOI.s:756    .text:0000000000000310 .L0 
     /tmp/ccGKKNOI.s:762    .text:000000000000031c .L0 
     /tmp/ccGKKNOI.s:763    .text:0000000000000320 .L0 
     /tmp/ccGKKNOI.s:765    .text:0000000000000324 .L0 
     /tmp/ccGKKNOI.s:766    .text:0000000000000324 .L0 
     /tmp/ccGKKNOI.s:768    .text:0000000000000328 .L0 
     /tmp/ccGKKNOI.s:770    .text:000000000000032c .L0 
     /tmp/ccGKKNOI.s:736    .text:00000000000002f0 _ZN9SemaphoreC1Ej
     /tmp/ccGKKNOI.s:778    .text:000000000000032c _ZN9Semaphore4waitEv
     /tmp/ccGKKNOI.s:781    .text:000000000000032c .L0 
     /tmp/ccGKKNOI.s:783    .text:000000000000032c .L0 
     /tmp/ccGKKNOI.s:784    .text:000000000000032c .L0 
     /tmp/ccGKKNOI.s:785    .text:000000000000032c .L0 
     /tmp/ccGKKNOI.s:788    .text:0000000000000330 .L0 
     /tmp/ccGKKNOI.s:790    .text:0000000000000334 .L0 
     /tmp/ccGKKNOI.s:791    .text:0000000000000338 .L0 
     /tmp/ccGKKNOI.s:794    .text:0000000000000340 .L0 
     /tmp/ccGKKNOI.s:795    .text:0000000000000340 .L0 
     /tmp/ccGKKNOI.s:797    .text:0000000000000344 .L0 
     /tmp/ccGKKNOI.s:799    .text:0000000000000344 .L0 
     /tmp/ccGKKNOI.s:800    .text:0000000000000344 .L0 
     /tmp/ccGKKNOI.s:803    .text:000000000000034c .L0 
     /tmp/ccGKKNOI.s:804    .text:0000000000000350 .L0 
     /tmp/ccGKKNOI.s:806    .text:0000000000000354 .L0 
     /tmp/ccGKKNOI.s:807    .text:0000000000000354 .L0 
     /tmp/ccGKKNOI.s:809    .text:0000000000000358 .L0 
     /tmp/ccGKKNOI.s:813    .text:000000000000035c .L0 
     /tmp/ccGKKNOI.s:815    .text:0000000000000360 .L0 
     /tmp/ccGKKNOI.s:816    .text:0000000000000364 .L0 
     /tmp/ccGKKNOI.s:822    .text:0000000000000364 _ZN9Semaphore6signalEv
     /tmp/ccGKKNOI.s:825    .text:0000000000000364 .L0 
GAS LISTING /tmp/ccGKKNOI.s 			page 32


     /tmp/ccGKKNOI.s:827    .text:0000000000000364 .L0 
     /tmp/ccGKKNOI.s:828    .text:0000000000000364 .L0 
     /tmp/ccGKKNOI.s:829    .text:0000000000000364 .L0 
     /tmp/ccGKKNOI.s:832    .text:0000000000000368 .L0 
     /tmp/ccGKKNOI.s:834    .text:000000000000036c .L0 
     /tmp/ccGKKNOI.s:835    .text:0000000000000370 .L0 
     /tmp/ccGKKNOI.s:838    .text:0000000000000378 .L0 
     /tmp/ccGKKNOI.s:839    .text:0000000000000378 .L0 
     /tmp/ccGKKNOI.s:841    .text:000000000000037c .L0 
     /tmp/ccGKKNOI.s:843    .text:000000000000037c .L0 
     /tmp/ccGKKNOI.s:844    .text:000000000000037c .L0 
     /tmp/ccGKKNOI.s:847    .text:0000000000000384 .L0 
     /tmp/ccGKKNOI.s:848    .text:0000000000000388 .L0 
     /tmp/ccGKKNOI.s:850    .text:000000000000038c .L0 
     /tmp/ccGKKNOI.s:851    .text:000000000000038c .L0 
     /tmp/ccGKKNOI.s:853    .text:0000000000000390 .L0 
     /tmp/ccGKKNOI.s:857    .text:0000000000000394 .L0 
     /tmp/ccGKKNOI.s:859    .text:0000000000000398 .L0 
     /tmp/ccGKKNOI.s:860    .text:000000000000039c .L0 
     /tmp/ccGKKNOI.s:866    .text:000000000000039c _ZN9Semaphore9timedWaitEm
     /tmp/ccGKKNOI.s:869    .text:000000000000039c .L0 
     /tmp/ccGKKNOI.s:871    .text:000000000000039c .L0 
     /tmp/ccGKKNOI.s:872    .text:000000000000039c .L0 
     /tmp/ccGKKNOI.s:873    .text:000000000000039c .L0 
     /tmp/ccGKKNOI.s:876    .text:00000000000003a0 .L0 
     /tmp/ccGKKNOI.s:878    .text:00000000000003a4 .L0 
     /tmp/ccGKKNOI.s:880    .text:00000000000003a8 .L0 
     /tmp/ccGKKNOI.s:881    .text:00000000000003ac .L0 
     /tmp/ccGKKNOI.s:884    .text:00000000000003b4 .L0 
     /tmp/ccGKKNOI.s:885    .text:00000000000003b4 .L0 
     /tmp/ccGKKNOI.s:887    .text:00000000000003b8 .L0 
     /tmp/ccGKKNOI.s:889    .text:00000000000003b8 .L0 
     /tmp/ccGKKNOI.s:890    .text:00000000000003b8 .L0 
     /tmp/ccGKKNOI.s:893    .text:00000000000003c0 .L0 
     /tmp/ccGKKNOI.s:894    .text:00000000000003c4 .L0 
     /tmp/ccGKKNOI.s:896    .text:00000000000003c8 .L0 
     /tmp/ccGKKNOI.s:897    .text:00000000000003c8 .L0 
     /tmp/ccGKKNOI.s:899    .text:00000000000003cc .L0 
     /tmp/ccGKKNOI.s:904    .text:00000000000003d0 .L0 
     /tmp/ccGKKNOI.s:909    .text:00000000000003dc .L0 
     /tmp/ccGKKNOI.s:910    .text:00000000000003e0 .L0 
     /tmp/ccGKKNOI.s:916    .text:00000000000003e0 _ZN9Semaphore7tryWaitEv
     /tmp/ccGKKNOI.s:919    .text:00000000000003e0 .L0 
     /tmp/ccGKKNOI.s:921    .text:00000000000003e0 .L0 
     /tmp/ccGKKNOI.s:922    .text:00000000000003e0 .L0 
     /tmp/ccGKKNOI.s:923    .text:00000000000003e0 .L0 
     /tmp/ccGKKNOI.s:926    .text:00000000000003e4 .L0 
     /tmp/ccGKKNOI.s:928    .text:00000000000003e8 .L0 
     /tmp/ccGKKNOI.s:929    .text:00000000000003ec .L0 
     /tmp/ccGKKNOI.s:932    .text:00000000000003f4 .L0 
     /tmp/ccGKKNOI.s:933    .text:00000000000003f4 .L0 
     /tmp/ccGKKNOI.s:935    .text:00000000000003f8 .L0 
     /tmp/ccGKKNOI.s:937    .text:00000000000003f8 .L0 
     /tmp/ccGKKNOI.s:938    .text:00000000000003f8 .L0 
     /tmp/ccGKKNOI.s:941    .text:0000000000000400 .L0 
     /tmp/ccGKKNOI.s:942    .text:0000000000000404 .L0 
     /tmp/ccGKKNOI.s:944    .text:0000000000000408 .L0 
GAS LISTING /tmp/ccGKKNOI.s 			page 33


     /tmp/ccGKKNOI.s:945    .text:0000000000000408 .L0 
     /tmp/ccGKKNOI.s:947    .text:000000000000040c .L0 
     /tmp/ccGKKNOI.s:951    .text:0000000000000410 .L0 
     /tmp/ccGKKNOI.s:953    .text:0000000000000414 .L0 
     /tmp/ccGKKNOI.s:954    .text:0000000000000418 .L0 
     /tmp/ccGKKNOI.s:960    .text:0000000000000418 _ZN7Console4getcEv
     /tmp/ccGKKNOI.s:963    .text:0000000000000418 .L0 
     /tmp/ccGKKNOI.s:964    .text:0000000000000418 .L0 
     /tmp/ccGKKNOI.s:965    .text:000000000000041c .L0 
     /tmp/ccGKKNOI.s:968    .text:0000000000000424 .L0 
     /tmp/ccGKKNOI.s:969    .text:0000000000000424 .L0 
     /tmp/ccGKKNOI.s:971    .text:0000000000000428 .L0 
     /tmp/ccGKKNOI.s:973    .text:0000000000000428 .L0 
     /tmp/ccGKKNOI.s:974    .text:0000000000000428 .L0 
     /tmp/ccGKKNOI.s:977    .text:0000000000000430 .L0 
     /tmp/ccGKKNOI.s:978    .text:0000000000000434 .L0 
     /tmp/ccGKKNOI.s:980    .text:0000000000000438 .L0 
     /tmp/ccGKKNOI.s:981    .text:0000000000000438 .L0 
     /tmp/ccGKKNOI.s:983    .text:000000000000043c .L0 
     /tmp/ccGKKNOI.s:985    .text:0000000000000440 .L0 
     /tmp/ccGKKNOI.s:991    .text:0000000000000440 _ZN7Console4putcEc
     /tmp/ccGKKNOI.s:994    .text:0000000000000440 .L0 
     /tmp/ccGKKNOI.s:996    .text:0000000000000440 .L0 
     /tmp/ccGKKNOI.s:997    .text:0000000000000444 .L0 
     /tmp/ccGKKNOI.s:1000   .text:000000000000044c .L0 
     /tmp/ccGKKNOI.s:1001   .text:000000000000044c .L0 
     /tmp/ccGKKNOI.s:1003   .text:0000000000000450 .L0 
     /tmp/ccGKKNOI.s:1005   .text:0000000000000450 .L0 
     /tmp/ccGKKNOI.s:1006   .text:0000000000000450 .L0 
     /tmp/ccGKKNOI.s:1009   .text:0000000000000458 .L0 
     /tmp/ccGKKNOI.s:1010   .text:000000000000045c .L0 
     /tmp/ccGKKNOI.s:1012   .text:0000000000000460 .L0 
     /tmp/ccGKKNOI.s:1013   .text:0000000000000460 .L0 
     /tmp/ccGKKNOI.s:1015   .text:0000000000000464 .L0 
     /tmp/ccGKKNOI.s:1017   .text:0000000000000468 .L0 
     /tmp/ccGKKNOI.s:1023   .text:0000000000000468 _ZN14PeriodicThreadC2Em
     /tmp/ccGKKNOI.s:1026   .text:0000000000000468 .L0 
     /tmp/ccGKKNOI.s:1028   .text:0000000000000468 .L0 
     /tmp/ccGKKNOI.s:1029   .text:000000000000046c .L0 
     /tmp/ccGKKNOI.s:1034   .text:000000000000047c .L0 
     /tmp/ccGKKNOI.s:1035   .text:000000000000047c .L0 
     /tmp/ccGKKNOI.s:1036   .text:000000000000047c .L0 
     /tmp/ccGKKNOI.s:1037   .text:000000000000047c .L0 
     /tmp/ccGKKNOI.s:1039   .text:0000000000000480 .L0 
     /tmp/ccGKKNOI.s:1044   .text:0000000000000488 .L0 
     /tmp/ccGKKNOI.s:1051   .text:00000000000004a0 .L0 
     /tmp/ccGKKNOI.s:1052   .text:00000000000004a4 .L0 
     /tmp/ccGKKNOI.s:1054   .text:00000000000004a8 .L0 
     /tmp/ccGKKNOI.s:1055   .text:00000000000004a8 .L0 
     /tmp/ccGKKNOI.s:1057   .text:00000000000004ac .L0 
     /tmp/ccGKKNOI.s:1060   .text:00000000000004b0 .L0 
     /tmp/ccGKKNOI.s:1063   .text:00000000000004b4 .L0 
     /tmp/ccGKKNOI.s:1065   .text:00000000000004b8 .L0 
     /tmp/ccGKKNOI.s:1023   .text:0000000000000468 _ZN14PeriodicThreadC1Em
     /tmp/ccGKKNOI.s:1073   .text:00000000000004b8 _ZN14PeriodicThread9terminateEv
     /tmp/ccGKKNOI.s:1076   .text:00000000000004b8 .L0 
     /tmp/ccGKKNOI.s:1078   .text:00000000000004b8 .L0 
GAS LISTING /tmp/ccGKKNOI.s 			page 34


     /tmp/ccGKKNOI.s:1079   .text:00000000000004bc .L0 
     /tmp/ccGKKNOI.s:1082   .text:00000000000004c4 .L0 
     /tmp/ccGKKNOI.s:1083   .text:00000000000004c4 .L0 
     /tmp/ccGKKNOI.s:1085   .text:00000000000004c8 .L0 
     /tmp/ccGKKNOI.s:1087   .text:00000000000004c8 .L0 
     /tmp/ccGKKNOI.s:1088   .text:00000000000004c8 .L0 
     /tmp/ccGKKNOI.s:1091   .text:00000000000004d0 .L0 
     /tmp/ccGKKNOI.s:1092   .text:00000000000004d4 .L0 
     /tmp/ccGKKNOI.s:1094   .text:00000000000004d8 .L0 
     /tmp/ccGKKNOI.s:1095   .text:00000000000004d8 .L0 
     /tmp/ccGKKNOI.s:1097   .text:00000000000004dc .L0 
     /tmp/ccGKKNOI.s:1099   .text:00000000000004e0 .L0 
     /tmp/ccGKKNOI.s:32     .text._ZN6Thread3runEv:0000000000000018 .L0 
     /tmp/ccGKKNOI.s:57     .text._ZN14PeriodicThread18periodicActivationEv:0000000000000018 .L0 
     /tmp/ccGKKNOI.s:1140   .text:00000000000004e0 .L0 
     /tmp/ccGKKNOI.s:428    .text._ZN14PeriodicThreadD2Ev:0000000000000034 .L0 
     /tmp/ccGKKNOI.s:554    .text._ZN14PeriodicThreadD0Ev:000000000000004c .L0 
     /tmp/ccGKKNOI.s:148    .text:0000000000000064 .L0 
     /tmp/ccGKKNOI.s:352    .text:0000000000000144 .L0 
     /tmp/ccGKKNOI.s:571    .text:0000000000000210 .L0 
     /tmp/ccGKKNOI.s:610    .text:0000000000000240 .L0 
     /tmp/ccGKKNOI.s:615    .text:0000000000000250 .L0 
     /tmp/ccGKKNOI.s:751    .text:0000000000000300 .L0 
     /tmp/ccGKKNOI.s:1046   .text:0000000000000490 .L0 
     /tmp/ccGKKNOI.s:116    .text:0000000000000044 .L8
     /tmp/ccGKKNOI.s:181    .text:00000000000000a0 .L13
     /tmp/ccGKKNOI.s:384    .text:0000000000000180 .L27
     /tmp/ccGKKNOI.s:811    .text:000000000000035c .L52
     /tmp/ccGKKNOI.s:855    .text:0000000000000394 .L59
     /tmp/ccGKKNOI.s:902    .text:00000000000003d0 .L66
     /tmp/ccGKKNOI.s:906    .text:00000000000003d8 .L67
     /tmp/ccGKKNOI.s:949    .text:0000000000000410 .L74
     /tmp/ccGKKNOI.s:410    .text._ZN14PeriodicThreadD2Ev:0000000000000010 .L0 
     /tmp/ccGKKNOI.s:531    .text._ZN14PeriodicThreadD0Ev:0000000000000018 .L0 
     /tmp/ccGKKNOI.s:2627   .debug_abbrev:0000000000000000 .Ldebug_abbrev0
     /tmp/ccGKKNOI.s:4295   .debug_str:000000000000062b .LASF110
     /tmp/ccGKKNOI.s:4271   .debug_str:000000000000057d .LASF111
     /tmp/ccGKKNOI.s:4157   .debug_str:0000000000000208 .LASF112
     /tmp/ccGKKNOI.s:4073   .debug_ranges:0000000000000000 .Ldebug_ranges0
     /tmp/ccGKKNOI.s:4087   .debug_line:0000000000000000 .Ldebug_line0
     /tmp/ccGKKNOI.s:4223   .debug_str:000000000000040a .LASF0
     /tmp/ccGKKNOI.s:4235   .debug_str:0000000000000460 .LASF1
     /tmp/ccGKKNOI.s:4213   .debug_str:00000000000003c9 .LASF2
     /tmp/ccGKKNOI.s:4189   .debug_str:0000000000000323 .LASF4
     /tmp/ccGKKNOI.s:4279   .debug_str:00000000000005b9 .LASF3
     /tmp/ccGKKNOI.s:4115   .debug_str:00000000000000ca .LASF5
     /tmp/ccGKKNOI.s:4141   .debug_str:00000000000001b3 .LASF6
     /tmp/ccGKKNOI.s:4241   .debug_str:0000000000000497 .LASF7
     /tmp/ccGKKNOI.s:4221   .debug_str:00000000000003f7 .LASF8
     /tmp/ccGKKNOI.s:4309   .debug_str:0000000000000746 .LASF9
     /tmp/ccGKKNOI.s:4173   .debug_str:00000000000002a7 .LASF10
     /tmp/ccGKKNOI.s:4251   .debug_str:00000000000004cb .LASF11
     /tmp/ccGKKNOI.s:4297   .debug_str:00000000000006ef .LASF12
     /tmp/ccGKKNOI.s:4117   .debug_str:00000000000000d1 .LASF13
     /tmp/ccGKKNOI.s:4095   .debug_str:000000000000002b .LASF14
     /tmp/ccGKKNOI.s:4127   .debug_str:0000000000000123 .LASF15
     /tmp/ccGKKNOI.s:4275   .debug_str:000000000000059c .LASF16
GAS LISTING /tmp/ccGKKNOI.s 			page 35


     /tmp/ccGKKNOI.s:4135   .debug_str:0000000000000180 .LASF17
     /tmp/ccGKKNOI.s:4089   .debug_str:0000000000000000 .LASF18
     /tmp/ccGKKNOI.s:4147   .debug_str:00000000000001d5 .LASF19
     /tmp/ccGKKNOI.s:4185   .debug_str:0000000000000309 .LASF113
     /tmp/ccGKKNOI.s:4097   .debug_str:000000000000003b .LASF89
     /tmp/ccGKKNOI.s:4121   .debug_str:00000000000000e6 .LASF114
     /tmp/ccGKKNOI.s:4215   .debug_str:00000000000003d7 .LASF22
     /tmp/ccGKKNOI.s:4237   .debug_str:0000000000000473 .LASF115
     /tmp/ccGKKNOI.s:4243   .debug_str:00000000000004aa .LASF20
     /tmp/ccGKKNOI.s:4181   .debug_str:00000000000002e7 .LASF21
     /tmp/ccGKKNOI.s:4247   .debug_str:00000000000004b6 .LASF23
     /tmp/ccGKKNOI.s:4103   .debug_str:0000000000000060 .LASF24
     /tmp/ccGKKNOI.s:4323   .debug_str:000000000000079c .LASF25
     /tmp/ccGKKNOI.s:4107   .debug_str:0000000000000086 .LASF26
     /tmp/ccGKKNOI.s:4291   .debug_str:00000000000005fc .LASF27
     /tmp/ccGKKNOI.s:4111   .debug_str:00000000000000a2 .LASF28
     /tmp/ccGKKNOI.s:4195   .debug_str:0000000000000349 .LASF29
     /tmp/ccGKKNOI.s:4131   .debug_str:0000000000000143 .LASF116
     /tmp/ccGKKNOI.s:4177   .debug_str:00000000000002c8 .LASF36
     /tmp/ccGKKNOI.s:4191   .debug_str:000000000000032a .LASF38
     /tmp/ccGKKNOI.s:4329   .debug_str:00000000000007dc .LASF117
     /tmp/ccGKKNOI.s:4193   .debug_str:0000000000000331 .LASF118
     /tmp/ccGKKNOI.s:4303   .debug_str:0000000000000728 .LASF30
     /tmp/ccGKKNOI.s:4217   .debug_str:00000000000003dc .LASF31
     /tmp/ccGKKNOI.s:4211   .debug_str:00000000000003bc .LASF43
     /tmp/ccGKKNOI.s:4255   .debug_str:00000000000004f0 .LASF32
     /tmp/ccGKKNOI.s:4199   .debug_str:0000000000000366 .LASF46
     /tmp/ccGKKNOI.s:4229   .debug_str:0000000000000438 .LASF48
     /tmp/ccGKKNOI.s:4233   .debug_str:000000000000045a .LASF50
     /tmp/ccGKKNOI.s:4171   .debug_str:0000000000000294 .LASF52
     /tmp/ccGKKNOI.s:4225   .debug_str:0000000000000417 .LASF119
     /tmp/ccGKKNOI.s:4163   .debug_str:0000000000000241 .LASF120
     /tmp/ccGKKNOI.s:4333   .debug_str:00000000000007f5 .LASF33
     /tmp/ccGKKNOI.s:4175   .debug_str:00000000000002b5 .LASF34
     /tmp/ccGKKNOI.s:4265   .debug_str:000000000000054c .LASF35
     /tmp/ccGKKNOI.s:4155   .debug_str:00000000000001f7 .LASF37
     /tmp/ccGKKNOI.s:4331   .debug_str:00000000000007ec .LASF39
     /tmp/ccGKKNOI.s:4119   .debug_str:00000000000000e1 .LASF40
     /tmp/ccGKKNOI.s:4287   .debug_str:00000000000005ef .LASF121
     /tmp/ccGKKNOI.s:4253   .debug_str:00000000000004da .LASF122
     /tmp/ccGKKNOI.s:4091   .debug_str:0000000000000009 .LASF41
     /tmp/ccGKKNOI.s:4201   .debug_str:000000000000036e .LASF42
     /tmp/ccGKKNOI.s:4113   .debug_str:00000000000000ba .LASF44
     /tmp/ccGKKNOI.s:4301   .debug_str:0000000000000716 .LASF45
     /tmp/ccGKKNOI.s:4269   .debug_str:0000000000000572 .LASF47
     /tmp/ccGKKNOI.s:4123   .debug_str:00000000000000f9 .LASF49
     /tmp/ccGKKNOI.s:4153   .debug_str:00000000000001f2 .LASF51
     /tmp/ccGKKNOI.s:4327   .debug_str:00000000000007c7 .LASF53
     /tmp/ccGKKNOI.s:4245   .debug_str:00000000000004af .LASF54
     /tmp/ccGKKNOI.s:4267   .debug_str:000000000000055b .LASF55
     /tmp/ccGKKNOI.s:4261   .debug_str:0000000000000521 .LASF56
     /tmp/ccGKKNOI.s:4203   .debug_str:0000000000000383 .LASF57
     /tmp/ccGKKNOI.s:4317   .debug_str:0000000000000779 .LASF58
     /tmp/ccGKKNOI.s:4125   .debug_str:000000000000010b .LASF59
     /tmp/ccGKKNOI.s:4311   .debug_str:0000000000000756 .LASF123
     /tmp/ccGKKNOI.s:4259   .debug_str:000000000000051c .LASF60
     /tmp/ccGKKNOI.s:4283   .debug_str:00000000000005d5 .LASF61
GAS LISTING /tmp/ccGKKNOI.s 			page 36


     /tmp/ccGKKNOI.s:4299   .debug_str:00000000000006fe .LASF62
     /tmp/ccGKKNOI.s:512    .text._ZN14PeriodicThreadD0Ev:0000000000000000 .LFB41
     /tmp/ccGKKNOI.s:552    .text._ZN14PeriodicThreadD0Ev:000000000000004c .LFE41
     /tmp/ccGKKNOI.s:3637   .debug_loc:0000000000000000 .LLST12
     /tmp/ccGKKNOI.s:528    .text._ZN14PeriodicThreadD0Ev:0000000000000018 .LBB10
     /tmp/ccGKKNOI.s:536    .text._ZN14PeriodicThreadD0Ev:000000000000002c .LBE10
     /tmp/ccGKKNOI.s:3655   .debug_loc:000000000000004c .LLST13
     /tmp/ccGKKNOI.s:534    .text._ZN14PeriodicThreadD0Ev:000000000000002c .LVL35
     /tmp/ccGKKNOI.s:539    .text._ZN14PeriodicThreadD0Ev:0000000000000038 .LVL36
     /tmp/ccGKKNOI.s:4227   .debug_str:0000000000000420 .LASF63
     /tmp/ccGKKNOI.s:396    .text._ZN14PeriodicThreadD2Ev:0000000000000000 .LFB39
     /tmp/ccGKKNOI.s:424    .text._ZN14PeriodicThreadD2Ev:0000000000000034 .LFE39
     /tmp/ccGKKNOI.s:3666   .debug_loc:0000000000000082 .LLST9
     /tmp/ccGKKNOI.s:413    .text._ZN14PeriodicThreadD2Ev:0000000000000024 .LVL24
     /tmp/ccGKKNOI.s:100    .text:000000000000002c .LFB37
     /tmp/ccGKKNOI.s:134    .text:0000000000000064 .LFE37
     /tmp/ccGKKNOI.s:3680   .debug_loc:00000000000000bb .LLST2
     /tmp/ccGKKNOI.s:125    .text:0000000000000054 .LVL7
     /tmp/ccGKKNOI.s:130    .text:0000000000000060 .LVL8
     /tmp/ccGKKNOI.s:1074   .text:00000000000004b8 .LFB36
     /tmp/ccGKKNOI.s:1100   .text:00000000000004e0 .LFE36
     /tmp/ccGKKNOI.s:3691   .debug_loc:00000000000000f1 .LLST26
     /tmp/ccGKKNOI.s:1089   .text:00000000000004d0 .LVL70
     /tmp/ccGKKNOI.s:4165   .debug_str:0000000000000257 .LASF64
     /tmp/ccGKKNOI.s:1024   .text:0000000000000468 .LFB34
     /tmp/ccGKKNOI.s:1066   .text:00000000000004b8 .LFE34
     /tmp/ccGKKNOI.s:3705   .debug_loc:000000000000012a .LLST24
     /tmp/ccGKKNOI.s:3723   .debug_loc:0000000000000176 .LLST25
     /tmp/ccGKKNOI.s:1045   .text:0000000000000490 .LVL66
     /tmp/ccGKKNOI.s:992    .text:0000000000000440 .LFB32
     /tmp/ccGKKNOI.s:1018   .text:0000000000000468 .LFE32
     /tmp/ccGKKNOI.s:3742   .debug_loc:00000000000001c3 .LLST23
     /tmp/ccGKKNOI.s:1007   .text:0000000000000458 .LVL64
     /tmp/ccGKKNOI.s:961    .text:0000000000000418 .LFB31
     /tmp/ccGKKNOI.s:986    .text:0000000000000440 .LFE31
     /tmp/ccGKKNOI.s:975    .text:0000000000000430 .LVL62
     /tmp/ccGKKNOI.s:917    .text:00000000000003e0 .LFB30
     /tmp/ccGKKNOI.s:955    .text:0000000000000418 .LFE30
     /tmp/ccGKKNOI.s:3756   .debug_loc:00000000000001fc .LLST22
     /tmp/ccGKKNOI.s:939    .text:0000000000000400 .LVL61
     /tmp/ccGKKNOI.s:867    .text:000000000000039c .LFB29
     /tmp/ccGKKNOI.s:911    .text:00000000000003e0 .LFE29
     /tmp/ccGKKNOI.s:3770   .debug_loc:0000000000000235 .LLST20
     /tmp/ccGKKNOI.s:4313   .debug_str:0000000000000766 .LASF65
     /tmp/ccGKKNOI.s:3784   .debug_loc:000000000000026e .LLST21
     /tmp/ccGKKNOI.s:891    .text:00000000000003c0 .LVL57
     /tmp/ccGKKNOI.s:823    .text:0000000000000364 .LFB28
     /tmp/ccGKKNOI.s:861    .text:000000000000039c .LFE28
     /tmp/ccGKKNOI.s:3802   .debug_loc:00000000000002ba .LLST19
     /tmp/ccGKKNOI.s:845    .text:0000000000000384 .LVL54
     /tmp/ccGKKNOI.s:779    .text:000000000000032c .LFB27
     /tmp/ccGKKNOI.s:817    .text:0000000000000364 .LFE27
     /tmp/ccGKKNOI.s:3816   .debug_loc:00000000000002f3 .LLST18
     /tmp/ccGKKNOI.s:801    .text:000000000000034c .LVL51
     /tmp/ccGKKNOI.s:4161   .debug_str:000000000000022f .LASF66
     /tmp/ccGKKNOI.s:472    .text:00000000000001c4 .LFB26
     /tmp/ccGKKNOI.s:505    .text:0000000000000204 .LFE26
GAS LISTING /tmp/ccGKKNOI.s 			page 37


     /tmp/ccGKKNOI.s:3830   .debug_loc:000000000000032c .LLST11
     /tmp/ccGKKNOI.s:489    .text:00000000000001e4 .LVL30
     /tmp/ccGKKNOI.s:492    .text:00000000000001f0 .LVL31
     /tmp/ccGKKNOI.s:4187   .debug_str:0000000000000311 .LASF67
     /tmp/ccGKKNOI.s:140    .text:0000000000000064 .LFB24
     /tmp/ccGKKNOI.s:184    .text:00000000000000a4 .LFE24
     /tmp/ccGKKNOI.s:3848   .debug_loc:0000000000000378 .LLST3
     /tmp/ccGKKNOI.s:170    .text:0000000000000090 .LVL11
     /tmp/ccGKKNOI.s:4179   .debug_str:00000000000002e2 .LASF68
     /tmp/ccGKKNOI.s:4109   .debug_str:0000000000000090 .LASF69
     /tmp/ccGKKNOI.s:737    .text:00000000000002f0 .LFB21
     /tmp/ccGKKNOI.s:771    .text:000000000000032c .LFE21
     /tmp/ccGKKNOI.s:3862   .debug_loc:00000000000003b1 .LLST16
     /tmp/ccGKKNOI.s:3882   .debug_loc:00000000000003ff .LLST17
     /tmp/ccGKKNOI.s:759    .text:000000000000031c .LVL48
     /tmp/ccGKKNOI.s:62     .text:0000000000000000 .LFB19
     /tmp/ccGKKNOI.s:94     .text:000000000000002c .LFE19
     /tmp/ccGKKNOI.s:3896   .debug_loc:0000000000000438 .LLST0
     /tmp/ccGKKNOI.s:3910   .debug_loc:0000000000000471 .LLST1
     /tmp/ccGKKNOI.s:83     .text:000000000000001c .LVL4
     /tmp/ccGKKNOI.s:701    .text:00000000000002bc .LFB18
     /tmp/ccGKKNOI.s:731    .text:00000000000002f0 .LFE18
     /tmp/ccGKKNOI.s:3924   .debug_loc:00000000000004aa .LLST15
     /tmp/ccGKKNOI.s:720    .text:00000000000002e0 .LVL45
     /tmp/ccGKKNOI.s:670    .text:0000000000000294 .LFB17
     /tmp/ccGKKNOI.s:695    .text:00000000000002bc .LFE17
     /tmp/ccGKKNOI.s:684    .text:00000000000002ac .LVL42
     /tmp/ccGKKNOI.s:638    .text:000000000000026c .LFB16
     /tmp/ccGKKNOI.s:664    .text:0000000000000294 .LFE16
     /tmp/ccGKKNOI.s:3944   .debug_loc:00000000000004f8 .LLST14
     /tmp/ccGKKNOI.s:653    .text:0000000000000284 .LVL41
     /tmp/ccGKKNOI.s:4099   .debug_str:0000000000000040 .LASF70
     /tmp/ccGKKNOI.s:433    .text:0000000000000184 .LFB15
     /tmp/ccGKKNOI.s:466    .text:00000000000001c4 .LFE15
     /tmp/ccGKKNOI.s:3958   .debug_loc:0000000000000531 .LLST10
     /tmp/ccGKKNOI.s:450    .text:00000000000001a4 .LVL26
     /tmp/ccGKKNOI.s:453    .text:00000000000001b0 .LVL27
     /tmp/ccGKKNOI.s:4293   .debug_str:000000000000061c .LASF71
     /tmp/ccGKKNOI.s:346    .text:0000000000000144 .LFB13
     /tmp/ccGKKNOI.s:387    .text:0000000000000184 .LFE13
     /tmp/ccGKKNOI.s:3976   .debug_loc:000000000000057d .LLST8
     /tmp/ccGKKNOI.s:373    .text:0000000000000170 .LVL22
     /tmp/ccGKKNOI.s:4139   .debug_str:00000000000001a4 .LASF72
     /tmp/ccGKKNOI.s:598    .text:0000000000000234 .LFB10
     /tmp/ccGKKNOI.s:630    .text:000000000000026c .LFE10
     /tmp/ccGKKNOI.s:4183   .debug_str:00000000000002f2 .LASF73
     /tmp/ccGKKNOI.s:559    .text:0000000000000204 .LFB7
     /tmp/ccGKKNOI.s:590    .text:0000000000000234 .LFE7
     /tmp/ccGKKNOI.s:4285   .debug_str:00000000000005df .LASF74
     /tmp/ccGKKNOI.s:4335   .debug_str:00000000000007fb .LASF75
     /tmp/ccGKKNOI.s:305    .text:000000000000011c .LFB5
     /tmp/ccGKKNOI.s:333    .text:0000000000000144 .LFE5
     /tmp/ccGKKNOI.s:3996   .debug_loc:00000000000005cb .LLST7
     /tmp/ccGKKNOI.s:322    .text:0000000000000134 .LVL19
     /tmp/ccGKKNOI.s:4231   .debug_str:0000000000000447 .LASF76
     /tmp/ccGKKNOI.s:4277   .debug_str:00000000000005b2 .LASF77
     /tmp/ccGKKNOI.s:264    .text:00000000000000f4 .LFB4
GAS LISTING /tmp/ccGKKNOI.s 			page 38


     /tmp/ccGKKNOI.s:292    .text:000000000000011c .LFE4
     /tmp/ccGKKNOI.s:4010   .debug_loc:0000000000000604 .LLST6
     /tmp/ccGKKNOI.s:281    .text:000000000000010c .LVL17
     /tmp/ccGKKNOI.s:4169   .debug_str:0000000000000284 .LASF78
     /tmp/ccGKKNOI.s:4249   .debug_str:00000000000004c5 .LASF79
     /tmp/ccGKKNOI.s:232    .text:00000000000000cc .LFB3
     /tmp/ccGKKNOI.s:258    .text:00000000000000f4 .LFE3
     /tmp/ccGKKNOI.s:4289   .debug_str:00000000000005f7 .LASF80
     /tmp/ccGKKNOI.s:4024   .debug_loc:000000000000063d .LLST5
     /tmp/ccGKKNOI.s:247    .text:00000000000000e4 .LVL15
     /tmp/ccGKKNOI.s:4319   .debug_str:0000000000000781 .LASF81
     /tmp/ccGKKNOI.s:4209   .debug_str:00000000000003b6 .LASF82
     /tmp/ccGKKNOI.s:200    .text:00000000000000a4 .LFB2
     /tmp/ccGKKNOI.s:226    .text:00000000000000cc .LFE2
     /tmp/ccGKKNOI.s:4038   .debug_loc:0000000000000676 .LLST4
     /tmp/ccGKKNOI.s:215    .text:00000000000000bc .LVL13
     /tmp/ccGKKNOI.s:37     .text._ZN14PeriodicThread18periodicActivationEv:0000000000000000 .LFB1
     /tmp/ccGKKNOI.s:55     .text._ZN14PeriodicThread18periodicActivationEv:0000000000000018 .LFE1
     /tmp/ccGKKNOI.s:11     .text._ZN6Thread3runEv:0000000000000000 .LFB0
     /tmp/ccGKKNOI.s:30     .text._ZN6Thread3runEv:0000000000000018 .LFE0
     /tmp/ccGKKNOI.s:4325   .debug_str:00000000000007b7 .LASF83
     /tmp/ccGKKNOI.s:4273   .debug_str:0000000000000591 .LASF85
     /tmp/ccGKKNOI.s:4239   .debug_str:0000000000000486 .LASF84
     /tmp/ccGKKNOI.s:4105   .debug_str:000000000000007a .LASF86
     /tmp/ccGKKNOI.s:4159   .debug_str:0000000000000226 .LASF87
     /tmp/ccGKKNOI.s:4205   .debug_str:000000000000039d .LASF88
     /tmp/ccGKKNOI.s:4167   .debug_str:000000000000026f .LASF90
     /tmp/ccGKKNOI.s:4305   .debug_str:000000000000072f .LASF91
     /tmp/ccGKKNOI.s:4093   .debug_str:0000000000000013 .LASF92
     /tmp/ccGKKNOI.s:4149   .debug_str:00000000000001db .LASF93
     /tmp/ccGKKNOI.s:4129   .debug_str:000000000000012f .LASF94
     /tmp/ccGKKNOI.s:4307   .debug_str:000000000000073b .LASF95
     /tmp/ccGKKNOI.s:4101   .debug_str:000000000000004f .LASF96
     /tmp/ccGKKNOI.s:4219   .debug_str:00000000000003ee .LASF97
     /tmp/ccGKKNOI.s:4145   .debug_str:00000000000001c3 .LASF98
     /tmp/ccGKKNOI.s:4197   .debug_str:000000000000035c .LASF99
     /tmp/ccGKKNOI.s:4133   .debug_str:000000000000016d .LASF100
     /tmp/ccGKKNOI.s:4151   .debug_str:00000000000001e9 .LASF101
     /tmp/ccGKKNOI.s:4263   .debug_str:000000000000052b .LASF102
     /tmp/ccGKKNOI.s:4137   .debug_str:0000000000000196 .LASF103
     /tmp/ccGKKNOI.s:4257   .debug_str:0000000000000507 .LASF104
     /tmp/ccGKKNOI.s:4207   .debug_str:00000000000003a6 .LASF105
     /tmp/ccGKKNOI.s:4321   .debug_str:000000000000078e .LASF106
     /tmp/ccGKKNOI.s:4143   .debug_str:00000000000001ba .LASF107
     /tmp/ccGKKNOI.s:4315   .debug_str:000000000000076b .LASF108
     /tmp/ccGKKNOI.s:4281   .debug_str:00000000000005cb .LASF109
     /tmp/ccGKKNOI.s:515    .text._ZN14PeriodicThreadD0Ev:0000000000000000 .LVL33
     /tmp/ccGKKNOI.s:547    .text._ZN14PeriodicThreadD0Ev:0000000000000044 .LVL37
     /tmp/ccGKKNOI.s:527    .text._ZN14PeriodicThreadD0Ev:0000000000000018 .LVL34
     /tmp/ccGKKNOI.s:399    .text._ZN14PeriodicThreadD2Ev:0000000000000000 .LVL23
     /tmp/ccGKKNOI.s:103    .text:000000000000002c .LVL5
     /tmp/ccGKKNOI.s:115    .text:0000000000000044 .LVL6
     /tmp/ccGKKNOI.s:1077   .text:00000000000004b8 .LVL69
     /tmp/ccGKKNOI.s:1027   .text:0000000000000468 .LVL65
     /tmp/ccGKKNOI.s:1058   .text:00000000000004ac .LVL67
     /tmp/ccGKKNOI.s:1061   .text:00000000000004b0 .LVL68
     /tmp/ccGKKNOI.s:995    .text:0000000000000440 .LVL63
GAS LISTING /tmp/ccGKKNOI.s 			page 39


     /tmp/ccGKKNOI.s:920    .text:00000000000003e0 .LVL59
     /tmp/ccGKKNOI.s:924    .text:00000000000003e4 .LVL60
     /tmp/ccGKKNOI.s:870    .text:000000000000039c .LVL55
     /tmp/ccGKKNOI.s:874    .text:00000000000003a0 .LVL56
     /tmp/ccGKKNOI.s:901    .text:00000000000003d0 .LVL58
     /tmp/ccGKKNOI.s:826    .text:0000000000000364 .LVL52
     /tmp/ccGKKNOI.s:830    .text:0000000000000368 .LVL53
     /tmp/ccGKKNOI.s:782    .text:000000000000032c .LVL49
     /tmp/ccGKKNOI.s:786    .text:0000000000000330 .LVL50
     /tmp/ccGKKNOI.s:475    .text:00000000000001c4 .LVL29
     /tmp/ccGKKNOI.s:500    .text:00000000000001fc .LVL32
     /tmp/ccGKKNOI.s:145    .text:0000000000000064 .LVL9
     /tmp/ccGKKNOI.s:153    .text:0000000000000074 .LVL10
     /tmp/ccGKKNOI.s:740    .text:00000000000002f0 .LVL46
     /tmp/ccGKKNOI.s:757    .text:0000000000000314 .LVL47
     /tmp/ccGKKNOI.s:66     .text:0000000000000000 .LVL2
     /tmp/ccGKKNOI.s:76     .text:0000000000000010 .LVL3
     /tmp/ccGKKNOI.s:704    .text:00000000000002bc .LVL43
     /tmp/ccGKKNOI.s:718    .text:00000000000002d8 .LVL44
     /tmp/ccGKKNOI.s:641    .text:000000000000026c .LVL40
     /tmp/ccGKKNOI.s:436    .text:0000000000000184 .LVL25
     /tmp/ccGKKNOI.s:461    .text:00000000000001bc .LVL28
     /tmp/ccGKKNOI.s:349    .text:0000000000000144 .LVL20
     /tmp/ccGKKNOI.s:357    .text:0000000000000154 .LVL21
     /tmp/ccGKKNOI.s:310    .text:000000000000011c .LVL18
     /tmp/ccGKKNOI.s:269    .text:00000000000000f4 .LVL16
     /tmp/ccGKKNOI.s:235    .text:00000000000000cc .LVL14
     /tmp/ccGKKNOI.s:203    .text:00000000000000a4 .LVL12
     /tmp/ccGKKNOI.s:1141   .debug_info:0000000000000000 .Ldebug_info0
     /tmp/ccGKKNOI.s:5      .text:0000000000000000 .Ltext0
     /tmp/ccGKKNOI.s:1136   .text:00000000000004e0 .Letext0
     /tmp/ccGKKNOI.s:187    .gcc_except_table:0000000000000000 .LLSDA24
     /tmp/ccGKKNOI.s:294    .gcc_except_table:0000000000000004 .LLSDA4
     /tmp/ccGKKNOI.s:335    .gcc_except_table:0000000000000008 .LLSDA5
                           .group:0000000000000000 _ZN14PeriodicThreadD5Ev

UNDEFINED SYMBOLS
_Z10time_sleepm
_Z9sem_closeP3Sem
__gxx_personality_v0
_Z9mem_allocm
_Z8mem_freePv
_Z15thread_dispatchv
_Z13thread_createPP3TCBPFvPvES2_
_Z8sem_openPP3Semj
_Z8sem_waitP3Sem
_Z10sem_signalP3Sem
_Z13sem_timedwaitP3Semm
_Z11sem_trywaitP3Sem
_Z4getcv
_Z4putcc
_Z11thread_exitv
