GAS LISTING /tmp/ccBV0OIj.s 			page 1


   1              		.file	"syscall_c.cpp"
   2              		.option pic
   3              		.option norelax
   4              		.text
   5              	.Ltext0:
   6              		.align	2
   7              		.globl	_Z11system_callmmmmm
   9              	_Z11system_callmmmmm:
  10              	.LFB0:
  11              		.file 1 "src/syscall_c.cpp"
   1:src/syscall_c.cpp **** #include "../h/syscall_c.hpp"
   2:src/syscall_c.cpp **** #include "../h/Memoryallocator.hpp"
   3:src/syscall_c.cpp **** 
   4:src/syscall_c.cpp **** 
   5:src/syscall_c.cpp **** // opsta funkcija, opsti argumenti
   6:src/syscall_c.cpp **** // op code -> registar a0 ___ argumenti reg a1 .. a4
   7:src/syscall_c.cpp **** 
   8:src/syscall_c.cpp **** void system_call(uint64 op_code, uint64 a1 = 0, uint64 a2 = 0, uint64 a3 = 0, uint64 a4 = 0) {
  12              		.loc 1 8 94
  13              		.cfi_startproc
  14              	.LVL0:
  15 0000 130101FF 		addi	sp,sp,-16
  16              		.cfi_def_cfa_offset 16
  17 0004 23348100 		sd	s0,8(sp)
  18              		.cfi_offset 8, -8
  19 0008 13040101 		addi	s0,sp,16
  20              		.cfi_def_cfa 8, 0
   9:src/syscall_c.cpp ****     __asm__ volatile("ecall");
  21              		.loc 1 9 5
  22              		.loc 1 9 30 is_stmt 0
  23              	#APP
  24              	# 9 "src/syscall_c.cpp" 1
  10              	}
  25              		ecall
  26              	# 0 "" 2
  27              		.loc 1 10 1
  28              	#NO_APP
  29 0010 03348100 		ld	s0,8(sp)
  30              		.cfi_restore 8
  31              		.cfi_def_cfa 2, 16
  32 0014 13010101 		addi	sp,sp,16
  33              		.cfi_def_cfa_offset 0
  34 0018 67800000 		jr	ra
  35              		.cfi_endproc
  36              	.LFE0:
  38              		.align	2
  39              		.globl	_Z9mem_allocm
  41              	_Z9mem_allocm:
  42              	.LFB1:
  11:src/syscall_c.cpp **** 
  12:src/syscall_c.cpp **** // size (bytes) => syscall -> num of block
  13:src/syscall_c.cpp **** void* mem_alloc (size_t size) {
  43              		.loc 1 13 31 is_stmt 1
  44              		.cfi_startproc
  45              	.LVL1:
  14:src/syscall_c.cpp ****     if (!size) return nullptr;
  46              		.loc 1 14 5
GAS LISTING /tmp/ccBV0OIj.s 			page 2


  47 001c 63040504 		beqz	a0,.L5
  13:src/syscall_c.cpp ****     if (!size) return nullptr;
  48              		.loc 1 13 31 is_stmt 0
  49 0020 130101FF 		addi	sp,sp,-16
  50              		.cfi_def_cfa_offset 16
  51 0024 23341100 		sd	ra,8(sp)
  52 0028 23308100 		sd	s0,0(sp)
  53              		.cfi_offset 1, -8
  54              		.cfi_offset 8, -16
  55 002c 13040101 		addi	s0,sp,16
  56              		.cfi_def_cfa 8, 0
  15:src/syscall_c.cpp ****     void volatile *ptr;
  57              		.loc 1 15 5 is_stmt 1
  16:src/syscall_c.cpp ****     uint64 blocks = (mem_h_size + size + MEM_BLOCK_SIZE - 1) / MEM_BLOCK_SIZE;
  58              		.loc 1 16 5
  59              		.loc 1 16 57 is_stmt 0
  60 0030 13057505 		addi	a0,a0,87
  61              	.LVL2:
  17:src/syscall_c.cpp ****     system_call(MEM_ALLOC, blocks);
  62              		.loc 1 17 5 is_stmt 1
  63              		.loc 1 17 16 is_stmt 0
  64 0034 13070000 		li	a4,0
  65 0038 93060000 		li	a3,0
  66 003c 13060000 		li	a2,0
  67 0040 93556500 		srli	a1,a0,6
  68              	.LVL3:
  69 0044 13051000 		li	a0,1
  70              	.LVL4:
  71 0048 97000000 		call	_Z11system_callmmmmm
  71      E7800000 
  72              	.LVL5:
  18:src/syscall_c.cpp ****     __asm__ volatile("mv %0, a0" : "=r"(ptr));
  73              		.loc 1 18 5 is_stmt 1
  74              		.loc 1 18 46 is_stmt 0
  75              	#APP
  76              	# 18 "src/syscall_c.cpp" 1
  19              	    return (void*)ptr;
  77              		mv a0, a0
  78              	# 0 "" 2
  79              	.LVL6:
  80              		.loc 1 19 5 is_stmt 1
  20:src/syscall_c.cpp **** }
  81              		.loc 1 20 1 is_stmt 0
  82              	#NO_APP
  83 0054 83308100 		ld	ra,8(sp)
  84              		.cfi_restore 1
  85 0058 03340100 		ld	s0,0(sp)
  86              		.cfi_restore 8
  87              		.cfi_def_cfa 2, 16
  88 005c 13010101 		addi	sp,sp,16
  89              		.cfi_def_cfa_offset 0
  90 0060 67800000 		jr	ra
  91              	.LVL7:
  92              	.L5:
  14:src/syscall_c.cpp ****     void volatile *ptr;
  93              		.loc 1 14 23
  94 0064 13050000 		li	a0,0
GAS LISTING /tmp/ccBV0OIj.s 			page 3


  95              	.LVL8:
  96              		.loc 1 20 1
  97 0068 67800000 		ret
  98              		.cfi_endproc
  99              	.LFE1:
 101              		.align	2
 102              		.globl	_Z8mem_freePv
 104              	_Z8mem_freePv:
 105              	.LFB2:
  21:src/syscall_c.cpp **** 
  22:src/syscall_c.cpp **** int mem_free(void* ptr) {
 106              		.loc 1 22 25 is_stmt 1
 107              		.cfi_startproc
 108              	.LVL9:
 109 006c 130101FE 		addi	sp,sp,-32
 110              		.cfi_def_cfa_offset 32
 111 0070 233C1100 		sd	ra,24(sp)
 112 0074 23388100 		sd	s0,16(sp)
 113              		.cfi_offset 1, -8
 114              		.cfi_offset 8, -16
 115 0078 13040102 		addi	s0,sp,32
 116              		.cfi_def_cfa 8, 0
 117 007c 93050500 		mv	a1,a0
  23:src/syscall_c.cpp ****     int volatile a0;
 118              		.loc 1 23 5
  24:src/syscall_c.cpp ****     system_call(MEM_FREE, (uint64)ptr);
 119              		.loc 1 24 5
 120              		.loc 1 24 16 is_stmt 0
 121 0080 13070000 		li	a4,0
 122 0084 93060000 		li	a3,0
 123 0088 13060000 		li	a2,0
 124 008c 13052000 		li	a0,2
 125              	.LVL10:
 126 0090 97000000 		call	_Z11system_callmmmmm
 126      E7800000 
 127              	.LVL11:
  25:src/syscall_c.cpp ****     __asm__ volatile("mv %0, a0" : "=r"(a0));
 128              		.loc 1 25 5 is_stmt 1
 129              		.loc 1 25 45 is_stmt 0
 130              	#APP
 131              	# 25 "src/syscall_c.cpp" 1
  26              	    return a0;
 132              		mv a5, a0
 133              	# 0 "" 2
 134              	#NO_APP
 135 009c 2326F4FE 		sw	a5,-20(s0)
 136              		.loc 1 26 5 is_stmt 1
 137              		.loc 1 26 12 is_stmt 0
 138 00a0 0325C4FE 		lw	a0,-20(s0)
  27:src/syscall_c.cpp **** }
 139              		.loc 1 27 1
 140 00a4 1B050500 		sext.w	a0,a0
 141 00a8 83308101 		ld	ra,24(sp)
 142              		.cfi_restore 1
 143 00ac 03340101 		ld	s0,16(sp)
 144              		.cfi_restore 8
 145              		.cfi_def_cfa 2, 32
GAS LISTING /tmp/ccBV0OIj.s 			page 4


 146 00b0 13010102 		addi	sp,sp,32
 147              		.cfi_def_cfa_offset 0
 148 00b4 67800000 		jr	ra
 149              		.cfi_endproc
 150              	.LFE2:
 152              		.align	2
 153              		.globl	_Z13thread_createPP3TCBPFvPvES2_
 155              	_Z13thread_createPP3TCBPFvPvES2_:
 156              	.LFB3:
  28:src/syscall_c.cpp **** 
  29:src/syscall_c.cpp **** int thread_create(thread_t *handle, void (*start_routine)(void *), void *arg) {
 157              		.loc 1 29 79 is_stmt 1
 158              		.cfi_startproc
 159              	.LVL12:
 160 00b8 130101FC 		addi	sp,sp,-64
 161              		.cfi_def_cfa_offset 64
 162 00bc 233C1102 		sd	ra,56(sp)
 163 00c0 23388102 		sd	s0,48(sp)
 164 00c4 23349102 		sd	s1,40(sp)
 165 00c8 23302103 		sd	s2,32(sp)
 166 00cc 233C3101 		sd	s3,24(sp)
 167              		.cfi_offset 1, -8
 168              		.cfi_offset 8, -16
 169              		.cfi_offset 9, -24
 170              		.cfi_offset 18, -32
 171              		.cfi_offset 19, -40
 172 00d0 13040104 		addi	s0,sp,64
 173              		.cfi_def_cfa 8, 0
 174 00d4 13090500 		mv	s2,a0
 175 00d8 93840500 		mv	s1,a1
 176 00dc 93090600 		mv	s3,a2
  30:src/syscall_c.cpp ****     int volatile ret;
 177              		.loc 1 30 5
  31:src/syscall_c.cpp ****     void* stack_space = nullptr;
 178              		.loc 1 31 5
 179              	.LVL13:
  32:src/syscall_c.cpp ****     if (start_routine) {
 180              		.loc 1 32 5
 181 00e0 638E0504 		beqz	a1,.L15
  33:src/syscall_c.cpp ****         stack_space = mem_alloc(DEFAULT_STACK_SIZE);
 182              		.loc 1 33 9
 183              		.loc 1 33 32 is_stmt 0
 184 00e4 37150000 		li	a0,4096
 185              	.LVL14:
 186 00e8 97000000 		call	_Z9mem_allocm
 186      E7800000 
 187              	.LVL15:
 188 00f0 13070500 		mv	a4,a0
 189              	.LVL16:
  34:src/syscall_c.cpp ****         if (!stack_space) return -1; // memory allocation error
 190              		.loc 1 34 9 is_stmt 1
 191 00f4 63080504 		beqz	a0,.L18
 192              	.LVL17:
 193              	.L13:
  35:src/syscall_c.cpp ****     }
  36:src/syscall_c.cpp ****     system_call(THREAD_CREATE, (uint64)handle, (uint64)start_routine, (uint64)arg, (uint64)stack_sp
 194              		.loc 1 36 5
GAS LISTING /tmp/ccBV0OIj.s 			page 5


 195              		.loc 1 36 16 is_stmt 0
 196 00f8 93860900 		mv	a3,s3
 197 00fc 13860400 		mv	a2,s1
 198 0100 93050900 		mv	a1,s2
 199 0104 13051001 		li	a0,17
 200 0108 97000000 		call	_Z11system_callmmmmm
 200      E7800000 
 201              	.LVL18:
  37:src/syscall_c.cpp ****     __asm__ volatile("mv %0, a0" : "=r"(ret));
 202              		.loc 1 37 5 is_stmt 1
 203              		.loc 1 37 46 is_stmt 0
 204              	#APP
 205              	# 37 "src/syscall_c.cpp" 1
  38              	    return ret;
 206              		mv a5, a0
 207              	# 0 "" 2
 208              	#NO_APP
 209 0114 2326F4FC 		sw	a5,-52(s0)
 210              		.loc 1 38 5 is_stmt 1
 211              		.loc 1 38 12 is_stmt 0
 212 0118 0325C4FC 		lw	a0,-52(s0)
 213 011c 1B050500 		sext.w	a0,a0
 214              	.L14:
  39:src/syscall_c.cpp **** }
 215              		.loc 1 39 1
 216 0120 83308103 		ld	ra,56(sp)
 217              		.cfi_remember_state
 218              		.cfi_restore 1
 219 0124 03340103 		ld	s0,48(sp)
 220              		.cfi_restore 8
 221              		.cfi_def_cfa 2, 64
 222 0128 83348102 		ld	s1,40(sp)
 223              		.cfi_restore 9
 224              	.LVL19:
 225 012c 03390102 		ld	s2,32(sp)
 226              		.cfi_restore 18
 227              	.LVL20:
 228 0130 83398101 		ld	s3,24(sp)
 229              		.cfi_restore 19
 230              	.LVL21:
 231 0134 13010104 		addi	sp,sp,64
 232              		.cfi_def_cfa_offset 0
 233 0138 67800000 		jr	ra
 234              	.LVL22:
 235              	.L15:
 236              		.cfi_restore_state
  31:src/syscall_c.cpp ****     if (start_routine) {
 237              		.loc 1 31 11
 238 013c 13070000 		li	a4,0
 239 0140 6FF09FFB 		j	.L13
 240              	.LVL23:
 241              	.L18:
  34:src/syscall_c.cpp ****     }
 242              		.loc 1 34 35
 243 0144 1305F0FF 		li	a0,-1
 244              	.LVL24:
 245 0148 6FF09FFD 		j	.L14
GAS LISTING /tmp/ccBV0OIj.s 			page 6


 246              		.cfi_endproc
 247              	.LFE3:
 249              		.align	2
 250              		.globl	_Z11thread_exitv
 252              	_Z11thread_exitv:
 253              	.LFB4:
  40:src/syscall_c.cpp **** 
  41:src/syscall_c.cpp **** int thread_exit() {
 254              		.loc 1 41 19 is_stmt 1
 255              		.cfi_startproc
 256 014c 130101FE 		addi	sp,sp,-32
 257              		.cfi_def_cfa_offset 32
 258 0150 233C1100 		sd	ra,24(sp)
 259 0154 23388100 		sd	s0,16(sp)
 260              		.cfi_offset 1, -8
 261              		.cfi_offset 8, -16
 262 0158 13040102 		addi	s0,sp,32
 263              		.cfi_def_cfa 8, 0
  42:src/syscall_c.cpp ****     int volatile a0;
 264              		.loc 1 42 5
  43:src/syscall_c.cpp ****     system_call(THREAD_EXIT);
 265              		.loc 1 43 5
 266              		.loc 1 43 16 is_stmt 0
 267 015c 13070000 		li	a4,0
 268 0160 93060000 		li	a3,0
 269 0164 13060000 		li	a2,0
 270 0168 93050000 		li	a1,0
 271 016c 13052001 		li	a0,18
 272 0170 97000000 		call	_Z11system_callmmmmm
 272      E7800000 
 273              	.LVL25:
  44:src/syscall_c.cpp ****     __asm__ volatile("mv %0, a0" : "=r"(a0));
 274              		.loc 1 44 5 is_stmt 1
 275              		.loc 1 44 45 is_stmt 0
 276              	#APP
 277              	# 44 "src/syscall_c.cpp" 1
  45              	    return a0;
 278              		mv a5, a0
 279              	# 0 "" 2
 280              	#NO_APP
 281 017c 2326F4FE 		sw	a5,-20(s0)
 282              		.loc 1 45 5 is_stmt 1
 283              		.loc 1 45 12 is_stmt 0
 284 0180 0325C4FE 		lw	a0,-20(s0)
  46:src/syscall_c.cpp **** }
 285              		.loc 1 46 1
 286 0184 1B050500 		sext.w	a0,a0
 287 0188 83308101 		ld	ra,24(sp)
 288              		.cfi_restore 1
 289 018c 03340101 		ld	s0,16(sp)
 290              		.cfi_restore 8
 291              		.cfi_def_cfa 2, 32
 292 0190 13010102 		addi	sp,sp,32
 293              		.cfi_def_cfa_offset 0
 294 0194 67800000 		jr	ra
 295              		.cfi_endproc
 296              	.LFE4:
GAS LISTING /tmp/ccBV0OIj.s 			page 7


 298              		.align	2
 299              		.globl	_Z15thread_dispatchv
 301              	_Z15thread_dispatchv:
 302              	.LFB5:
  47:src/syscall_c.cpp **** 
  48:src/syscall_c.cpp **** void thread_dispatch() {
 303              		.loc 1 48 24 is_stmt 1
 304              		.cfi_startproc
 305 0198 130101FF 		addi	sp,sp,-16
 306              		.cfi_def_cfa_offset 16
 307 019c 23341100 		sd	ra,8(sp)
 308 01a0 23308100 		sd	s0,0(sp)
 309              		.cfi_offset 1, -8
 310              		.cfi_offset 8, -16
 311 01a4 13040101 		addi	s0,sp,16
 312              		.cfi_def_cfa 8, 0
  49:src/syscall_c.cpp ****     system_call(THREAD_DISPATCH);
 313              		.loc 1 49 5
 314              		.loc 1 49 16 is_stmt 0
 315 01a8 13070000 		li	a4,0
 316 01ac 93060000 		li	a3,0
 317 01b0 13060000 		li	a2,0
 318 01b4 93050000 		li	a1,0
 319 01b8 13053001 		li	a0,19
 320 01bc 97000000 		call	_Z11system_callmmmmm
 320      E7800000 
 321              	.LVL26:
  50:src/syscall_c.cpp **** }
 322              		.loc 1 50 1
 323 01c4 83308100 		ld	ra,8(sp)
 324              		.cfi_restore 1
 325 01c8 03340100 		ld	s0,0(sp)
 326              		.cfi_restore 8
 327              		.cfi_def_cfa 2, 16
 328 01cc 13010101 		addi	sp,sp,16
 329              		.cfi_def_cfa_offset 0
 330 01d0 67800000 		jr	ra
 331              		.cfi_endproc
 332              	.LFE5:
 334              		.align	2
 335              		.globl	_Z8sem_openPP3Semj
 337              	_Z8sem_openPP3Semj:
 338              	.LFB6:
  51:src/syscall_c.cpp **** 
  52:src/syscall_c.cpp **** int sem_open(sem_t* handle, unsigned init) {
 339              		.loc 1 52 44 is_stmt 1
 340              		.cfi_startproc
 341              	.LVL27:
 342 01d4 130101FE 		addi	sp,sp,-32
 343              		.cfi_def_cfa_offset 32
 344 01d8 233C1100 		sd	ra,24(sp)
 345 01dc 23388100 		sd	s0,16(sp)
 346              		.cfi_offset 1, -8
 347              		.cfi_offset 8, -16
 348 01e0 13040102 		addi	s0,sp,32
 349              		.cfi_def_cfa 8, 0
  53:src/syscall_c.cpp ****     int volatile a0;
GAS LISTING /tmp/ccBV0OIj.s 			page 8


 350              		.loc 1 53 5
  54:src/syscall_c.cpp ****     system_call(SEM_OPEN, (uint64)handle, init);
 351              		.loc 1 54 5
 352              		.loc 1 54 16 is_stmt 0
 353 01e4 13070000 		li	a4,0
 354 01e8 93060000 		li	a3,0
 355 01ec 13960502 		slli	a2,a1,32
 356 01f0 13560602 		srli	a2,a2,32
 357 01f4 93050500 		mv	a1,a0
 358              	.LVL28:
 359 01f8 13051002 		li	a0,33
 360              	.LVL29:
 361 01fc 97000000 		call	_Z11system_callmmmmm
 361      E7800000 
 362              	.LVL30:
  55:src/syscall_c.cpp ****     __asm__ volatile("mv %0, a0" : "=r"(a0));
 363              		.loc 1 55 5 is_stmt 1
 364              		.loc 1 55 45 is_stmt 0
 365              	#APP
 366              	# 55 "src/syscall_c.cpp" 1
  56              	    return a0;
 367              		mv a5, a0
 368              	# 0 "" 2
 369              	#NO_APP
 370 0208 2326F4FE 		sw	a5,-20(s0)
 371              		.loc 1 56 5 is_stmt 1
 372              		.loc 1 56 12 is_stmt 0
 373 020c 0325C4FE 		lw	a0,-20(s0)
  57:src/syscall_c.cpp **** }
 374              		.loc 1 57 1
 375 0210 1B050500 		sext.w	a0,a0
 376 0214 83308101 		ld	ra,24(sp)
 377              		.cfi_restore 1
 378 0218 03340101 		ld	s0,16(sp)
 379              		.cfi_restore 8
 380              		.cfi_def_cfa 2, 32
 381 021c 13010102 		addi	sp,sp,32
 382              		.cfi_def_cfa_offset 0
 383 0220 67800000 		jr	ra
 384              		.cfi_endproc
 385              	.LFE6:
 387              		.align	2
 388              		.globl	_Z9sem_closeP3Sem
 390              	_Z9sem_closeP3Sem:
 391              	.LFB7:
  58:src/syscall_c.cpp **** 
  59:src/syscall_c.cpp **** int sem_close(sem_t handle) {
 392              		.loc 1 59 29 is_stmt 1
 393              		.cfi_startproc
 394              	.LVL31:
  60:src/syscall_c.cpp ****     if (!handle) return -1; // no sem
 395              		.loc 1 60 5
 396 0224 63080504 		beqz	a0,.L27
  59:src/syscall_c.cpp ****     if (!handle) return -1; // no sem
 397              		.loc 1 59 29 is_stmt 0
 398 0228 130101FE 		addi	sp,sp,-32
 399              		.cfi_def_cfa_offset 32
GAS LISTING /tmp/ccBV0OIj.s 			page 9


 400 022c 233C1100 		sd	ra,24(sp)
 401 0230 23388100 		sd	s0,16(sp)
 402              		.cfi_offset 1, -8
 403              		.cfi_offset 8, -16
 404 0234 13040102 		addi	s0,sp,32
 405              		.cfi_def_cfa 8, 0
 406 0238 93050500 		mv	a1,a0
  61:src/syscall_c.cpp ****     int volatile a0;
 407              		.loc 1 61 5 is_stmt 1
  62:src/syscall_c.cpp ****     system_call(SEM_CLOSE, (uint64)handle);
 408              		.loc 1 62 5
 409              		.loc 1 62 16 is_stmt 0
 410 023c 13070000 		li	a4,0
 411 0240 93060000 		li	a3,0
 412 0244 13060000 		li	a2,0
 413 0248 13052002 		li	a0,34
 414              	.LVL32:
 415 024c 97000000 		call	_Z11system_callmmmmm
 415      E7800000 
 416              	.LVL33:
  63:src/syscall_c.cpp ****     __asm__ volatile("mv %0, a0" : "=r"(a0));
 417              		.loc 1 63 5 is_stmt 1
 418              		.loc 1 63 45 is_stmt 0
 419              	#APP
 420              	# 63 "src/syscall_c.cpp" 1
  64              	    return a0;
 421              		mv a5, a0
 422              	# 0 "" 2
 423              	#NO_APP
 424 0258 2326F4FE 		sw	a5,-20(s0)
 425              		.loc 1 64 5 is_stmt 1
 426              		.loc 1 64 12 is_stmt 0
 427 025c 0325C4FE 		lw	a0,-20(s0)
 428 0260 1B050500 		sext.w	a0,a0
  65:src/syscall_c.cpp **** }
 429              		.loc 1 65 1
 430 0264 83308101 		ld	ra,24(sp)
 431              		.cfi_restore 1
 432 0268 03340101 		ld	s0,16(sp)
 433              		.cfi_restore 8
 434              		.cfi_def_cfa 2, 32
 435 026c 13010102 		addi	sp,sp,32
 436              		.cfi_def_cfa_offset 0
 437 0270 67800000 		jr	ra
 438              	.LVL34:
 439              	.L27:
  60:src/syscall_c.cpp ****     int volatile a0;
 440              		.loc 1 60 26
 441 0274 1305F0FF 		li	a0,-1
 442              	.LVL35:
 443              		.loc 1 65 1
 444 0278 67800000 		ret
 445              		.cfi_endproc
 446              	.LFE7:
 448              		.align	2
 449              		.globl	_Z8sem_waitP3Sem
 451              	_Z8sem_waitP3Sem:
GAS LISTING /tmp/ccBV0OIj.s 			page 10


 452              	.LFB8:
  66:src/syscall_c.cpp **** 
  67:src/syscall_c.cpp **** int sem_wait(sem_t id) {
 453              		.loc 1 67 24 is_stmt 1
 454              		.cfi_startproc
 455              	.LVL36:
 456 027c 130101FE 		addi	sp,sp,-32
 457              		.cfi_def_cfa_offset 32
 458 0280 233C1100 		sd	ra,24(sp)
 459 0284 23388100 		sd	s0,16(sp)
 460              		.cfi_offset 1, -8
 461              		.cfi_offset 8, -16
 462 0288 13040102 		addi	s0,sp,32
 463              		.cfi_def_cfa 8, 0
 464 028c 93050500 		mv	a1,a0
  68:src/syscall_c.cpp ****     int volatile a0;
 465              		.loc 1 68 5
  69:src/syscall_c.cpp ****     system_call(SEM_WAIT, (uint64)id);
 466              		.loc 1 69 5
 467              		.loc 1 69 16 is_stmt 0
 468 0290 13070000 		li	a4,0
 469 0294 93060000 		li	a3,0
 470 0298 13060000 		li	a2,0
 471 029c 13053002 		li	a0,35
 472              	.LVL37:
 473 02a0 97000000 		call	_Z11system_callmmmmm
 473      E7800000 
 474              	.LVL38:
  70:src/syscall_c.cpp ****     __asm__ volatile("mv %0, a0" : "=r"(a0));
 475              		.loc 1 70 5 is_stmt 1
 476              		.loc 1 70 45 is_stmt 0
 477              	#APP
 478              	# 70 "src/syscall_c.cpp" 1
  71              	    return a0;
 479              		mv a5, a0
 480              	# 0 "" 2
 481              	#NO_APP
 482 02ac 2326F4FE 		sw	a5,-20(s0)
 483              		.loc 1 71 5 is_stmt 1
 484              		.loc 1 71 12 is_stmt 0
 485 02b0 0325C4FE 		lw	a0,-20(s0)
  72:src/syscall_c.cpp **** }
 486              		.loc 1 72 1
 487 02b4 1B050500 		sext.w	a0,a0
 488 02b8 83308101 		ld	ra,24(sp)
 489              		.cfi_restore 1
 490 02bc 03340101 		ld	s0,16(sp)
 491              		.cfi_restore 8
 492              		.cfi_def_cfa 2, 32
 493 02c0 13010102 		addi	sp,sp,32
 494              		.cfi_def_cfa_offset 0
 495 02c4 67800000 		jr	ra
 496              		.cfi_endproc
 497              	.LFE8:
 499              		.align	2
 500              		.globl	_Z13sem_timedwaitP3Semm
 502              	_Z13sem_timedwaitP3Semm:
GAS LISTING /tmp/ccBV0OIj.s 			page 11


 503              	.LFB9:
  73:src/syscall_c.cpp **** 
  74:src/syscall_c.cpp **** int sem_timedwait(sem_t id, time_t timeout) {
 504              		.loc 1 74 45 is_stmt 1
 505              		.cfi_startproc
 506              	.LVL39:
 507 02c8 130101FE 		addi	sp,sp,-32
 508              		.cfi_def_cfa_offset 32
 509 02cc 233C1100 		sd	ra,24(sp)
 510 02d0 23388100 		sd	s0,16(sp)
 511              		.cfi_offset 1, -8
 512              		.cfi_offset 8, -16
 513 02d4 13040102 		addi	s0,sp,32
 514              		.cfi_def_cfa 8, 0
 515 02d8 13860500 		mv	a2,a1
  75:src/syscall_c.cpp ****     int volatile a0;
 516              		.loc 1 75 5
  76:src/syscall_c.cpp ****     system_call(SEM_TIMEDWAIT, (uint64)id, (uint64)timeout);
 517              		.loc 1 76 5
 518              		.loc 1 76 16 is_stmt 0
 519 02dc 13070000 		li	a4,0
 520 02e0 93060000 		li	a3,0
 521 02e4 93050500 		mv	a1,a0
 522              	.LVL40:
 523 02e8 13055002 		li	a0,37
 524              	.LVL41:
 525 02ec 97000000 		call	_Z11system_callmmmmm
 525      E7800000 
 526              	.LVL42:
  77:src/syscall_c.cpp ****     __asm__ volatile("mv %0, a0" : "=r"(a0));
 527              		.loc 1 77 5 is_stmt 1
 528              		.loc 1 77 45 is_stmt 0
 529              	#APP
 530              	# 77 "src/syscall_c.cpp" 1
  78              	    return a0;
 531              		mv a5, a0
 532              	# 0 "" 2
 533              	#NO_APP
 534 02f8 2326F4FE 		sw	a5,-20(s0)
 535              		.loc 1 78 5 is_stmt 1
 536              		.loc 1 78 12 is_stmt 0
 537 02fc 0325C4FE 		lw	a0,-20(s0)
  79:src/syscall_c.cpp **** }
 538              		.loc 1 79 1
 539 0300 1B050500 		sext.w	a0,a0
 540 0304 83308101 		ld	ra,24(sp)
 541              		.cfi_restore 1
 542 0308 03340101 		ld	s0,16(sp)
 543              		.cfi_restore 8
 544              		.cfi_def_cfa 2, 32
 545 030c 13010102 		addi	sp,sp,32
 546              		.cfi_def_cfa_offset 0
 547 0310 67800000 		jr	ra
 548              		.cfi_endproc
 549              	.LFE9:
 551              		.align	2
 552              		.globl	_Z11sem_trywaitP3Sem
GAS LISTING /tmp/ccBV0OIj.s 			page 12


 554              	_Z11sem_trywaitP3Sem:
 555              	.LFB10:
  80:src/syscall_c.cpp **** 
  81:src/syscall_c.cpp **** int sem_trywait(sem_t id) {
 556              		.loc 1 81 27 is_stmt 1
 557              		.cfi_startproc
 558              	.LVL43:
 559 0314 130101FE 		addi	sp,sp,-32
 560              		.cfi_def_cfa_offset 32
 561 0318 233C1100 		sd	ra,24(sp)
 562 031c 23388100 		sd	s0,16(sp)
 563              		.cfi_offset 1, -8
 564              		.cfi_offset 8, -16
 565 0320 13040102 		addi	s0,sp,32
 566              		.cfi_def_cfa 8, 0
 567 0324 93050500 		mv	a1,a0
  82:src/syscall_c.cpp ****     int volatile a0;
 568              		.loc 1 82 5
  83:src/syscall_c.cpp ****     system_call(SEM_TRYWAIT, (uint64)id);
 569              		.loc 1 83 5
 570              		.loc 1 83 16 is_stmt 0
 571 0328 13070000 		li	a4,0
 572 032c 93060000 		li	a3,0
 573 0330 13060000 		li	a2,0
 574 0334 13056002 		li	a0,38
 575              	.LVL44:
 576 0338 97000000 		call	_Z11system_callmmmmm
 576      E7800000 
 577              	.LVL45:
  84:src/syscall_c.cpp ****     __asm__ volatile("mv %0, a0" : "=r"(a0));
 578              		.loc 1 84 5 is_stmt 1
 579              		.loc 1 84 45 is_stmt 0
 580              	#APP
 581              	# 84 "src/syscall_c.cpp" 1
  85              	    return a0;
 582              		mv a5, a0
 583              	# 0 "" 2
 584              	#NO_APP
 585 0344 2326F4FE 		sw	a5,-20(s0)
 586              		.loc 1 85 5 is_stmt 1
 587              		.loc 1 85 12 is_stmt 0
 588 0348 0325C4FE 		lw	a0,-20(s0)
  86:src/syscall_c.cpp **** }
 589              		.loc 1 86 1
 590 034c 1B050500 		sext.w	a0,a0
 591 0350 83308101 		ld	ra,24(sp)
 592              		.cfi_restore 1
 593 0354 03340101 		ld	s0,16(sp)
 594              		.cfi_restore 8
 595              		.cfi_def_cfa 2, 32
 596 0358 13010102 		addi	sp,sp,32
 597              		.cfi_def_cfa_offset 0
 598 035c 67800000 		jr	ra
 599              		.cfi_endproc
 600              	.LFE10:
 602              		.align	2
 603              		.globl	_Z10sem_signalP3Sem
GAS LISTING /tmp/ccBV0OIj.s 			page 13


 605              	_Z10sem_signalP3Sem:
 606              	.LFB11:
  87:src/syscall_c.cpp **** 
  88:src/syscall_c.cpp **** int sem_signal(sem_t id) {
 607              		.loc 1 88 26 is_stmt 1
 608              		.cfi_startproc
 609              	.LVL46:
 610 0360 130101FE 		addi	sp,sp,-32
 611              		.cfi_def_cfa_offset 32
 612 0364 233C1100 		sd	ra,24(sp)
 613 0368 23388100 		sd	s0,16(sp)
 614              		.cfi_offset 1, -8
 615              		.cfi_offset 8, -16
 616 036c 13040102 		addi	s0,sp,32
 617              		.cfi_def_cfa 8, 0
 618 0370 93050500 		mv	a1,a0
  89:src/syscall_c.cpp ****     int volatile a0;
 619              		.loc 1 89 5
  90:src/syscall_c.cpp ****     system_call(SEM_SIGNAL, (uint64)id);
 620              		.loc 1 90 5
 621              		.loc 1 90 16 is_stmt 0
 622 0374 13070000 		li	a4,0
 623 0378 93060000 		li	a3,0
 624 037c 13060000 		li	a2,0
 625 0380 13054002 		li	a0,36
 626              	.LVL47:
 627 0384 97000000 		call	_Z11system_callmmmmm
 627      E7800000 
 628              	.LVL48:
  91:src/syscall_c.cpp ****     __asm__ volatile("mv %0, a0" : "=r"(a0));
 629              		.loc 1 91 5 is_stmt 1
 630              		.loc 1 91 45 is_stmt 0
 631              	#APP
 632              	# 91 "src/syscall_c.cpp" 1
  92              	    return a0;
 633              		mv a5, a0
 634              	# 0 "" 2
 635              	#NO_APP
 636 0390 2326F4FE 		sw	a5,-20(s0)
 637              		.loc 1 92 5 is_stmt 1
 638              		.loc 1 92 12 is_stmt 0
 639 0394 0325C4FE 		lw	a0,-20(s0)
  93:src/syscall_c.cpp **** }
 640              		.loc 1 93 1
 641 0398 1B050500 		sext.w	a0,a0
 642 039c 83308101 		ld	ra,24(sp)
 643              		.cfi_restore 1
 644 03a0 03340101 		ld	s0,16(sp)
 645              		.cfi_restore 8
 646              		.cfi_def_cfa 2, 32
 647 03a4 13010102 		addi	sp,sp,32
 648              		.cfi_def_cfa_offset 0
 649 03a8 67800000 		jr	ra
 650              		.cfi_endproc
 651              	.LFE11:
 653              		.align	2
 654              		.globl	_Z10time_sleepm
GAS LISTING /tmp/ccBV0OIj.s 			page 14


 656              	_Z10time_sleepm:
 657              	.LFB12:
  94:src/syscall_c.cpp **** 
  95:src/syscall_c.cpp **** int time_sleep (time_t time) {
 658              		.loc 1 95 30 is_stmt 1
 659              		.cfi_startproc
 660              	.LVL49:
 661 03ac 130101FE 		addi	sp,sp,-32
 662              		.cfi_def_cfa_offset 32
 663 03b0 233C1100 		sd	ra,24(sp)
 664 03b4 23388100 		sd	s0,16(sp)
 665              		.cfi_offset 1, -8
 666              		.cfi_offset 8, -16
 667 03b8 13040102 		addi	s0,sp,32
 668              		.cfi_def_cfa 8, 0
 669 03bc 93050500 		mv	a1,a0
  96:src/syscall_c.cpp ****     int volatile a0;
 670              		.loc 1 96 5
  97:src/syscall_c.cpp ****     system_call(TIME_SLEEP, (uint64)time);
 671              		.loc 1 97 5
 672              		.loc 1 97 16 is_stmt 0
 673 03c0 13070000 		li	a4,0
 674 03c4 93060000 		li	a3,0
 675 03c8 13060000 		li	a2,0
 676 03cc 13051003 		li	a0,49
 677              	.LVL50:
 678 03d0 97000000 		call	_Z11system_callmmmmm
 678      E7800000 
 679              	.LVL51:
  98:src/syscall_c.cpp ****     __asm__ volatile("mv %0, a0" : "=r"(a0));
 680              		.loc 1 98 5 is_stmt 1
 681              		.loc 1 98 45 is_stmt 0
 682              	#APP
 683              	# 98 "src/syscall_c.cpp" 1
  99              	    return a0;
 684              		mv a5, a0
 685              	# 0 "" 2
 686              	#NO_APP
 687 03dc 2326F4FE 		sw	a5,-20(s0)
 688              		.loc 1 99 5 is_stmt 1
 689              		.loc 1 99 12 is_stmt 0
 690 03e0 0325C4FE 		lw	a0,-20(s0)
 100:src/syscall_c.cpp **** }
 691              		.loc 1 100 1
 692 03e4 1B050500 		sext.w	a0,a0
 693 03e8 83308101 		ld	ra,24(sp)
 694              		.cfi_restore 1
 695 03ec 03340101 		ld	s0,16(sp)
 696              		.cfi_restore 8
 697              		.cfi_def_cfa 2, 32
 698 03f0 13010102 		addi	sp,sp,32
 699              		.cfi_def_cfa_offset 0
 700 03f4 67800000 		jr	ra
 701              		.cfi_endproc
 702              	.LFE12:
 704              		.align	2
 705              		.globl	_Z4getcv
GAS LISTING /tmp/ccBV0OIj.s 			page 15


 707              	_Z4getcv:
 708              	.LFB13:
 101:src/syscall_c.cpp **** 
 102:src/syscall_c.cpp **** char getc() {
 709              		.loc 1 102 13 is_stmt 1
 710              		.cfi_startproc
 711 03f8 130101FE 		addi	sp,sp,-32
 712              		.cfi_def_cfa_offset 32
 713 03fc 233C1100 		sd	ra,24(sp)
 714 0400 23388100 		sd	s0,16(sp)
 715              		.cfi_offset 1, -8
 716              		.cfi_offset 8, -16
 717 0404 13040102 		addi	s0,sp,32
 718              		.cfi_def_cfa 8, 0
 103:src/syscall_c.cpp ****     char volatile a0;
 719              		.loc 1 103 5
 104:src/syscall_c.cpp ****     system_call(GETC);
 720              		.loc 1 104 5
 721              		.loc 1 104 16 is_stmt 0
 722 0408 13070000 		li	a4,0
 723 040c 93060000 		li	a3,0
 724 0410 13060000 		li	a2,0
 725 0414 93050000 		li	a1,0
 726 0418 13051004 		li	a0,65
 727 041c 97000000 		call	_Z11system_callmmmmm
 727      E7800000 
 728              	.LVL52:
 105:src/syscall_c.cpp ****     __asm__ volatile("mv %0, a0" : "=r"(a0));
 729              		.loc 1 105 5 is_stmt 1
 730              		.loc 1 105 45 is_stmt 0
 731              	#APP
 732              	# 105 "src/syscall_c.cpp" 1
 106              	    return a0;
 733              		mv a5, a0
 734              	# 0 "" 2
 735              	#NO_APP
 736 0428 A307F4FE 		sb	a5,-17(s0)
 737              		.loc 1 106 5 is_stmt 1
 738              		.loc 1 106 12 is_stmt 0
 739 042c 0345F4FE 		lbu	a0,-17(s0)
 107:src/syscall_c.cpp **** }
 740              		.loc 1 107 1
 741 0430 1375F50F 		andi	a0,a0,0xff
 742 0434 83308101 		ld	ra,24(sp)
 743              		.cfi_restore 1
 744 0438 03340101 		ld	s0,16(sp)
 745              		.cfi_restore 8
 746              		.cfi_def_cfa 2, 32
 747 043c 13010102 		addi	sp,sp,32
 748              		.cfi_def_cfa_offset 0
 749 0440 67800000 		jr	ra
 750              		.cfi_endproc
 751              	.LFE13:
 753              		.align	2
 754              		.globl	_Z4putcc
 756              	_Z4putcc:
 757              	.LFB14:
GAS LISTING /tmp/ccBV0OIj.s 			page 16


 108:src/syscall_c.cpp **** 
 109:src/syscall_c.cpp **** void putc(char c) {
 758              		.loc 1 109 19 is_stmt 1
 759              		.cfi_startproc
 760              	.LVL53:
 761 0444 130101FF 		addi	sp,sp,-16
 762              		.cfi_def_cfa_offset 16
 763 0448 23341100 		sd	ra,8(sp)
 764 044c 23308100 		sd	s0,0(sp)
 765              		.cfi_offset 1, -8
 766              		.cfi_offset 8, -16
 767 0450 13040101 		addi	s0,sp,16
 768              		.cfi_def_cfa 8, 0
 769 0454 93050500 		mv	a1,a0
 110:src/syscall_c.cpp ****     system_call(PUTC, c);
 770              		.loc 1 110 5
 771              		.loc 1 110 16 is_stmt 0
 772 0458 13070000 		li	a4,0
 773 045c 93060000 		li	a3,0
 774 0460 13060000 		li	a2,0
 775 0464 13052004 		li	a0,66
 776              	.LVL54:
 777 0468 97000000 		call	_Z11system_callmmmmm
 777      E7800000 
 778              	.LVL55:
 111:src/syscall_c.cpp **** }
 779              		.loc 1 111 1
 780 0470 83308100 		ld	ra,8(sp)
 781              		.cfi_restore 1
 782 0474 03340100 		ld	s0,0(sp)
 783              		.cfi_restore 8
 784              		.cfi_def_cfa 2, 16
 785 0478 13010101 		addi	sp,sp,16
 786              		.cfi_def_cfa_offset 0
 787 047c 67800000 		jr	ra
 788              		.cfi_endproc
 789              	.LFE14:
 791              	.Letext0:
 792              		.file 2 "src/../h/../lib/hw.h"
 793              		.file 3 "src/../h/syscall_c.hpp"
 794              		.file 4 "src/../h/Memoryallocator.hpp"
GAS LISTING /tmp/ccBV0OIj.s 			page 17


DEFINED SYMBOLS
                            *ABS*:0000000000000000 syscall_c.cpp
     /tmp/ccBV0OIj.s:9      .text:0000000000000000 _Z11system_callmmmmm
     /tmp/ccBV0OIj.s:13     .text:0000000000000000 .L0 
     /tmp/ccBV0OIj.s:15     .text:0000000000000000 .L0 
     /tmp/ccBV0OIj.s:16     .text:0000000000000004 .L0 
     /tmp/ccBV0OIj.s:18     .text:0000000000000008 .L0 
     /tmp/ccBV0OIj.s:20     .text:000000000000000c .L0 
     /tmp/ccBV0OIj.s:22     .text:000000000000000c .L0 
   src/syscall_c.cpp:9      .text:000000000000000c .L0 
     /tmp/ccBV0OIj.s:29     .text:0000000000000010 .L0 
     /tmp/ccBV0OIj.s:30     .text:0000000000000014 .L0 
     /tmp/ccBV0OIj.s:31     .text:0000000000000014 .L0 
     /tmp/ccBV0OIj.s:33     .text:0000000000000018 .L0 
     /tmp/ccBV0OIj.s:35     .text:000000000000001c .L0 
     /tmp/ccBV0OIj.s:41     .text:000000000000001c _Z9mem_allocm
     /tmp/ccBV0OIj.s:44     .text:000000000000001c .L0 
     /tmp/ccBV0OIj.s:46     .text:000000000000001c .L0 
     /tmp/ccBV0OIj.s:47     .text:000000000000001c .L0 
     /tmp/ccBV0OIj.s:49     .text:0000000000000020 .L0 
     /tmp/ccBV0OIj.s:50     .text:0000000000000024 .L0 
     /tmp/ccBV0OIj.s:53     .text:000000000000002c .L0 
     /tmp/ccBV0OIj.s:54     .text:000000000000002c .L0 
     /tmp/ccBV0OIj.s:56     .text:0000000000000030 .L0 
     /tmp/ccBV0OIj.s:58     .text:0000000000000030 .L0 
     /tmp/ccBV0OIj.s:59     .text:0000000000000030 .L0 
     /tmp/ccBV0OIj.s:60     .text:0000000000000030 .L0 
     /tmp/ccBV0OIj.s:63     .text:0000000000000034 .L0 
     /tmp/ccBV0OIj.s:64     .text:0000000000000034 .L0 
     /tmp/ccBV0OIj.s:74     .text:0000000000000050 .L0 
   src/syscall_c.cpp:18     .text:0000000000000050 .L0 
     /tmp/ccBV0OIj.s:81     .text:0000000000000054 .L0 
     /tmp/ccBV0OIj.s:83     .text:0000000000000054 .L0 
     /tmp/ccBV0OIj.s:84     .text:0000000000000058 .L0 
     /tmp/ccBV0OIj.s:86     .text:000000000000005c .L0 
     /tmp/ccBV0OIj.s:87     .text:000000000000005c .L0 
     /tmp/ccBV0OIj.s:89     .text:0000000000000060 .L0 
     /tmp/ccBV0OIj.s:94     .text:0000000000000064 .L0 
     /tmp/ccBV0OIj.s:97     .text:0000000000000068 .L0 
     /tmp/ccBV0OIj.s:98     .text:000000000000006c .L0 
     /tmp/ccBV0OIj.s:104    .text:000000000000006c _Z8mem_freePv
     /tmp/ccBV0OIj.s:107    .text:000000000000006c .L0 
     /tmp/ccBV0OIj.s:109    .text:000000000000006c .L0 
     /tmp/ccBV0OIj.s:110    .text:0000000000000070 .L0 
     /tmp/ccBV0OIj.s:113    .text:0000000000000078 .L0 
     /tmp/ccBV0OIj.s:114    .text:0000000000000078 .L0 
     /tmp/ccBV0OIj.s:116    .text:000000000000007c .L0 
     /tmp/ccBV0OIj.s:119    .text:0000000000000080 .L0 
     /tmp/ccBV0OIj.s:120    .text:0000000000000080 .L0 
     /tmp/ccBV0OIj.s:121    .text:0000000000000080 .L0 
     /tmp/ccBV0OIj.s:129    .text:0000000000000098 .L0 
   src/syscall_c.cpp:25     .text:0000000000000098 .L0 
     /tmp/ccBV0OIj.s:137    .text:00000000000000a0 .L0 
     /tmp/ccBV0OIj.s:138    .text:00000000000000a0 .L0 
     /tmp/ccBV0OIj.s:140    .text:00000000000000a4 .L0 
     /tmp/ccBV0OIj.s:142    .text:00000000000000ac .L0 
     /tmp/ccBV0OIj.s:144    .text:00000000000000b0 .L0 
GAS LISTING /tmp/ccBV0OIj.s 			page 18


     /tmp/ccBV0OIj.s:145    .text:00000000000000b0 .L0 
     /tmp/ccBV0OIj.s:147    .text:00000000000000b4 .L0 
     /tmp/ccBV0OIj.s:149    .text:00000000000000b8 .L0 
     /tmp/ccBV0OIj.s:155    .text:00000000000000b8 _Z13thread_createPP3TCBPFvPvES2_
     /tmp/ccBV0OIj.s:158    .text:00000000000000b8 .L0 
     /tmp/ccBV0OIj.s:160    .text:00000000000000b8 .L0 
     /tmp/ccBV0OIj.s:161    .text:00000000000000bc .L0 
     /tmp/ccBV0OIj.s:167    .text:00000000000000d0 .L0 
     /tmp/ccBV0OIj.s:168    .text:00000000000000d0 .L0 
     /tmp/ccBV0OIj.s:169    .text:00000000000000d0 .L0 
     /tmp/ccBV0OIj.s:170    .text:00000000000000d0 .L0 
     /tmp/ccBV0OIj.s:171    .text:00000000000000d0 .L0 
     /tmp/ccBV0OIj.s:173    .text:00000000000000d4 .L0 
     /tmp/ccBV0OIj.s:178    .text:00000000000000e0 .L0 
     /tmp/ccBV0OIj.s:180    .text:00000000000000e0 .L0 
     /tmp/ccBV0OIj.s:181    .text:00000000000000e0 .L0 
     /tmp/ccBV0OIj.s:183    .text:00000000000000e4 .L0 
     /tmp/ccBV0OIj.s:184    .text:00000000000000e4 .L0 
     /tmp/ccBV0OIj.s:191    .text:00000000000000f4 .L0 
     /tmp/ccBV0OIj.s:195    .text:00000000000000f8 .L0 
     /tmp/ccBV0OIj.s:196    .text:00000000000000f8 .L0 
     /tmp/ccBV0OIj.s:203    .text:0000000000000110 .L0 
   src/syscall_c.cpp:37     .text:0000000000000110 .L0 
     /tmp/ccBV0OIj.s:211    .text:0000000000000118 .L0 
     /tmp/ccBV0OIj.s:212    .text:0000000000000118 .L0 
     /tmp/ccBV0OIj.s:216    .text:0000000000000120 .L0 
     /tmp/ccBV0OIj.s:217    .text:0000000000000124 .L0 
     /tmp/ccBV0OIj.s:218    .text:0000000000000124 .L0 
     /tmp/ccBV0OIj.s:220    .text:0000000000000128 .L0 
     /tmp/ccBV0OIj.s:221    .text:0000000000000128 .L0 
     /tmp/ccBV0OIj.s:223    .text:000000000000012c .L0 
     /tmp/ccBV0OIj.s:226    .text:0000000000000130 .L0 
     /tmp/ccBV0OIj.s:229    .text:0000000000000134 .L0 
     /tmp/ccBV0OIj.s:232    .text:0000000000000138 .L0 
     /tmp/ccBV0OIj.s:236    .text:000000000000013c .L0 
     /tmp/ccBV0OIj.s:238    .text:000000000000013c .L0 
     /tmp/ccBV0OIj.s:243    .text:0000000000000144 .L0 
     /tmp/ccBV0OIj.s:246    .text:000000000000014c .L0 
     /tmp/ccBV0OIj.s:252    .text:000000000000014c _Z11thread_exitv
     /tmp/ccBV0OIj.s:255    .text:000000000000014c .L0 
     /tmp/ccBV0OIj.s:256    .text:000000000000014c .L0 
     /tmp/ccBV0OIj.s:257    .text:0000000000000150 .L0 
     /tmp/ccBV0OIj.s:260    .text:0000000000000158 .L0 
     /tmp/ccBV0OIj.s:261    .text:0000000000000158 .L0 
     /tmp/ccBV0OIj.s:263    .text:000000000000015c .L0 
     /tmp/ccBV0OIj.s:265    .text:000000000000015c .L0 
     /tmp/ccBV0OIj.s:266    .text:000000000000015c .L0 
     /tmp/ccBV0OIj.s:267    .text:000000000000015c .L0 
     /tmp/ccBV0OIj.s:275    .text:0000000000000178 .L0 
   src/syscall_c.cpp:44     .text:0000000000000178 .L0 
     /tmp/ccBV0OIj.s:283    .text:0000000000000180 .L0 
     /tmp/ccBV0OIj.s:284    .text:0000000000000180 .L0 
     /tmp/ccBV0OIj.s:286    .text:0000000000000184 .L0 
     /tmp/ccBV0OIj.s:288    .text:000000000000018c .L0 
     /tmp/ccBV0OIj.s:290    .text:0000000000000190 .L0 
     /tmp/ccBV0OIj.s:291    .text:0000000000000190 .L0 
     /tmp/ccBV0OIj.s:293    .text:0000000000000194 .L0 
GAS LISTING /tmp/ccBV0OIj.s 			page 19


     /tmp/ccBV0OIj.s:295    .text:0000000000000198 .L0 
     /tmp/ccBV0OIj.s:301    .text:0000000000000198 _Z15thread_dispatchv
     /tmp/ccBV0OIj.s:304    .text:0000000000000198 .L0 
     /tmp/ccBV0OIj.s:305    .text:0000000000000198 .L0 
     /tmp/ccBV0OIj.s:306    .text:000000000000019c .L0 
     /tmp/ccBV0OIj.s:309    .text:00000000000001a4 .L0 
     /tmp/ccBV0OIj.s:310    .text:00000000000001a4 .L0 
     /tmp/ccBV0OIj.s:312    .text:00000000000001a8 .L0 
     /tmp/ccBV0OIj.s:314    .text:00000000000001a8 .L0 
     /tmp/ccBV0OIj.s:315    .text:00000000000001a8 .L0 
     /tmp/ccBV0OIj.s:323    .text:00000000000001c4 .L0 
     /tmp/ccBV0OIj.s:324    .text:00000000000001c8 .L0 
     /tmp/ccBV0OIj.s:326    .text:00000000000001cc .L0 
     /tmp/ccBV0OIj.s:327    .text:00000000000001cc .L0 
     /tmp/ccBV0OIj.s:329    .text:00000000000001d0 .L0 
     /tmp/ccBV0OIj.s:331    .text:00000000000001d4 .L0 
     /tmp/ccBV0OIj.s:337    .text:00000000000001d4 _Z8sem_openPP3Semj
     /tmp/ccBV0OIj.s:340    .text:00000000000001d4 .L0 
     /tmp/ccBV0OIj.s:342    .text:00000000000001d4 .L0 
     /tmp/ccBV0OIj.s:343    .text:00000000000001d8 .L0 
     /tmp/ccBV0OIj.s:346    .text:00000000000001e0 .L0 
     /tmp/ccBV0OIj.s:347    .text:00000000000001e0 .L0 
     /tmp/ccBV0OIj.s:349    .text:00000000000001e4 .L0 
     /tmp/ccBV0OIj.s:351    .text:00000000000001e4 .L0 
     /tmp/ccBV0OIj.s:352    .text:00000000000001e4 .L0 
     /tmp/ccBV0OIj.s:353    .text:00000000000001e4 .L0 
     /tmp/ccBV0OIj.s:364    .text:0000000000000204 .L0 
   src/syscall_c.cpp:55     .text:0000000000000204 .L0 
     /tmp/ccBV0OIj.s:372    .text:000000000000020c .L0 
     /tmp/ccBV0OIj.s:373    .text:000000000000020c .L0 
     /tmp/ccBV0OIj.s:375    .text:0000000000000210 .L0 
     /tmp/ccBV0OIj.s:377    .text:0000000000000218 .L0 
     /tmp/ccBV0OIj.s:379    .text:000000000000021c .L0 
     /tmp/ccBV0OIj.s:380    .text:000000000000021c .L0 
     /tmp/ccBV0OIj.s:382    .text:0000000000000220 .L0 
     /tmp/ccBV0OIj.s:384    .text:0000000000000224 .L0 
     /tmp/ccBV0OIj.s:390    .text:0000000000000224 _Z9sem_closeP3Sem
     /tmp/ccBV0OIj.s:393    .text:0000000000000224 .L0 
     /tmp/ccBV0OIj.s:395    .text:0000000000000224 .L0 
     /tmp/ccBV0OIj.s:396    .text:0000000000000224 .L0 
     /tmp/ccBV0OIj.s:398    .text:0000000000000228 .L0 
     /tmp/ccBV0OIj.s:399    .text:000000000000022c .L0 
     /tmp/ccBV0OIj.s:402    .text:0000000000000234 .L0 
     /tmp/ccBV0OIj.s:403    .text:0000000000000234 .L0 
     /tmp/ccBV0OIj.s:405    .text:0000000000000238 .L0 
     /tmp/ccBV0OIj.s:408    .text:000000000000023c .L0 
     /tmp/ccBV0OIj.s:409    .text:000000000000023c .L0 
     /tmp/ccBV0OIj.s:410    .text:000000000000023c .L0 
     /tmp/ccBV0OIj.s:418    .text:0000000000000254 .L0 
   src/syscall_c.cpp:63     .text:0000000000000254 .L0 
     /tmp/ccBV0OIj.s:426    .text:000000000000025c .L0 
     /tmp/ccBV0OIj.s:427    .text:000000000000025c .L0 
     /tmp/ccBV0OIj.s:430    .text:0000000000000264 .L0 
     /tmp/ccBV0OIj.s:431    .text:0000000000000268 .L0 
     /tmp/ccBV0OIj.s:433    .text:000000000000026c .L0 
     /tmp/ccBV0OIj.s:434    .text:000000000000026c .L0 
     /tmp/ccBV0OIj.s:436    .text:0000000000000270 .L0 
GAS LISTING /tmp/ccBV0OIj.s 			page 20


     /tmp/ccBV0OIj.s:441    .text:0000000000000274 .L0 
     /tmp/ccBV0OIj.s:444    .text:0000000000000278 .L0 
     /tmp/ccBV0OIj.s:445    .text:000000000000027c .L0 
     /tmp/ccBV0OIj.s:451    .text:000000000000027c _Z8sem_waitP3Sem
     /tmp/ccBV0OIj.s:454    .text:000000000000027c .L0 
     /tmp/ccBV0OIj.s:456    .text:000000000000027c .L0 
     /tmp/ccBV0OIj.s:457    .text:0000000000000280 .L0 
     /tmp/ccBV0OIj.s:460    .text:0000000000000288 .L0 
     /tmp/ccBV0OIj.s:461    .text:0000000000000288 .L0 
     /tmp/ccBV0OIj.s:463    .text:000000000000028c .L0 
     /tmp/ccBV0OIj.s:466    .text:0000000000000290 .L0 
     /tmp/ccBV0OIj.s:467    .text:0000000000000290 .L0 
     /tmp/ccBV0OIj.s:468    .text:0000000000000290 .L0 
     /tmp/ccBV0OIj.s:476    .text:00000000000002a8 .L0 
   src/syscall_c.cpp:70     .text:00000000000002a8 .L0 
     /tmp/ccBV0OIj.s:484    .text:00000000000002b0 .L0 
     /tmp/ccBV0OIj.s:485    .text:00000000000002b0 .L0 
     /tmp/ccBV0OIj.s:487    .text:00000000000002b4 .L0 
     /tmp/ccBV0OIj.s:489    .text:00000000000002bc .L0 
     /tmp/ccBV0OIj.s:491    .text:00000000000002c0 .L0 
     /tmp/ccBV0OIj.s:492    .text:00000000000002c0 .L0 
     /tmp/ccBV0OIj.s:494    .text:00000000000002c4 .L0 
     /tmp/ccBV0OIj.s:496    .text:00000000000002c8 .L0 
     /tmp/ccBV0OIj.s:502    .text:00000000000002c8 _Z13sem_timedwaitP3Semm
     /tmp/ccBV0OIj.s:505    .text:00000000000002c8 .L0 
     /tmp/ccBV0OIj.s:507    .text:00000000000002c8 .L0 
     /tmp/ccBV0OIj.s:508    .text:00000000000002cc .L0 
     /tmp/ccBV0OIj.s:511    .text:00000000000002d4 .L0 
     /tmp/ccBV0OIj.s:512    .text:00000000000002d4 .L0 
     /tmp/ccBV0OIj.s:514    .text:00000000000002d8 .L0 
     /tmp/ccBV0OIj.s:517    .text:00000000000002dc .L0 
     /tmp/ccBV0OIj.s:518    .text:00000000000002dc .L0 
     /tmp/ccBV0OIj.s:519    .text:00000000000002dc .L0 
     /tmp/ccBV0OIj.s:528    .text:00000000000002f4 .L0 
   src/syscall_c.cpp:77     .text:00000000000002f4 .L0 
     /tmp/ccBV0OIj.s:536    .text:00000000000002fc .L0 
     /tmp/ccBV0OIj.s:537    .text:00000000000002fc .L0 
     /tmp/ccBV0OIj.s:539    .text:0000000000000300 .L0 
     /tmp/ccBV0OIj.s:541    .text:0000000000000308 .L0 
     /tmp/ccBV0OIj.s:543    .text:000000000000030c .L0 
     /tmp/ccBV0OIj.s:544    .text:000000000000030c .L0 
     /tmp/ccBV0OIj.s:546    .text:0000000000000310 .L0 
     /tmp/ccBV0OIj.s:548    .text:0000000000000314 .L0 
     /tmp/ccBV0OIj.s:554    .text:0000000000000314 _Z11sem_trywaitP3Sem
     /tmp/ccBV0OIj.s:557    .text:0000000000000314 .L0 
     /tmp/ccBV0OIj.s:559    .text:0000000000000314 .L0 
     /tmp/ccBV0OIj.s:560    .text:0000000000000318 .L0 
     /tmp/ccBV0OIj.s:563    .text:0000000000000320 .L0 
     /tmp/ccBV0OIj.s:564    .text:0000000000000320 .L0 
     /tmp/ccBV0OIj.s:566    .text:0000000000000324 .L0 
     /tmp/ccBV0OIj.s:569    .text:0000000000000328 .L0 
     /tmp/ccBV0OIj.s:570    .text:0000000000000328 .L0 
     /tmp/ccBV0OIj.s:571    .text:0000000000000328 .L0 
     /tmp/ccBV0OIj.s:579    .text:0000000000000340 .L0 
   src/syscall_c.cpp:84     .text:0000000000000340 .L0 
     /tmp/ccBV0OIj.s:587    .text:0000000000000348 .L0 
     /tmp/ccBV0OIj.s:588    .text:0000000000000348 .L0 
GAS LISTING /tmp/ccBV0OIj.s 			page 21


     /tmp/ccBV0OIj.s:590    .text:000000000000034c .L0 
     /tmp/ccBV0OIj.s:592    .text:0000000000000354 .L0 
     /tmp/ccBV0OIj.s:594    .text:0000000000000358 .L0 
     /tmp/ccBV0OIj.s:595    .text:0000000000000358 .L0 
     /tmp/ccBV0OIj.s:597    .text:000000000000035c .L0 
     /tmp/ccBV0OIj.s:599    .text:0000000000000360 .L0 
     /tmp/ccBV0OIj.s:605    .text:0000000000000360 _Z10sem_signalP3Sem
     /tmp/ccBV0OIj.s:608    .text:0000000000000360 .L0 
     /tmp/ccBV0OIj.s:610    .text:0000000000000360 .L0 
     /tmp/ccBV0OIj.s:611    .text:0000000000000364 .L0 
     /tmp/ccBV0OIj.s:614    .text:000000000000036c .L0 
     /tmp/ccBV0OIj.s:615    .text:000000000000036c .L0 
     /tmp/ccBV0OIj.s:617    .text:0000000000000370 .L0 
     /tmp/ccBV0OIj.s:620    .text:0000000000000374 .L0 
     /tmp/ccBV0OIj.s:621    .text:0000000000000374 .L0 
     /tmp/ccBV0OIj.s:622    .text:0000000000000374 .L0 
     /tmp/ccBV0OIj.s:630    .text:000000000000038c .L0 
   src/syscall_c.cpp:91     .text:000000000000038c .L0 
     /tmp/ccBV0OIj.s:638    .text:0000000000000394 .L0 
     /tmp/ccBV0OIj.s:639    .text:0000000000000394 .L0 
     /tmp/ccBV0OIj.s:641    .text:0000000000000398 .L0 
     /tmp/ccBV0OIj.s:643    .text:00000000000003a0 .L0 
     /tmp/ccBV0OIj.s:645    .text:00000000000003a4 .L0 
     /tmp/ccBV0OIj.s:646    .text:00000000000003a4 .L0 
     /tmp/ccBV0OIj.s:648    .text:00000000000003a8 .L0 
     /tmp/ccBV0OIj.s:650    .text:00000000000003ac .L0 
     /tmp/ccBV0OIj.s:656    .text:00000000000003ac _Z10time_sleepm
     /tmp/ccBV0OIj.s:659    .text:00000000000003ac .L0 
     /tmp/ccBV0OIj.s:661    .text:00000000000003ac .L0 
     /tmp/ccBV0OIj.s:662    .text:00000000000003b0 .L0 
     /tmp/ccBV0OIj.s:665    .text:00000000000003b8 .L0 
     /tmp/ccBV0OIj.s:666    .text:00000000000003b8 .L0 
     /tmp/ccBV0OIj.s:668    .text:00000000000003bc .L0 
     /tmp/ccBV0OIj.s:671    .text:00000000000003c0 .L0 
     /tmp/ccBV0OIj.s:672    .text:00000000000003c0 .L0 
     /tmp/ccBV0OIj.s:673    .text:00000000000003c0 .L0 
     /tmp/ccBV0OIj.s:681    .text:00000000000003d8 .L0 
   src/syscall_c.cpp:98     .text:00000000000003d8 .L0 
     /tmp/ccBV0OIj.s:689    .text:00000000000003e0 .L0 
     /tmp/ccBV0OIj.s:690    .text:00000000000003e0 .L0 
     /tmp/ccBV0OIj.s:692    .text:00000000000003e4 .L0 
     /tmp/ccBV0OIj.s:694    .text:00000000000003ec .L0 
     /tmp/ccBV0OIj.s:696    .text:00000000000003f0 .L0 
     /tmp/ccBV0OIj.s:697    .text:00000000000003f0 .L0 
     /tmp/ccBV0OIj.s:699    .text:00000000000003f4 .L0 
     /tmp/ccBV0OIj.s:701    .text:00000000000003f8 .L0 
     /tmp/ccBV0OIj.s:707    .text:00000000000003f8 _Z4getcv
     /tmp/ccBV0OIj.s:710    .text:00000000000003f8 .L0 
     /tmp/ccBV0OIj.s:711    .text:00000000000003f8 .L0 
     /tmp/ccBV0OIj.s:712    .text:00000000000003fc .L0 
     /tmp/ccBV0OIj.s:715    .text:0000000000000404 .L0 
     /tmp/ccBV0OIj.s:716    .text:0000000000000404 .L0 
     /tmp/ccBV0OIj.s:718    .text:0000000000000408 .L0 
     /tmp/ccBV0OIj.s:720    .text:0000000000000408 .L0 
     /tmp/ccBV0OIj.s:721    .text:0000000000000408 .L0 
     /tmp/ccBV0OIj.s:722    .text:0000000000000408 .L0 
     /tmp/ccBV0OIj.s:730    .text:0000000000000424 .L0 
GAS LISTING /tmp/ccBV0OIj.s 			page 22


   src/syscall_c.cpp:105    .text:0000000000000424 .L0 
     /tmp/ccBV0OIj.s:738    .text:000000000000042c .L0 
     /tmp/ccBV0OIj.s:739    .text:000000000000042c .L0 
     /tmp/ccBV0OIj.s:741    .text:0000000000000430 .L0 
     /tmp/ccBV0OIj.s:743    .text:0000000000000438 .L0 
     /tmp/ccBV0OIj.s:745    .text:000000000000043c .L0 
     /tmp/ccBV0OIj.s:746    .text:000000000000043c .L0 
     /tmp/ccBV0OIj.s:748    .text:0000000000000440 .L0 
     /tmp/ccBV0OIj.s:750    .text:0000000000000444 .L0 
     /tmp/ccBV0OIj.s:756    .text:0000000000000444 _Z4putcc
     /tmp/ccBV0OIj.s:759    .text:0000000000000444 .L0 
     /tmp/ccBV0OIj.s:761    .text:0000000000000444 .L0 
     /tmp/ccBV0OIj.s:762    .text:0000000000000448 .L0 
     /tmp/ccBV0OIj.s:765    .text:0000000000000450 .L0 
     /tmp/ccBV0OIj.s:766    .text:0000000000000450 .L0 
     /tmp/ccBV0OIj.s:768    .text:0000000000000454 .L0 
     /tmp/ccBV0OIj.s:771    .text:0000000000000458 .L0 
     /tmp/ccBV0OIj.s:772    .text:0000000000000458 .L0 
     /tmp/ccBV0OIj.s:780    .text:0000000000000470 .L0 
     /tmp/ccBV0OIj.s:781    .text:0000000000000474 .L0 
     /tmp/ccBV0OIj.s:783    .text:0000000000000478 .L0 
     /tmp/ccBV0OIj.s:784    .text:0000000000000478 .L0 
     /tmp/ccBV0OIj.s:786    .text:000000000000047c .L0 
     /tmp/ccBV0OIj.s:788    .text:0000000000000480 .L0 
     /tmp/ccBV0OIj.s:795    .text:0000000000000480 .L0 
     /tmp/ccBV0OIj.s:92     .text:0000000000000064 .L5
     /tmp/ccBV0OIj.s:235    .text:000000000000013c .L15
     /tmp/ccBV0OIj.s:241    .text:0000000000000144 .L18
     /tmp/ccBV0OIj.s:193    .text:00000000000000f8 .L13
     /tmp/ccBV0OIj.s:214    .text:0000000000000120 .L14
     /tmp/ccBV0OIj.s:439    .text:0000000000000274 .L27
     /tmp/ccBV0OIj.s:1941   .debug_abbrev:0000000000000000 .Ldebug_abbrev0
     /tmp/ccBV0OIj.s:2912   .debug_str:0000000000000386 .LASF73
     /tmp/ccBV0OIj.s:2848   .debug_str:00000000000001cf .LASF74
     /tmp/ccBV0OIj.s:2832   .debug_str:0000000000000157 .LASF75
     /tmp/ccBV0OIj.s:5      .text:0000000000000000 .Ltext0
     /tmp/ccBV0OIj.s:791    .text:0000000000000480 .Letext0
     /tmp/ccBV0OIj.s:2774   .debug_line:0000000000000000 .Ldebug_line0
     /tmp/ccBV0OIj.s:2868   .debug_str:0000000000000257 .LASF0
     /tmp/ccBV0OIj.s:2872   .debug_str:0000000000000269 .LASF1
     /tmp/ccBV0OIj.s:2862   .debug_str:0000000000000231 .LASF2
     /tmp/ccBV0OIj.s:2846   .debug_str:00000000000001c8 .LASF4
     /tmp/ccBV0OIj.s:2900   .debug_str:000000000000034b .LASF3
     /tmp/ccBV0OIj.s:2794   .debug_str:000000000000006f .LASF5
     /tmp/ccBV0OIj.s:2814   .debug_str:00000000000000f6 .LASF6
     /tmp/ccBV0OIj.s:2876   .debug_str:000000000000028d .LASF7
     /tmp/ccBV0OIj.s:2866   .debug_str:0000000000000244 .LASF8
     /tmp/ccBV0OIj.s:2922   .debug_str:0000000000000475 .LASF9
     /tmp/ccBV0OIj.s:2842   .debug_str:00000000000001af .LASF10
     /tmp/ccBV0OIj.s:2884   .debug_str:00000000000002cb .LASF11
     /tmp/ccBV0OIj.s:2914   .debug_str:000000000000044a .LASF12
     /tmp/ccBV0OIj.s:2796   .debug_str:0000000000000076 .LASF13
     /tmp/ccBV0OIj.s:2780   .debug_str:0000000000000021 .LASF14
     /tmp/ccBV0OIj.s:2800   .debug_str:0000000000000091 .LASF15
     /tmp/ccBV0OIj.s:2894   .debug_str:0000000000000316 .LASF16
     /tmp/ccBV0OIj.s:2810   .debug_str:00000000000000d5 .LASF17
     /tmp/ccBV0OIj.s:2924   .debug_str:0000000000000485 .LASF76
GAS LISTING /tmp/ccBV0OIj.s 			page 23


     /tmp/ccBV0OIj.s:2906   .debug_str:0000000000000370 .LASF18
     /tmp/ccBV0OIj.s:2892   .debug_str:000000000000030d .LASF19
     /tmp/ccBV0OIj.s:2856   .debug_str:0000000000000200 .LASF20
     /tmp/ccBV0OIj.s:2822   .debug_str:000000000000011c .LASF21
     /tmp/ccBV0OIj.s:2802   .debug_str:000000000000009d .LASF22
     /tmp/ccBV0OIj.s:2920   .debug_str:000000000000046c .LASF23
     /tmp/ccBV0OIj.s:2854   .debug_str:00000000000001f6 .LASF24
     /tmp/ccBV0OIj.s:2904   .debug_str:0000000000000367 .LASF25
     /tmp/ccBV0OIj.s:2798   .debug_str:0000000000000086 .LASF26
     /tmp/ccBV0OIj.s:2858   .debug_str:000000000000020e .LASF27
     /tmp/ccBV0OIj.s:2840   .debug_str:00000000000001a3 .LASF28
     /tmp/ccBV0OIj.s:2850   .debug_str:00000000000001e1 .LASF29
     /tmp/ccBV0OIj.s:2792   .debug_str:000000000000006a .LASF30
     /tmp/ccBV0OIj.s:2928   .debug_str:0000000000000499 .LASF31
     /tmp/ccBV0OIj.s:2776   .debug_str:0000000000000000 .LASF32
     /tmp/ccBV0OIj.s:2826   .debug_str:000000000000013a .LASF33
     /tmp/ccBV0OIj.s:2844   .debug_str:00000000000001bd .LASF34
     /tmp/ccBV0OIj.s:2864   .debug_str:000000000000023f .LASF56
     /tmp/ccBV0OIj.s:2834   .debug_str:0000000000000175 .LASF58
     /tmp/ccBV0OIj.s:757    .text:0000000000000444 .LFB14
     /tmp/ccBV0OIj.s:789    .text:0000000000000480 .LFE14
     /tmp/ccBV0OIj.s:2393   .debug_loc:0000000000000000 .LLST17
     /tmp/ccBV0OIj.s:778    .text:0000000000000470 .LVL55
     /tmp/ccBV0OIj.s:2878   .debug_str:00000000000002a0 .LASF35
     /tmp/ccBV0OIj.s:2782   .debug_str:0000000000000031 .LASF36
     /tmp/ccBV0OIj.s:2790   .debug_str:0000000000000061 .LASF38
     /tmp/ccBV0OIj.s:708    .text:00000000000003f8 .LFB13
     /tmp/ccBV0OIj.s:751    .text:0000000000000444 .LFE13
     /tmp/ccBV0OIj.s:728    .text:0000000000000424 .LVL52
     /tmp/ccBV0OIj.s:2896   .debug_str:000000000000032c .LASF37
     /tmp/ccBV0OIj.s:2888   .debug_str:00000000000002ef .LASF39
     /tmp/ccBV0OIj.s:657    .text:00000000000003ac .LFB12
     /tmp/ccBV0OIj.s:702    .text:00000000000003f8 .LFE12
     /tmp/ccBV0OIj.s:2870   .debug_str:0000000000000264 .LASF40
     /tmp/ccBV0OIj.s:2407   .debug_loc:0000000000000039 .LLST16
     /tmp/ccBV0OIj.s:679    .text:00000000000003d8 .LVL51
     /tmp/ccBV0OIj.s:2812   .debug_str:00000000000000eb .LASF41
     /tmp/ccBV0OIj.s:2898   .debug_str:0000000000000337 .LASF42
     /tmp/ccBV0OIj.s:606    .text:0000000000000360 .LFB11
     /tmp/ccBV0OIj.s:651    .text:00000000000003ac .LFE11
     /tmp/ccBV0OIj.s:2425   .debug_loc:0000000000000085 .LLST15
     /tmp/ccBV0OIj.s:628    .text:000000000000038c .LVL48
     /tmp/ccBV0OIj.s:2918   .debug_str:0000000000000460 .LASF43
     /tmp/ccBV0OIj.s:2838   .debug_str:000000000000018e .LASF44
     /tmp/ccBV0OIj.s:555    .text:0000000000000314 .LFB10
     /tmp/ccBV0OIj.s:600    .text:0000000000000360 .LFE10
     /tmp/ccBV0OIj.s:2443   .debug_loc:00000000000000d1 .LLST14
     /tmp/ccBV0OIj.s:577    .text:0000000000000340 .LVL45
     /tmp/ccBV0OIj.s:2828   .debug_str:0000000000000140 .LASF45
     /tmp/ccBV0OIj.s:2778   .debug_str:0000000000000009 .LASF46
     /tmp/ccBV0OIj.s:503    .text:00000000000002c8 .LFB9
     /tmp/ccBV0OIj.s:549    .text:0000000000000314 .LFE9
     /tmp/ccBV0OIj.s:2461   .debug_loc:000000000000011d .LLST12
     /tmp/ccBV0OIj.s:2930   .debug_str:000000000000049e .LASF47
     /tmp/ccBV0OIj.s:2479   .debug_loc:0000000000000169 .LLST13
     /tmp/ccBV0OIj.s:526    .text:00000000000002f4 .LVL42
     /tmp/ccBV0OIj.s:2804   .debug_str:00000000000000ad .LASF48
GAS LISTING /tmp/ccBV0OIj.s 			page 24


     /tmp/ccBV0OIj.s:2786   .debug_str:0000000000000044 .LASF49
     /tmp/ccBV0OIj.s:452    .text:000000000000027c .LFB8
     /tmp/ccBV0OIj.s:497    .text:00000000000002c8 .LFE8
     /tmp/ccBV0OIj.s:2497   .debug_loc:00000000000001b5 .LLST11
     /tmp/ccBV0OIj.s:474    .text:00000000000002a8 .LVL38
     /tmp/ccBV0OIj.s:2852   .debug_str:00000000000001ec .LASF50
     /tmp/ccBV0OIj.s:2824   .debug_str:0000000000000128 .LASF51
     /tmp/ccBV0OIj.s:391    .text:0000000000000224 .LFB7
     /tmp/ccBV0OIj.s:446    .text:000000000000027c .LFE7
     /tmp/ccBV0OIj.s:2908   .debug_str:000000000000037a .LASF52
     /tmp/ccBV0OIj.s:2515   .debug_loc:0000000000000201 .LLST10
     /tmp/ccBV0OIj.s:416    .text:0000000000000254 .LVL33
     /tmp/ccBV0OIj.s:2830   .debug_str:000000000000014e .LASF53
     /tmp/ccBV0OIj.s:2806   .debug_str:00000000000000b6 .LASF54
     /tmp/ccBV0OIj.s:338    .text:00000000000001d4 .LFB6
     /tmp/ccBV0OIj.s:385    .text:0000000000000224 .LFE6
     /tmp/ccBV0OIj.s:2544   .debug_loc:0000000000000276 .LLST8
     /tmp/ccBV0OIj.s:2880   .debug_str:00000000000002a5 .LASF55
     /tmp/ccBV0OIj.s:2562   .debug_loc:00000000000002c2 .LLST9
     /tmp/ccBV0OIj.s:362    .text:0000000000000204 .LVL30
     /tmp/ccBV0OIj.s:2836   .debug_str:000000000000017e .LASF57
     /tmp/ccBV0OIj.s:2886   .debug_str:00000000000002da .LASF59
     /tmp/ccBV0OIj.s:302    .text:0000000000000198 .LFB5
     /tmp/ccBV0OIj.s:332    .text:00000000000001d4 .LFE5
     /tmp/ccBV0OIj.s:321    .text:00000000000001c4 .LVL26
     /tmp/ccBV0OIj.s:2788   .debug_str:0000000000000055 .LASF60
     /tmp/ccBV0OIj.s:2874   .debug_str:000000000000027c .LASF61
     /tmp/ccBV0OIj.s:253    .text:000000000000014c .LFB4
     /tmp/ccBV0OIj.s:296    .text:0000000000000198 .LFE4
     /tmp/ccBV0OIj.s:273    .text:0000000000000178 .LVL25
     /tmp/ccBV0OIj.s:2818   .debug_str:0000000000000105 .LASF62
     /tmp/ccBV0OIj.s:2882   .debug_str:00000000000002aa .LASF63
     /tmp/ccBV0OIj.s:156    .text:00000000000000b8 .LFB3
     /tmp/ccBV0OIj.s:247    .text:000000000000014c .LFE3
     /tmp/ccBV0OIj.s:2576   .debug_loc:00000000000002fb .LLST4
     /tmp/ccBV0OIj.s:2890   .debug_str:00000000000002ff .LASF64
     /tmp/ccBV0OIj.s:2602   .debug_loc:000000000000036d .LLST5
     /tmp/ccBV0OIj.s:2624   .debug_loc:00000000000003cc .LLST6
     /tmp/ccBV0OIj.s:2932   .debug_str:00000000000004a6 .LASF65
     /tmp/ccBV0OIj.s:2650   .debug_loc:000000000000043e .LLST7
     /tmp/ccBV0OIj.s:187    .text:00000000000000f0 .LVL15
     /tmp/ccBV0OIj.s:201    .text:0000000000000110 .LVL18
     /tmp/ccBV0OIj.s:2820   .debug_str:0000000000000113 .LASF66
     /tmp/ccBV0OIj.s:2926   .debug_str:000000000000048b .LASF67
     /tmp/ccBV0OIj.s:105    .text:000000000000006c .LFB2
     /tmp/ccBV0OIj.s:150    .text:00000000000000b8 .LFE2
     /tmp/ccBV0OIj.s:2679   .debug_loc:00000000000004c2 .LLST3
     /tmp/ccBV0OIj.s:127    .text:0000000000000098 .LVL11
     /tmp/ccBV0OIj.s:2902   .debug_str:000000000000035d .LASF68
     /tmp/ccBV0OIj.s:2784   .debug_str:0000000000000036 .LASF69
     /tmp/ccBV0OIj.s:42     .text:000000000000001c .LFB1
     /tmp/ccBV0OIj.s:99     .text:000000000000006c .LFE1
     /tmp/ccBV0OIj.s:2910   .debug_str:0000000000000381 .LASF70
     /tmp/ccBV0OIj.s:2697   .debug_loc:000000000000050e .LLST0
     /tmp/ccBV0OIj.s:2728   .debug_loc:0000000000000586 .LLST1
     /tmp/ccBV0OIj.s:2916   .debug_str:0000000000000459 .LASF71
     /tmp/ccBV0OIj.s:2735   .debug_loc:00000000000005a9 .LLST2
GAS LISTING /tmp/ccBV0OIj.s 			page 25


     /tmp/ccBV0OIj.s:72     .text:0000000000000050 .LVL5
     /tmp/ccBV0OIj.s:2808   .debug_str:00000000000000c9 .LASF77
     /tmp/ccBV0OIj.s:2860   .debug_str:000000000000021c .LASF78
     /tmp/ccBV0OIj.s:10     .text:0000000000000000 .LFB0
     /tmp/ccBV0OIj.s:36     .text:000000000000001c .LFE0
     /tmp/ccBV0OIj.s:2816   .debug_str:00000000000000fd .LASF72
     /tmp/ccBV0OIj.s:760    .text:0000000000000444 .LVL53
     /tmp/ccBV0OIj.s:776    .text:0000000000000468 .LVL54
     /tmp/ccBV0OIj.s:660    .text:00000000000003ac .LVL49
     /tmp/ccBV0OIj.s:677    .text:00000000000003d0 .LVL50
     /tmp/ccBV0OIj.s:609    .text:0000000000000360 .LVL46
     /tmp/ccBV0OIj.s:626    .text:0000000000000384 .LVL47
     /tmp/ccBV0OIj.s:558    .text:0000000000000314 .LVL43
     /tmp/ccBV0OIj.s:575    .text:0000000000000338 .LVL44
     /tmp/ccBV0OIj.s:506    .text:00000000000002c8 .LVL39
     /tmp/ccBV0OIj.s:524    .text:00000000000002ec .LVL41
     /tmp/ccBV0OIj.s:522    .text:00000000000002e8 .LVL40
     /tmp/ccBV0OIj.s:455    .text:000000000000027c .LVL36
     /tmp/ccBV0OIj.s:472    .text:00000000000002a0 .LVL37
     /tmp/ccBV0OIj.s:394    .text:0000000000000224 .LVL31
     /tmp/ccBV0OIj.s:414    .text:000000000000024c .LVL32
     /tmp/ccBV0OIj.s:438    .text:0000000000000274 .LVL34
     /tmp/ccBV0OIj.s:442    .text:0000000000000278 .LVL35
     /tmp/ccBV0OIj.s:341    .text:00000000000001d4 .LVL27
     /tmp/ccBV0OIj.s:360    .text:00000000000001fc .LVL29
     /tmp/ccBV0OIj.s:358    .text:00000000000001f8 .LVL28
     /tmp/ccBV0OIj.s:159    .text:00000000000000b8 .LVL12
     /tmp/ccBV0OIj.s:185    .text:00000000000000e8 .LVL14
     /tmp/ccBV0OIj.s:227    .text:0000000000000130 .LVL20
     /tmp/ccBV0OIj.s:234    .text:000000000000013c .LVL22
     /tmp/ccBV0OIj.s:240    .text:0000000000000144 .LVL23
     /tmp/ccBV0OIj.s:224    .text:000000000000012c .LVL19
     /tmp/ccBV0OIj.s:230    .text:0000000000000134 .LVL21
     /tmp/ccBV0OIj.s:179    .text:00000000000000e0 .LVL13
     /tmp/ccBV0OIj.s:189    .text:00000000000000f4 .LVL16
     /tmp/ccBV0OIj.s:192    .text:00000000000000f8 .LVL17
     /tmp/ccBV0OIj.s:244    .text:0000000000000148 .LVL24
     /tmp/ccBV0OIj.s:108    .text:000000000000006c .LVL9
     /tmp/ccBV0OIj.s:125    .text:0000000000000090 .LVL10
     /tmp/ccBV0OIj.s:45     .text:000000000000001c .LVL1
     /tmp/ccBV0OIj.s:61     .text:0000000000000034 .LVL2
     /tmp/ccBV0OIj.s:70     .text:0000000000000048 .LVL4
     /tmp/ccBV0OIj.s:91     .text:0000000000000064 .LVL7
     /tmp/ccBV0OIj.s:95     .text:0000000000000068 .LVL8
     /tmp/ccBV0OIj.s:79     .text:0000000000000054 .LVL6
     /tmp/ccBV0OIj.s:68     .text:0000000000000044 .LVL3
     /tmp/ccBV0OIj.s:796    .debug_info:0000000000000000 .Ldebug_info0

NO UNDEFINED SYMBOLS
