GAS LISTING /tmp/ccNOgNze.s 			page 1


   1              		.file	"syscall_c.cpp"
   2              		.option pic
   3              		.option norelax
   4              		.text
   5              	.Ltext0:
   6              		.align	2
   7              		.globl	_Z11system_callmmmmm
   9              	_Z11system_callmmmmm:
  10              	.LFB0:
  11              		.file 1 "src/syscall_c.cpp"
   1:src/syscall_c.cpp **** #include "../h/syscall_c.h"
   2:src/syscall_c.cpp **** #include "../h/Memoryallocator.hpp"
   3:src/syscall_c.cpp **** 
   4:src/syscall_c.cpp **** 
   5:src/syscall_c.cpp **** // opsta funkcija, opsti argumenti
   6:src/syscall_c.cpp **** // op code -> registar a0 ___ argumenti reg a1 .. a4
   7:src/syscall_c.cpp **** 
   8:src/syscall_c.cpp **** void system_call(uint64 op_code, uint64 a1 = 0, uint64 a2 = 0, uint64 a3 = 0, uint64 a4 = 0) {
  12              		.loc 1 8 94
  13              		.cfi_startproc
  14              	.LVL0:
  15 0000 130101FF 		addi	sp,sp,-16
  16              		.cfi_def_cfa_offset 16
  17 0004 23348100 		sd	s0,8(sp)
  18              		.cfi_offset 8, -8
  19 0008 13040101 		addi	s0,sp,16
  20              		.cfi_def_cfa 8, 0
   9:src/syscall_c.cpp ****     __asm__ volatile("ecall");
  21              		.loc 1 9 5
  22              		.loc 1 9 30 is_stmt 0
  23              	#APP
  24              	# 9 "src/syscall_c.cpp" 1
  10              	}
  25              		ecall
  26              	# 0 "" 2
  27              		.loc 1 10 1
  28              	#NO_APP
  29 0010 03348100 		ld	s0,8(sp)
  30              		.cfi_restore 8
  31              		.cfi_def_cfa 2, 16
  32 0014 13010101 		addi	sp,sp,16
  33              		.cfi_def_cfa_offset 0
  34 0018 67800000 		jr	ra
  35              		.cfi_endproc
  36              	.LFE0:
  38              		.align	2
  39              		.globl	_Z9mem_allocm
  41              	_Z9mem_allocm:
  42              	.LFB1:
  11:src/syscall_c.cpp **** 
  12:src/syscall_c.cpp **** // size (bytes) => syscall -> num of block
  13:src/syscall_c.cpp **** void* mem_alloc (size_t size) {
  43              		.loc 1 13 31 is_stmt 1
  44              		.cfi_startproc
  45              	.LVL1:
  14:src/syscall_c.cpp ****     if (!size) return nullptr;
  46              		.loc 1 14 5
GAS LISTING /tmp/ccNOgNze.s 			page 2


  47 001c 63040504 		beqz	a0,.L5
  13:src/syscall_c.cpp ****     if (!size) return nullptr;
  48              		.loc 1 13 31 is_stmt 0
  49 0020 130101FF 		addi	sp,sp,-16
  50              		.cfi_def_cfa_offset 16
  51 0024 23341100 		sd	ra,8(sp)
  52 0028 23308100 		sd	s0,0(sp)
  53              		.cfi_offset 1, -8
  54              		.cfi_offset 8, -16
  55 002c 13040101 		addi	s0,sp,16
  56              		.cfi_def_cfa 8, 0
  15:src/syscall_c.cpp ****     void volatile *ptr;
  57              		.loc 1 15 5 is_stmt 1
  16:src/syscall_c.cpp ****     uint64 blocks = (mem_h_size + size + MEM_BLOCK_SIZE - 1) / MEM_BLOCK_SIZE;
  58              		.loc 1 16 5
  59              		.loc 1 16 57 is_stmt 0
  60 0030 13057505 		addi	a0,a0,87
  61              	.LVL2:
  17:src/syscall_c.cpp ****     system_call(MEM_ALLOC, blocks);
  62              		.loc 1 17 5 is_stmt 1
  63              		.loc 1 17 16 is_stmt 0
  64 0034 13070000 		li	a4,0
  65 0038 93060000 		li	a3,0
  66 003c 13060000 		li	a2,0
  67 0040 93556500 		srli	a1,a0,6
  68              	.LVL3:
  69 0044 13051000 		li	a0,1
  70              	.LVL4:
  71 0048 97000000 		call	_Z11system_callmmmmm
  71      E7800000 
  72              	.LVL5:
  18:src/syscall_c.cpp ****     __asm__ volatile("mv %0, a0" : "=r"(ptr));
  73              		.loc 1 18 5 is_stmt 1
  74              		.loc 1 18 46 is_stmt 0
  75              	#APP
  76              	# 18 "src/syscall_c.cpp" 1
  19              	    return (void*)ptr;
  77              		mv a0, a0
  78              	# 0 "" 2
  79              	.LVL6:
  80              		.loc 1 19 5 is_stmt 1
  20:src/syscall_c.cpp **** }
  81              		.loc 1 20 1 is_stmt 0
  82              	#NO_APP
  83 0054 83308100 		ld	ra,8(sp)
  84              		.cfi_restore 1
  85 0058 03340100 		ld	s0,0(sp)
  86              		.cfi_restore 8
  87              		.cfi_def_cfa 2, 16
  88 005c 13010101 		addi	sp,sp,16
  89              		.cfi_def_cfa_offset 0
  90 0060 67800000 		jr	ra
  91              	.LVL7:
  92              	.L5:
  14:src/syscall_c.cpp ****     void volatile *ptr;
  93              		.loc 1 14 23
  94 0064 13050000 		li	a0,0
GAS LISTING /tmp/ccNOgNze.s 			page 3


  95              	.LVL8:
  96              		.loc 1 20 1
  97 0068 67800000 		ret
  98              		.cfi_endproc
  99              	.LFE1:
 101              		.align	2
 102              		.globl	_Z8mem_freePv
 104              	_Z8mem_freePv:
 105              	.LFB2:
  21:src/syscall_c.cpp **** 
  22:src/syscall_c.cpp **** int mem_free(void* ptr) {
 106              		.loc 1 22 25 is_stmt 1
 107              		.cfi_startproc
 108              	.LVL9:
 109 006c 130101FE 		addi	sp,sp,-32
 110              		.cfi_def_cfa_offset 32
 111 0070 233C1100 		sd	ra,24(sp)
 112 0074 23388100 		sd	s0,16(sp)
 113              		.cfi_offset 1, -8
 114              		.cfi_offset 8, -16
 115 0078 13040102 		addi	s0,sp,32
 116              		.cfi_def_cfa 8, 0
 117 007c 93050500 		mv	a1,a0
  23:src/syscall_c.cpp ****     int volatile a0;
 118              		.loc 1 23 5
  24:src/syscall_c.cpp ****     system_call(MEM_FREE, (uint64)ptr);
 119              		.loc 1 24 5
 120              		.loc 1 24 16 is_stmt 0
 121 0080 13070000 		li	a4,0
 122 0084 93060000 		li	a3,0
 123 0088 13060000 		li	a2,0
 124 008c 13052000 		li	a0,2
 125              	.LVL10:
 126 0090 97000000 		call	_Z11system_callmmmmm
 126      E7800000 
 127              	.LVL11:
  25:src/syscall_c.cpp ****     __asm__ volatile("mv %0, a0" : "=r"(a0));
 128              		.loc 1 25 5 is_stmt 1
 129              		.loc 1 25 45 is_stmt 0
 130              	#APP
 131              	# 25 "src/syscall_c.cpp" 1
  26              	    return a0;
 132              		mv a5, a0
 133              	# 0 "" 2
 134              	#NO_APP
 135 009c 2326F4FE 		sw	a5,-20(s0)
 136              		.loc 1 26 5 is_stmt 1
 137              		.loc 1 26 12 is_stmt 0
 138 00a0 0325C4FE 		lw	a0,-20(s0)
  27:src/syscall_c.cpp **** }
 139              		.loc 1 27 1
 140 00a4 1B050500 		sext.w	a0,a0
 141 00a8 83308101 		ld	ra,24(sp)
 142              		.cfi_restore 1
 143 00ac 03340101 		ld	s0,16(sp)
 144              		.cfi_restore 8
 145              		.cfi_def_cfa 2, 32
GAS LISTING /tmp/ccNOgNze.s 			page 4


 146 00b0 13010102 		addi	sp,sp,32
 147              		.cfi_def_cfa_offset 0
 148 00b4 67800000 		jr	ra
 149              		.cfi_endproc
 150              	.LFE2:
 152              		.align	2
 153              		.globl	_Z13thread_createPP3TCBPFvPvES2_
 155              	_Z13thread_createPP3TCBPFvPvES2_:
 156              	.LFB3:
  28:src/syscall_c.cpp **** 
  29:src/syscall_c.cpp **** // sistemski poziv thread_create prima
  30:src/syscall_c.cpp **** // dodatno void* stack_space
  31:src/syscall_c.cpp **** 
  32:src/syscall_c.cpp **** int thread_create(thread_t *handle, void (*start_routine)(void *), void *arg) {
 157              		.loc 1 32 79 is_stmt 1
 158              		.cfi_startproc
 159              	.LVL12:
 160 00b8 130101FC 		addi	sp,sp,-64
 161              		.cfi_def_cfa_offset 64
 162 00bc 233C1102 		sd	ra,56(sp)
 163 00c0 23388102 		sd	s0,48(sp)
 164 00c4 23349102 		sd	s1,40(sp)
 165 00c8 23302103 		sd	s2,32(sp)
 166 00cc 233C3101 		sd	s3,24(sp)
 167              		.cfi_offset 1, -8
 168              		.cfi_offset 8, -16
 169              		.cfi_offset 9, -24
 170              		.cfi_offset 18, -32
 171              		.cfi_offset 19, -40
 172 00d0 13040104 		addi	s0,sp,64
 173              		.cfi_def_cfa 8, 0
 174 00d4 13090500 		mv	s2,a0
 175 00d8 93840500 		mv	s1,a1
 176 00dc 93090600 		mv	s3,a2
  33:src/syscall_c.cpp ****     int volatile ret;
 177              		.loc 1 33 5
  34:src/syscall_c.cpp ****     void* stack_space = nullptr;
 178              		.loc 1 34 5
 179              	.LVL13:
  35:src/syscall_c.cpp ****     if (start_routine) stack_space = mem_alloc(DEFAULT_STACK_SIZE);
 180              		.loc 1 35 5
 181 00e0 638C0504 		beqz	a1,.L14
 182              		.loc 1 35 24 discriminator 1
 183              		.loc 1 35 47 is_stmt 0 discriminator 1
 184 00e4 37150000 		li	a0,4096
 185              	.LVL14:
 186 00e8 97000000 		call	_Z9mem_allocm
 186      E7800000 
 187              	.LVL15:
 188 00f0 13070500 		mv	a4,a0
 189              	.LVL16:
 190              	.L13:
  36:src/syscall_c.cpp ****     system_call(THREAD_CREATE, (uint64)handle, (uint64)start_routine, (uint64)arg, (uint64)stack_sp
 191              		.loc 1 36 5 is_stmt 1
 192              		.loc 1 36 16 is_stmt 0
 193 00f4 93860900 		mv	a3,s3
 194 00f8 13860400 		mv	a2,s1
GAS LISTING /tmp/ccNOgNze.s 			page 5


 195 00fc 93050900 		mv	a1,s2
 196 0100 13051001 		li	a0,17
 197 0104 97000000 		call	_Z11system_callmmmmm
 197      E7800000 
 198              	.LVL17:
  37:src/syscall_c.cpp ****     __asm__ volatile("mv %0, a0" : "=r"(ret));
 199              		.loc 1 37 5 is_stmt 1
 200              		.loc 1 37 46 is_stmt 0
 201              	#APP
 202              	# 37 "src/syscall_c.cpp" 1
  38              	    return ret;
 203              		mv a5, a0
 204              	# 0 "" 2
 205              	#NO_APP
 206 0110 2326F4FC 		sw	a5,-52(s0)
 207              		.loc 1 38 5 is_stmt 1
 208              		.loc 1 38 12 is_stmt 0
 209 0114 0325C4FC 		lw	a0,-52(s0)
  39:src/syscall_c.cpp **** }
 210              		.loc 1 39 1
 211 0118 1B050500 		sext.w	a0,a0
 212 011c 83308103 		ld	ra,56(sp)
 213              		.cfi_remember_state
 214              		.cfi_restore 1
 215 0120 03340103 		ld	s0,48(sp)
 216              		.cfi_restore 8
 217              		.cfi_def_cfa 2, 64
 218 0124 83348102 		ld	s1,40(sp)
 219              		.cfi_restore 9
 220              	.LVL18:
 221 0128 03390102 		ld	s2,32(sp)
 222              		.cfi_restore 18
 223              	.LVL19:
 224 012c 83398101 		ld	s3,24(sp)
 225              		.cfi_restore 19
 226              	.LVL20:
 227 0130 13010104 		addi	sp,sp,64
 228              		.cfi_def_cfa_offset 0
 229 0134 67800000 		jr	ra
 230              	.LVL21:
 231              	.L14:
 232              		.cfi_restore_state
  34:src/syscall_c.cpp ****     if (start_routine) stack_space = mem_alloc(DEFAULT_STACK_SIZE);
 233              		.loc 1 34 11
 234 0138 13070000 		li	a4,0
 235 013c 6FF09FFB 		j	.L13
 236              		.cfi_endproc
 237              	.LFE3:
 239              		.align	2
 240              		.globl	_Z11thread_exitv
 242              	_Z11thread_exitv:
 243              	.LFB4:
  40:src/syscall_c.cpp **** 
  41:src/syscall_c.cpp **** int thread_exit() {
 244              		.loc 1 41 19 is_stmt 1
 245              		.cfi_startproc
 246 0140 130101FE 		addi	sp,sp,-32
GAS LISTING /tmp/ccNOgNze.s 			page 6


 247              		.cfi_def_cfa_offset 32
 248 0144 233C1100 		sd	ra,24(sp)
 249 0148 23388100 		sd	s0,16(sp)
 250              		.cfi_offset 1, -8
 251              		.cfi_offset 8, -16
 252 014c 13040102 		addi	s0,sp,32
 253              		.cfi_def_cfa 8, 0
  42:src/syscall_c.cpp ****     int volatile a0;
 254              		.loc 1 42 5
  43:src/syscall_c.cpp ****     system_call(THREAD_EXIT);
 255              		.loc 1 43 5
 256              		.loc 1 43 16 is_stmt 0
 257 0150 13070000 		li	a4,0
 258 0154 93060000 		li	a3,0
 259 0158 13060000 		li	a2,0
 260 015c 93050000 		li	a1,0
 261 0160 13052001 		li	a0,18
 262 0164 97000000 		call	_Z11system_callmmmmm
 262      E7800000 
 263              	.LVL22:
  44:src/syscall_c.cpp ****     __asm__ volatile("mv %0, a0" : "=r"(a0));
 264              		.loc 1 44 5 is_stmt 1
 265              		.loc 1 44 45 is_stmt 0
 266              	#APP
 267              	# 44 "src/syscall_c.cpp" 1
  45              	    return a0;
 268              		mv a5, a0
 269              	# 0 "" 2
 270              	#NO_APP
 271 0170 2326F4FE 		sw	a5,-20(s0)
 272              		.loc 1 45 5 is_stmt 1
 273              		.loc 1 45 12 is_stmt 0
 274 0174 0325C4FE 		lw	a0,-20(s0)
  46:src/syscall_c.cpp **** }
 275              		.loc 1 46 1
 276 0178 1B050500 		sext.w	a0,a0
 277 017c 83308101 		ld	ra,24(sp)
 278              		.cfi_restore 1
 279 0180 03340101 		ld	s0,16(sp)
 280              		.cfi_restore 8
 281              		.cfi_def_cfa 2, 32
 282 0184 13010102 		addi	sp,sp,32
 283              		.cfi_def_cfa_offset 0
 284 0188 67800000 		jr	ra
 285              		.cfi_endproc
 286              	.LFE4:
 288              		.align	2
 289              		.globl	_Z15thread_dispatchv
 291              	_Z15thread_dispatchv:
 292              	.LFB5:
  47:src/syscall_c.cpp **** 
  48:src/syscall_c.cpp **** void thread_dispatch() {
 293              		.loc 1 48 24 is_stmt 1
 294              		.cfi_startproc
 295 018c 130101FF 		addi	sp,sp,-16
 296              		.cfi_def_cfa_offset 16
 297 0190 23341100 		sd	ra,8(sp)
GAS LISTING /tmp/ccNOgNze.s 			page 7


 298 0194 23308100 		sd	s0,0(sp)
 299              		.cfi_offset 1, -8
 300              		.cfi_offset 8, -16
 301 0198 13040101 		addi	s0,sp,16
 302              		.cfi_def_cfa 8, 0
  49:src/syscall_c.cpp ****     system_call(THREAD_DISPATCH);
 303              		.loc 1 49 5
 304              		.loc 1 49 16 is_stmt 0
 305 019c 13070000 		li	a4,0
 306 01a0 93060000 		li	a3,0
 307 01a4 13060000 		li	a2,0
 308 01a8 93050000 		li	a1,0
 309 01ac 13053001 		li	a0,19
 310 01b0 97000000 		call	_Z11system_callmmmmm
 310      E7800000 
 311              	.LVL23:
  50:src/syscall_c.cpp **** }
 312              		.loc 1 50 1
 313 01b8 83308100 		ld	ra,8(sp)
 314              		.cfi_restore 1
 315 01bc 03340100 		ld	s0,0(sp)
 316              		.cfi_restore 8
 317              		.cfi_def_cfa 2, 16
 318 01c0 13010101 		addi	sp,sp,16
 319              		.cfi_def_cfa_offset 0
 320 01c4 67800000 		jr	ra
 321              		.cfi_endproc
 322              	.LFE5:
 324              		.align	2
 325              		.globl	_Z8sem_openPP3Semj
 327              	_Z8sem_openPP3Semj:
 328              	.LFB6:
  51:src/syscall_c.cpp **** 
  52:src/syscall_c.cpp **** int sem_open(sem_t* handle, unsigned init) {
 329              		.loc 1 52 44 is_stmt 1
 330              		.cfi_startproc
 331              	.LVL24:
 332 01c8 130101FE 		addi	sp,sp,-32
 333              		.cfi_def_cfa_offset 32
 334 01cc 233C1100 		sd	ra,24(sp)
 335 01d0 23388100 		sd	s0,16(sp)
 336              		.cfi_offset 1, -8
 337              		.cfi_offset 8, -16
 338 01d4 13040102 		addi	s0,sp,32
 339              		.cfi_def_cfa 8, 0
  53:src/syscall_c.cpp ****     //if (init <= 0 || !handle) return -1;
  54:src/syscall_c.cpp ****     int volatile a0;
 340              		.loc 1 54 5
  55:src/syscall_c.cpp ****     system_call(SEM_OPEN, (uint64)handle, init);
 341              		.loc 1 55 5
 342              		.loc 1 55 16 is_stmt 0
 343 01d8 13070000 		li	a4,0
 344 01dc 93060000 		li	a3,0
 345 01e0 13960502 		slli	a2,a1,32
 346 01e4 13560602 		srli	a2,a2,32
 347 01e8 93050500 		mv	a1,a0
 348              	.LVL25:
GAS LISTING /tmp/ccNOgNze.s 			page 8


 349 01ec 13051002 		li	a0,33
 350              	.LVL26:
 351 01f0 97000000 		call	_Z11system_callmmmmm
 351      E7800000 
 352              	.LVL27:
  56:src/syscall_c.cpp ****     __asm__ volatile("mv %0, a0" : "=r"(a0));
 353              		.loc 1 56 5 is_stmt 1
 354              		.loc 1 56 45 is_stmt 0
 355              	#APP
 356              	# 56 "src/syscall_c.cpp" 1
  57              	    return a0;
 357              		mv a5, a0
 358              	# 0 "" 2
 359              	#NO_APP
 360 01fc 2326F4FE 		sw	a5,-20(s0)
 361              		.loc 1 57 5 is_stmt 1
 362              		.loc 1 57 12 is_stmt 0
 363 0200 0325C4FE 		lw	a0,-20(s0)
  58:src/syscall_c.cpp **** }
 364              		.loc 1 58 1
 365 0204 1B050500 		sext.w	a0,a0
 366 0208 83308101 		ld	ra,24(sp)
 367              		.cfi_restore 1
 368 020c 03340101 		ld	s0,16(sp)
 369              		.cfi_restore 8
 370              		.cfi_def_cfa 2, 32
 371 0210 13010102 		addi	sp,sp,32
 372              		.cfi_def_cfa_offset 0
 373 0214 67800000 		jr	ra
 374              		.cfi_endproc
 375              	.LFE6:
 377              		.align	2
 378              		.globl	_Z9sem_closeP3Sem
 380              	_Z9sem_closeP3Sem:
 381              	.LFB7:
  59:src/syscall_c.cpp **** 
  60:src/syscall_c.cpp **** int sem_close(sem_t handle) {
 382              		.loc 1 60 29 is_stmt 1
 383              		.cfi_startproc
 384              	.LVL28:
  61:src/syscall_c.cpp ****     if (!handle) return -1; // no sem
 385              		.loc 1 61 5
 386 0218 63080504 		beqz	a0,.L24
  60:src/syscall_c.cpp ****     if (!handle) return -1; // no sem
 387              		.loc 1 60 29 is_stmt 0
 388 021c 130101FE 		addi	sp,sp,-32
 389              		.cfi_def_cfa_offset 32
 390 0220 233C1100 		sd	ra,24(sp)
 391 0224 23388100 		sd	s0,16(sp)
 392              		.cfi_offset 1, -8
 393              		.cfi_offset 8, -16
 394 0228 13040102 		addi	s0,sp,32
 395              		.cfi_def_cfa 8, 0
 396 022c 93050500 		mv	a1,a0
  62:src/syscall_c.cpp ****     int volatile a0;
 397              		.loc 1 62 5 is_stmt 1
  63:src/syscall_c.cpp ****     system_call(SEM_CLOSE, (uint64)handle);
GAS LISTING /tmp/ccNOgNze.s 			page 9


 398              		.loc 1 63 5
 399              		.loc 1 63 16 is_stmt 0
 400 0230 13070000 		li	a4,0
 401 0234 93060000 		li	a3,0
 402 0238 13060000 		li	a2,0
 403 023c 13052002 		li	a0,34
 404              	.LVL29:
 405 0240 97000000 		call	_Z11system_callmmmmm
 405      E7800000 
 406              	.LVL30:
  64:src/syscall_c.cpp ****     __asm__ volatile("mv %0, a0" : "=r"(a0));
 407              		.loc 1 64 5 is_stmt 1
 408              		.loc 1 64 45 is_stmt 0
 409              	#APP
 410              	# 64 "src/syscall_c.cpp" 1
  65              	    return a0;
 411              		mv a5, a0
 412              	# 0 "" 2
 413              	#NO_APP
 414 024c 2326F4FE 		sw	a5,-20(s0)
 415              		.loc 1 65 5 is_stmt 1
 416              		.loc 1 65 12 is_stmt 0
 417 0250 0325C4FE 		lw	a0,-20(s0)
 418 0254 1B050500 		sext.w	a0,a0
  66:src/syscall_c.cpp **** }
 419              		.loc 1 66 1
 420 0258 83308101 		ld	ra,24(sp)
 421              		.cfi_restore 1
 422 025c 03340101 		ld	s0,16(sp)
 423              		.cfi_restore 8
 424              		.cfi_def_cfa 2, 32
 425 0260 13010102 		addi	sp,sp,32
 426              		.cfi_def_cfa_offset 0
 427 0264 67800000 		jr	ra
 428              	.LVL31:
 429              	.L24:
  61:src/syscall_c.cpp ****     int volatile a0;
 430              		.loc 1 61 26
 431 0268 1305F0FF 		li	a0,-1
 432              	.LVL32:
 433              		.loc 1 66 1
 434 026c 67800000 		ret
 435              		.cfi_endproc
 436              	.LFE7:
 438              		.align	2
 439              		.globl	_Z8sem_waitP3Sem
 441              	_Z8sem_waitP3Sem:
 442              	.LFB8:
  67:src/syscall_c.cpp **** 
  68:src/syscall_c.cpp **** int sem_wait(sem_t id) {
 443              		.loc 1 68 24 is_stmt 1
 444              		.cfi_startproc
 445              	.LVL33:
 446 0270 130101FE 		addi	sp,sp,-32
 447              		.cfi_def_cfa_offset 32
 448 0274 233C1100 		sd	ra,24(sp)
 449 0278 23388100 		sd	s0,16(sp)
GAS LISTING /tmp/ccNOgNze.s 			page 10


 450              		.cfi_offset 1, -8
 451              		.cfi_offset 8, -16
 452 027c 13040102 		addi	s0,sp,32
 453              		.cfi_def_cfa 8, 0
 454 0280 93050500 		mv	a1,a0
  69:src/syscall_c.cpp ****     int volatile a0;
 455              		.loc 1 69 5
  70:src/syscall_c.cpp ****     system_call(SEM_WAIT, (uint64)id);
 456              		.loc 1 70 5
 457              		.loc 1 70 16 is_stmt 0
 458 0284 13070000 		li	a4,0
 459 0288 93060000 		li	a3,0
 460 028c 13060000 		li	a2,0
 461 0290 13053002 		li	a0,35
 462              	.LVL34:
 463 0294 97000000 		call	_Z11system_callmmmmm
 463      E7800000 
 464              	.LVL35:
  71:src/syscall_c.cpp ****     __asm__ volatile("mv %0, a0" : "=r"(a0));
 465              		.loc 1 71 5 is_stmt 1
 466              		.loc 1 71 45 is_stmt 0
 467              	#APP
 468              	# 71 "src/syscall_c.cpp" 1
  72              	    return a0;
 469              		mv a5, a0
 470              	# 0 "" 2
 471              	#NO_APP
 472 02a0 2326F4FE 		sw	a5,-20(s0)
 473              		.loc 1 72 5 is_stmt 1
 474              		.loc 1 72 12 is_stmt 0
 475 02a4 0325C4FE 		lw	a0,-20(s0)
  73:src/syscall_c.cpp **** }
 476              		.loc 1 73 1
 477 02a8 1B050500 		sext.w	a0,a0
 478 02ac 83308101 		ld	ra,24(sp)
 479              		.cfi_restore 1
 480 02b0 03340101 		ld	s0,16(sp)
 481              		.cfi_restore 8
 482              		.cfi_def_cfa 2, 32
 483 02b4 13010102 		addi	sp,sp,32
 484              		.cfi_def_cfa_offset 0
 485 02b8 67800000 		jr	ra
 486              		.cfi_endproc
 487              	.LFE8:
 489              		.align	2
 490              		.globl	_Z13sem_timedwaitP3Semm
 492              	_Z13sem_timedwaitP3Semm:
 493              	.LFB9:
  74:src/syscall_c.cpp **** 
  75:src/syscall_c.cpp **** int sem_timedwait(sem_t id, time_t timeout) {
 494              		.loc 1 75 45 is_stmt 1
 495              		.cfi_startproc
 496              	.LVL36:
 497 02bc 130101FE 		addi	sp,sp,-32
 498              		.cfi_def_cfa_offset 32
 499 02c0 233C1100 		sd	ra,24(sp)
 500 02c4 23388100 		sd	s0,16(sp)
GAS LISTING /tmp/ccNOgNze.s 			page 11


 501              		.cfi_offset 1, -8
 502              		.cfi_offset 8, -16
 503 02c8 13040102 		addi	s0,sp,32
 504              		.cfi_def_cfa 8, 0
 505 02cc 13860500 		mv	a2,a1
  76:src/syscall_c.cpp ****     int volatile a0;
 506              		.loc 1 76 5
  77:src/syscall_c.cpp ****     system_call(SEM_TIMEDWAIT, (uint64)id, (uint64)timeout);
 507              		.loc 1 77 5
 508              		.loc 1 77 16 is_stmt 0
 509 02d0 13070000 		li	a4,0
 510 02d4 93060000 		li	a3,0
 511 02d8 93050500 		mv	a1,a0
 512              	.LVL37:
 513 02dc 13055002 		li	a0,37
 514              	.LVL38:
 515 02e0 97000000 		call	_Z11system_callmmmmm
 515      E7800000 
 516              	.LVL39:
  78:src/syscall_c.cpp ****     __asm__ volatile("mv %0, a0" : "=r"(a0));
 517              		.loc 1 78 5 is_stmt 1
 518              		.loc 1 78 45 is_stmt 0
 519              	#APP
 520              	# 78 "src/syscall_c.cpp" 1
  79              	    return a0;
 521              		mv a5, a0
 522              	# 0 "" 2
 523              	#NO_APP
 524 02ec 2326F4FE 		sw	a5,-20(s0)
 525              		.loc 1 79 5 is_stmt 1
 526              		.loc 1 79 12 is_stmt 0
 527 02f0 0325C4FE 		lw	a0,-20(s0)
  80:src/syscall_c.cpp **** }
 528              		.loc 1 80 1
 529 02f4 1B050500 		sext.w	a0,a0
 530 02f8 83308101 		ld	ra,24(sp)
 531              		.cfi_restore 1
 532 02fc 03340101 		ld	s0,16(sp)
 533              		.cfi_restore 8
 534              		.cfi_def_cfa 2, 32
 535 0300 13010102 		addi	sp,sp,32
 536              		.cfi_def_cfa_offset 0
 537 0304 67800000 		jr	ra
 538              		.cfi_endproc
 539              	.LFE9:
 541              		.align	2
 542              		.globl	_Z11sem_trywaitP3Sem
 544              	_Z11sem_trywaitP3Sem:
 545              	.LFB10:
  81:src/syscall_c.cpp **** 
  82:src/syscall_c.cpp **** int sem_trywait(sem_t id) {
 546              		.loc 1 82 27 is_stmt 1
 547              		.cfi_startproc
 548              	.LVL40:
 549 0308 130101FE 		addi	sp,sp,-32
 550              		.cfi_def_cfa_offset 32
 551 030c 233C1100 		sd	ra,24(sp)
GAS LISTING /tmp/ccNOgNze.s 			page 12


 552 0310 23388100 		sd	s0,16(sp)
 553              		.cfi_offset 1, -8
 554              		.cfi_offset 8, -16
 555 0314 13040102 		addi	s0,sp,32
 556              		.cfi_def_cfa 8, 0
 557 0318 93050500 		mv	a1,a0
  83:src/syscall_c.cpp ****     int volatile a0;
 558              		.loc 1 83 5
  84:src/syscall_c.cpp ****     system_call(SEM_TRYWAIT, (uint64)id);
 559              		.loc 1 84 5
 560              		.loc 1 84 16 is_stmt 0
 561 031c 13070000 		li	a4,0
 562 0320 93060000 		li	a3,0
 563 0324 13060000 		li	a2,0
 564 0328 13056002 		li	a0,38
 565              	.LVL41:
 566 032c 97000000 		call	_Z11system_callmmmmm
 566      E7800000 
 567              	.LVL42:
  85:src/syscall_c.cpp ****     __asm__ volatile("mv %0, a0" : "=r"(a0));
 568              		.loc 1 85 5 is_stmt 1
 569              		.loc 1 85 45 is_stmt 0
 570              	#APP
 571              	# 85 "src/syscall_c.cpp" 1
  86              	    return a0;
 572              		mv a5, a0
 573              	# 0 "" 2
 574              	#NO_APP
 575 0338 2326F4FE 		sw	a5,-20(s0)
 576              		.loc 1 86 5 is_stmt 1
 577              		.loc 1 86 12 is_stmt 0
 578 033c 0325C4FE 		lw	a0,-20(s0)
  87:src/syscall_c.cpp **** }
 579              		.loc 1 87 1
 580 0340 1B050500 		sext.w	a0,a0
 581 0344 83308101 		ld	ra,24(sp)
 582              		.cfi_restore 1
 583 0348 03340101 		ld	s0,16(sp)
 584              		.cfi_restore 8
 585              		.cfi_def_cfa 2, 32
 586 034c 13010102 		addi	sp,sp,32
 587              		.cfi_def_cfa_offset 0
 588 0350 67800000 		jr	ra
 589              		.cfi_endproc
 590              	.LFE10:
 592              		.align	2
 593              		.globl	_Z10sem_signalP3Sem
 595              	_Z10sem_signalP3Sem:
 596              	.LFB11:
  88:src/syscall_c.cpp **** 
  89:src/syscall_c.cpp **** int sem_signal(sem_t id) {
 597              		.loc 1 89 26 is_stmt 1
 598              		.cfi_startproc
 599              	.LVL43:
 600 0354 130101FE 		addi	sp,sp,-32
 601              		.cfi_def_cfa_offset 32
 602 0358 233C1100 		sd	ra,24(sp)
GAS LISTING /tmp/ccNOgNze.s 			page 13


 603 035c 23388100 		sd	s0,16(sp)
 604              		.cfi_offset 1, -8
 605              		.cfi_offset 8, -16
 606 0360 13040102 		addi	s0,sp,32
 607              		.cfi_def_cfa 8, 0
 608 0364 93050500 		mv	a1,a0
  90:src/syscall_c.cpp ****     int volatile a0;
 609              		.loc 1 90 5
  91:src/syscall_c.cpp ****     system_call(SEM_SIGNAL, (uint64)id);
 610              		.loc 1 91 5
 611              		.loc 1 91 16 is_stmt 0
 612 0368 13070000 		li	a4,0
 613 036c 93060000 		li	a3,0
 614 0370 13060000 		li	a2,0
 615 0374 13054002 		li	a0,36
 616              	.LVL44:
 617 0378 97000000 		call	_Z11system_callmmmmm
 617      E7800000 
 618              	.LVL45:
  92:src/syscall_c.cpp ****     __asm__ volatile("mv %0, a0" : "=r"(a0));
 619              		.loc 1 92 5 is_stmt 1
 620              		.loc 1 92 45 is_stmt 0
 621              	#APP
 622              	# 92 "src/syscall_c.cpp" 1
  93              	    return a0;
 623              		mv a5, a0
 624              	# 0 "" 2
 625              	#NO_APP
 626 0384 2326F4FE 		sw	a5,-20(s0)
 627              		.loc 1 93 5 is_stmt 1
 628              		.loc 1 93 12 is_stmt 0
 629 0388 0325C4FE 		lw	a0,-20(s0)
  94:src/syscall_c.cpp **** }
 630              		.loc 1 94 1
 631 038c 1B050500 		sext.w	a0,a0
 632 0390 83308101 		ld	ra,24(sp)
 633              		.cfi_restore 1
 634 0394 03340101 		ld	s0,16(sp)
 635              		.cfi_restore 8
 636              		.cfi_def_cfa 2, 32
 637 0398 13010102 		addi	sp,sp,32
 638              		.cfi_def_cfa_offset 0
 639 039c 67800000 		jr	ra
 640              		.cfi_endproc
 641              	.LFE11:
 643              		.align	2
 644              		.globl	_Z10time_sleepm
 646              	_Z10time_sleepm:
 647              	.LFB12:
  95:src/syscall_c.cpp **** 
  96:src/syscall_c.cpp **** int time_sleep (time_t time) {
 648              		.loc 1 96 30 is_stmt 1
 649              		.cfi_startproc
 650              	.LVL46:
 651 03a0 130101FE 		addi	sp,sp,-32
 652              		.cfi_def_cfa_offset 32
 653 03a4 233C1100 		sd	ra,24(sp)
GAS LISTING /tmp/ccNOgNze.s 			page 14


 654 03a8 23388100 		sd	s0,16(sp)
 655              		.cfi_offset 1, -8
 656              		.cfi_offset 8, -16
 657 03ac 13040102 		addi	s0,sp,32
 658              		.cfi_def_cfa 8, 0
 659 03b0 93050500 		mv	a1,a0
  97:src/syscall_c.cpp ****     int volatile a0;
 660              		.loc 1 97 5
  98:src/syscall_c.cpp ****     system_call(TIME_SLEEP, (uint64)time);
 661              		.loc 1 98 5
 662              		.loc 1 98 16 is_stmt 0
 663 03b4 13070000 		li	a4,0
 664 03b8 93060000 		li	a3,0
 665 03bc 13060000 		li	a2,0
 666 03c0 13051003 		li	a0,49
 667              	.LVL47:
 668 03c4 97000000 		call	_Z11system_callmmmmm
 668      E7800000 
 669              	.LVL48:
  99:src/syscall_c.cpp ****     __asm__ volatile("mv %0, a0" : "=r"(a0));
 670              		.loc 1 99 5 is_stmt 1
 671              		.loc 1 99 45 is_stmt 0
 672              	#APP
 673              	# 99 "src/syscall_c.cpp" 1
 100              	    return a0;
 674              		mv a5, a0
 675              	# 0 "" 2
 676              	#NO_APP
 677 03d0 2326F4FE 		sw	a5,-20(s0)
 678              		.loc 1 100 5 is_stmt 1
 679              		.loc 1 100 12 is_stmt 0
 680 03d4 0325C4FE 		lw	a0,-20(s0)
 101:src/syscall_c.cpp **** }
 681              		.loc 1 101 1
 682 03d8 1B050500 		sext.w	a0,a0
 683 03dc 83308101 		ld	ra,24(sp)
 684              		.cfi_restore 1
 685 03e0 03340101 		ld	s0,16(sp)
 686              		.cfi_restore 8
 687              		.cfi_def_cfa 2, 32
 688 03e4 13010102 		addi	sp,sp,32
 689              		.cfi_def_cfa_offset 0
 690 03e8 67800000 		jr	ra
 691              		.cfi_endproc
 692              	.LFE12:
 694              		.align	2
 695              		.globl	_Z4getcv
 697              	_Z4getcv:
 698              	.LFB13:
 102:src/syscall_c.cpp **** 
 103:src/syscall_c.cpp **** char getc() {
 699              		.loc 1 103 13 is_stmt 1
 700              		.cfi_startproc
 701 03ec 130101FE 		addi	sp,sp,-32
 702              		.cfi_def_cfa_offset 32
 703 03f0 233C1100 		sd	ra,24(sp)
 704 03f4 23388100 		sd	s0,16(sp)
GAS LISTING /tmp/ccNOgNze.s 			page 15


 705              		.cfi_offset 1, -8
 706              		.cfi_offset 8, -16
 707 03f8 13040102 		addi	s0,sp,32
 708              		.cfi_def_cfa 8, 0
 104:src/syscall_c.cpp ****     char volatile a0;
 709              		.loc 1 104 5
 105:src/syscall_c.cpp ****     system_call(GETC);
 710              		.loc 1 105 5
 711              		.loc 1 105 16 is_stmt 0
 712 03fc 13070000 		li	a4,0
 713 0400 93060000 		li	a3,0
 714 0404 13060000 		li	a2,0
 715 0408 93050000 		li	a1,0
 716 040c 13051004 		li	a0,65
 717 0410 97000000 		call	_Z11system_callmmmmm
 717      E7800000 
 718              	.LVL49:
 106:src/syscall_c.cpp ****     __asm__ volatile("mv %0, a0" : "=r"(a0));
 719              		.loc 1 106 5 is_stmt 1
 720              		.loc 1 106 45 is_stmt 0
 721              	#APP
 722              	# 106 "src/syscall_c.cpp" 1
 107              	    return a0;
 723              		mv a5, a0
 724              	# 0 "" 2
 725              	#NO_APP
 726 041c A307F4FE 		sb	a5,-17(s0)
 727              		.loc 1 107 5 is_stmt 1
 728              		.loc 1 107 12 is_stmt 0
 729 0420 0345F4FE 		lbu	a0,-17(s0)
 108:src/syscall_c.cpp **** }
 730              		.loc 1 108 1
 731 0424 1375F50F 		andi	a0,a0,0xff
 732 0428 83308101 		ld	ra,24(sp)
 733              		.cfi_restore 1
 734 042c 03340101 		ld	s0,16(sp)
 735              		.cfi_restore 8
 736              		.cfi_def_cfa 2, 32
 737 0430 13010102 		addi	sp,sp,32
 738              		.cfi_def_cfa_offset 0
 739 0434 67800000 		jr	ra
 740              		.cfi_endproc
 741              	.LFE13:
 743              		.align	2
 744              		.globl	_Z4putcc
 746              	_Z4putcc:
 747              	.LFB14:
 109:src/syscall_c.cpp **** 
 110:src/syscall_c.cpp **** void putc(char c) {
 748              		.loc 1 110 19 is_stmt 1
 749              		.cfi_startproc
 750              	.LVL50:
 751 0438 130101FF 		addi	sp,sp,-16
 752              		.cfi_def_cfa_offset 16
 753 043c 23341100 		sd	ra,8(sp)
 754 0440 23308100 		sd	s0,0(sp)
 755              		.cfi_offset 1, -8
GAS LISTING /tmp/ccNOgNze.s 			page 16


 756              		.cfi_offset 8, -16
 757 0444 13040101 		addi	s0,sp,16
 758              		.cfi_def_cfa 8, 0
 759 0448 93050500 		mv	a1,a0
 111:src/syscall_c.cpp ****     system_call(PUTC, c);
 760              		.loc 1 111 5
 761              		.loc 1 111 16 is_stmt 0
 762 044c 13070000 		li	a4,0
 763 0450 93060000 		li	a3,0
 764 0454 13060000 		li	a2,0
 765 0458 13052004 		li	a0,66
 766              	.LVL51:
 767 045c 97000000 		call	_Z11system_callmmmmm
 767      E7800000 
 768              	.LVL52:
 112:src/syscall_c.cpp **** }
 769              		.loc 1 112 1
 770 0464 83308100 		ld	ra,8(sp)
 771              		.cfi_restore 1
 772 0468 03340100 		ld	s0,0(sp)
 773              		.cfi_restore 8
 774              		.cfi_def_cfa 2, 16
 775 046c 13010101 		addi	sp,sp,16
 776              		.cfi_def_cfa_offset 0
 777 0470 67800000 		jr	ra
 778              		.cfi_endproc
 779              	.LFE14:
 781              	.Letext0:
 782              		.file 2 "src/../h/../lib/hw.h"
 783              		.file 3 "src/../h/syscall_c.h"
 784              		.file 4 "src/../h/Memoryallocator.hpp"
GAS LISTING /tmp/ccNOgNze.s 			page 17


DEFINED SYMBOLS
                            *ABS*:0000000000000000 syscall_c.cpp
     /tmp/ccNOgNze.s:9      .text:0000000000000000 _Z11system_callmmmmm
     /tmp/ccNOgNze.s:13     .text:0000000000000000 .L0 
     /tmp/ccNOgNze.s:15     .text:0000000000000000 .L0 
     /tmp/ccNOgNze.s:16     .text:0000000000000004 .L0 
     /tmp/ccNOgNze.s:18     .text:0000000000000008 .L0 
     /tmp/ccNOgNze.s:20     .text:000000000000000c .L0 
     /tmp/ccNOgNze.s:22     .text:000000000000000c .L0 
   src/syscall_c.cpp:9      .text:000000000000000c .L0 
     /tmp/ccNOgNze.s:29     .text:0000000000000010 .L0 
     /tmp/ccNOgNze.s:30     .text:0000000000000014 .L0 
     /tmp/ccNOgNze.s:31     .text:0000000000000014 .L0 
     /tmp/ccNOgNze.s:33     .text:0000000000000018 .L0 
     /tmp/ccNOgNze.s:35     .text:000000000000001c .L0 
     /tmp/ccNOgNze.s:41     .text:000000000000001c _Z9mem_allocm
     /tmp/ccNOgNze.s:44     .text:000000000000001c .L0 
     /tmp/ccNOgNze.s:46     .text:000000000000001c .L0 
     /tmp/ccNOgNze.s:47     .text:000000000000001c .L0 
     /tmp/ccNOgNze.s:49     .text:0000000000000020 .L0 
     /tmp/ccNOgNze.s:50     .text:0000000000000024 .L0 
     /tmp/ccNOgNze.s:53     .text:000000000000002c .L0 
     /tmp/ccNOgNze.s:54     .text:000000000000002c .L0 
     /tmp/ccNOgNze.s:56     .text:0000000000000030 .L0 
     /tmp/ccNOgNze.s:58     .text:0000000000000030 .L0 
     /tmp/ccNOgNze.s:59     .text:0000000000000030 .L0 
     /tmp/ccNOgNze.s:60     .text:0000000000000030 .L0 
     /tmp/ccNOgNze.s:63     .text:0000000000000034 .L0 
     /tmp/ccNOgNze.s:64     .text:0000000000000034 .L0 
     /tmp/ccNOgNze.s:74     .text:0000000000000050 .L0 
   src/syscall_c.cpp:18     .text:0000000000000050 .L0 
     /tmp/ccNOgNze.s:81     .text:0000000000000054 .L0 
     /tmp/ccNOgNze.s:83     .text:0000000000000054 .L0 
     /tmp/ccNOgNze.s:84     .text:0000000000000058 .L0 
     /tmp/ccNOgNze.s:86     .text:000000000000005c .L0 
     /tmp/ccNOgNze.s:87     .text:000000000000005c .L0 
     /tmp/ccNOgNze.s:89     .text:0000000000000060 .L0 
     /tmp/ccNOgNze.s:94     .text:0000000000000064 .L0 
     /tmp/ccNOgNze.s:97     .text:0000000000000068 .L0 
     /tmp/ccNOgNze.s:98     .text:000000000000006c .L0 
     /tmp/ccNOgNze.s:104    .text:000000000000006c _Z8mem_freePv
     /tmp/ccNOgNze.s:107    .text:000000000000006c .L0 
     /tmp/ccNOgNze.s:109    .text:000000000000006c .L0 
     /tmp/ccNOgNze.s:110    .text:0000000000000070 .L0 
     /tmp/ccNOgNze.s:113    .text:0000000000000078 .L0 
     /tmp/ccNOgNze.s:114    .text:0000000000000078 .L0 
     /tmp/ccNOgNze.s:116    .text:000000000000007c .L0 
     /tmp/ccNOgNze.s:119    .text:0000000000000080 .L0 
     /tmp/ccNOgNze.s:120    .text:0000000000000080 .L0 
     /tmp/ccNOgNze.s:121    .text:0000000000000080 .L0 
     /tmp/ccNOgNze.s:129    .text:0000000000000098 .L0 
   src/syscall_c.cpp:25     .text:0000000000000098 .L0 
     /tmp/ccNOgNze.s:137    .text:00000000000000a0 .L0 
     /tmp/ccNOgNze.s:138    .text:00000000000000a0 .L0 
     /tmp/ccNOgNze.s:140    .text:00000000000000a4 .L0 
     /tmp/ccNOgNze.s:142    .text:00000000000000ac .L0 
     /tmp/ccNOgNze.s:144    .text:00000000000000b0 .L0 
GAS LISTING /tmp/ccNOgNze.s 			page 18


     /tmp/ccNOgNze.s:145    .text:00000000000000b0 .L0 
     /tmp/ccNOgNze.s:147    .text:00000000000000b4 .L0 
     /tmp/ccNOgNze.s:149    .text:00000000000000b8 .L0 
     /tmp/ccNOgNze.s:155    .text:00000000000000b8 _Z13thread_createPP3TCBPFvPvES2_
     /tmp/ccNOgNze.s:158    .text:00000000000000b8 .L0 
     /tmp/ccNOgNze.s:160    .text:00000000000000b8 .L0 
     /tmp/ccNOgNze.s:161    .text:00000000000000bc .L0 
     /tmp/ccNOgNze.s:167    .text:00000000000000d0 .L0 
     /tmp/ccNOgNze.s:168    .text:00000000000000d0 .L0 
     /tmp/ccNOgNze.s:169    .text:00000000000000d0 .L0 
     /tmp/ccNOgNze.s:170    .text:00000000000000d0 .L0 
     /tmp/ccNOgNze.s:171    .text:00000000000000d0 .L0 
     /tmp/ccNOgNze.s:173    .text:00000000000000d4 .L0 
     /tmp/ccNOgNze.s:178    .text:00000000000000e0 .L0 
     /tmp/ccNOgNze.s:180    .text:00000000000000e0 .L0 
     /tmp/ccNOgNze.s:181    .text:00000000000000e0 .L0 
     /tmp/ccNOgNze.s:183    .text:00000000000000e4 .L0 
     /tmp/ccNOgNze.s:184    .text:00000000000000e4 .L0 
     /tmp/ccNOgNze.s:192    .text:00000000000000f4 .L0 
     /tmp/ccNOgNze.s:193    .text:00000000000000f4 .L0 
     /tmp/ccNOgNze.s:200    .text:000000000000010c .L0 
   src/syscall_c.cpp:37     .text:000000000000010c .L0 
     /tmp/ccNOgNze.s:208    .text:0000000000000114 .L0 
     /tmp/ccNOgNze.s:209    .text:0000000000000114 .L0 
     /tmp/ccNOgNze.s:211    .text:0000000000000118 .L0 
     /tmp/ccNOgNze.s:213    .text:0000000000000120 .L0 
     /tmp/ccNOgNze.s:214    .text:0000000000000120 .L0 
     /tmp/ccNOgNze.s:216    .text:0000000000000124 .L0 
     /tmp/ccNOgNze.s:217    .text:0000000000000124 .L0 
     /tmp/ccNOgNze.s:219    .text:0000000000000128 .L0 
     /tmp/ccNOgNze.s:222    .text:000000000000012c .L0 
     /tmp/ccNOgNze.s:225    .text:0000000000000130 .L0 
     /tmp/ccNOgNze.s:228    .text:0000000000000134 .L0 
     /tmp/ccNOgNze.s:232    .text:0000000000000138 .L0 
     /tmp/ccNOgNze.s:234    .text:0000000000000138 .L0 
     /tmp/ccNOgNze.s:236    .text:0000000000000140 .L0 
     /tmp/ccNOgNze.s:242    .text:0000000000000140 _Z11thread_exitv
     /tmp/ccNOgNze.s:245    .text:0000000000000140 .L0 
     /tmp/ccNOgNze.s:246    .text:0000000000000140 .L0 
     /tmp/ccNOgNze.s:247    .text:0000000000000144 .L0 
     /tmp/ccNOgNze.s:250    .text:000000000000014c .L0 
     /tmp/ccNOgNze.s:251    .text:000000000000014c .L0 
     /tmp/ccNOgNze.s:253    .text:0000000000000150 .L0 
     /tmp/ccNOgNze.s:255    .text:0000000000000150 .L0 
     /tmp/ccNOgNze.s:256    .text:0000000000000150 .L0 
     /tmp/ccNOgNze.s:257    .text:0000000000000150 .L0 
     /tmp/ccNOgNze.s:265    .text:000000000000016c .L0 
   src/syscall_c.cpp:44     .text:000000000000016c .L0 
     /tmp/ccNOgNze.s:273    .text:0000000000000174 .L0 
     /tmp/ccNOgNze.s:274    .text:0000000000000174 .L0 
     /tmp/ccNOgNze.s:276    .text:0000000000000178 .L0 
     /tmp/ccNOgNze.s:278    .text:0000000000000180 .L0 
     /tmp/ccNOgNze.s:280    .text:0000000000000184 .L0 
     /tmp/ccNOgNze.s:281    .text:0000000000000184 .L0 
     /tmp/ccNOgNze.s:283    .text:0000000000000188 .L0 
     /tmp/ccNOgNze.s:285    .text:000000000000018c .L0 
     /tmp/ccNOgNze.s:291    .text:000000000000018c _Z15thread_dispatchv
GAS LISTING /tmp/ccNOgNze.s 			page 19


     /tmp/ccNOgNze.s:294    .text:000000000000018c .L0 
     /tmp/ccNOgNze.s:295    .text:000000000000018c .L0 
     /tmp/ccNOgNze.s:296    .text:0000000000000190 .L0 
     /tmp/ccNOgNze.s:299    .text:0000000000000198 .L0 
     /tmp/ccNOgNze.s:300    .text:0000000000000198 .L0 
     /tmp/ccNOgNze.s:302    .text:000000000000019c .L0 
     /tmp/ccNOgNze.s:304    .text:000000000000019c .L0 
     /tmp/ccNOgNze.s:305    .text:000000000000019c .L0 
     /tmp/ccNOgNze.s:313    .text:00000000000001b8 .L0 
     /tmp/ccNOgNze.s:314    .text:00000000000001bc .L0 
     /tmp/ccNOgNze.s:316    .text:00000000000001c0 .L0 
     /tmp/ccNOgNze.s:317    .text:00000000000001c0 .L0 
     /tmp/ccNOgNze.s:319    .text:00000000000001c4 .L0 
     /tmp/ccNOgNze.s:321    .text:00000000000001c8 .L0 
     /tmp/ccNOgNze.s:327    .text:00000000000001c8 _Z8sem_openPP3Semj
     /tmp/ccNOgNze.s:330    .text:00000000000001c8 .L0 
     /tmp/ccNOgNze.s:332    .text:00000000000001c8 .L0 
     /tmp/ccNOgNze.s:333    .text:00000000000001cc .L0 
     /tmp/ccNOgNze.s:336    .text:00000000000001d4 .L0 
     /tmp/ccNOgNze.s:337    .text:00000000000001d4 .L0 
     /tmp/ccNOgNze.s:339    .text:00000000000001d8 .L0 
     /tmp/ccNOgNze.s:341    .text:00000000000001d8 .L0 
     /tmp/ccNOgNze.s:342    .text:00000000000001d8 .L0 
     /tmp/ccNOgNze.s:343    .text:00000000000001d8 .L0 
     /tmp/ccNOgNze.s:354    .text:00000000000001f8 .L0 
   src/syscall_c.cpp:56     .text:00000000000001f8 .L0 
     /tmp/ccNOgNze.s:362    .text:0000000000000200 .L0 
     /tmp/ccNOgNze.s:363    .text:0000000000000200 .L0 
     /tmp/ccNOgNze.s:365    .text:0000000000000204 .L0 
     /tmp/ccNOgNze.s:367    .text:000000000000020c .L0 
     /tmp/ccNOgNze.s:369    .text:0000000000000210 .L0 
     /tmp/ccNOgNze.s:370    .text:0000000000000210 .L0 
     /tmp/ccNOgNze.s:372    .text:0000000000000214 .L0 
     /tmp/ccNOgNze.s:374    .text:0000000000000218 .L0 
     /tmp/ccNOgNze.s:380    .text:0000000000000218 _Z9sem_closeP3Sem
     /tmp/ccNOgNze.s:383    .text:0000000000000218 .L0 
     /tmp/ccNOgNze.s:385    .text:0000000000000218 .L0 
     /tmp/ccNOgNze.s:386    .text:0000000000000218 .L0 
     /tmp/ccNOgNze.s:388    .text:000000000000021c .L0 
     /tmp/ccNOgNze.s:389    .text:0000000000000220 .L0 
     /tmp/ccNOgNze.s:392    .text:0000000000000228 .L0 
     /tmp/ccNOgNze.s:393    .text:0000000000000228 .L0 
     /tmp/ccNOgNze.s:395    .text:000000000000022c .L0 
     /tmp/ccNOgNze.s:398    .text:0000000000000230 .L0 
     /tmp/ccNOgNze.s:399    .text:0000000000000230 .L0 
     /tmp/ccNOgNze.s:400    .text:0000000000000230 .L0 
     /tmp/ccNOgNze.s:408    .text:0000000000000248 .L0 
   src/syscall_c.cpp:64     .text:0000000000000248 .L0 
     /tmp/ccNOgNze.s:416    .text:0000000000000250 .L0 
     /tmp/ccNOgNze.s:417    .text:0000000000000250 .L0 
     /tmp/ccNOgNze.s:420    .text:0000000000000258 .L0 
     /tmp/ccNOgNze.s:421    .text:000000000000025c .L0 
     /tmp/ccNOgNze.s:423    .text:0000000000000260 .L0 
     /tmp/ccNOgNze.s:424    .text:0000000000000260 .L0 
     /tmp/ccNOgNze.s:426    .text:0000000000000264 .L0 
     /tmp/ccNOgNze.s:431    .text:0000000000000268 .L0 
     /tmp/ccNOgNze.s:434    .text:000000000000026c .L0 
GAS LISTING /tmp/ccNOgNze.s 			page 20


     /tmp/ccNOgNze.s:435    .text:0000000000000270 .L0 
     /tmp/ccNOgNze.s:441    .text:0000000000000270 _Z8sem_waitP3Sem
     /tmp/ccNOgNze.s:444    .text:0000000000000270 .L0 
     /tmp/ccNOgNze.s:446    .text:0000000000000270 .L0 
     /tmp/ccNOgNze.s:447    .text:0000000000000274 .L0 
     /tmp/ccNOgNze.s:450    .text:000000000000027c .L0 
     /tmp/ccNOgNze.s:451    .text:000000000000027c .L0 
     /tmp/ccNOgNze.s:453    .text:0000000000000280 .L0 
     /tmp/ccNOgNze.s:456    .text:0000000000000284 .L0 
     /tmp/ccNOgNze.s:457    .text:0000000000000284 .L0 
     /tmp/ccNOgNze.s:458    .text:0000000000000284 .L0 
     /tmp/ccNOgNze.s:466    .text:000000000000029c .L0 
   src/syscall_c.cpp:71     .text:000000000000029c .L0 
     /tmp/ccNOgNze.s:474    .text:00000000000002a4 .L0 
     /tmp/ccNOgNze.s:475    .text:00000000000002a4 .L0 
     /tmp/ccNOgNze.s:477    .text:00000000000002a8 .L0 
     /tmp/ccNOgNze.s:479    .text:00000000000002b0 .L0 
     /tmp/ccNOgNze.s:481    .text:00000000000002b4 .L0 
     /tmp/ccNOgNze.s:482    .text:00000000000002b4 .L0 
     /tmp/ccNOgNze.s:484    .text:00000000000002b8 .L0 
     /tmp/ccNOgNze.s:486    .text:00000000000002bc .L0 
     /tmp/ccNOgNze.s:492    .text:00000000000002bc _Z13sem_timedwaitP3Semm
     /tmp/ccNOgNze.s:495    .text:00000000000002bc .L0 
     /tmp/ccNOgNze.s:497    .text:00000000000002bc .L0 
     /tmp/ccNOgNze.s:498    .text:00000000000002c0 .L0 
     /tmp/ccNOgNze.s:501    .text:00000000000002c8 .L0 
     /tmp/ccNOgNze.s:502    .text:00000000000002c8 .L0 
     /tmp/ccNOgNze.s:504    .text:00000000000002cc .L0 
     /tmp/ccNOgNze.s:507    .text:00000000000002d0 .L0 
     /tmp/ccNOgNze.s:508    .text:00000000000002d0 .L0 
     /tmp/ccNOgNze.s:509    .text:00000000000002d0 .L0 
     /tmp/ccNOgNze.s:518    .text:00000000000002e8 .L0 
   src/syscall_c.cpp:78     .text:00000000000002e8 .L0 
     /tmp/ccNOgNze.s:526    .text:00000000000002f0 .L0 
     /tmp/ccNOgNze.s:527    .text:00000000000002f0 .L0 
     /tmp/ccNOgNze.s:529    .text:00000000000002f4 .L0 
     /tmp/ccNOgNze.s:531    .text:00000000000002fc .L0 
     /tmp/ccNOgNze.s:533    .text:0000000000000300 .L0 
     /tmp/ccNOgNze.s:534    .text:0000000000000300 .L0 
     /tmp/ccNOgNze.s:536    .text:0000000000000304 .L0 
     /tmp/ccNOgNze.s:538    .text:0000000000000308 .L0 
     /tmp/ccNOgNze.s:544    .text:0000000000000308 _Z11sem_trywaitP3Sem
     /tmp/ccNOgNze.s:547    .text:0000000000000308 .L0 
     /tmp/ccNOgNze.s:549    .text:0000000000000308 .L0 
     /tmp/ccNOgNze.s:550    .text:000000000000030c .L0 
     /tmp/ccNOgNze.s:553    .text:0000000000000314 .L0 
     /tmp/ccNOgNze.s:554    .text:0000000000000314 .L0 
     /tmp/ccNOgNze.s:556    .text:0000000000000318 .L0 
     /tmp/ccNOgNze.s:559    .text:000000000000031c .L0 
     /tmp/ccNOgNze.s:560    .text:000000000000031c .L0 
     /tmp/ccNOgNze.s:561    .text:000000000000031c .L0 
     /tmp/ccNOgNze.s:569    .text:0000000000000334 .L0 
   src/syscall_c.cpp:85     .text:0000000000000334 .L0 
     /tmp/ccNOgNze.s:577    .text:000000000000033c .L0 
     /tmp/ccNOgNze.s:578    .text:000000000000033c .L0 
     /tmp/ccNOgNze.s:580    .text:0000000000000340 .L0 
     /tmp/ccNOgNze.s:582    .text:0000000000000348 .L0 
GAS LISTING /tmp/ccNOgNze.s 			page 21


     /tmp/ccNOgNze.s:584    .text:000000000000034c .L0 
     /tmp/ccNOgNze.s:585    .text:000000000000034c .L0 
     /tmp/ccNOgNze.s:587    .text:0000000000000350 .L0 
     /tmp/ccNOgNze.s:589    .text:0000000000000354 .L0 
     /tmp/ccNOgNze.s:595    .text:0000000000000354 _Z10sem_signalP3Sem
     /tmp/ccNOgNze.s:598    .text:0000000000000354 .L0 
     /tmp/ccNOgNze.s:600    .text:0000000000000354 .L0 
     /tmp/ccNOgNze.s:601    .text:0000000000000358 .L0 
     /tmp/ccNOgNze.s:604    .text:0000000000000360 .L0 
     /tmp/ccNOgNze.s:605    .text:0000000000000360 .L0 
     /tmp/ccNOgNze.s:607    .text:0000000000000364 .L0 
     /tmp/ccNOgNze.s:610    .text:0000000000000368 .L0 
     /tmp/ccNOgNze.s:611    .text:0000000000000368 .L0 
     /tmp/ccNOgNze.s:612    .text:0000000000000368 .L0 
     /tmp/ccNOgNze.s:620    .text:0000000000000380 .L0 
   src/syscall_c.cpp:92     .text:0000000000000380 .L0 
     /tmp/ccNOgNze.s:628    .text:0000000000000388 .L0 
     /tmp/ccNOgNze.s:629    .text:0000000000000388 .L0 
     /tmp/ccNOgNze.s:631    .text:000000000000038c .L0 
     /tmp/ccNOgNze.s:633    .text:0000000000000394 .L0 
     /tmp/ccNOgNze.s:635    .text:0000000000000398 .L0 
     /tmp/ccNOgNze.s:636    .text:0000000000000398 .L0 
     /tmp/ccNOgNze.s:638    .text:000000000000039c .L0 
     /tmp/ccNOgNze.s:640    .text:00000000000003a0 .L0 
     /tmp/ccNOgNze.s:646    .text:00000000000003a0 _Z10time_sleepm
     /tmp/ccNOgNze.s:649    .text:00000000000003a0 .L0 
     /tmp/ccNOgNze.s:651    .text:00000000000003a0 .L0 
     /tmp/ccNOgNze.s:652    .text:00000000000003a4 .L0 
     /tmp/ccNOgNze.s:655    .text:00000000000003ac .L0 
     /tmp/ccNOgNze.s:656    .text:00000000000003ac .L0 
     /tmp/ccNOgNze.s:658    .text:00000000000003b0 .L0 
     /tmp/ccNOgNze.s:661    .text:00000000000003b4 .L0 
     /tmp/ccNOgNze.s:662    .text:00000000000003b4 .L0 
     /tmp/ccNOgNze.s:663    .text:00000000000003b4 .L0 
     /tmp/ccNOgNze.s:671    .text:00000000000003cc .L0 
   src/syscall_c.cpp:99     .text:00000000000003cc .L0 
     /tmp/ccNOgNze.s:679    .text:00000000000003d4 .L0 
     /tmp/ccNOgNze.s:680    .text:00000000000003d4 .L0 
     /tmp/ccNOgNze.s:682    .text:00000000000003d8 .L0 
     /tmp/ccNOgNze.s:684    .text:00000000000003e0 .L0 
     /tmp/ccNOgNze.s:686    .text:00000000000003e4 .L0 
     /tmp/ccNOgNze.s:687    .text:00000000000003e4 .L0 
     /tmp/ccNOgNze.s:689    .text:00000000000003e8 .L0 
     /tmp/ccNOgNze.s:691    .text:00000000000003ec .L0 
     /tmp/ccNOgNze.s:697    .text:00000000000003ec _Z4getcv
     /tmp/ccNOgNze.s:700    .text:00000000000003ec .L0 
     /tmp/ccNOgNze.s:701    .text:00000000000003ec .L0 
     /tmp/ccNOgNze.s:702    .text:00000000000003f0 .L0 
     /tmp/ccNOgNze.s:705    .text:00000000000003f8 .L0 
     /tmp/ccNOgNze.s:706    .text:00000000000003f8 .L0 
     /tmp/ccNOgNze.s:708    .text:00000000000003fc .L0 
     /tmp/ccNOgNze.s:710    .text:00000000000003fc .L0 
     /tmp/ccNOgNze.s:711    .text:00000000000003fc .L0 
     /tmp/ccNOgNze.s:712    .text:00000000000003fc .L0 
     /tmp/ccNOgNze.s:720    .text:0000000000000418 .L0 
   src/syscall_c.cpp:106    .text:0000000000000418 .L0 
     /tmp/ccNOgNze.s:728    .text:0000000000000420 .L0 
GAS LISTING /tmp/ccNOgNze.s 			page 22


     /tmp/ccNOgNze.s:729    .text:0000000000000420 .L0 
     /tmp/ccNOgNze.s:731    .text:0000000000000424 .L0 
     /tmp/ccNOgNze.s:733    .text:000000000000042c .L0 
     /tmp/ccNOgNze.s:735    .text:0000000000000430 .L0 
     /tmp/ccNOgNze.s:736    .text:0000000000000430 .L0 
     /tmp/ccNOgNze.s:738    .text:0000000000000434 .L0 
     /tmp/ccNOgNze.s:740    .text:0000000000000438 .L0 
     /tmp/ccNOgNze.s:746    .text:0000000000000438 _Z4putcc
     /tmp/ccNOgNze.s:749    .text:0000000000000438 .L0 
     /tmp/ccNOgNze.s:751    .text:0000000000000438 .L0 
     /tmp/ccNOgNze.s:752    .text:000000000000043c .L0 
     /tmp/ccNOgNze.s:755    .text:0000000000000444 .L0 
     /tmp/ccNOgNze.s:756    .text:0000000000000444 .L0 
     /tmp/ccNOgNze.s:758    .text:0000000000000448 .L0 
     /tmp/ccNOgNze.s:761    .text:000000000000044c .L0 
     /tmp/ccNOgNze.s:762    .text:000000000000044c .L0 
     /tmp/ccNOgNze.s:770    .text:0000000000000464 .L0 
     /tmp/ccNOgNze.s:771    .text:0000000000000468 .L0 
     /tmp/ccNOgNze.s:773    .text:000000000000046c .L0 
     /tmp/ccNOgNze.s:774    .text:000000000000046c .L0 
     /tmp/ccNOgNze.s:776    .text:0000000000000470 .L0 
     /tmp/ccNOgNze.s:778    .text:0000000000000474 .L0 
     /tmp/ccNOgNze.s:785    .text:0000000000000474 .L0 
     /tmp/ccNOgNze.s:92     .text:0000000000000064 .L5
     /tmp/ccNOgNze.s:231    .text:0000000000000138 .L14
     /tmp/ccNOgNze.s:190    .text:00000000000000f4 .L13
     /tmp/ccNOgNze.s:429    .text:0000000000000268 .L24
     /tmp/ccNOgNze.s:1931   .debug_abbrev:0000000000000000 .Ldebug_abbrev0
     /tmp/ccNOgNze.s:2882   .debug_str:0000000000000386 .LASF73
     /tmp/ccNOgNze.s:2818   .debug_str:00000000000001cf .LASF74
     /tmp/ccNOgNze.s:2802   .debug_str:0000000000000157 .LASF75
     /tmp/ccNOgNze.s:5      .text:0000000000000000 .Ltext0
     /tmp/ccNOgNze.s:781    .text:0000000000000474 .Letext0
     /tmp/ccNOgNze.s:2744   .debug_line:0000000000000000 .Ldebug_line0
     /tmp/ccNOgNze.s:2838   .debug_str:0000000000000257 .LASF0
     /tmp/ccNOgNze.s:2842   .debug_str:0000000000000269 .LASF1
     /tmp/ccNOgNze.s:2832   .debug_str:0000000000000231 .LASF2
     /tmp/ccNOgNze.s:2816   .debug_str:00000000000001c8 .LASF4
     /tmp/ccNOgNze.s:2870   .debug_str:000000000000034b .LASF3
     /tmp/ccNOgNze.s:2764   .debug_str:000000000000006f .LASF5
     /tmp/ccNOgNze.s:2784   .debug_str:00000000000000f6 .LASF6
     /tmp/ccNOgNze.s:2846   .debug_str:000000000000028d .LASF7
     /tmp/ccNOgNze.s:2836   .debug_str:0000000000000244 .LASF8
     /tmp/ccNOgNze.s:2892   .debug_str:0000000000000475 .LASF9
     /tmp/ccNOgNze.s:2812   .debug_str:00000000000001af .LASF10
     /tmp/ccNOgNze.s:2854   .debug_str:00000000000002cb .LASF11
     /tmp/ccNOgNze.s:2884   .debug_str:000000000000044a .LASF12
     /tmp/ccNOgNze.s:2766   .debug_str:0000000000000076 .LASF13
     /tmp/ccNOgNze.s:2750   .debug_str:0000000000000021 .LASF14
     /tmp/ccNOgNze.s:2770   .debug_str:0000000000000091 .LASF15
     /tmp/ccNOgNze.s:2864   .debug_str:0000000000000316 .LASF16
     /tmp/ccNOgNze.s:2780   .debug_str:00000000000000d5 .LASF17
     /tmp/ccNOgNze.s:2894   .debug_str:0000000000000485 .LASF76
     /tmp/ccNOgNze.s:2876   .debug_str:0000000000000370 .LASF18
     /tmp/ccNOgNze.s:2862   .debug_str:000000000000030d .LASF19
     /tmp/ccNOgNze.s:2826   .debug_str:0000000000000200 .LASF20
     /tmp/ccNOgNze.s:2792   .debug_str:000000000000011c .LASF21
GAS LISTING /tmp/ccNOgNze.s 			page 23


     /tmp/ccNOgNze.s:2772   .debug_str:000000000000009d .LASF22
     /tmp/ccNOgNze.s:2890   .debug_str:000000000000046c .LASF23
     /tmp/ccNOgNze.s:2824   .debug_str:00000000000001f6 .LASF24
     /tmp/ccNOgNze.s:2874   .debug_str:0000000000000367 .LASF25
     /tmp/ccNOgNze.s:2768   .debug_str:0000000000000086 .LASF26
     /tmp/ccNOgNze.s:2828   .debug_str:000000000000020e .LASF27
     /tmp/ccNOgNze.s:2810   .debug_str:00000000000001a3 .LASF28
     /tmp/ccNOgNze.s:2820   .debug_str:00000000000001e1 .LASF29
     /tmp/ccNOgNze.s:2762   .debug_str:000000000000006a .LASF30
     /tmp/ccNOgNze.s:2898   .debug_str:0000000000000499 .LASF31
     /tmp/ccNOgNze.s:2746   .debug_str:0000000000000000 .LASF32
     /tmp/ccNOgNze.s:2796   .debug_str:000000000000013a .LASF33
     /tmp/ccNOgNze.s:2814   .debug_str:00000000000001bd .LASF34
     /tmp/ccNOgNze.s:2834   .debug_str:000000000000023f .LASF56
     /tmp/ccNOgNze.s:2804   .debug_str:0000000000000175 .LASF58
     /tmp/ccNOgNze.s:747    .text:0000000000000438 .LFB14
     /tmp/ccNOgNze.s:779    .text:0000000000000474 .LFE14
     /tmp/ccNOgNze.s:2383   .debug_loc:0000000000000000 .LLST17
     /tmp/ccNOgNze.s:768    .text:0000000000000464 .LVL52
     /tmp/ccNOgNze.s:2848   .debug_str:00000000000002a0 .LASF35
     /tmp/ccNOgNze.s:2752   .debug_str:0000000000000031 .LASF36
     /tmp/ccNOgNze.s:2760   .debug_str:0000000000000061 .LASF38
     /tmp/ccNOgNze.s:698    .text:00000000000003ec .LFB13
     /tmp/ccNOgNze.s:741    .text:0000000000000438 .LFE13
     /tmp/ccNOgNze.s:718    .text:0000000000000418 .LVL49
     /tmp/ccNOgNze.s:2866   .debug_str:000000000000032c .LASF37
     /tmp/ccNOgNze.s:2858   .debug_str:00000000000002ef .LASF39
     /tmp/ccNOgNze.s:647    .text:00000000000003a0 .LFB12
     /tmp/ccNOgNze.s:692    .text:00000000000003ec .LFE12
     /tmp/ccNOgNze.s:2840   .debug_str:0000000000000264 .LASF40
     /tmp/ccNOgNze.s:2397   .debug_loc:0000000000000039 .LLST16
     /tmp/ccNOgNze.s:669    .text:00000000000003cc .LVL48
     /tmp/ccNOgNze.s:2782   .debug_str:00000000000000eb .LASF41
     /tmp/ccNOgNze.s:2868   .debug_str:0000000000000337 .LASF42
     /tmp/ccNOgNze.s:596    .text:0000000000000354 .LFB11
     /tmp/ccNOgNze.s:641    .text:00000000000003a0 .LFE11
     /tmp/ccNOgNze.s:2415   .debug_loc:0000000000000085 .LLST15
     /tmp/ccNOgNze.s:618    .text:0000000000000380 .LVL45
     /tmp/ccNOgNze.s:2888   .debug_str:0000000000000460 .LASF43
     /tmp/ccNOgNze.s:2808   .debug_str:000000000000018e .LASF44
     /tmp/ccNOgNze.s:545    .text:0000000000000308 .LFB10
     /tmp/ccNOgNze.s:590    .text:0000000000000354 .LFE10
     /tmp/ccNOgNze.s:2433   .debug_loc:00000000000000d1 .LLST14
     /tmp/ccNOgNze.s:567    .text:0000000000000334 .LVL42
     /tmp/ccNOgNze.s:2798   .debug_str:0000000000000140 .LASF45
     /tmp/ccNOgNze.s:2748   .debug_str:0000000000000009 .LASF46
     /tmp/ccNOgNze.s:493    .text:00000000000002bc .LFB9
     /tmp/ccNOgNze.s:539    .text:0000000000000308 .LFE9
     /tmp/ccNOgNze.s:2451   .debug_loc:000000000000011d .LLST12
     /tmp/ccNOgNze.s:2900   .debug_str:000000000000049e .LASF47
     /tmp/ccNOgNze.s:2469   .debug_loc:0000000000000169 .LLST13
     /tmp/ccNOgNze.s:516    .text:00000000000002e8 .LVL39
     /tmp/ccNOgNze.s:2774   .debug_str:00000000000000ad .LASF48
     /tmp/ccNOgNze.s:2756   .debug_str:0000000000000044 .LASF49
     /tmp/ccNOgNze.s:442    .text:0000000000000270 .LFB8
     /tmp/ccNOgNze.s:487    .text:00000000000002bc .LFE8
     /tmp/ccNOgNze.s:2487   .debug_loc:00000000000001b5 .LLST11
GAS LISTING /tmp/ccNOgNze.s 			page 24


     /tmp/ccNOgNze.s:464    .text:000000000000029c .LVL35
     /tmp/ccNOgNze.s:2822   .debug_str:00000000000001ec .LASF50
     /tmp/ccNOgNze.s:2794   .debug_str:0000000000000128 .LASF51
     /tmp/ccNOgNze.s:381    .text:0000000000000218 .LFB7
     /tmp/ccNOgNze.s:436    .text:0000000000000270 .LFE7
     /tmp/ccNOgNze.s:2878   .debug_str:000000000000037a .LASF52
     /tmp/ccNOgNze.s:2505   .debug_loc:0000000000000201 .LLST10
     /tmp/ccNOgNze.s:406    .text:0000000000000248 .LVL30
     /tmp/ccNOgNze.s:2800   .debug_str:000000000000014e .LASF53
     /tmp/ccNOgNze.s:2776   .debug_str:00000000000000b6 .LASF54
     /tmp/ccNOgNze.s:328    .text:00000000000001c8 .LFB6
     /tmp/ccNOgNze.s:375    .text:0000000000000218 .LFE6
     /tmp/ccNOgNze.s:2534   .debug_loc:0000000000000276 .LLST8
     /tmp/ccNOgNze.s:2850   .debug_str:00000000000002a5 .LASF55
     /tmp/ccNOgNze.s:2552   .debug_loc:00000000000002c2 .LLST9
     /tmp/ccNOgNze.s:352    .text:00000000000001f8 .LVL27
     /tmp/ccNOgNze.s:2806   .debug_str:000000000000017e .LASF57
     /tmp/ccNOgNze.s:2856   .debug_str:00000000000002da .LASF59
     /tmp/ccNOgNze.s:292    .text:000000000000018c .LFB5
     /tmp/ccNOgNze.s:322    .text:00000000000001c8 .LFE5
     /tmp/ccNOgNze.s:311    .text:00000000000001b8 .LVL23
     /tmp/ccNOgNze.s:2758   .debug_str:0000000000000055 .LASF60
     /tmp/ccNOgNze.s:2844   .debug_str:000000000000027c .LASF61
     /tmp/ccNOgNze.s:243    .text:0000000000000140 .LFB4
     /tmp/ccNOgNze.s:286    .text:000000000000018c .LFE4
     /tmp/ccNOgNze.s:263    .text:000000000000016c .LVL22
     /tmp/ccNOgNze.s:2788   .debug_str:0000000000000105 .LASF62
     /tmp/ccNOgNze.s:2852   .debug_str:00000000000002aa .LASF63
     /tmp/ccNOgNze.s:156    .text:00000000000000b8 .LFB3
     /tmp/ccNOgNze.s:237    .text:0000000000000140 .LFE3
     /tmp/ccNOgNze.s:2566   .debug_loc:00000000000002fb .LLST4
     /tmp/ccNOgNze.s:2860   .debug_str:00000000000002ff .LASF64
     /tmp/ccNOgNze.s:2588   .debug_loc:000000000000035a .LLST5
     /tmp/ccNOgNze.s:2610   .debug_loc:00000000000003b9 .LLST6
     /tmp/ccNOgNze.s:2902   .debug_str:00000000000004a6 .LASF65
     /tmp/ccNOgNze.s:2632   .debug_loc:0000000000000418 .LLST7
     /tmp/ccNOgNze.s:187    .text:00000000000000f0 .LVL15
     /tmp/ccNOgNze.s:198    .text:000000000000010c .LVL17
     /tmp/ccNOgNze.s:2790   .debug_str:0000000000000113 .LASF66
     /tmp/ccNOgNze.s:2896   .debug_str:000000000000048b .LASF67
     /tmp/ccNOgNze.s:105    .text:000000000000006c .LFB2
     /tmp/ccNOgNze.s:150    .text:00000000000000b8 .LFE2
     /tmp/ccNOgNze.s:2649   .debug_loc:0000000000000463 .LLST3
     /tmp/ccNOgNze.s:127    .text:0000000000000098 .LVL11
     /tmp/ccNOgNze.s:2872   .debug_str:000000000000035d .LASF68
     /tmp/ccNOgNze.s:2754   .debug_str:0000000000000036 .LASF69
     /tmp/ccNOgNze.s:42     .text:000000000000001c .LFB1
     /tmp/ccNOgNze.s:99     .text:000000000000006c .LFE1
     /tmp/ccNOgNze.s:2880   .debug_str:0000000000000381 .LASF70
     /tmp/ccNOgNze.s:2667   .debug_loc:00000000000004af .LLST0
     /tmp/ccNOgNze.s:2698   .debug_loc:0000000000000527 .LLST1
     /tmp/ccNOgNze.s:2886   .debug_str:0000000000000459 .LASF71
     /tmp/ccNOgNze.s:2705   .debug_loc:000000000000054a .LLST2
     /tmp/ccNOgNze.s:72     .text:0000000000000050 .LVL5
     /tmp/ccNOgNze.s:2778   .debug_str:00000000000000c9 .LASF77
     /tmp/ccNOgNze.s:2830   .debug_str:000000000000021c .LASF78
     /tmp/ccNOgNze.s:10     .text:0000000000000000 .LFB0
GAS LISTING /tmp/ccNOgNze.s 			page 25


     /tmp/ccNOgNze.s:36     .text:000000000000001c .LFE0
     /tmp/ccNOgNze.s:2786   .debug_str:00000000000000fd .LASF72
     /tmp/ccNOgNze.s:750    .text:0000000000000438 .LVL50
     /tmp/ccNOgNze.s:766    .text:000000000000045c .LVL51
     /tmp/ccNOgNze.s:650    .text:00000000000003a0 .LVL46
     /tmp/ccNOgNze.s:667    .text:00000000000003c4 .LVL47
     /tmp/ccNOgNze.s:599    .text:0000000000000354 .LVL43
     /tmp/ccNOgNze.s:616    .text:0000000000000378 .LVL44
     /tmp/ccNOgNze.s:548    .text:0000000000000308 .LVL40
     /tmp/ccNOgNze.s:565    .text:000000000000032c .LVL41
     /tmp/ccNOgNze.s:496    .text:00000000000002bc .LVL36
     /tmp/ccNOgNze.s:514    .text:00000000000002e0 .LVL38
     /tmp/ccNOgNze.s:512    .text:00000000000002dc .LVL37
     /tmp/ccNOgNze.s:445    .text:0000000000000270 .LVL33
     /tmp/ccNOgNze.s:462    .text:0000000000000294 .LVL34
     /tmp/ccNOgNze.s:384    .text:0000000000000218 .LVL28
     /tmp/ccNOgNze.s:404    .text:0000000000000240 .LVL29
     /tmp/ccNOgNze.s:428    .text:0000000000000268 .LVL31
     /tmp/ccNOgNze.s:432    .text:000000000000026c .LVL32
     /tmp/ccNOgNze.s:331    .text:00000000000001c8 .LVL24
     /tmp/ccNOgNze.s:350    .text:00000000000001f0 .LVL26
     /tmp/ccNOgNze.s:348    .text:00000000000001ec .LVL25
     /tmp/ccNOgNze.s:159    .text:00000000000000b8 .LVL12
     /tmp/ccNOgNze.s:185    .text:00000000000000e8 .LVL14
     /tmp/ccNOgNze.s:223    .text:000000000000012c .LVL19
     /tmp/ccNOgNze.s:230    .text:0000000000000138 .LVL21
     /tmp/ccNOgNze.s:220    .text:0000000000000128 .LVL18
     /tmp/ccNOgNze.s:226    .text:0000000000000130 .LVL20
     /tmp/ccNOgNze.s:179    .text:00000000000000e0 .LVL13
     /tmp/ccNOgNze.s:189    .text:00000000000000f4 .LVL16
     /tmp/ccNOgNze.s:108    .text:000000000000006c .LVL9
     /tmp/ccNOgNze.s:125    .text:0000000000000090 .LVL10
     /tmp/ccNOgNze.s:45     .text:000000000000001c .LVL1
     /tmp/ccNOgNze.s:61     .text:0000000000000034 .LVL2
     /tmp/ccNOgNze.s:70     .text:0000000000000048 .LVL4
     /tmp/ccNOgNze.s:91     .text:0000000000000064 .LVL7
     /tmp/ccNOgNze.s:95     .text:0000000000000068 .LVL8
     /tmp/ccNOgNze.s:79     .text:0000000000000054 .LVL6
     /tmp/ccNOgNze.s:68     .text:0000000000000044 .LVL3
     /tmp/ccNOgNze.s:786    .debug_info:0000000000000000 .Ldebug_info0

NO UNDEFINED SYMBOLS
