GAS LISTING /tmp/ccssUO8T.s 			page 1


   1              		.file	"syscall_cpp.cpp"
   2              		.option pic
   3              		.option norelax
   4              		.text
   5              	.Ltext0:
   6              		.section	.text._ZN6Thread3runEv,"axG",@progbits,_ZN6Thread3runEv,comdat
   7              		.align	2
   8              		.weak	_ZN6Thread3runEv
  10              	_ZN6Thread3runEv:
  11              	.LFB0:
  12              		.file 1 "src/../h/syscall_cpp.hpp"
   1:src/../h/syscall_cpp.hpp **** //
   2:src/../h/syscall_cpp.hpp **** // Created by os on 4/6/24.
   3:src/../h/syscall_cpp.hpp **** //
   4:src/../h/syscall_cpp.hpp **** 
   5:src/../h/syscall_cpp.hpp **** #ifndef PROJECT_BASE_SYSCALL_CPP_HPP
   6:src/../h/syscall_cpp.hpp **** #define PROJECT_BASE_SYSCALL_CPP_HPP
   7:src/../h/syscall_cpp.hpp **** 
   8:src/../h/syscall_cpp.hpp **** #include "syscall_c.h"
   9:src/../h/syscall_cpp.hpp **** 
  10:src/../h/syscall_cpp.hpp **** void* operator new    (size_t);
  11:src/../h/syscall_cpp.hpp **** void* operator new[]  (size_t);
  12:src/../h/syscall_cpp.hpp **** void  operator delete (void*) noexcept;
  13:src/../h/syscall_cpp.hpp **** void  operator delete[](void*)noexcept;
  14:src/../h/syscall_cpp.hpp **** 
  15:src/../h/syscall_cpp.hpp **** class Thread {
  16:src/../h/syscall_cpp.hpp **** 
  17:src/../h/syscall_cpp.hpp **** public:
  18:src/../h/syscall_cpp.hpp **** 
  19:src/../h/syscall_cpp.hpp ****     Thread (void (*body)(void*), void* arg);
  20:src/../h/syscall_cpp.hpp ****     virtual ~Thread ();
  21:src/../h/syscall_cpp.hpp ****     int start ();
  22:src/../h/syscall_cpp.hpp ****     static void dispatch ();
  23:src/../h/syscall_cpp.hpp ****     static int sleep (time_t);
  24:src/../h/syscall_cpp.hpp **** 
  25:src/../h/syscall_cpp.hpp **** protected:
  26:src/../h/syscall_cpp.hpp ****     Thread ();
  27:src/../h/syscall_cpp.hpp ****     virtual void run () {};
  13              		.loc 1 27 18
  14              		.cfi_startproc
  15              	.LVL0:
  16 0000 130101FF 		addi	sp,sp,-16
  17              		.cfi_def_cfa_offset 16
  18 0004 23348100 		sd	s0,8(sp)
  19              		.cfi_offset 8, -8
  20 0008 13040101 		addi	s0,sp,16
  21              		.cfi_def_cfa 8, 0
  22              		.loc 1 27 26 is_stmt 0
  23 000c 03348100 		ld	s0,8(sp)
  24              		.cfi_restore 8
  25              		.cfi_def_cfa 2, 16
  26 0010 13010101 		addi	sp,sp,16
  27              		.cfi_def_cfa_offset 0
  28 0014 67800000 		jr	ra
  29              		.cfi_endproc
  30              	.LFE0:
  32              		.text
GAS LISTING /tmp/ccssUO8T.s 			page 2


  33              		.align	2
  34              		.globl	_ZN6ThreadD2Ev
  36              	_ZN6ThreadD2Ev:
  37              	.LFB16:
  38              		.file 2 "src/syscall_cpp.cpp"
   1:src/syscall_cpp.cpp **** #include "../h/syscall_cpp.hpp"
   2:src/syscall_cpp.cpp **** #include "../h/Memoryallocator.hpp"
   3:src/syscall_cpp.cpp **** 
   4:src/syscall_cpp.cpp **** void* operator new (size_t size) {
   5:src/syscall_cpp.cpp ****     // operator new prosledjuje bajtove
   6:src/syscall_cpp.cpp ****     return mem_alloc(size);
   7:src/syscall_cpp.cpp **** }
   8:src/syscall_cpp.cpp **** 
   9:src/syscall_cpp.cpp **** void* operator new[](size_t size) {
  10:src/syscall_cpp.cpp ****     // operator new prosledjuje bajtove
  11:src/syscall_cpp.cpp ****     return mem_alloc(size);
  12:src/syscall_cpp.cpp **** }
  13:src/syscall_cpp.cpp **** 
  14:src/syscall_cpp.cpp **** void operator delete[](void* ptr) noexcept {
  15:src/syscall_cpp.cpp ****      mem_free(ptr);
  16:src/syscall_cpp.cpp **** }
  17:src/syscall_cpp.cpp **** 
  18:src/syscall_cpp.cpp **** void operator delete(void *ptr) noexcept {
  19:src/syscall_cpp.cpp ****     mem_free(ptr);
  20:src/syscall_cpp.cpp **** }
  21:src/syscall_cpp.cpp **** 
  22:src/syscall_cpp.cpp **** Thread::Thread(void (*body)(void *), void *arg) {
  23:src/syscall_cpp.cpp ****     // Circular buffer ???
  24:src/syscall_cpp.cpp ****     this->body = body;
  25:src/syscall_cpp.cpp ****     this->arg = arg;
  26:src/syscall_cpp.cpp **** }
  27:src/syscall_cpp.cpp **** 
  28:src/syscall_cpp.cpp **** int Thread::sleep(time_t) {
  29:src/syscall_cpp.cpp ****     return 0;
  30:src/syscall_cpp.cpp **** }
  31:src/syscall_cpp.cpp **** 
  32:src/syscall_cpp.cpp **** void Thread::dispatch() {
  33:src/syscall_cpp.cpp **** 
  34:src/syscall_cpp.cpp **** }
  35:src/syscall_cpp.cpp **** 
  36:src/syscall_cpp.cpp **** int Thread::start() {
  37:src/syscall_cpp.cpp ****     return thread_create(&myHandle, &wrapper, this);
  38:src/syscall_cpp.cpp ****     // wrapper treba da pokrene run
  39:src/syscall_cpp.cpp **** }
  40:src/syscall_cpp.cpp **** 
  41:src/syscall_cpp.cpp **** Thread::Thread() {
  42:src/syscall_cpp.cpp **** 
  43:src/syscall_cpp.cpp **** }
  44:src/syscall_cpp.cpp **** 
  45:src/syscall_cpp.cpp **** Thread::~Thread() {
  39              		.loc 2 45 1 is_stmt 1
  40              		.cfi_startproc
  41              	.LVL1:
  42 0000 130101FF 		addi	sp,sp,-16
  43              		.cfi_def_cfa_offset 16
  44 0004 23348100 		sd	s0,8(sp)
  45              		.cfi_offset 8, -8
GAS LISTING /tmp/ccssUO8T.s 			page 3


  46 0008 13040101 		addi	s0,sp,16
  47              		.cfi_def_cfa 8, 0
  46:src/syscall_cpp.cpp **** 
  47:src/syscall_cpp.cpp **** }
  48              		.loc 2 47 1 is_stmt 0
  49 000c 03348100 		ld	s0,8(sp)
  50              		.cfi_restore 8
  51              		.cfi_def_cfa 2, 16
  52 0010 13010101 		addi	sp,sp,16
  53              		.cfi_def_cfa_offset 0
  54 0014 67800000 		jr	ra
  55              		.cfi_endproc
  56              	.LFE16:
  58              		.globl	_ZN6ThreadD1Ev
  59              		.set	_ZN6ThreadD1Ev,_ZN6ThreadD2Ev
  60              		.align	2
  61              		.globl	_ZN6Thread7wrapperEPv
  63              	_ZN6Thread7wrapperEPv:
  64              	.LFB19:
  48:src/syscall_cpp.cpp **** 
  49:src/syscall_cpp.cpp **** void Thread::wrapper(void *arg) {
  65              		.loc 2 49 33 is_stmt 1
  66              		.cfi_startproc
  67              	.LVL2:
  68 0018 130101FF 		addi	sp,sp,-16
  69              		.cfi_def_cfa_offset 16
  70 001c 23341100 		sd	ra,8(sp)
  71 0020 23308100 		sd	s0,0(sp)
  72              		.cfi_offset 1, -8
  73              		.cfi_offset 8, -16
  74 0024 13040101 		addi	s0,sp,16
  75              		.cfi_def_cfa 8, 0
  50:src/syscall_cpp.cpp ****     // prosledjuje se sistemskom pozivu
  51:src/syscall_cpp.cpp ****     // treba da pokrene run metodu prosledjenog objekta
  52:src/syscall_cpp.cpp ****     Thread* t = (Thread*) arg;
  76              		.loc 2 52 5
  77              	.LVL3:
  53:src/syscall_cpp.cpp ****     if (t->body) t->body(t->arg);
  78              		.loc 2 53 5
  79              		.loc 2 53 12 is_stmt 0
  80 0028 83370501 		ld	a5,16(a0)
  81              		.loc 2 53 5
  82 002c 638E0700 		beqz	a5,.L6
  83              		.loc 2 53 18 is_stmt 1 discriminator 1
  84              		.loc 2 53 25 is_stmt 0 discriminator 1
  85 0030 03358501 		ld	a0,24(a0)
  86              	.LVL4:
  87 0034 E7800700 		jalr	a5
  88              	.LVL5:
  89              	.L5:
  54:src/syscall_cpp.cpp ****     else t->run(); /// ????????????????????
  55:src/syscall_cpp.cpp **** }
  90              		.loc 2 55 1
  91 0038 83308100 		ld	ra,8(sp)
  92              		.cfi_remember_state
  93              		.cfi_restore 1
  94 003c 03340100 		ld	s0,0(sp)
GAS LISTING /tmp/ccssUO8T.s 			page 4


  95              		.cfi_restore 8
  96              		.cfi_def_cfa 2, 16
  97 0040 13010101 		addi	sp,sp,16
  98              		.cfi_def_cfa_offset 0
  99 0044 67800000 		jr	ra
 100              	.LVL6:
 101              	.L6:
 102              		.cfi_restore_state
  54:src/syscall_cpp.cpp ****     else t->run(); /// ????????????????????
 103              		.loc 2 54 10 is_stmt 1
  54:src/syscall_cpp.cpp ****     else t->run(); /// ????????????????????
 104              		.loc 2 54 17 is_stmt 0
 105 0048 83370500 		ld	a5,0(a0)
 106 004c 83B70701 		ld	a5,16(a5)
  54:src/syscall_cpp.cpp ****     else t->run(); /// ????????????????????
 107              		.loc 2 54 16
 108 0050 E7800700 		jalr	a5
 109              	.LVL7:
 110              		.loc 2 55 1
 111 0054 6FF05FFE 		j	.L5
 112              		.cfi_endproc
 113              	.LFE19:
 115              		.align	2
 116              		.globl	_Znwm
 118              	_Znwm:
 119              	.LFB2:
   4:src/syscall_cpp.cpp ****     // operator new prosledjuje bajtove
 120              		.loc 2 4 34 is_stmt 1
 121              		.cfi_startproc
 122              	.LVL8:
 123 0058 130101FF 		addi	sp,sp,-16
 124              		.cfi_def_cfa_offset 16
 125 005c 23341100 		sd	ra,8(sp)
 126 0060 23308100 		sd	s0,0(sp)
 127              		.cfi_offset 1, -8
 128              		.cfi_offset 8, -16
 129 0064 13040101 		addi	s0,sp,16
 130              		.cfi_def_cfa 8, 0
   6:src/syscall_cpp.cpp **** }
 131              		.loc 2 6 5
   6:src/syscall_cpp.cpp **** }
 132              		.loc 2 6 21 is_stmt 0
 133 0068 97000000 		call	_Z9mem_allocm@plt
 133      E7800000 
 134              	.LVL9:
   7:src/syscall_cpp.cpp **** 
 135              		.loc 2 7 1
 136 0070 83308100 		ld	ra,8(sp)
 137              		.cfi_restore 1
 138 0074 03340100 		ld	s0,0(sp)
 139              		.cfi_restore 8
 140              		.cfi_def_cfa 2, 16
 141 0078 13010101 		addi	sp,sp,16
 142              		.cfi_def_cfa_offset 0
 143 007c 67800000 		jr	ra
 144              		.cfi_endproc
 145              	.LFE2:
GAS LISTING /tmp/ccssUO8T.s 			page 5


 147              		.align	2
 148              		.globl	_Znam
 150              	_Znam:
 151              	.LFB3:
   9:src/syscall_cpp.cpp ****     // operator new prosledjuje bajtove
 152              		.loc 2 9 35 is_stmt 1
 153              		.cfi_startproc
 154              	.LVL10:
 155 0080 130101FF 		addi	sp,sp,-16
 156              		.cfi_def_cfa_offset 16
 157 0084 23341100 		sd	ra,8(sp)
 158 0088 23308100 		sd	s0,0(sp)
 159              		.cfi_offset 1, -8
 160              		.cfi_offset 8, -16
 161 008c 13040101 		addi	s0,sp,16
 162              		.cfi_def_cfa 8, 0
  11:src/syscall_cpp.cpp **** }
 163              		.loc 2 11 5
  11:src/syscall_cpp.cpp **** }
 164              		.loc 2 11 21 is_stmt 0
 165 0090 97000000 		call	_Z9mem_allocm@plt
 165      E7800000 
 166              	.LVL11:
  12:src/syscall_cpp.cpp **** 
 167              		.loc 2 12 1
 168 0098 83308100 		ld	ra,8(sp)
 169              		.cfi_restore 1
 170 009c 03340100 		ld	s0,0(sp)
 171              		.cfi_restore 8
 172              		.cfi_def_cfa 2, 16
 173 00a0 13010101 		addi	sp,sp,16
 174              		.cfi_def_cfa_offset 0
 175 00a4 67800000 		jr	ra
 176              		.cfi_endproc
 177              	.LFE3:
 179              		.align	2
 180              		.globl	_ZdaPv
 182              	_ZdaPv:
 183              	.LFB4:
  14:src/syscall_cpp.cpp ****      mem_free(ptr);
 184              		.loc 2 14 44 is_stmt 1
 185              		.cfi_startproc
 186              		.cfi_personality 0x9b,DW.ref.__gxx_personality_v0
 187              		.cfi_lsda 0x1b,.LLSDA4
 188              	.LVL12:
 189 00a8 130101FF 		addi	sp,sp,-16
 190              		.cfi_def_cfa_offset 16
 191 00ac 23341100 		sd	ra,8(sp)
 192 00b0 23308100 		sd	s0,0(sp)
 193              		.cfi_offset 1, -8
 194              		.cfi_offset 8, -16
 195 00b4 13040101 		addi	s0,sp,16
 196              		.cfi_def_cfa 8, 0
  15:src/syscall_cpp.cpp **** }
 197              		.loc 2 15 6
  15:src/syscall_cpp.cpp **** }
 198              		.loc 2 15 14 is_stmt 0
GAS LISTING /tmp/ccssUO8T.s 			page 6


 199 00b8 97000000 		call	_Z8mem_freePv@plt
 199      E7800000 
 200              	.LVL13:
  16:src/syscall_cpp.cpp **** 
 201              		.loc 2 16 1
 202 00c0 83308100 		ld	ra,8(sp)
 203              		.cfi_restore 1
 204 00c4 03340100 		ld	s0,0(sp)
 205              		.cfi_restore 8
 206              		.cfi_def_cfa 2, 16
 207 00c8 13010101 		addi	sp,sp,16
 208              		.cfi_def_cfa_offset 0
 209 00cc 67800000 		jr	ra
 210              		.cfi_endproc
 211              	.LFE4:
 212              		.globl	__gxx_personality_v0
 213              		.section	.gcc_except_table,"a",@progbits
 214              	.LLSDA4:
 215 0000 FF       		.byte	0xff
 216 0001 FF       		.byte	0xff
 217 0002 03       		.byte	0x3
 218 0003 00       		.byte	0
 219              		.text
 221              		.align	2
 222              		.globl	_ZdlPv
 224              	_ZdlPv:
 225              	.LFB5:
  18:src/syscall_cpp.cpp ****     mem_free(ptr);
 226              		.loc 2 18 42 is_stmt 1
 227              		.cfi_startproc
 228              		.cfi_personality 0x9b,DW.ref.__gxx_personality_v0
 229              		.cfi_lsda 0x1b,.LLSDA5
 230              	.LVL14:
 231 00d0 130101FF 		addi	sp,sp,-16
 232              		.cfi_def_cfa_offset 16
 233 00d4 23341100 		sd	ra,8(sp)
 234 00d8 23308100 		sd	s0,0(sp)
 235              		.cfi_offset 1, -8
 236              		.cfi_offset 8, -16
 237 00dc 13040101 		addi	s0,sp,16
 238              		.cfi_def_cfa 8, 0
  19:src/syscall_cpp.cpp **** }
 239              		.loc 2 19 5
  19:src/syscall_cpp.cpp **** }
 240              		.loc 2 19 13 is_stmt 0
 241 00e0 97000000 		call	_Z8mem_freePv@plt
 241      E7800000 
 242              	.LVL15:
  20:src/syscall_cpp.cpp **** 
 243              		.loc 2 20 1
 244 00e8 83308100 		ld	ra,8(sp)
 245              		.cfi_restore 1
 246 00ec 03340100 		ld	s0,0(sp)
 247              		.cfi_restore 8
 248              		.cfi_def_cfa 2, 16
 249 00f0 13010101 		addi	sp,sp,16
 250              		.cfi_def_cfa_offset 0
GAS LISTING /tmp/ccssUO8T.s 			page 7


 251 00f4 67800000 		jr	ra
 252              		.cfi_endproc
 253              	.LFE5:
 254              		.section	.gcc_except_table
 255              	.LLSDA5:
 256 0004 FF       		.byte	0xff
 257 0005 FF       		.byte	0xff
 258 0006 03       		.byte	0x3
 259 0007 00       		.byte	0
 260              		.text
 262              		.align	2
 263              		.globl	_ZN6ThreadD0Ev
 265              	_ZN6ThreadD0Ev:
 266              	.LFB18:
  45:src/syscall_cpp.cpp **** 
 267              		.loc 2 45 1 is_stmt 1
 268              		.cfi_startproc
 269              	.LVL16:
 270 00f8 130101FF 		addi	sp,sp,-16
 271              		.cfi_def_cfa_offset 16
 272 00fc 23341100 		sd	ra,8(sp)
 273 0100 23308100 		sd	s0,0(sp)
 274              		.cfi_offset 1, -8
 275              		.cfi_offset 8, -16
 276 0104 13040101 		addi	s0,sp,16
 277              		.cfi_def_cfa 8, 0
  47:src/syscall_cpp.cpp **** 
 278              		.loc 2 47 1 is_stmt 0
 279 0108 97000000 		call	_ZdlPv
 279      E7800000 
 280              	.LVL17:
 281 0110 83308100 		ld	ra,8(sp)
 282              		.cfi_restore 1
 283 0114 03340100 		ld	s0,0(sp)
 284              		.cfi_restore 8
 285              		.cfi_def_cfa 2, 16
 286 0118 13010101 		addi	sp,sp,16
 287              		.cfi_def_cfa_offset 0
 288 011c 67800000 		jr	ra
 289              		.cfi_endproc
 290              	.LFE18:
 292              		.align	2
 293              		.globl	_ZN6ThreadC2EPFvPvES0_
 295              	_ZN6ThreadC2EPFvPvES0_:
 296              	.LFB7:
  22:src/syscall_cpp.cpp ****     // Circular buffer ???
 297              		.loc 2 22 1 is_stmt 1
 298              		.cfi_startproc
 299              	.LVL18:
 300 0120 130101FF 		addi	sp,sp,-16
 301              		.cfi_def_cfa_offset 16
 302 0124 23348100 		sd	s0,8(sp)
 303              		.cfi_offset 8, -8
 304 0128 13040101 		addi	s0,sp,16
 305              		.cfi_def_cfa 8, 0
 306              	.LBB2:
  22:src/syscall_cpp.cpp ****     // Circular buffer ???
GAS LISTING /tmp/ccssUO8T.s 			page 8


 307              		.loc 2 22 47 is_stmt 0
 308 012c 97070000 		lla	a5,_ZTV6Thread+16
 308      93870700 
 309 0134 2330F500 		sd	a5,0(a0)
  24:src/syscall_cpp.cpp ****     this->arg = arg;
 310              		.loc 2 24 5 is_stmt 1
  24:src/syscall_cpp.cpp ****     this->arg = arg;
 311              		.loc 2 24 16 is_stmt 0
 312 0138 2338B500 		sd	a1,16(a0)
  25:src/syscall_cpp.cpp **** }
 313              		.loc 2 25 5 is_stmt 1
  25:src/syscall_cpp.cpp **** }
 314              		.loc 2 25 15 is_stmt 0
 315 013c 233CC500 		sd	a2,24(a0)
 316              	.LBE2:
  26:src/syscall_cpp.cpp **** 
 317              		.loc 2 26 1
 318 0140 03348100 		ld	s0,8(sp)
 319              		.cfi_restore 8
 320              		.cfi_def_cfa 2, 16
 321 0144 13010101 		addi	sp,sp,16
 322              		.cfi_def_cfa_offset 0
 323 0148 67800000 		jr	ra
 324              		.cfi_endproc
 325              	.LFE7:
 327              		.globl	_ZN6ThreadC1EPFvPvES0_
 328              		.set	_ZN6ThreadC1EPFvPvES0_,_ZN6ThreadC2EPFvPvES0_
 329              		.align	2
 330              		.globl	_ZN6Thread5sleepEm
 332              	_ZN6Thread5sleepEm:
 333              	.LFB9:
  28:src/syscall_cpp.cpp ****     return 0;
 334              		.loc 2 28 27 is_stmt 1
 335              		.cfi_startproc
 336 014c 130101FF 		addi	sp,sp,-16
 337              		.cfi_def_cfa_offset 16
 338 0150 23348100 		sd	s0,8(sp)
 339              		.cfi_offset 8, -8
 340 0154 13040101 		addi	s0,sp,16
 341              		.cfi_def_cfa 8, 0
  29:src/syscall_cpp.cpp **** }
 342              		.loc 2 29 5
  30:src/syscall_cpp.cpp **** 
 343              		.loc 2 30 1 is_stmt 0
 344 0158 13050000 		li	a0,0
 345 015c 03348100 		ld	s0,8(sp)
 346              		.cfi_restore 8
 347              		.cfi_def_cfa 2, 16
 348 0160 13010101 		addi	sp,sp,16
 349              		.cfi_def_cfa_offset 0
 350 0164 67800000 		jr	ra
 351              		.cfi_endproc
 352              	.LFE9:
 354              		.align	2
 355              		.globl	_ZN6Thread8dispatchEv
 357              	_ZN6Thread8dispatchEv:
 358              	.LFB10:
GAS LISTING /tmp/ccssUO8T.s 			page 9


  32:src/syscall_cpp.cpp **** 
 359              		.loc 2 32 25 is_stmt 1
 360              		.cfi_startproc
 361 0168 130101FF 		addi	sp,sp,-16
 362              		.cfi_def_cfa_offset 16
 363 016c 23348100 		sd	s0,8(sp)
 364              		.cfi_offset 8, -8
 365 0170 13040101 		addi	s0,sp,16
 366              		.cfi_def_cfa 8, 0
  34:src/syscall_cpp.cpp **** 
 367              		.loc 2 34 1 is_stmt 0
 368 0174 03348100 		ld	s0,8(sp)
 369              		.cfi_restore 8
 370              		.cfi_def_cfa 2, 16
 371 0178 13010101 		addi	sp,sp,16
 372              		.cfi_def_cfa_offset 0
 373 017c 67800000 		jr	ra
 374              		.cfi_endproc
 375              	.LFE10:
 377              		.align	2
 378              		.globl	_ZN6Thread5startEv
 380              	_ZN6Thread5startEv:
 381              	.LFB11:
  36:src/syscall_cpp.cpp ****     return thread_create(&myHandle, &wrapper, this);
 382              		.loc 2 36 21 is_stmt 1
 383              		.cfi_startproc
 384              	.LVL19:
 385 0180 130101FF 		addi	sp,sp,-16
 386              		.cfi_def_cfa_offset 16
 387 0184 23341100 		sd	ra,8(sp)
 388 0188 23308100 		sd	s0,0(sp)
 389              		.cfi_offset 1, -8
 390              		.cfi_offset 8, -16
 391 018c 13040101 		addi	s0,sp,16
 392              		.cfi_def_cfa 8, 0
  37:src/syscall_cpp.cpp ****     // wrapper treba da pokrene run
 393              		.loc 2 37 5
  37:src/syscall_cpp.cpp ****     // wrapper treba da pokrene run
 394              		.loc 2 37 25 is_stmt 0
 395 0190 13060500 		mv	a2,a0
 396 0194 97050000 		lla	a1,_ZN6Thread7wrapperEPv
 396      93850500 
 397 019c 13058500 		addi	a0,a0,8
 398              	.LVL20:
 399 01a0 97000000 		call	_Z13thread_createPP7_threadPFvPvES2_@plt
 399      E7800000 
 400              	.LVL21:
  39:src/syscall_cpp.cpp **** 
 401              		.loc 2 39 1
 402 01a8 83308100 		ld	ra,8(sp)
 403              		.cfi_restore 1
 404 01ac 03340100 		ld	s0,0(sp)
 405              		.cfi_restore 8
 406              		.cfi_def_cfa 2, 16
 407 01b0 13010101 		addi	sp,sp,16
 408              		.cfi_def_cfa_offset 0
 409 01b4 67800000 		jr	ra
GAS LISTING /tmp/ccssUO8T.s 			page 10


 410              		.cfi_endproc
 411              	.LFE11:
 413              		.align	2
 414              		.globl	_ZN6ThreadC2Ev
 416              	_ZN6ThreadC2Ev:
 417              	.LFB13:
  41:src/syscall_cpp.cpp **** 
 418              		.loc 2 41 1 is_stmt 1
 419              		.cfi_startproc
 420              	.LVL22:
 421 01b8 130101FF 		addi	sp,sp,-16
 422              		.cfi_def_cfa_offset 16
 423 01bc 23348100 		sd	s0,8(sp)
 424              		.cfi_offset 8, -8
 425 01c0 13040101 		addi	s0,sp,16
 426              		.cfi_def_cfa 8, 0
 427              	.LBB3:
  41:src/syscall_cpp.cpp **** 
 428              		.loc 2 41 16 is_stmt 0
 429 01c4 97070000 		lla	a5,_ZTV6Thread+16
 429      93870700 
 430 01cc 2330F500 		sd	a5,0(a0)
 431              	.LBE3:
  43:src/syscall_cpp.cpp **** 
 432              		.loc 2 43 1
 433 01d0 03348100 		ld	s0,8(sp)
 434              		.cfi_restore 8
 435              		.cfi_def_cfa 2, 16
 436 01d4 13010101 		addi	sp,sp,16
 437              		.cfi_def_cfa_offset 0
 438 01d8 67800000 		jr	ra
 439              		.cfi_endproc
 440              	.LFE13:
 442              		.globl	_ZN6ThreadC1Ev
 443              		.set	_ZN6ThreadC1Ev,_ZN6ThreadC2Ev
 444              		.weak	_ZTV6Thread
 445              		.section	.data.rel.ro.local._ZTV6Thread,"awG",@progbits,_ZTV6Thread,comdat
 446              		.align	3
 449              	_ZTV6Thread:
 450 0000 00000000 		.dword	0
 450      00000000 
 451 0008 00000000 		.dword	0
 451      00000000 
 452 0010 00000000 		.dword	_ZN6ThreadD1Ev
 452      00000000 
 453 0018 00000000 		.dword	_ZN6ThreadD0Ev
 453      00000000 
 454 0020 00000000 		.dword	_ZN6Thread3runEv
 454      00000000 
 455              		.text
 456              	.Letext0:
 457              		.file 3 "src/../h/../lib/hw.h"
 458              		.file 4 "src/../h/syscall_c.h"
 459              		.file 5 "src/../h/Memoryallocator.hpp"
 2297              		.align	3
 2300              	DW.ref.__gxx_personality_v0:
 2301 0000 00000000 		.dword	__gxx_personality_v0
GAS LISTING /tmp/ccssUO8T.s 			page 11


 2301      00000000 
 2302              		.ident	"GCC: (Ubuntu 9.4.0-1ubuntu1~20.04) 9.4.0"
 2303              		.section	.note.GNU-stack,"",@progbits
GAS LISTING /tmp/ccssUO8T.s 			page 12


DEFINED SYMBOLS
                            *ABS*:0000000000000000 syscall_cpp.cpp
     /tmp/ccssUO8T.s:10     .text._ZN6Thread3runEv:0000000000000000 _ZN6Thread3runEv
     /tmp/ccssUO8T.s:14     .text._ZN6Thread3runEv:0000000000000000 .L0 
     /tmp/ccssUO8T.s:16     .text._ZN6Thread3runEv:0000000000000000 .L0 
     /tmp/ccssUO8T.s:17     .text._ZN6Thread3runEv:0000000000000004 .L0 
     /tmp/ccssUO8T.s:19     .text._ZN6Thread3runEv:0000000000000008 .L0 
     /tmp/ccssUO8T.s:21     .text._ZN6Thread3runEv:000000000000000c .L0 
     /tmp/ccssUO8T.s:23     .text._ZN6Thread3runEv:000000000000000c .L0 
     /tmp/ccssUO8T.s:24     .text._ZN6Thread3runEv:0000000000000010 .L0 
     /tmp/ccssUO8T.s:25     .text._ZN6Thread3runEv:0000000000000010 .L0 
     /tmp/ccssUO8T.s:27     .text._ZN6Thread3runEv:0000000000000014 .L0 
     /tmp/ccssUO8T.s:29     .text._ZN6Thread3runEv:0000000000000018 .L0 
     /tmp/ccssUO8T.s:36     .text:0000000000000000 _ZN6ThreadD2Ev
     /tmp/ccssUO8T.s:40     .text:0000000000000000 .L0 
     /tmp/ccssUO8T.s:42     .text:0000000000000000 .L0 
     /tmp/ccssUO8T.s:43     .text:0000000000000004 .L0 
     /tmp/ccssUO8T.s:45     .text:0000000000000008 .L0 
     /tmp/ccssUO8T.s:47     .text:000000000000000c .L0 
     /tmp/ccssUO8T.s:49     .text:000000000000000c .L0 
     /tmp/ccssUO8T.s:50     .text:0000000000000010 .L0 
     /tmp/ccssUO8T.s:51     .text:0000000000000010 .L0 
     /tmp/ccssUO8T.s:53     .text:0000000000000014 .L0 
     /tmp/ccssUO8T.s:55     .text:0000000000000018 .L0 
     /tmp/ccssUO8T.s:36     .text:0000000000000000 _ZN6ThreadD1Ev
     /tmp/ccssUO8T.s:63     .text:0000000000000018 _ZN6Thread7wrapperEPv
     /tmp/ccssUO8T.s:66     .text:0000000000000018 .L0 
     /tmp/ccssUO8T.s:68     .text:0000000000000018 .L0 
     /tmp/ccssUO8T.s:69     .text:000000000000001c .L0 
     /tmp/ccssUO8T.s:72     .text:0000000000000024 .L0 
     /tmp/ccssUO8T.s:73     .text:0000000000000024 .L0 
     /tmp/ccssUO8T.s:75     .text:0000000000000028 .L0 
     /tmp/ccssUO8T.s:78     .text:0000000000000028 .L0 
     /tmp/ccssUO8T.s:79     .text:0000000000000028 .L0 
     /tmp/ccssUO8T.s:80     .text:0000000000000028 .L0 
     /tmp/ccssUO8T.s:82     .text:000000000000002c .L0 
     /tmp/ccssUO8T.s:84     .text:0000000000000030 .L0 
     /tmp/ccssUO8T.s:85     .text:0000000000000030 .L0 
     /tmp/ccssUO8T.s:91     .text:0000000000000038 .L0 
     /tmp/ccssUO8T.s:92     .text:000000000000003c .L0 
     /tmp/ccssUO8T.s:93     .text:000000000000003c .L0 
     /tmp/ccssUO8T.s:95     .text:0000000000000040 .L0 
     /tmp/ccssUO8T.s:96     .text:0000000000000040 .L0 
     /tmp/ccssUO8T.s:98     .text:0000000000000044 .L0 
     /tmp/ccssUO8T.s:102    .text:0000000000000048 .L0 
     /tmp/ccssUO8T.s:104    .text:0000000000000048 .L0 
     /tmp/ccssUO8T.s:105    .text:0000000000000048 .L0 
     /tmp/ccssUO8T.s:108    .text:0000000000000050 .L0 
     /tmp/ccssUO8T.s:111    .text:0000000000000054 .L0 
     /tmp/ccssUO8T.s:112    .text:0000000000000058 .L0 
     /tmp/ccssUO8T.s:118    .text:0000000000000058 _Znwm
     /tmp/ccssUO8T.s:121    .text:0000000000000058 .L0 
     /tmp/ccssUO8T.s:123    .text:0000000000000058 .L0 
     /tmp/ccssUO8T.s:124    .text:000000000000005c .L0 
     /tmp/ccssUO8T.s:127    .text:0000000000000064 .L0 
     /tmp/ccssUO8T.s:128    .text:0000000000000064 .L0 
     /tmp/ccssUO8T.s:130    .text:0000000000000068 .L0 
GAS LISTING /tmp/ccssUO8T.s 			page 13


     /tmp/ccssUO8T.s:132    .text:0000000000000068 .L0 
     /tmp/ccssUO8T.s:133    .text:0000000000000068 .L0 
     /tmp/ccssUO8T.s:136    .text:0000000000000070 .L0 
     /tmp/ccssUO8T.s:137    .text:0000000000000074 .L0 
     /tmp/ccssUO8T.s:139    .text:0000000000000078 .L0 
     /tmp/ccssUO8T.s:140    .text:0000000000000078 .L0 
     /tmp/ccssUO8T.s:142    .text:000000000000007c .L0 
     /tmp/ccssUO8T.s:144    .text:0000000000000080 .L0 
     /tmp/ccssUO8T.s:150    .text:0000000000000080 _Znam
     /tmp/ccssUO8T.s:153    .text:0000000000000080 .L0 
     /tmp/ccssUO8T.s:155    .text:0000000000000080 .L0 
     /tmp/ccssUO8T.s:156    .text:0000000000000084 .L0 
     /tmp/ccssUO8T.s:159    .text:000000000000008c .L0 
     /tmp/ccssUO8T.s:160    .text:000000000000008c .L0 
     /tmp/ccssUO8T.s:162    .text:0000000000000090 .L0 
     /tmp/ccssUO8T.s:164    .text:0000000000000090 .L0 
     /tmp/ccssUO8T.s:165    .text:0000000000000090 .L0 
     /tmp/ccssUO8T.s:168    .text:0000000000000098 .L0 
     /tmp/ccssUO8T.s:169    .text:000000000000009c .L0 
     /tmp/ccssUO8T.s:171    .text:00000000000000a0 .L0 
     /tmp/ccssUO8T.s:172    .text:00000000000000a0 .L0 
     /tmp/ccssUO8T.s:174    .text:00000000000000a4 .L0 
     /tmp/ccssUO8T.s:176    .text:00000000000000a8 .L0 
     /tmp/ccssUO8T.s:182    .text:00000000000000a8 _ZdaPv
     /tmp/ccssUO8T.s:185    .text:00000000000000a8 .L0 
     /tmp/ccssUO8T.s:2300   .data.rel.local.DW.ref.__gxx_personality_v0:0000000000000000 DW.ref.__gxx_personality_v0
     /tmp/ccssUO8T.s:189    .text:00000000000000a8 .L0 
     /tmp/ccssUO8T.s:190    .text:00000000000000ac .L0 
     /tmp/ccssUO8T.s:193    .text:00000000000000b4 .L0 
     /tmp/ccssUO8T.s:194    .text:00000000000000b4 .L0 
     /tmp/ccssUO8T.s:196    .text:00000000000000b8 .L0 
     /tmp/ccssUO8T.s:198    .text:00000000000000b8 .L0 
     /tmp/ccssUO8T.s:199    .text:00000000000000b8 .L0 
     /tmp/ccssUO8T.s:202    .text:00000000000000c0 .L0 
     /tmp/ccssUO8T.s:203    .text:00000000000000c4 .L0 
     /tmp/ccssUO8T.s:205    .text:00000000000000c8 .L0 
     /tmp/ccssUO8T.s:206    .text:00000000000000c8 .L0 
     /tmp/ccssUO8T.s:208    .text:00000000000000cc .L0 
     /tmp/ccssUO8T.s:210    .text:00000000000000d0 .L0 
     /tmp/ccssUO8T.s:224    .text:00000000000000d0 _ZdlPv
     /tmp/ccssUO8T.s:227    .text:00000000000000d0 .L0 
     /tmp/ccssUO8T.s:231    .text:00000000000000d0 .L0 
     /tmp/ccssUO8T.s:232    .text:00000000000000d4 .L0 
     /tmp/ccssUO8T.s:235    .text:00000000000000dc .L0 
     /tmp/ccssUO8T.s:236    .text:00000000000000dc .L0 
     /tmp/ccssUO8T.s:238    .text:00000000000000e0 .L0 
     /tmp/ccssUO8T.s:240    .text:00000000000000e0 .L0 
     /tmp/ccssUO8T.s:241    .text:00000000000000e0 .L0 
     /tmp/ccssUO8T.s:244    .text:00000000000000e8 .L0 
     /tmp/ccssUO8T.s:245    .text:00000000000000ec .L0 
     /tmp/ccssUO8T.s:247    .text:00000000000000f0 .L0 
     /tmp/ccssUO8T.s:248    .text:00000000000000f0 .L0 
     /tmp/ccssUO8T.s:250    .text:00000000000000f4 .L0 
     /tmp/ccssUO8T.s:252    .text:00000000000000f8 .L0 
     /tmp/ccssUO8T.s:265    .text:00000000000000f8 _ZN6ThreadD0Ev
     /tmp/ccssUO8T.s:268    .text:00000000000000f8 .L0 
     /tmp/ccssUO8T.s:270    .text:00000000000000f8 .L0 
GAS LISTING /tmp/ccssUO8T.s 			page 14


     /tmp/ccssUO8T.s:271    .text:00000000000000fc .L0 
     /tmp/ccssUO8T.s:274    .text:0000000000000104 .L0 
     /tmp/ccssUO8T.s:275    .text:0000000000000104 .L0 
     /tmp/ccssUO8T.s:277    .text:0000000000000108 .L0 
     /tmp/ccssUO8T.s:279    .text:0000000000000108 .L0 
     /tmp/ccssUO8T.s:282    .text:0000000000000114 .L0 
     /tmp/ccssUO8T.s:284    .text:0000000000000118 .L0 
     /tmp/ccssUO8T.s:285    .text:0000000000000118 .L0 
     /tmp/ccssUO8T.s:287    .text:000000000000011c .L0 
     /tmp/ccssUO8T.s:289    .text:0000000000000120 .L0 
     /tmp/ccssUO8T.s:295    .text:0000000000000120 _ZN6ThreadC2EPFvPvES0_
     /tmp/ccssUO8T.s:298    .text:0000000000000120 .L0 
     /tmp/ccssUO8T.s:300    .text:0000000000000120 .L0 
     /tmp/ccssUO8T.s:301    .text:0000000000000124 .L0 
     /tmp/ccssUO8T.s:303    .text:0000000000000128 .L0 
     /tmp/ccssUO8T.s:305    .text:000000000000012c .L0 
     /tmp/ccssUO8T.s:449    .data.rel.ro.local._ZTV6Thread:0000000000000000 _ZTV6Thread
     /tmp/ccssUO8T.s:308    .text:000000000000012c .L0 
     /tmp/ccssUO8T.s:311    .text:0000000000000138 .L0 
     /tmp/ccssUO8T.s:312    .text:0000000000000138 .L0 
     /tmp/ccssUO8T.s:314    .text:000000000000013c .L0 
     /tmp/ccssUO8T.s:315    .text:000000000000013c .L0 
     /tmp/ccssUO8T.s:318    .text:0000000000000140 .L0 
     /tmp/ccssUO8T.s:319    .text:0000000000000144 .L0 
     /tmp/ccssUO8T.s:320    .text:0000000000000144 .L0 
     /tmp/ccssUO8T.s:322    .text:0000000000000148 .L0 
     /tmp/ccssUO8T.s:324    .text:000000000000014c .L0 
     /tmp/ccssUO8T.s:295    .text:0000000000000120 _ZN6ThreadC1EPFvPvES0_
     /tmp/ccssUO8T.s:332    .text:000000000000014c _ZN6Thread5sleepEm
     /tmp/ccssUO8T.s:335    .text:000000000000014c .L0 
     /tmp/ccssUO8T.s:336    .text:000000000000014c .L0 
     /tmp/ccssUO8T.s:337    .text:0000000000000150 .L0 
     /tmp/ccssUO8T.s:339    .text:0000000000000154 .L0 
     /tmp/ccssUO8T.s:341    .text:0000000000000158 .L0 
     /tmp/ccssUO8T.s:343    .text:0000000000000158 .L0 
     /tmp/ccssUO8T.s:344    .text:0000000000000158 .L0 
     /tmp/ccssUO8T.s:346    .text:0000000000000160 .L0 
     /tmp/ccssUO8T.s:347    .text:0000000000000160 .L0 
     /tmp/ccssUO8T.s:349    .text:0000000000000164 .L0 
     /tmp/ccssUO8T.s:351    .text:0000000000000168 .L0 
     /tmp/ccssUO8T.s:357    .text:0000000000000168 _ZN6Thread8dispatchEv
     /tmp/ccssUO8T.s:360    .text:0000000000000168 .L0 
     /tmp/ccssUO8T.s:361    .text:0000000000000168 .L0 
     /tmp/ccssUO8T.s:362    .text:000000000000016c .L0 
     /tmp/ccssUO8T.s:364    .text:0000000000000170 .L0 
     /tmp/ccssUO8T.s:366    .text:0000000000000174 .L0 
     /tmp/ccssUO8T.s:368    .text:0000000000000174 .L0 
     /tmp/ccssUO8T.s:369    .text:0000000000000178 .L0 
     /tmp/ccssUO8T.s:370    .text:0000000000000178 .L0 
     /tmp/ccssUO8T.s:372    .text:000000000000017c .L0 
     /tmp/ccssUO8T.s:374    .text:0000000000000180 .L0 
     /tmp/ccssUO8T.s:380    .text:0000000000000180 _ZN6Thread5startEv
     /tmp/ccssUO8T.s:383    .text:0000000000000180 .L0 
     /tmp/ccssUO8T.s:385    .text:0000000000000180 .L0 
     /tmp/ccssUO8T.s:386    .text:0000000000000184 .L0 
     /tmp/ccssUO8T.s:389    .text:000000000000018c .L0 
     /tmp/ccssUO8T.s:390    .text:000000000000018c .L0 
GAS LISTING /tmp/ccssUO8T.s 			page 15


     /tmp/ccssUO8T.s:392    .text:0000000000000190 .L0 
     /tmp/ccssUO8T.s:394    .text:0000000000000190 .L0 
     /tmp/ccssUO8T.s:395    .text:0000000000000190 .L0 
     /tmp/ccssUO8T.s:402    .text:00000000000001a8 .L0 
     /tmp/ccssUO8T.s:403    .text:00000000000001ac .L0 
     /tmp/ccssUO8T.s:405    .text:00000000000001b0 .L0 
     /tmp/ccssUO8T.s:406    .text:00000000000001b0 .L0 
     /tmp/ccssUO8T.s:408    .text:00000000000001b4 .L0 
     /tmp/ccssUO8T.s:410    .text:00000000000001b8 .L0 
     /tmp/ccssUO8T.s:416    .text:00000000000001b8 _ZN6ThreadC2Ev
     /tmp/ccssUO8T.s:419    .text:00000000000001b8 .L0 
     /tmp/ccssUO8T.s:421    .text:00000000000001b8 .L0 
     /tmp/ccssUO8T.s:422    .text:00000000000001bc .L0 
     /tmp/ccssUO8T.s:424    .text:00000000000001c0 .L0 
     /tmp/ccssUO8T.s:426    .text:00000000000001c4 .L0 
     /tmp/ccssUO8T.s:429    .text:00000000000001c4 .L0 
     /tmp/ccssUO8T.s:433    .text:00000000000001d0 .L0 
     /tmp/ccssUO8T.s:434    .text:00000000000001d4 .L0 
     /tmp/ccssUO8T.s:435    .text:00000000000001d4 .L0 
     /tmp/ccssUO8T.s:437    .text:00000000000001d8 .L0 
     /tmp/ccssUO8T.s:439    .text:00000000000001dc .L0 
     /tmp/ccssUO8T.s:416    .text:00000000000001b8 _ZN6ThreadC1Ev
     /tmp/ccssUO8T.s:32     .text._ZN6Thread3runEv:0000000000000018 .L0 
     /tmp/ccssUO8T.s:460    .text:00000000000001dc .L0 
     /tmp/ccssUO8T.s:308    .text:000000000000012c .L0 
     /tmp/ccssUO8T.s:396    .text:0000000000000194 .L0 
     /tmp/ccssUO8T.s:429    .text:00000000000001c4 .L0 
     /tmp/ccssUO8T.s:101    .text:0000000000000048 .L6
     /tmp/ccssUO8T.s:89     .text:0000000000000038 .L5
     /tmp/ccssUO8T.s:1164   .debug_abbrev:0000000000000000 .Ldebug_abbrev0
     /tmp/ccssUO8T.s:2272   .debug_str:00000000000002ea .LASF53
     /tmp/ccssUO8T.s:2254   .debug_str:0000000000000271 .LASF54
     /tmp/ccssUO8T.s:2186   .debug_str:0000000000000095 .LASF55
     /tmp/ccssUO8T.s:2154   .debug_ranges:0000000000000000 .Ldebug_ranges0
     /tmp/ccssUO8T.s:2162   .debug_line:0000000000000000 .Ldebug_line0
     /tmp/ccssUO8T.s:2224   .debug_str:00000000000001aa .LASF0
     /tmp/ccssUO8T.s:2232   .debug_str:00000000000001d5 .LASF1
     /tmp/ccssUO8T.s:2220   .debug_str:0000000000000189 .LASF2
     /tmp/ccssUO8T.s:2208   .debug_str:000000000000014f .LASF4
     /tmp/ccssUO8T.s:2260   .debug_str:00000000000002a2 .LASF3
     /tmp/ccssUO8T.s:2170   .debug_str:0000000000000028 .LASF5
     /tmp/ccssUO8T.s:2182   .debug_str:000000000000007d .LASF6
     /tmp/ccssUO8T.s:2236   .debug_str:00000000000001fa .LASF7
     /tmp/ccssUO8T.s:2222   .debug_str:0000000000000197 .LASF8
     /tmp/ccssUO8T.s:2278   .debug_str:00000000000003c4 .LASF9
     /tmp/ccssUO8T.s:2196   .debug_str:00000000000000fa .LASF10
     /tmp/ccssUO8T.s:2242   .debug_str:0000000000000218 .LASF11
     /tmp/ccssUO8T.s:2274   .debug_str:00000000000003ae .LASF12
     /tmp/ccssUO8T.s:2172   .debug_str:000000000000002f .LASF13
     /tmp/ccssUO8T.s:2166   .debug_str:0000000000000009 .LASF14
     /tmp/ccssUO8T.s:2174   .debug_str:000000000000003f .LASF15
     /tmp/ccssUO8T.s:2256   .debug_str:0000000000000285 .LASF16
     /tmp/ccssUO8T.s:2178   .debug_str:0000000000000059 .LASF17
     /tmp/ccssUO8T.s:2164   .debug_str:0000000000000000 .LASF18
     /tmp/ccssUO8T.s:2206   .debug_str:0000000000000147 .LASF56
     /tmp/ccssUO8T.s:2238   .debug_str:000000000000020d .LASF19
     /tmp/ccssUO8T.s:2200   .debug_str:000000000000011b .LASF20
GAS LISTING /tmp/ccssUO8T.s 			page 16


     /tmp/ccssUO8T.s:2276   .debug_str:00000000000003bd .LASF21
     /tmp/ccssUO8T.s:2234   .debug_str:00000000000001e8 .LASF57
     /tmp/ccssUO8T.s:2218   .debug_str:000000000000017c .LASF58
     /tmp/ccssUO8T.s:2246   .debug_str:000000000000023d .LASF23
     /tmp/ccssUO8T.s:2214   .debug_str:000000000000016e .LASF40
     /tmp/ccssUO8T.s:2228   .debug_str:00000000000001c0 .LASF42
     /tmp/ccssUO8T.s:2230   .debug_str:00000000000001cf .LASF34
     /tmp/ccssUO8T.s:2194   .debug_str:00000000000000e7 .LASF36
     /tmp/ccssUO8T.s:2226   .debug_str:00000000000001b7 .LASF59
     /tmp/ccssUO8T.s:2190   .debug_str:00000000000000c1 .LASF60
     /tmp/ccssUO8T.s:2290   .debug_str:000000000000042e .LASF22
     /tmp/ccssUO8T.s:2198   .debug_str:0000000000000108 .LASF24
     /tmp/ccssUO8T.s:2252   .debug_str:0000000000000262 .LASF25
     /tmp/ccssUO8T.s:2184   .debug_str:0000000000000084 .LASF61
     /tmp/ccssUO8T.s:2286   .debug_str:0000000000000400 .LASF26
     /tmp/ccssUO8T.s:2212   .debug_str:0000000000000169 .LASF27
     /tmp/ccssUO8T.s:2266   .debug_str:00000000000002ce .LASF62
     /tmp/ccssUO8T.s:2244   .debug_str:0000000000000227 .LASF63
     /tmp/ccssUO8T.s:2280   .debug_str:00000000000003d4 .LASF64
     /tmp/ccssUO8T.s:64     .text:0000000000000018 .LFB19
     /tmp/ccssUO8T.s:113    .text:0000000000000058 .LFE19
     /tmp/ccssUO8T.s:2001   .debug_loc:0000000000000000 .LLST0
     /tmp/ccssUO8T.s:2026   .debug_loc:0000000000000062 .LLST1
     /tmp/ccssUO8T.s:109    .text:0000000000000054 .LVL7
     /tmp/ccssUO8T.s:2250   .debug_str:000000000000025d .LASF28
     /tmp/ccssUO8T.s:2204   .debug_str:000000000000013d .LASF29
     /tmp/ccssUO8T.s:2168   .debug_str:0000000000000019 .LASF30
     /tmp/ccssUO8T.s:266    .text:00000000000000f8 .LFB18
     /tmp/ccssUO8T.s:290    .text:0000000000000120 .LFE18
     /tmp/ccssUO8T.s:2051   .debug_loc:00000000000000c4 .LLST6
     /tmp/ccssUO8T.s:280    .text:0000000000000110 .LVL17
     /tmp/ccssUO8T.s:2270   .debug_str:00000000000002db .LASF31
     /tmp/ccssUO8T.s:37     .text:0000000000000000 .LFB16
     /tmp/ccssUO8T.s:56     .text:0000000000000018 .LFE16
     /tmp/ccssUO8T.s:2282   .debug_str:00000000000003e4 .LASF32
     /tmp/ccssUO8T.s:417    .text:00000000000001b8 .LFB13
     /tmp/ccssUO8T.s:440    .text:00000000000001dc .LFE13
     /tmp/ccssUO8T.s:381    .text:0000000000000180 .LFB11
     /tmp/ccssUO8T.s:411    .text:00000000000001b8 .LFE11
     /tmp/ccssUO8T.s:2065   .debug_loc:00000000000000fd .LLST7
     /tmp/ccssUO8T.s:400    .text:00000000000001a8 .LVL21
     /tmp/ccssUO8T.s:358    .text:0000000000000168 .LFB10
     /tmp/ccssUO8T.s:375    .text:0000000000000180 .LFE10
     /tmp/ccssUO8T.s:333    .text:000000000000014c .LFB9
     /tmp/ccssUO8T.s:352    .text:0000000000000168 .LFE9
     /tmp/ccssUO8T.s:2202   .debug_str:0000000000000126 .LASF33
     /tmp/ccssUO8T.s:296    .text:0000000000000120 .LFB7
     /tmp/ccssUO8T.s:325    .text:000000000000014c .LFE7
     /tmp/ccssUO8T.s:2264   .debug_str:00000000000002be .LASF35
     /tmp/ccssUO8T.s:2292   .debug_str:0000000000000434 .LASF37
     /tmp/ccssUO8T.s:225    .text:00000000000000d0 .LFB5
     /tmp/ccssUO8T.s:253    .text:00000000000000f8 .LFE5
     /tmp/ccssUO8T.s:2083   .debug_loc:0000000000000149 .LLST5
     /tmp/ccssUO8T.s:242    .text:00000000000000e8 .LVL15
     /tmp/ccssUO8T.s:2210   .debug_str:0000000000000156 .LASF38
     /tmp/ccssUO8T.s:2258   .debug_str:000000000000029b .LASF39
     /tmp/ccssUO8T.s:183    .text:00000000000000a8 .LFB4
GAS LISTING /tmp/ccssUO8T.s 			page 17


     /tmp/ccssUO8T.s:211    .text:00000000000000d0 .LFE4
     /tmp/ccssUO8T.s:2097   .debug_loc:0000000000000182 .LLST4
     /tmp/ccssUO8T.s:200    .text:00000000000000c0 .LVL13
     /tmp/ccssUO8T.s:2192   .debug_str:00000000000000d7 .LASF41
     /tmp/ccssUO8T.s:2240   .debug_str:0000000000000212 .LASF43
     /tmp/ccssUO8T.s:151    .text:0000000000000080 .LFB3
     /tmp/ccssUO8T.s:177    .text:00000000000000a8 .LFE3
     /tmp/ccssUO8T.s:2268   .debug_str:00000000000002d6 .LASF44
     /tmp/ccssUO8T.s:2111   .debug_loc:00000000000001bb .LLST3
     /tmp/ccssUO8T.s:166    .text:0000000000000098 .LVL11
     /tmp/ccssUO8T.s:2284   .debug_str:00000000000003f3 .LASF45
     /tmp/ccssUO8T.s:2216   .debug_str:0000000000000176 .LASF46
     /tmp/ccssUO8T.s:119    .text:0000000000000058 .LFB2
     /tmp/ccssUO8T.s:145    .text:0000000000000080 .LFE2
     /tmp/ccssUO8T.s:2125   .debug_loc:00000000000001f4 .LLST2
     /tmp/ccssUO8T.s:134    .text:0000000000000070 .LVL9
     /tmp/ccssUO8T.s:11     .text._ZN6Thread3runEv:0000000000000000 .LFB0
     /tmp/ccssUO8T.s:30     .text._ZN6Thread3runEv:0000000000000018 .LFE0
     /tmp/ccssUO8T.s:2288   .debug_str:0000000000000409 .LASF47
     /tmp/ccssUO8T.s:2180   .debug_str:000000000000006f .LASF49
     /tmp/ccssUO8T.s:2188   .debug_str:00000000000000b3 .LASF48
     /tmp/ccssUO8T.s:2248   .debug_str:0000000000000254 .LASF50
     /tmp/ccssUO8T.s:2176   .debug_str:000000000000004b .LASF51
     /tmp/ccssUO8T.s:2262   .debug_str:00000000000002b4 .LASF52
     /tmp/ccssUO8T.s:67     .text:0000000000000018 .LVL2
     /tmp/ccssUO8T.s:86     .text:0000000000000034 .LVL4
     /tmp/ccssUO8T.s:100    .text:0000000000000048 .LVL6
     /tmp/ccssUO8T.s:77     .text:0000000000000028 .LVL3
     /tmp/ccssUO8T.s:269    .text:00000000000000f8 .LVL16
     /tmp/ccssUO8T.s:384    .text:0000000000000180 .LVL19
     /tmp/ccssUO8T.s:398    .text:00000000000001a0 .LVL20
     /tmp/ccssUO8T.s:230    .text:00000000000000d0 .LVL14
     /tmp/ccssUO8T.s:188    .text:00000000000000a8 .LVL12
     /tmp/ccssUO8T.s:154    .text:0000000000000080 .LVL10
     /tmp/ccssUO8T.s:122    .text:0000000000000058 .LVL8
     /tmp/ccssUO8T.s:461    .debug_info:0000000000000000 .Ldebug_info0
     /tmp/ccssUO8T.s:5      .text:0000000000000000 .Ltext0
     /tmp/ccssUO8T.s:456    .text:00000000000001dc .Letext0
     /tmp/ccssUO8T.s:214    .gcc_except_table:0000000000000000 .LLSDA4
     /tmp/ccssUO8T.s:255    .gcc_except_table:0000000000000004 .LLSDA5

UNDEFINED SYMBOLS
_Z9mem_allocm
_Z8mem_freePv
__gxx_personality_v0
_Z13thread_createPP7_threadPFvPvES2_
