GAS LISTING /tmp/ccG5ndPl.s 			page 1


   1              		.file	"thread.cpp"
   2              		.option pic
   3              		.option norelax
   4              		.text
   5              	.Ltext0:
   6              		.align	2
   7              		.globl	_ZN3TCBC2EPFvPvES0_S0_NS_7ContextE
   9              	_ZN3TCBC2EPFvPvES0_S0_NS_7ContextE:
  10              	.LFB23:
  11              		.file 1 "src/thread.cpp"
   1:src/thread.cpp **** #include "../h/thread.hpp"
   2:src/thread.cpp **** #include "../h/Scheduler.hpp"
   3:src/thread.cpp **** 
   4:src/thread.cpp **** int TCB::id_count = 0;
   5:src/thread.cpp **** TCB* TCB::running = nullptr;
   6:src/thread.cpp **** time_t TCB::time_slice_count = 0;
   7:src/thread.cpp **** 
   8:src/thread.cpp **** typedef TCB* _thread;
   9:src/thread.cpp **** 
  10:src/thread.cpp **** TCB::TCB(routine_ptr fun, void *args, void *stack, Context c) {
  12              		.loc 1 10 1
  13              		.cfi_startproc
  14              	.LVL0:
  15 0000 130101FE 		addi	sp,sp,-32
  16              		.cfi_def_cfa_offset 32
  17 0004 233C8100 		sd	s0,24(sp)
  18              		.cfi_offset 8, -8
  19 0008 13040102 		addi	s0,sp,32
  20              		.cfi_def_cfa 8, 0
  21              	.LBB4:
  22              		.loc 1 10 61 is_stmt 0
  23 000c 230A0504 		sb	zero,84(a0)
  11:src/thread.cpp ****     // poziva se iz _threadCreate gde je inicijalni kontekst formiran
  12:src/thread.cpp ****     id = id_count++;
  24              		.loc 1 12 5 is_stmt 1
  25              		.loc 1 12 18 is_stmt 0
  26 0010 97080000 		lla	a7,.LANCHOR0
  26      93880800 
  27 0018 03A80800 		lw	a6,0(a7)
  28 001c 1B031800 		addiw	t1,a6,1
  29 0020 23A06800 		sw	t1,0(a7)
  30              		.loc 1 12 8
  31 0024 23200501 		sw	a6,0(a0)
  13:src/thread.cpp **** 
  14:src/thread.cpp ****     // !!! Ukoliko se nit kreira nad funkcijom main, stek NE TREBA da se kreira
  15:src/thread.cpp ****     // !!! prosledi se body = nullptr, dodati neophodne provere
  16:src/thread.cpp ****     // !!! takva nit se NE STAVLJA u Scheduler !!!
  17:src/thread.cpp **** 
  18:src/thread.cpp ****     routine = fun;
  32              		.loc 1 18 5 is_stmt 1
  33              		.loc 1 18 13 is_stmt 0
  34 0028 2334B502 		sd	a1,40(a0)
  19:src/thread.cpp ****     this->args = args;
  35              		.loc 1 19 5 is_stmt 1
  36              		.loc 1 19 16 is_stmt 0
  37 002c 233CC502 		sd	a2,56(a0)
  20:src/thread.cpp ****     this->stack = stack; // stack start address (allocated)
GAS LISTING /tmp/ccG5ndPl.s 			page 2


  38              		.loc 1 20 5 is_stmt 1
  39              		.loc 1 20 17 is_stmt 0
  40 0030 2338D502 		sd	a3,48(a0)
  21:src/thread.cpp ****     this->context = c;
  41              		.loc 1 21 5 is_stmt 1
  42              		.loc 1 21 19 is_stmt 0
  43 0034 2330E504 		sd	a4,64(a0)
  44 0038 2334F504 		sd	a5,72(a0)
  22:src/thread.cpp ****     this->current_state = RUNNABLE;
  45              		.loc 1 22 5 is_stmt 1
  46              		.loc 1 22 25 is_stmt 0
  47 003c 23280504 		sw	zero,80(a0)
  23:src/thread.cpp ****     this->next_ready = nullptr;
  48              		.loc 1 23 5 is_stmt 1
  49              		.loc 1 23 22 is_stmt 0
  50 0040 23340500 		sd	zero,8(a0)
  24:src/thread.cpp ****     this->next_sleepy= nullptr;
  51              		.loc 1 24 5 is_stmt 1
  52              		.loc 1 24 22 is_stmt 0
  53 0044 23380500 		sd	zero,16(a0)
  25:src/thread.cpp ****     this->sleeping_time = 0;
  54              		.loc 1 25 5 is_stmt 1
  55              		.loc 1 25 25 is_stmt 0
  56 0048 233C0500 		sd	zero,24(a0)
  26:src/thread.cpp ****     this->time_slice = DEFAULT_TIME_SLICE;
  57              		.loc 1 26 5 is_stmt 1
  58              		.loc 1 26 22 is_stmt 0
  59 004c 93072000 		li	a5,2
  60 0050 2330F502 		sd	a5,32(a0)
  61              	.LBE4:
  27:src/thread.cpp **** }
  62              		.loc 1 27 1
  63 0054 03348101 		ld	s0,24(sp)
  64              		.cfi_restore 8
  65              		.cfi_def_cfa 2, 32
  66 0058 13010102 		addi	sp,sp,32
  67              		.cfi_def_cfa_offset 0
  68 005c 67800000 		jr	ra
  69              		.cfi_endproc
  70              	.LFE23:
  72              		.globl	_ZN3TCBC1EPFvPvES0_S0_NS_7ContextE
  73              		.set	_ZN3TCBC1EPFvPvES0_S0_NS_7ContextE,_ZN3TCBC2EPFvPvES0_S0_NS_7ContextE
  74              		.align	2
  75              		.globl	_ZN3TCB5yieldEPS_S0_
  77              	_ZN3TCB5yieldEPS_S0_:
  78              	.LFB27:
  28:src/thread.cpp **** 
  29:src/thread.cpp **** int TCB::_threadCreate(_thread *handle, routine_ptr routine, void *args, void *stack_space) {
  30:src/thread.cpp ****     Context context = {
  31:src/thread.cpp **** 
  32:src/thread.cpp ****             // initial context, starts from wrapper
  33:src/thread.cpp ****             // ra <= &wrapper, sp <= stack space + size (last used)
  34:src/thread.cpp **** 
  35:src/thread.cpp ****             (uint64)&wrapper,
  36:src/thread.cpp ****             routine == nullptr ? 0 : (uint64)((char *)stack_space + DEFAULT_STACK_SIZE)
  37:src/thread.cpp **** 
  38:src/thread.cpp ****             // handle == null -> main function thread, no need for new stack
GAS LISTING /tmp/ccG5ndPl.s 			page 3


  39:src/thread.cpp ****     };
  40:src/thread.cpp ****     *handle = new TCB (routine, args, stack_space, context);
  41:src/thread.cpp ****     if (routine) Scheduler::put(*handle);
  42:src/thread.cpp ****     return (*handle)->id;
  43:src/thread.cpp **** }
  44:src/thread.cpp **** 
  45:src/thread.cpp **** void TCB::wrapper() {
  46:src/thread.cpp **** 
  47:src/thread.cpp ****     // spp  -> status previous privilege,
  48:src/thread.cpp ****     // spie -> status previous int enable
  49:src/thread.cpp **** 
  50:src/thread.cpp ****     RISCV::popSppSpie();
  51:src/thread.cpp ****     running->routine(running->args);
  52:src/thread.cpp **** 
  53:src/thread.cpp ****     running->finish();
  54:src/thread.cpp ****     dispatch();
  55:src/thread.cpp ****     // thread exit syscall ili yield?
  56:src/thread.cpp **** }
  57:src/thread.cpp **** 
  58:src/thread.cpp **** void TCB::yield(TCB* oldRunning, TCB* newRunning) {
  79              		.loc 1 58 51 is_stmt 1
  80              		.cfi_startproc
  81              	.LVL1:
  82 0060 130101FE 		addi	sp,sp,-32
  83              		.cfi_def_cfa_offset 32
  84 0064 233C1100 		sd	ra,24(sp)
  85 0068 23388100 		sd	s0,16(sp)
  86 006c 23349100 		sd	s1,8(sp)
  87 0070 23302101 		sd	s2,0(sp)
  88              		.cfi_offset 1, -8
  89              		.cfi_offset 8, -16
  90              		.cfi_offset 9, -24
  91              		.cfi_offset 18, -32
  92 0074 13040102 		addi	s0,sp,32
  93              		.cfi_def_cfa 8, 0
  94 0078 93040500 		mv	s1,a0
  95 007c 13890500 		mv	s2,a1
  59:src/thread.cpp **** 
  60:src/thread.cpp ****     // ecall ????
  61:src/thread.cpp ****     // free stack if finished
  62:src/thread.cpp **** 
  63:src/thread.cpp ****     RISCV::push_regs();
  96              		.loc 1 63 5
  97              		.loc 1 63 21 is_stmt 0
  98 0080 97000000 		call	_ZN5RISCV9push_regsEv@plt
  98      E7800000 
  99              	.LVL2:
  64:src/thread.cpp ****     contextSwitch(&oldRunning->context, &newRunning->context);
 100              		.loc 1 64 5 is_stmt 1
 101              		.loc 1 64 18 is_stmt 0
 102 0088 93050904 		addi	a1,s2,64
 103 008c 13850404 		addi	a0,s1,64
 104 0090 97000000 		call	_ZN3TCB13contextSwitchEPNS_7ContextES1_@plt
 104      E7800000 
 105              	.LVL3:
  65:src/thread.cpp ****     RISCV::pop_regs();
 106              		.loc 1 65 5 is_stmt 1
GAS LISTING /tmp/ccG5ndPl.s 			page 4


 107              		.loc 1 65 20 is_stmt 0
 108 0098 97000000 		call	_ZN5RISCV8pop_regsEv@plt
 108      E7800000 
 109              	.LVL4:
  66:src/thread.cpp **** }
 110              		.loc 1 66 1
 111 00a0 83308101 		ld	ra,24(sp)
 112              		.cfi_restore 1
 113 00a4 03340101 		ld	s0,16(sp)
 114              		.cfi_restore 8
 115              		.cfi_def_cfa 2, 32
 116 00a8 83348100 		ld	s1,8(sp)
 117              		.cfi_restore 9
 118              	.LVL5:
 119 00ac 03390100 		ld	s2,0(sp)
 120              		.cfi_restore 18
 121              	.LVL6:
 122 00b0 13010102 		addi	sp,sp,32
 123              		.cfi_def_cfa_offset 0
 124 00b4 67800000 		jr	ra
 125              		.cfi_endproc
 126              	.LFE27:
 128              		.align	2
 129              		.globl	_ZN3TCBnwEm
 131              	_ZN3TCBnwEm:
 132              	.LFB29:
  67:src/thread.cpp **** 
  68:src/thread.cpp **** void TCB::dispatch() {
  69:src/thread.cpp **** 
  70:src/thread.cpp ****     TCB *oldRunning = TCB::running;
  71:src/thread.cpp ****     if ( isRunnable() ) Scheduler::put(oldRunning);
  72:src/thread.cpp ****     running = Scheduler::get();
  73:src/thread.cpp ****     if (running != oldRunning) yield(oldRunning, running);
  74:src/thread.cpp **** }
  75:src/thread.cpp **** 
  76:src/thread.cpp **** void *TCB::operator new(size_t size) {
 133              		.loc 1 76 38 is_stmt 1
 134              		.cfi_startproc
 135              	.LVL7:
 136 00b8 130101FF 		addi	sp,sp,-16
 137              		.cfi_def_cfa_offset 16
 138 00bc 23341100 		sd	ra,8(sp)
 139 00c0 23308100 		sd	s0,0(sp)
 140              		.cfi_offset 1, -8
 141              		.cfi_offset 8, -16
 142 00c4 13040101 		addi	s0,sp,16
 143              		.cfi_def_cfa 8, 0
  77:src/thread.cpp ****     // mem alloc (Memory Allocator klasa) prima broj blokova
  78:src/thread.cpp ****     size_t blocks = (size + sizeof(MemoryAllocator::MemoryBlock) + MEM_BLOCK_SIZE - 1) / MEM_BLOCK_
 144              		.loc 1 78 5
 145              		.loc 1 78 83 is_stmt 0
 146 00c8 13057505 		addi	a0,a0,87
 147              	.LVL8:
  79:src/thread.cpp ****     return MemoryAllocator::mem_alloc(blocks);
 148              		.loc 1 79 5 is_stmt 1
 149              		.loc 1 79 38 is_stmt 0
 150 00cc 13556500 		srli	a0,a0,6
GAS LISTING /tmp/ccG5ndPl.s 			page 5


 151              	.LVL9:
 152 00d0 97000000 		call	_ZN15MemoryAllocator9mem_allocEm@plt
 152      E7800000 
 153              	.LVL10:
  80:src/thread.cpp **** }
 154              		.loc 1 80 1
 155 00d8 83308100 		ld	ra,8(sp)
 156              		.cfi_restore 1
 157 00dc 03340100 		ld	s0,0(sp)
 158              		.cfi_restore 8
 159              		.cfi_def_cfa 2, 16
 160 00e0 13010101 		addi	sp,sp,16
 161              		.cfi_def_cfa_offset 0
 162 00e4 67800000 		jr	ra
 163              		.cfi_endproc
 164              	.LFE29:
 166              		.align	2
 167              		.globl	_ZN3TCB13_threadCreateEPPS_PFvPvES2_S2_
 169              	_ZN3TCB13_threadCreateEPPS_PFvPvES2_S2_:
 170              	.LFB25:
  29:src/thread.cpp ****     Context context = {
 171              		.loc 1 29 93 is_stmt 1
 172              		.cfi_startproc
 173              	.LVL11:
 174 00e8 130101FA 		addi	sp,sp,-96
 175              		.cfi_def_cfa_offset 96
 176 00ec 233C1104 		sd	ra,88(sp)
 177 00f0 23388104 		sd	s0,80(sp)
 178 00f4 23349104 		sd	s1,72(sp)
 179 00f8 23302105 		sd	s2,64(sp)
 180 00fc 233C3103 		sd	s3,56(sp)
 181 0100 23384103 		sd	s4,48(sp)
 182 0104 23345103 		sd	s5,40(sp)
 183              		.cfi_offset 1, -8
 184              		.cfi_offset 8, -16
 185              		.cfi_offset 9, -24
 186              		.cfi_offset 18, -32
 187              		.cfi_offset 19, -40
 188              		.cfi_offset 20, -48
 189              		.cfi_offset 21, -56
 190 0108 13040106 		addi	s0,sp,96
 191              		.cfi_def_cfa 8, 0
 192 010c 13090500 		mv	s2,a0
 193 0110 93840500 		mv	s1,a1
 194 0114 930A0600 		mv	s5,a2
 195 0118 93890600 		mv	s3,a3
  30:src/thread.cpp **** 
 196              		.loc 1 30 5
  30:src/thread.cpp **** 
 197              		.loc 1 30 13 is_stmt 0
 198 011c 97070000 		lla	a5,_ZN3TCB7wrapperEv
 198      93870700 
 199 0124 2330F4FA 		sd	a5,-96(s0)
  36:src/thread.cpp **** 
 200              		.loc 1 36 32
 201 0128 63840508 		beqz	a1,.L10
  36:src/thread.cpp **** 
GAS LISTING /tmp/ccG5ndPl.s 			page 6


 202              		.loc 1 36 67 discriminator 1
 203 012c B7170000 		li	a5,4096
 204 0130 B387F600 		add	a5,a3,a5
 205              	.L8:
  39:src/thread.cpp ****     *handle = new TCB (routine, args, stack_space, context);
 206              		.loc 1 39 5
 207 0134 2334F4FA 		sd	a5,-88(s0)
  40:src/thread.cpp ****     if (routine) Scheduler::put(*handle);
 208              		.loc 1 40 5 is_stmt 1
  40:src/thread.cpp ****     if (routine) Scheduler::put(*handle);
 209              		.loc 1 40 13 is_stmt 0
 210 0138 033704FA 		ld	a4,-96(s0)
 211 013c 2338E4FA 		sd	a4,-80(s0)
 212 0140 233CF4FA 		sd	a5,-72(s0)
  40:src/thread.cpp ****     if (routine) Scheduler::put(*handle);
 213              		.loc 1 40 59
 214 0144 13058005 		li	a0,88
 215              	.LVL12:
 216 0148 97000000 		call	_ZN3TCBnwEm
 216      E7800000 
 217              	.LVL13:
 218 0150 130A0500 		mv	s4,a0
 219 0154 033704FB 		ld	a4,-80(s0)
 220 0158 833784FB 		ld	a5,-72(s0)
 221 015c 93860900 		mv	a3,s3
 222 0160 13860A00 		mv	a2,s5
 223 0164 93850400 		mv	a1,s1
 224 0168 97000000 		call	_ZN3TCBC1EPFvPvES0_S0_NS_7ContextE
 224      E7800000 
 225              	.LVL14:
  40:src/thread.cpp ****     if (routine) Scheduler::put(*handle);
 226              		.loc 1 40 13
 227 0170 23304901 		sd	s4,0(s2)
  41:src/thread.cpp ****     return (*handle)->id;
 228              		.loc 1 41 5 is_stmt 1
 229 0174 63880400 		beqz	s1,.L9
  41:src/thread.cpp ****     return (*handle)->id;
 230              		.loc 1 41 18 discriminator 1
  41:src/thread.cpp ****     return (*handle)->id;
 231              		.loc 1 41 32 is_stmt 0 discriminator 1
 232 0178 13050A00 		mv	a0,s4
 233 017c 97000000 		call	_ZN9Scheduler3putEP3TCB@plt
 233      E7800000 
 234              	.LVL15:
 235              	.L9:
  42:src/thread.cpp **** }
 236              		.loc 1 42 5 is_stmt 1
  42:src/thread.cpp **** }
 237              		.loc 1 42 13 is_stmt 0
 238 0184 83370900 		ld	a5,0(s2)
  43:src/thread.cpp **** 
 239              		.loc 1 43 1
 240 0188 03A50700 		lw	a0,0(a5)
 241 018c 83308105 		ld	ra,88(sp)
 242              		.cfi_remember_state
 243              		.cfi_restore 1
 244 0190 03340105 		ld	s0,80(sp)
GAS LISTING /tmp/ccG5ndPl.s 			page 7


 245              		.cfi_restore 8
 246              		.cfi_def_cfa 2, 96
 247 0194 83348104 		ld	s1,72(sp)
 248              		.cfi_restore 9
 249              	.LVL16:
 250 0198 03390104 		ld	s2,64(sp)
 251              		.cfi_restore 18
 252              	.LVL17:
 253 019c 83398103 		ld	s3,56(sp)
 254              		.cfi_restore 19
 255              	.LVL18:
 256 01a0 033A0103 		ld	s4,48(sp)
 257              		.cfi_restore 20
 258 01a4 833A8102 		ld	s5,40(sp)
 259              		.cfi_restore 21
 260              	.LVL19:
 261 01a8 13010106 		addi	sp,sp,96
 262              		.cfi_def_cfa_offset 0
 263 01ac 67800000 		jr	ra
 264              	.LVL20:
 265              	.L10:
 266              		.cfi_restore_state
  36:src/thread.cpp **** 
 267              		.loc 1 36 32
 268 01b0 93070000 		li	a5,0
 269 01b4 6FF01FF8 		j	.L8
 270              		.cfi_endproc
 271              	.LFE25:
 273              		.align	2
 274              		.globl	_ZN3TCBdlEPv
 276              	_ZN3TCBdlEPv:
 277              	.LFB30:
  81:src/thread.cpp **** 
  82:src/thread.cpp **** void TCB::operator delete(void *ptr) {
 278              		.loc 1 82 38 is_stmt 1
 279              		.cfi_startproc
 280              	.LVL21:
 281 01b8 130101FF 		addi	sp,sp,-16
 282              		.cfi_def_cfa_offset 16
 283 01bc 23341100 		sd	ra,8(sp)
 284 01c0 23308100 		sd	s0,0(sp)
 285              		.cfi_offset 1, -8
 286              		.cfi_offset 8, -16
 287 01c4 13040101 		addi	s0,sp,16
 288              		.cfi_def_cfa 8, 0
  83:src/thread.cpp ****     MemoryAllocator::mem_free(ptr);
 289              		.loc 1 83 5
 290              		.loc 1 83 30 is_stmt 0
 291 01c8 97000000 		call	_ZN15MemoryAllocator8mem_freeEPKv@plt
 291      E7800000 
 292              	.LVL22:
  84:src/thread.cpp **** }
 293              		.loc 1 84 1
 294 01d0 83308100 		ld	ra,8(sp)
 295              		.cfi_restore 1
 296 01d4 03340100 		ld	s0,0(sp)
 297              		.cfi_restore 8
GAS LISTING /tmp/ccG5ndPl.s 			page 8


 298              		.cfi_def_cfa 2, 16
 299 01d8 13010101 		addi	sp,sp,16
 300              		.cfi_def_cfa_offset 0
 301 01dc 67800000 		jr	ra
 302              		.cfi_endproc
 303              	.LFE30:
 305              		.align	2
 306              		.globl	_ZN3TCB5startEv
 308              	_ZN3TCB5startEv:
 309              	.LFB31:
  85:src/thread.cpp **** 
  86:src/thread.cpp **** void TCB::start() {
 310              		.loc 1 86 19 is_stmt 1
 311              		.cfi_startproc
 312              	.LVL23:
 313 01e0 130101FF 		addi	sp,sp,-16
 314              		.cfi_def_cfa_offset 16
 315 01e4 23341100 		sd	ra,8(sp)
 316 01e8 23308100 		sd	s0,0(sp)
 317              		.cfi_offset 1, -8
 318              		.cfi_offset 8, -16
 319 01ec 13040101 		addi	s0,sp,16
 320              		.cfi_def_cfa 8, 0
  87:src/thread.cpp ****     /// ...
  88:src/thread.cpp ****     Scheduler::put(this);
 321              		.loc 1 88 5
 322              		.loc 1 88 19 is_stmt 0
 323 01f0 97000000 		call	_ZN9Scheduler3putEP3TCB@plt
 323      E7800000 
 324              	.LVL24:
  89:src/thread.cpp **** }
 325              		.loc 1 89 1
 326 01f8 83308100 		ld	ra,8(sp)
 327              		.cfi_restore 1
 328 01fc 03340100 		ld	s0,0(sp)
 329              		.cfi_restore 8
 330              		.cfi_def_cfa 2, 16
 331 0200 13010101 		addi	sp,sp,16
 332              		.cfi_def_cfa_offset 0
 333 0204 67800000 		jr	ra
 334              		.cfi_endproc
 335              	.LFE31:
 337              		.align	2
 338              		.globl	_ZN3TCB10isRunnableEv
 340              	_ZN3TCB10isRunnableEv:
 341              	.LFB32:
  90:src/thread.cpp **** 
  91:src/thread.cpp **** bool TCB::isRunnable() {
 342              		.loc 1 91 24 is_stmt 1
 343              		.cfi_startproc
 344 0208 130101FF 		addi	sp,sp,-16
 345              		.cfi_def_cfa_offset 16
 346 020c 23348100 		sd	s0,8(sp)
 347              		.cfi_offset 8, -8
 348 0210 13040101 		addi	s0,sp,16
 349              		.cfi_def_cfa 8, 0
  92:src/thread.cpp ****     return running->current_state != BLOCKED &&
GAS LISTING /tmp/ccG5ndPl.s 			page 9


 350              		.loc 1 92 5
 351              		.loc 1 92 46 is_stmt 0
 352 0214 97070000 		ld	a5,.LANCHOR0+8
 352      83B70700 
 353              		.loc 1 92 21
 354 021c 83A70705 		lw	a5,80(a5)
 355              		.loc 1 92 46
 356 0220 9B86D7FF 		addiw	a3,a5,-3
  93:src/thread.cpp ****            running->current_state != FINISHED &&
 357              		.loc 1 93 47
 358 0224 13071000 		li	a4,1
 359 0228 637CD700 		bleu	a3,a4,.L18
 360              		.loc 1 93 47 discriminator 1
 361 022c 6386E700 		beq	a5,a4,.L21
 362              		.loc 1 93 47
 363 0230 13051000 		li	a0,1
 364 0234 6F000001 		j	.L17
 365              	.L21:
 366 0238 13050000 		li	a0,0
 367 023c 6F008000 		j	.L17
 368              	.L18:
 369 0240 13050000 		li	a0,0
 370              	.L17:
  94:src/thread.cpp ****            running->current_state != SLEEPING;
  95:src/thread.cpp **** }
 371              		.loc 1 95 1
 372 0244 03348100 		ld	s0,8(sp)
 373              		.cfi_restore 8
 374              		.cfi_def_cfa 2, 16
 375 0248 13010101 		addi	sp,sp,16
 376              		.cfi_def_cfa_offset 0
 377 024c 67800000 		jr	ra
 378              		.cfi_endproc
 379              	.LFE32:
 381              		.align	2
 382              		.globl	_ZN3TCB8dispatchEv
 384              	_ZN3TCB8dispatchEv:
 385              	.LFB28:
  68:src/thread.cpp **** 
 386              		.loc 1 68 22 is_stmt 1
 387              		.cfi_startproc
 388 0250 130101FE 		addi	sp,sp,-32
 389              		.cfi_def_cfa_offset 32
 390 0254 233C1100 		sd	ra,24(sp)
 391 0258 23388100 		sd	s0,16(sp)
 392 025c 23349100 		sd	s1,8(sp)
 393              		.cfi_offset 1, -8
 394              		.cfi_offset 8, -16
 395              		.cfi_offset 9, -24
 396 0260 13040102 		addi	s0,sp,32
 397              		.cfi_def_cfa 8, 0
  70:src/thread.cpp ****     if ( isRunnable() ) Scheduler::put(oldRunning);
 398              		.loc 1 70 5
  70:src/thread.cpp ****     if ( isRunnable() ) Scheduler::put(oldRunning);
 399              		.loc 1 70 10 is_stmt 0
 400 0264 97040000 		ld	s1,.LANCHOR0+8
 400      83B40400 
GAS LISTING /tmp/ccG5ndPl.s 			page 10


 401              	.LVL25:
  71:src/thread.cpp ****     running = Scheduler::get();
 402              		.loc 1 71 5 is_stmt 1
  71:src/thread.cpp ****     running = Scheduler::get();
 403              		.loc 1 71 20 is_stmt 0
 404 026c 97000000 		call	_ZN3TCB10isRunnableEv
 404      E7800000 
 405              	.LVL26:
  71:src/thread.cpp ****     running = Scheduler::get();
 406              		.loc 1 71 5
 407 0274 631E0502 		bnez	a0,.L26
 408              	.L23:
  72:src/thread.cpp ****     if (running != oldRunning) yield(oldRunning, running);
 409              		.loc 1 72 5 is_stmt 1
  72:src/thread.cpp ****     if (running != oldRunning) yield(oldRunning, running);
 410              		.loc 1 72 29 is_stmt 0
 411 0278 97000000 		call	_ZN9Scheduler3getEv@plt
 411      E7800000 
 412              	.LVL27:
 413 0280 93050500 		mv	a1,a0
  72:src/thread.cpp ****     if (running != oldRunning) yield(oldRunning, running);
 414              		.loc 1 72 13
 415 0284 97070000 		sd	a0,.LANCHOR0+8,a5
 415      23B0A700 
  73:src/thread.cpp **** }
 416              		.loc 1 73 5 is_stmt 1
 417 028c 6388A400 		beq	s1,a0,.L22
  73:src/thread.cpp **** }
 418              		.loc 1 73 32 discriminator 1
  73:src/thread.cpp **** }
 419              		.loc 1 73 37 is_stmt 0 discriminator 1
 420 0290 13850400 		mv	a0,s1
 421 0294 97000000 		call	_ZN3TCB5yieldEPS_S0_
 421      E7800000 
 422              	.LVL28:
 423              	.L22:
  74:src/thread.cpp **** 
 424              		.loc 1 74 1
 425 029c 83308101 		ld	ra,24(sp)
 426              		.cfi_remember_state
 427              		.cfi_restore 1
 428 02a0 03340101 		ld	s0,16(sp)
 429              		.cfi_restore 8
 430              		.cfi_def_cfa 2, 32
 431 02a4 83348100 		ld	s1,8(sp)
 432              		.cfi_restore 9
 433              	.LVL29:
 434 02a8 13010102 		addi	sp,sp,32
 435              		.cfi_def_cfa_offset 0
 436 02ac 67800000 		jr	ra
 437              	.LVL30:
 438              	.L26:
 439              		.cfi_restore_state
  71:src/thread.cpp ****     running = Scheduler::get();
 440              		.loc 1 71 25 is_stmt 1 discriminator 1
  71:src/thread.cpp ****     running = Scheduler::get();
 441              		.loc 1 71 39 is_stmt 0 discriminator 1
GAS LISTING /tmp/ccG5ndPl.s 			page 11


 442 02b0 13850400 		mv	a0,s1
 443 02b4 97000000 		call	_ZN9Scheduler3putEP3TCB@plt
 443      E7800000 
 444              	.LVL31:
 445 02bc 6FF0DFFB 		j	.L23
 446              		.cfi_endproc
 447              	.LFE28:
 449              		.align	2
 450              		.globl	_ZN3TCB7wrapperEv
 452              	_ZN3TCB7wrapperEv:
 453              	.LFB26:
  45:src/thread.cpp **** 
 454              		.loc 1 45 21 is_stmt 1
 455              		.cfi_startproc
 456 02c0 130101FE 		addi	sp,sp,-32
 457              		.cfi_def_cfa_offset 32
 458 02c4 233C1100 		sd	ra,24(sp)
 459 02c8 23388100 		sd	s0,16(sp)
 460 02cc 23349100 		sd	s1,8(sp)
 461              		.cfi_offset 1, -8
 462              		.cfi_offset 8, -16
 463              		.cfi_offset 9, -24
 464 02d0 13040102 		addi	s0,sp,32
 465              		.cfi_def_cfa 8, 0
  50:src/thread.cpp ****     running->routine(running->args);
 466              		.loc 1 50 5
  50:src/thread.cpp ****     running->routine(running->args);
 467              		.loc 1 50 22 is_stmt 0
 468 02d4 97000000 		call	_ZN5RISCV10popSppSpieEv@plt
 468      E7800000 
 469              	.LVL32:
  51:src/thread.cpp **** 
 470              		.loc 1 51 5 is_stmt 1
  51:src/thread.cpp **** 
 471              		.loc 1 51 14 is_stmt 0
 472 02dc 97040000 		lla	s1,.LANCHOR0
 472      93840400 
 473 02e4 83B78400 		ld	a5,8(s1)
 474 02e8 03B78702 		ld	a4,40(a5)
  51:src/thread.cpp **** 
 475              		.loc 1 51 21
 476 02ec 03B58703 		ld	a0,56(a5)
 477 02f0 E7000700 		jalr	a4
 478              	.LVL33:
  53:src/thread.cpp ****     dispatch();
 479              		.loc 1 53 5 is_stmt 1
  53:src/thread.cpp ****     dispatch();
 480              		.loc 1 53 20 is_stmt 0
 481 02f4 83B78400 		ld	a5,8(s1)
 482              	.LVL34:
 483              	.LBB5:
 484              	.LBB6:
 485              		.file 2 "src/../h/thread.hpp"
   1:src/../h/thread.hpp **** //
   2:src/../h/thread.hpp **** // Created by os on 4/9/24.
   3:src/../h/thread.hpp **** //
   4:src/../h/thread.hpp **** 
GAS LISTING /tmp/ccG5ndPl.s 			page 12


   5:src/../h/thread.hpp **** #ifndef PROJECT_BASE_THREAD_HPP
   6:src/../h/thread.hpp **** #define PROJECT_BASE_THREAD_HPP
   7:src/../h/thread.hpp **** 
   8:src/../h/thread.hpp **** #include "../lib/hw.h"
   9:src/../h/thread.hpp **** #include "../h/Memoryallocator.hpp"
  10:src/../h/thread.hpp **** #include "../h/riscv.hpp"
  11:src/../h/thread.hpp **** 
  12:src/../h/thread.hpp **** using routine_ptr = void(*)(void *);
  13:src/../h/thread.hpp **** 
  14:src/../h/thread.hpp **** // _thread je wrapper ove klase
  15:src/../h/thread.hpp **** class TCB final {
  16:src/../h/thread.hpp **** 
  17:src/../h/thread.hpp **** friend class RISCV;
  18:src/../h/thread.hpp **** 
  19:src/../h/thread.hpp **** public:
  20:src/../h/thread.hpp **** 
  21:src/../h/thread.hpp ****     enum state {
  22:src/../h/thread.hpp ****         RUNNABLE,
  23:src/../h/thread.hpp ****         SLEEPING,
  24:src/../h/thread.hpp ****         JOINED,
  25:src/../h/thread.hpp ****         FINISHED,
  26:src/../h/thread.hpp ****         BLOCKED
  27:src/../h/thread.hpp ****     };
  28:src/../h/thread.hpp **** 
  29:src/../h/thread.hpp ****      struct Context {
  30:src/../h/thread.hpp ****         // nadogradi kasnije
  31:src/../h/thread.hpp ****         uint64 pc;
  32:src/../h/thread.hpp ****         uint64 sp;
  33:src/../h/thread.hpp ****     };
  34:src/../h/thread.hpp **** 
  35:src/../h/thread.hpp ****      void start();
  36:src/../h/thread.hpp **** 
  37:src/../h/thread.hpp ****     static int _threadCreate(TCB** handle, routine_ptr routine, void* args, void* stack_space);
  38:src/../h/thread.hpp **** 
  39:src/../h/thread.hpp ****     static void yield(TCB*, TCB*);
  40:src/../h/thread.hpp **** 
  41:src/../h/thread.hpp ****     static void dispatch();
  42:src/../h/thread.hpp **** 
  43:src/../h/thread.hpp ****     static TCB* running; // tekuca nit
  44:src/../h/thread.hpp ****     state getState() {return current_state;}
  45:src/../h/thread.hpp ****     time_t getTimeSlice() const {return time_slice;}
  46:src/../h/thread.hpp ****     static bool isRunnable();
  47:src/../h/thread.hpp ****     bool isFinished() {return current_state == state::FINISHED;}
  48:src/../h/thread.hpp ****     void finish() { current_state = state::FINISHED; }
 486              		.loc 2 48 21 is_stmt 1
 487              		.loc 2 48 35 is_stmt 0
 488 02f8 13073000 		li	a4,3
 489 02fc 23A8E704 		sw	a4,80(a5)
 490              	.LVL35:
 491              	.LBE6:
 492              	.LBE5:
  54:src/thread.cpp ****     // thread exit syscall ili yield?
 493              		.loc 1 54 5 is_stmt 1
  54:src/thread.cpp ****     // thread exit syscall ili yield?
 494              		.loc 1 54 13 is_stmt 0
 495 0300 97000000 		call	_ZN3TCB8dispatchEv
 495      E7800000 
GAS LISTING /tmp/ccG5ndPl.s 			page 13


 496              	.LVL36:
  56:src/thread.cpp **** 
 497              		.loc 1 56 1
 498 0308 83308101 		ld	ra,24(sp)
 499              		.cfi_restore 1
 500 030c 03340101 		ld	s0,16(sp)
 501              		.cfi_restore 8
 502              		.cfi_def_cfa 2, 32
 503 0310 83348100 		ld	s1,8(sp)
 504              		.cfi_restore 9
 505 0314 13010102 		addi	sp,sp,32
 506              		.cfi_def_cfa_offset 0
 507 0318 67800000 		jr	ra
 508              		.cfi_endproc
 509              	.LFE26:
 511              		.globl	_ZN3TCB16time_slice_countE
 512              		.globl	_ZN3TCB7runningE
 513              		.globl	_ZN3TCB8id_countE
 514              		.bss
 515              		.align	3
 516              		.set	.LANCHOR0,. + 0
 519              	_ZN3TCB8id_countE:
 520 0000 00000000 		.zero	4
 521 0004 00000000 		.zero	4
 524              	_ZN3TCB7runningE:
 525 0008 00000000 		.zero	8
 525      00000000 
 528              	_ZN3TCB16time_slice_countE:
 529 0010 00000000 		.zero	8
 529      00000000 
 530              		.text
 531              	.Letext0:
 532              		.file 3 "src/../h/../lib/hw.h"
 533              		.file 4 "src/../h/../h/Memoryallocator.hpp"
 534              		.file 5 "src/../h/../h/riscv.hpp"
 535              		.file 6 "src/../h/Scheduler.hpp"
GAS LISTING /tmp/ccG5ndPl.s 			page 14


DEFINED SYMBOLS
                            *ABS*:0000000000000000 thread.cpp
     /tmp/ccG5ndPl.s:9      .text:0000000000000000 _ZN3TCBC2EPFvPvES0_S0_NS_7ContextE
     /tmp/ccG5ndPl.s:13     .text:0000000000000000 .L0 
     /tmp/ccG5ndPl.s:15     .text:0000000000000000 .L0 
     /tmp/ccG5ndPl.s:16     .text:0000000000000004 .L0 
     /tmp/ccG5ndPl.s:18     .text:0000000000000008 .L0 
     /tmp/ccG5ndPl.s:20     .text:000000000000000c .L0 
     /tmp/ccG5ndPl.s:23     .text:000000000000000c .L0 
     /tmp/ccG5ndPl.s:25     .text:0000000000000010 .L0 
     /tmp/ccG5ndPl.s:26     .text:0000000000000010 .L0 
     /tmp/ccG5ndPl.s:31     .text:0000000000000024 .L0 
     /tmp/ccG5ndPl.s:33     .text:0000000000000028 .L0 
     /tmp/ccG5ndPl.s:34     .text:0000000000000028 .L0 
     /tmp/ccG5ndPl.s:36     .text:000000000000002c .L0 
     /tmp/ccG5ndPl.s:37     .text:000000000000002c .L0 
     /tmp/ccG5ndPl.s:39     .text:0000000000000030 .L0 
     /tmp/ccG5ndPl.s:40     .text:0000000000000030 .L0 
     /tmp/ccG5ndPl.s:42     .text:0000000000000034 .L0 
     /tmp/ccG5ndPl.s:43     .text:0000000000000034 .L0 
     /tmp/ccG5ndPl.s:46     .text:000000000000003c .L0 
     /tmp/ccG5ndPl.s:47     .text:000000000000003c .L0 
     /tmp/ccG5ndPl.s:49     .text:0000000000000040 .L0 
     /tmp/ccG5ndPl.s:50     .text:0000000000000040 .L0 
     /tmp/ccG5ndPl.s:52     .text:0000000000000044 .L0 
     /tmp/ccG5ndPl.s:53     .text:0000000000000044 .L0 
     /tmp/ccG5ndPl.s:55     .text:0000000000000048 .L0 
     /tmp/ccG5ndPl.s:56     .text:0000000000000048 .L0 
     /tmp/ccG5ndPl.s:58     .text:000000000000004c .L0 
     /tmp/ccG5ndPl.s:59     .text:000000000000004c .L0 
     /tmp/ccG5ndPl.s:63     .text:0000000000000054 .L0 
     /tmp/ccG5ndPl.s:64     .text:0000000000000058 .L0 
     /tmp/ccG5ndPl.s:65     .text:0000000000000058 .L0 
     /tmp/ccG5ndPl.s:67     .text:000000000000005c .L0 
     /tmp/ccG5ndPl.s:69     .text:0000000000000060 .L0 
     /tmp/ccG5ndPl.s:9      .text:0000000000000000 _ZN3TCBC1EPFvPvES0_S0_NS_7ContextE
     /tmp/ccG5ndPl.s:77     .text:0000000000000060 _ZN3TCB5yieldEPS_S0_
     /tmp/ccG5ndPl.s:80     .text:0000000000000060 .L0 
     /tmp/ccG5ndPl.s:82     .text:0000000000000060 .L0 
     /tmp/ccG5ndPl.s:83     .text:0000000000000064 .L0 
     /tmp/ccG5ndPl.s:88     .text:0000000000000074 .L0 
     /tmp/ccG5ndPl.s:89     .text:0000000000000074 .L0 
     /tmp/ccG5ndPl.s:90     .text:0000000000000074 .L0 
     /tmp/ccG5ndPl.s:91     .text:0000000000000074 .L0 
     /tmp/ccG5ndPl.s:93     .text:0000000000000078 .L0 
     /tmp/ccG5ndPl.s:97     .text:0000000000000080 .L0 
     /tmp/ccG5ndPl.s:98     .text:0000000000000080 .L0 
     /tmp/ccG5ndPl.s:101    .text:0000000000000088 .L0 
     /tmp/ccG5ndPl.s:102    .text:0000000000000088 .L0 
     /tmp/ccG5ndPl.s:107    .text:0000000000000098 .L0 
     /tmp/ccG5ndPl.s:108    .text:0000000000000098 .L0 
     /tmp/ccG5ndPl.s:111    .text:00000000000000a0 .L0 
     /tmp/ccG5ndPl.s:112    .text:00000000000000a4 .L0 
     /tmp/ccG5ndPl.s:114    .text:00000000000000a8 .L0 
     /tmp/ccG5ndPl.s:115    .text:00000000000000a8 .L0 
     /tmp/ccG5ndPl.s:117    .text:00000000000000ac .L0 
     /tmp/ccG5ndPl.s:120    .text:00000000000000b0 .L0 
GAS LISTING /tmp/ccG5ndPl.s 			page 15


     /tmp/ccG5ndPl.s:123    .text:00000000000000b4 .L0 
     /tmp/ccG5ndPl.s:125    .text:00000000000000b8 .L0 
     /tmp/ccG5ndPl.s:131    .text:00000000000000b8 _ZN3TCBnwEm
     /tmp/ccG5ndPl.s:134    .text:00000000000000b8 .L0 
     /tmp/ccG5ndPl.s:136    .text:00000000000000b8 .L0 
     /tmp/ccG5ndPl.s:137    .text:00000000000000bc .L0 
     /tmp/ccG5ndPl.s:140    .text:00000000000000c4 .L0 
     /tmp/ccG5ndPl.s:141    .text:00000000000000c4 .L0 
     /tmp/ccG5ndPl.s:143    .text:00000000000000c8 .L0 
     /tmp/ccG5ndPl.s:145    .text:00000000000000c8 .L0 
     /tmp/ccG5ndPl.s:146    .text:00000000000000c8 .L0 
     /tmp/ccG5ndPl.s:149    .text:00000000000000cc .L0 
     /tmp/ccG5ndPl.s:150    .text:00000000000000cc .L0 
     /tmp/ccG5ndPl.s:155    .text:00000000000000d8 .L0 
     /tmp/ccG5ndPl.s:156    .text:00000000000000dc .L0 
     /tmp/ccG5ndPl.s:158    .text:00000000000000e0 .L0 
     /tmp/ccG5ndPl.s:159    .text:00000000000000e0 .L0 
     /tmp/ccG5ndPl.s:161    .text:00000000000000e4 .L0 
     /tmp/ccG5ndPl.s:163    .text:00000000000000e8 .L0 
     /tmp/ccG5ndPl.s:169    .text:00000000000000e8 _ZN3TCB13_threadCreateEPPS_PFvPvES2_S2_
     /tmp/ccG5ndPl.s:172    .text:00000000000000e8 .L0 
     /tmp/ccG5ndPl.s:174    .text:00000000000000e8 .L0 
     /tmp/ccG5ndPl.s:175    .text:00000000000000ec .L0 
     /tmp/ccG5ndPl.s:183    .text:0000000000000108 .L0 
     /tmp/ccG5ndPl.s:184    .text:0000000000000108 .L0 
     /tmp/ccG5ndPl.s:185    .text:0000000000000108 .L0 
     /tmp/ccG5ndPl.s:186    .text:0000000000000108 .L0 
     /tmp/ccG5ndPl.s:187    .text:0000000000000108 .L0 
     /tmp/ccG5ndPl.s:188    .text:0000000000000108 .L0 
     /tmp/ccG5ndPl.s:189    .text:0000000000000108 .L0 
     /tmp/ccG5ndPl.s:191    .text:000000000000010c .L0 
     /tmp/ccG5ndPl.s:197    .text:000000000000011c .L0 
     /tmp/ccG5ndPl.s:452    .text:00000000000002c0 _ZN3TCB7wrapperEv
     /tmp/ccG5ndPl.s:198    .text:000000000000011c .L0 
     /tmp/ccG5ndPl.s:201    .text:0000000000000128 .L0 
     /tmp/ccG5ndPl.s:203    .text:000000000000012c .L0 
     /tmp/ccG5ndPl.s:207    .text:0000000000000134 .L0 
     /tmp/ccG5ndPl.s:209    .text:0000000000000138 .L0 
     /tmp/ccG5ndPl.s:210    .text:0000000000000138 .L0 
     /tmp/ccG5ndPl.s:214    .text:0000000000000144 .L0 
     /tmp/ccG5ndPl.s:227    .text:0000000000000170 .L0 
     /tmp/ccG5ndPl.s:229    .text:0000000000000174 .L0 
     /tmp/ccG5ndPl.s:231    .text:0000000000000178 .L0 
     /tmp/ccG5ndPl.s:232    .text:0000000000000178 .L0 
     /tmp/ccG5ndPl.s:237    .text:0000000000000184 .L0 
     /tmp/ccG5ndPl.s:238    .text:0000000000000184 .L0 
     /tmp/ccG5ndPl.s:240    .text:0000000000000188 .L0 
     /tmp/ccG5ndPl.s:242    .text:0000000000000190 .L0 
     /tmp/ccG5ndPl.s:243    .text:0000000000000190 .L0 
     /tmp/ccG5ndPl.s:245    .text:0000000000000194 .L0 
     /tmp/ccG5ndPl.s:246    .text:0000000000000194 .L0 
     /tmp/ccG5ndPl.s:248    .text:0000000000000198 .L0 
     /tmp/ccG5ndPl.s:251    .text:000000000000019c .L0 
     /tmp/ccG5ndPl.s:254    .text:00000000000001a0 .L0 
     /tmp/ccG5ndPl.s:257    .text:00000000000001a4 .L0 
     /tmp/ccG5ndPl.s:259    .text:00000000000001a8 .L0 
     /tmp/ccG5ndPl.s:262    .text:00000000000001ac .L0 
GAS LISTING /tmp/ccG5ndPl.s 			page 16


     /tmp/ccG5ndPl.s:266    .text:00000000000001b0 .L0 
     /tmp/ccG5ndPl.s:268    .text:00000000000001b0 .L0 
     /tmp/ccG5ndPl.s:270    .text:00000000000001b8 .L0 
     /tmp/ccG5ndPl.s:276    .text:00000000000001b8 _ZN3TCBdlEPv
     /tmp/ccG5ndPl.s:279    .text:00000000000001b8 .L0 
     /tmp/ccG5ndPl.s:281    .text:00000000000001b8 .L0 
     /tmp/ccG5ndPl.s:282    .text:00000000000001bc .L0 
     /tmp/ccG5ndPl.s:285    .text:00000000000001c4 .L0 
     /tmp/ccG5ndPl.s:286    .text:00000000000001c4 .L0 
     /tmp/ccG5ndPl.s:288    .text:00000000000001c8 .L0 
     /tmp/ccG5ndPl.s:290    .text:00000000000001c8 .L0 
     /tmp/ccG5ndPl.s:291    .text:00000000000001c8 .L0 
     /tmp/ccG5ndPl.s:294    .text:00000000000001d0 .L0 
     /tmp/ccG5ndPl.s:295    .text:00000000000001d4 .L0 
     /tmp/ccG5ndPl.s:297    .text:00000000000001d8 .L0 
     /tmp/ccG5ndPl.s:298    .text:00000000000001d8 .L0 
     /tmp/ccG5ndPl.s:300    .text:00000000000001dc .L0 
     /tmp/ccG5ndPl.s:302    .text:00000000000001e0 .L0 
     /tmp/ccG5ndPl.s:308    .text:00000000000001e0 _ZN3TCB5startEv
     /tmp/ccG5ndPl.s:311    .text:00000000000001e0 .L0 
     /tmp/ccG5ndPl.s:313    .text:00000000000001e0 .L0 
     /tmp/ccG5ndPl.s:314    .text:00000000000001e4 .L0 
     /tmp/ccG5ndPl.s:317    .text:00000000000001ec .L0 
     /tmp/ccG5ndPl.s:318    .text:00000000000001ec .L0 
     /tmp/ccG5ndPl.s:320    .text:00000000000001f0 .L0 
     /tmp/ccG5ndPl.s:322    .text:00000000000001f0 .L0 
     /tmp/ccG5ndPl.s:323    .text:00000000000001f0 .L0 
     /tmp/ccG5ndPl.s:326    .text:00000000000001f8 .L0 
     /tmp/ccG5ndPl.s:327    .text:00000000000001fc .L0 
     /tmp/ccG5ndPl.s:329    .text:0000000000000200 .L0 
     /tmp/ccG5ndPl.s:330    .text:0000000000000200 .L0 
     /tmp/ccG5ndPl.s:332    .text:0000000000000204 .L0 
     /tmp/ccG5ndPl.s:334    .text:0000000000000208 .L0 
     /tmp/ccG5ndPl.s:340    .text:0000000000000208 _ZN3TCB10isRunnableEv
     /tmp/ccG5ndPl.s:343    .text:0000000000000208 .L0 
     /tmp/ccG5ndPl.s:344    .text:0000000000000208 .L0 
     /tmp/ccG5ndPl.s:345    .text:000000000000020c .L0 
     /tmp/ccG5ndPl.s:347    .text:0000000000000210 .L0 
     /tmp/ccG5ndPl.s:349    .text:0000000000000214 .L0 
     /tmp/ccG5ndPl.s:351    .text:0000000000000214 .L0 
     /tmp/ccG5ndPl.s:352    .text:0000000000000214 .L0 
     /tmp/ccG5ndPl.s:354    .text:000000000000021c .L0 
     /tmp/ccG5ndPl.s:356    .text:0000000000000220 .L0 
     /tmp/ccG5ndPl.s:358    .text:0000000000000224 .L0 
     /tmp/ccG5ndPl.s:361    .text:000000000000022c .L0 
     /tmp/ccG5ndPl.s:363    .text:0000000000000230 .L0 
     /tmp/ccG5ndPl.s:372    .text:0000000000000244 .L0 
     /tmp/ccG5ndPl.s:373    .text:0000000000000248 .L0 
     /tmp/ccG5ndPl.s:374    .text:0000000000000248 .L0 
     /tmp/ccG5ndPl.s:376    .text:000000000000024c .L0 
     /tmp/ccG5ndPl.s:378    .text:0000000000000250 .L0 
     /tmp/ccG5ndPl.s:384    .text:0000000000000250 _ZN3TCB8dispatchEv
     /tmp/ccG5ndPl.s:387    .text:0000000000000250 .L0 
     /tmp/ccG5ndPl.s:388    .text:0000000000000250 .L0 
     /tmp/ccG5ndPl.s:389    .text:0000000000000254 .L0 
     /tmp/ccG5ndPl.s:393    .text:0000000000000260 .L0 
     /tmp/ccG5ndPl.s:394    .text:0000000000000260 .L0 
GAS LISTING /tmp/ccG5ndPl.s 			page 17


     /tmp/ccG5ndPl.s:395    .text:0000000000000260 .L0 
     /tmp/ccG5ndPl.s:397    .text:0000000000000264 .L0 
     /tmp/ccG5ndPl.s:399    .text:0000000000000264 .L0 
     /tmp/ccG5ndPl.s:400    .text:0000000000000264 .L0 
     /tmp/ccG5ndPl.s:403    .text:000000000000026c .L0 
     /tmp/ccG5ndPl.s:404    .text:000000000000026c .L0 
     /tmp/ccG5ndPl.s:407    .text:0000000000000274 .L0 
     /tmp/ccG5ndPl.s:410    .text:0000000000000278 .L0 
     /tmp/ccG5ndPl.s:411    .text:0000000000000278 .L0 
     /tmp/ccG5ndPl.s:415    .text:0000000000000284 .L0 
     /tmp/ccG5ndPl.s:417    .text:000000000000028c .L0 
     /tmp/ccG5ndPl.s:419    .text:0000000000000290 .L0 
     /tmp/ccG5ndPl.s:420    .text:0000000000000290 .L0 
     /tmp/ccG5ndPl.s:425    .text:000000000000029c .L0 
     /tmp/ccG5ndPl.s:426    .text:00000000000002a0 .L0 
     /tmp/ccG5ndPl.s:427    .text:00000000000002a0 .L0 
     /tmp/ccG5ndPl.s:429    .text:00000000000002a4 .L0 
     /tmp/ccG5ndPl.s:430    .text:00000000000002a4 .L0 
     /tmp/ccG5ndPl.s:432    .text:00000000000002a8 .L0 
     /tmp/ccG5ndPl.s:435    .text:00000000000002ac .L0 
     /tmp/ccG5ndPl.s:439    .text:00000000000002b0 .L0 
     /tmp/ccG5ndPl.s:441    .text:00000000000002b0 .L0 
     /tmp/ccG5ndPl.s:442    .text:00000000000002b0 .L0 
     /tmp/ccG5ndPl.s:446    .text:00000000000002c0 .L0 
     /tmp/ccG5ndPl.s:455    .text:00000000000002c0 .L0 
     /tmp/ccG5ndPl.s:456    .text:00000000000002c0 .L0 
     /tmp/ccG5ndPl.s:457    .text:00000000000002c4 .L0 
     /tmp/ccG5ndPl.s:461    .text:00000000000002d0 .L0 
     /tmp/ccG5ndPl.s:462    .text:00000000000002d0 .L0 
     /tmp/ccG5ndPl.s:463    .text:00000000000002d0 .L0 
     /tmp/ccG5ndPl.s:465    .text:00000000000002d4 .L0 
     /tmp/ccG5ndPl.s:467    .text:00000000000002d4 .L0 
     /tmp/ccG5ndPl.s:468    .text:00000000000002d4 .L0 
     /tmp/ccG5ndPl.s:471    .text:00000000000002dc .L0 
     /tmp/ccG5ndPl.s:472    .text:00000000000002dc .L0 
     /tmp/ccG5ndPl.s:476    .text:00000000000002ec .L0 
     /tmp/ccG5ndPl.s:480    .text:00000000000002f4 .L0 
     /tmp/ccG5ndPl.s:481    .text:00000000000002f4 .L0 
     /tmp/ccG5ndPl.s:487    .text:00000000000002f8 .L0 
     /tmp/ccG5ndPl.s:488    .text:00000000000002f8 .L0 
     /tmp/ccG5ndPl.s:494    .text:0000000000000300 .L0 
     /tmp/ccG5ndPl.s:495    .text:0000000000000300 .L0 
     /tmp/ccG5ndPl.s:498    .text:0000000000000308 .L0 
     /tmp/ccG5ndPl.s:499    .text:000000000000030c .L0 
     /tmp/ccG5ndPl.s:501    .text:0000000000000310 .L0 
     /tmp/ccG5ndPl.s:502    .text:0000000000000310 .L0 
     /tmp/ccG5ndPl.s:504    .text:0000000000000314 .L0 
     /tmp/ccG5ndPl.s:506    .text:0000000000000318 .L0 
     /tmp/ccG5ndPl.s:508    .text:000000000000031c .L0 
     /tmp/ccG5ndPl.s:528    .bss:0000000000000010 _ZN3TCB16time_slice_countE
     /tmp/ccG5ndPl.s:524    .bss:0000000000000008 _ZN3TCB7runningE
     /tmp/ccG5ndPl.s:519    .bss:0000000000000000 _ZN3TCB8id_countE
     /tmp/ccG5ndPl.s:516    .bss:0000000000000000 .LANCHOR0
     /tmp/ccG5ndPl.s:536    .text:000000000000031c .L0 
     /tmp/ccG5ndPl.s:26     .text:0000000000000010 .L0 
     /tmp/ccG5ndPl.s:198    .text:000000000000011c .L0 
     /tmp/ccG5ndPl.s:352    .text:0000000000000214 .L0 
GAS LISTING /tmp/ccG5ndPl.s 			page 18


     /tmp/ccG5ndPl.s:400    .text:0000000000000264 .L0 
     /tmp/ccG5ndPl.s:415    .text:0000000000000284 .L0 
     /tmp/ccG5ndPl.s:472    .text:00000000000002dc .L0 
     /tmp/ccG5ndPl.s:265    .text:00000000000001b0 .L10
     /tmp/ccG5ndPl.s:235    .text:0000000000000184 .L9
     /tmp/ccG5ndPl.s:205    .text:0000000000000134 .L8
     /tmp/ccG5ndPl.s:368    .text:0000000000000240 .L18
     /tmp/ccG5ndPl.s:365    .text:0000000000000238 .L21
     /tmp/ccG5ndPl.s:370    .text:0000000000000244 .L17
     /tmp/ccG5ndPl.s:438    .text:00000000000002b0 .L26
     /tmp/ccG5ndPl.s:423    .text:000000000000029c .L22
     /tmp/ccG5ndPl.s:408    .text:0000000000000278 .L23
     /tmp/ccG5ndPl.s:1921   .debug_abbrev:0000000000000000 .Ldebug_abbrev0
     /tmp/ccG5ndPl.s:3518   .debug_str:00000000000007d3 .LASF147
     /tmp/ccG5ndPl.s:3310   .debug_str:000000000000017f .LASF148
     /tmp/ccG5ndPl.s:3358   .debug_str:0000000000000303 .LASF149
     /tmp/ccG5ndPl.s:5      .text:0000000000000000 .Ltext0
     /tmp/ccG5ndPl.s:531    .text:000000000000031c .Letext0
     /tmp/ccG5ndPl.s:3262   .debug_line:0000000000000000 .Ldebug_line0
     /tmp/ccG5ndPl.s:3430   .debug_str:000000000000050f .LASF0
     /tmp/ccG5ndPl.s:3448   .debug_str:00000000000005b7 .LASF1
     /tmp/ccG5ndPl.s:3416   .debug_str:00000000000004c2 .LASF2
     /tmp/ccG5ndPl.s:3384   .debug_str:00000000000003e5 .LASF4
     /tmp/ccG5ndPl.s:3494   .debug_str:000000000000072a .LASF3
     /tmp/ccG5ndPl.s:3300   .debug_str:000000000000012c .LASF5
     /tmp/ccG5ndPl.s:3334   .debug_str:0000000000000250 .LASF6
     /tmp/ccG5ndPl.s:3452   .debug_str:00000000000005d1 .LASF7
     /tmp/ccG5ndPl.s:3428   .debug_str:00000000000004fc .LASF8
     /tmp/ccG5ndPl.s:3540   .debug_str:0000000000000948 .LASF9
     /tmp/ccG5ndPl.s:3368   .debug_str:0000000000000353 .LASF10
     /tmp/ccG5ndPl.s:3466   .debug_str:000000000000064c .LASF11
     /tmp/ccG5ndPl.s:3522   .debug_str:00000000000008ba .LASF12
     /tmp/ccG5ndPl.s:3304   .debug_str:0000000000000143 .LASF13
     /tmp/ccG5ndPl.s:3274   .debug_str:0000000000000037 .LASF14
     /tmp/ccG5ndPl.s:3322   .debug_str:00000000000001f5 .LASF15
     /tmp/ccG5ndPl.s:3486   .debug_str:00000000000006d7 .LASF16
     /tmp/ccG5ndPl.s:3328   .debug_str:0000000000000218 .LASF17
     /tmp/ccG5ndPl.s:3408   .debug_str:0000000000000489 .LASF21
     /tmp/ccG5ndPl.s:3418   .debug_str:00000000000004d0 .LASF82
     /tmp/ccG5ndPl.s:3570   .debug_str:0000000000000a0e .LASF18
     /tmp/ccG5ndPl.s:3554   .debug_str:000000000000099c .LASF19
     /tmp/ccG5ndPl.s:3514   .debug_str:00000000000007b6 .LASF20
     /tmp/ccG5ndPl.s:3338   .debug_str:000000000000025f .LASF22
     /tmp/ccG5ndPl.s:3436   .debug_str:0000000000000546 .LASF23
     /tmp/ccG5ndPl.s:3422   .debug_str:00000000000004e2 .LASF94
     /tmp/ccG5ndPl.s:3330   .debug_str:000000000000022e .LASF96
     /tmp/ccG5ndPl.s:3374   .debug_str:0000000000000384 .LASF24
     /tmp/ccG5ndPl.s:3414   .debug_str:00000000000004b4 .LASF25
     /tmp/ccG5ndPl.s:3348   .debug_str:00000000000002ab .LASF48
     /tmp/ccG5ndPl.s:3296   .debug_str:00000000000000e1 .LASF50
     /tmp/ccG5ndPl.s:3292   .debug_str:00000000000000d1 .LASF92
     /tmp/ccG5ndPl.s:3560   .debug_str:00000000000009af .LASF44
     /tmp/ccG5ndPl.s:3276   .debug_str:0000000000000047 .LASF46
     /tmp/ccG5ndPl.s:3498   .debug_str:0000000000000749 .LASF26
     /tmp/ccG5ndPl.s:3510   .debug_str:000000000000078d .LASF27
     /tmp/ccG5ndPl.s:3468   .debug_str:000000000000065b .LASF28
     /tmp/ccG5ndPl.s:3562   .debug_str:00000000000009bc .LASF29
GAS LISTING /tmp/ccG5ndPl.s 			page 19


     /tmp/ccG5ndPl.s:3426   .debug_str:00000000000004f6 .LASF32
     /tmp/ccG5ndPl.s:3372   .debug_str:0000000000000367 .LASF34
     /tmp/ccG5ndPl.s:3376   .debug_str:0000000000000392 .LASF30
     /tmp/ccG5ndPl.s:3370   .debug_str:0000000000000361 .LASF31
     /tmp/ccG5ndPl.s:3282   .debug_str:000000000000008f .LASF33
     /tmp/ccG5ndPl.s:3488   .debug_str:00000000000006ed .LASF35
     /tmp/ccG5ndPl.s:3320   .debug_str:00000000000001eb .LASF36
     /tmp/ccG5ndPl.s:3526   .debug_str:00000000000008d2 .LASF37
     /tmp/ccG5ndPl.s:3340   .debug_str:0000000000000278 .LASF38
     /tmp/ccG5ndPl.s:3508   .debug_str:0000000000000778 .LASF39
     /tmp/ccG5ndPl.s:3482   .debug_str:00000000000006bb .LASF40
     /tmp/ccG5ndPl.s:3446   .debug_str:0000000000000599 .LASF41
     /tmp/ccG5ndPl.s:3362   .debug_str:000000000000032a .LASF42
     /tmp/ccG5ndPl.s:3442   .debug_str:000000000000056c .LASF43
     /tmp/ccG5ndPl.s:3342   .debug_str:0000000000000281 .LASF45
     /tmp/ccG5ndPl.s:3404   .debug_str:0000000000000466 .LASF47
     /tmp/ccG5ndPl.s:3480   .debug_str:00000000000006b1 .LASF49
     /tmp/ccG5ndPl.s:3288   .debug_str:00000000000000ad .LASF51
     /tmp/ccG5ndPl.s:3544   .debug_str:0000000000000967 .LASF52
     /tmp/ccG5ndPl.s:3444   .debug_str:0000000000000585 .LASF53
     /tmp/ccG5ndPl.s:3270   .debug_str:0000000000000024 .LASF54
     /tmp/ccG5ndPl.s:3434   .debug_str:0000000000000532 .LASF55
     /tmp/ccG5ndPl.s:3500   .debug_str:0000000000000753 .LASF56
     /tmp/ccG5ndPl.s:3410   .debug_str:0000000000000499 .LASF57
     /tmp/ccG5ndPl.s:3536   .debug_str:000000000000092d .LASF58
     /tmp/ccG5ndPl.s:3400   .debug_str:0000000000000446 .LASF59
     /tmp/ccG5ndPl.s:3424   .debug_str:00000000000004ed .LASF60
     /tmp/ccG5ndPl.s:3390   .debug_str:0000000000000402 .LASF61
     /tmp/ccG5ndPl.s:3524   .debug_str:00000000000008c9 .LASF62
     /tmp/ccG5ndPl.s:3378   .debug_str:000000000000039d .LASF63
     /tmp/ccG5ndPl.s:3546   .debug_str:000000000000096f .LASF64
     /tmp/ccG5ndPl.s:3354   .debug_str:00000000000002e3 .LASF65
     /tmp/ccG5ndPl.s:3502   .debug_str:000000000000075c .LASF66
     /tmp/ccG5ndPl.s:3564   .debug_str:00000000000009de .LASF67
     /tmp/ccG5ndPl.s:3402   .debug_str:000000000000045b .LASF68
     /tmp/ccG5ndPl.s:3516   .debug_str:00000000000007bb .LASF69
     /tmp/ccG5ndPl.s:3382   .debug_str:00000000000003da .LASF70
     /tmp/ccG5ndPl.s:3306   .debug_str:0000000000000153 .LASF71
     /tmp/ccG5ndPl.s:3360   .debug_str:0000000000000321 .LASF72
     /tmp/ccG5ndPl.s:3574   .debug_str:0000000000000a1c .LASF73
     /tmp/ccG5ndPl.s:3484   .debug_str:00000000000006cc .LASF74
     /tmp/ccG5ndPl.s:3344   .debug_str:000000000000028b .LASF75
     /tmp/ccG5ndPl.s:3266   .debug_str:0000000000000007 .LASF76
     /tmp/ccG5ndPl.s:3294   .debug_str:00000000000000db .LASF150
     /tmp/ccG5ndPl.s:3478   .debug_str:00000000000006a8 .LASF77
     /tmp/ccG5ndPl.s:3284   .debug_str:000000000000009f .LASF78
     /tmp/ccG5ndPl.s:3332   .debug_str:0000000000000249 .LASF79
     /tmp/ccG5ndPl.s:3504   .debug_str:0000000000000763 .LASF80
     /tmp/ccG5ndPl.s:3386   .debug_str:00000000000003ec .LASF81
     /tmp/ccG5ndPl.s:3336   .debug_str:0000000000000257 .LASF83
     /tmp/ccG5ndPl.s:3412   .debug_str:00000000000004ae .LASF84
     /tmp/ccG5ndPl.s:3302   .debug_str:0000000000000133 .LASF85
     /tmp/ccG5ndPl.s:3490   .debug_str:000000000000070a .LASF86
     /tmp/ccG5ndPl.s:3318   .debug_str:00000000000001c3 .LASF87
     /tmp/ccG5ndPl.s:3420   .debug_str:00000000000004dc .LASF88
     /tmp/ccG5ndPl.s:3312   .debug_str:000000000000018e .LASF89
     /tmp/ccG5ndPl.s:3558   .debug_str:00000000000009a6 .LASF90
GAS LISTING /tmp/ccG5ndPl.s 			page 20


     /tmp/ccG5ndPl.s:3352   .debug_str:00000000000002d0 .LASF91
     /tmp/ccG5ndPl.s:3346   .debug_str:00000000000002a3 .LASF93
     /tmp/ccG5ndPl.s:3396   .debug_str:0000000000000432 .LASF95
     /tmp/ccG5ndPl.s:3394   .debug_str:000000000000041f .LASF97
     /tmp/ccG5ndPl.s:3406   .debug_str:000000000000047c .LASF98
     /tmp/ccG5ndPl.s:3298   .debug_str:0000000000000113 .LASF99
     /tmp/ccG5ndPl.s:3280   .debug_str:0000000000000084 .LASF100
     /tmp/ccG5ndPl.s:3432   .debug_str:000000000000051c .LASF101
     /tmp/ccG5ndPl.s:3454   .debug_str:00000000000005e4 .LASF102
     /tmp/ccG5ndPl.s:3316   .debug_str:00000000000001ad .LASF103
     /tmp/ccG5ndPl.s:3264   .debug_str:0000000000000000 .LASF104
     /tmp/ccG5ndPl.s:3566   .debug_str:00000000000009f1 .LASF105
     /tmp/ccG5ndPl.s:3552   .debug_str:000000000000098f .LASF106
     /tmp/ccG5ndPl.s:3568   .debug_str:0000000000000a02 .LASF107
     /tmp/ccG5ndPl.s:3470   .debug_str:0000000000000664 .LASF108
     /tmp/ccG5ndPl.s:3496   .debug_str:000000000000073c .LASF109
     /tmp/ccG5ndPl.s:3572   .debug_str:0000000000000a13 .LASF110
     /tmp/ccG5ndPl.s:3324   .debug_str:0000000000000201 .LASF111
     /tmp/ccG5ndPl.s:3272   .debug_str:000000000000002c .LASF112
     /tmp/ccG5ndPl.s:3460   .debug_str:0000000000000624 .LASF113
     /tmp/ccG5ndPl.s:3388   .debug_str:00000000000003f4 .LASF114
     /tmp/ccG5ndPl.s:3474   .debug_str:0000000000000694 .LASF115
     /tmp/ccG5ndPl.s:3364   .debug_str:0000000000000336 .LASF116
     /tmp/ccG5ndPl.s:3438   .debug_str:0000000000000561 .LASF117
     /tmp/ccG5ndPl.s:3440   .debug_str:0000000000000567 .LASF118
     /tmp/ccG5ndPl.s:3392   .debug_str:0000000000000417 .LASF119
     /tmp/ccG5ndPl.s:3290   .debug_str:00000000000000c3 .LASF120
     /tmp/ccG5ndPl.s:3476   .debug_str:000000000000069f .LASF121
     /tmp/ccG5ndPl.s:3528   .debug_str:00000000000008e8 .LASF126
     /tmp/ccG5ndPl.s:3548   .debug_str:0000000000000976 .LASF151
     /tmp/ccG5ndPl.s:3380   .debug_str:00000000000003b2 .LASF152
     /tmp/ccG5ndPl.s:3576   .debug_str:0000000000000a31 .LASF153
     /tmp/ccG5ndPl.s:3464   .debug_str:000000000000063a .LASF154
     /tmp/ccG5ndPl.s:3286   .debug_str:00000000000000a8 .LASF122
     /tmp/ccG5ndPl.s:3462   .debug_str:0000000000000630 .LASF123
     /tmp/ccG5ndPl.s:3542   .debug_str:0000000000000958 .LASF124
     /tmp/ccG5ndPl.s:3472   .debug_str:0000000000000674 .LASF125
     /tmp/ccG5ndPl.s:3308   .debug_str:000000000000016b .LASF155
     /tmp/ccG5ndPl.s:3278   .debug_str:000000000000006c .LASF127
     /tmp/ccG5ndPl.s:3356   .debug_str:00000000000002f6 .LASF128
     /tmp/ccG5ndPl.s:3520   .debug_str:0000000000000897 .LASF129
     /tmp/ccG5ndPl.s:3326   .debug_str:0000000000000212 .LASF130
     /tmp/ccG5ndPl.s:3532   .debug_str:0000000000000912 .LASF131
     /tmp/ccG5ndPl.s:3492   .debug_str:0000000000000718 .LASF132
     /tmp/ccG5ndPl.s:3578   .debug_str:0000000000000a39 .LASF133
     /tmp/ccG5ndPl.s:3366   .debug_str:000000000000033e .LASF134
     /tmp/ccG5ndPl.s:3456   .debug_str:00000000000005ef .LASF135
     /tmp/ccG5ndPl.s:3534   .debug_str:0000000000000928 .LASF136
     /tmp/ccG5ndPl.s:3314   .debug_str:00000000000001a3 .LASF156
     /tmp/ccG5ndPl.s:3538   .debug_str:0000000000000936 .LASF137
     /tmp/ccG5ndPl.s:3268   .debug_str:0000000000000013 .LASF138
     /tmp/ccG5ndPl.s:3350   .debug_str:00000000000002b5 .LASF139
     /tmp/ccG5ndPl.s:3512   .debug_str:00000000000007ae .LASF140
     /tmp/ccG5ndPl.s:341    .text:0000000000000208 .LFB32
     /tmp/ccG5ndPl.s:379    .text:0000000000000250 .LFE32
     /tmp/ccG5ndPl.s:309    .text:00000000000001e0 .LFB31
     /tmp/ccG5ndPl.s:335    .text:0000000000000208 .LFE31
GAS LISTING /tmp/ccG5ndPl.s 			page 21


     /tmp/ccG5ndPl.s:3556   .debug_str:00000000000009a1 .LASF146
     /tmp/ccG5ndPl.s:3033   .debug_loc:0000000000000000 .LLST9
     /tmp/ccG5ndPl.s:324    .text:00000000000001f8 .LVL24
     /tmp/ccG5ndPl.s:277    .text:00000000000001b8 .LFB30
     /tmp/ccG5ndPl.s:303    .text:00000000000001e0 .LFE30
     /tmp/ccG5ndPl.s:3047   .debug_loc:0000000000000039 .LLST8
     /tmp/ccG5ndPl.s:292    .text:00000000000001d0 .LVL22
     /tmp/ccG5ndPl.s:132    .text:00000000000000b8 .LFB29
     /tmp/ccG5ndPl.s:164    .text:00000000000000e8 .LFE29
     /tmp/ccG5ndPl.s:3061   .debug_loc:0000000000000072 .LLST2
     /tmp/ccG5ndPl.s:3530   .debug_str:000000000000090b .LASF141
     /tmp/ccG5ndPl.s:3081   .debug_loc:00000000000000c1 .LLST3
     /tmp/ccG5ndPl.s:153    .text:00000000000000d8 .LVL10
     /tmp/ccG5ndPl.s:385    .text:0000000000000250 .LFB28
     /tmp/ccG5ndPl.s:447    .text:00000000000002c0 .LFE28
     /tmp/ccG5ndPl.s:3550   .debug_str:0000000000000984 .LASF142
     /tmp/ccG5ndPl.s:3107   .debug_loc:0000000000000115 .LLST10
     /tmp/ccG5ndPl.s:405    .text:0000000000000274 .LVL26
     /tmp/ccG5ndPl.s:412    .text:0000000000000280 .LVL27
     /tmp/ccG5ndPl.s:422    .text:000000000000029c .LVL28
     /tmp/ccG5ndPl.s:444    .text:00000000000002bc .LVL31
     /tmp/ccG5ndPl.s:78     .text:0000000000000060 .LFB27
     /tmp/ccG5ndPl.s:126    .text:00000000000000b8 .LFE27
     /tmp/ccG5ndPl.s:3118   .debug_loc:000000000000014b .LLST0
     /tmp/ccG5ndPl.s:3398   .debug_str:000000000000043b .LASF143
     /tmp/ccG5ndPl.s:3136   .debug_loc:0000000000000197 .LLST1
     /tmp/ccG5ndPl.s:99     .text:0000000000000088 .LVL2
     /tmp/ccG5ndPl.s:105    .text:0000000000000098 .LVL3
     /tmp/ccG5ndPl.s:109    .text:00000000000000a0 .LVL4
     /tmp/ccG5ndPl.s:453    .text:00000000000002c0 .LFB26
     /tmp/ccG5ndPl.s:509    .text:000000000000031c .LFE26
     /tmp/ccG5ndPl.s:483    .text:00000000000002f8 .LBB5
     /tmp/ccG5ndPl.s:492    .text:0000000000000300 .LBE5
     /tmp/ccG5ndPl.s:3154   .debug_loc:00000000000001e3 .LLST11
     /tmp/ccG5ndPl.s:469    .text:00000000000002dc .LVL32
     /tmp/ccG5ndPl.s:496    .text:0000000000000308 .LVL36
     /tmp/ccG5ndPl.s:170    .text:00000000000000e8 .LFB25
     /tmp/ccG5ndPl.s:271    .text:00000000000001b8 .LFE25
     /tmp/ccG5ndPl.s:3450   .debug_str:00000000000005ca .LASF144
     /tmp/ccG5ndPl.s:3161   .debug_loc:0000000000000206 .LLST4
     /tmp/ccG5ndPl.s:3183   .debug_loc:0000000000000265 .LLST5
     /tmp/ccG5ndPl.s:3205   .debug_loc:00000000000002c4 .LLST6
     /tmp/ccG5ndPl.s:3506   .debug_str:000000000000076c .LASF145
     /tmp/ccG5ndPl.s:3227   .debug_loc:0000000000000323 .LLST7
     /tmp/ccG5ndPl.s:217    .text:0000000000000150 .LVL13
     /tmp/ccG5ndPl.s:225    .text:0000000000000170 .LVL14
     /tmp/ccG5ndPl.s:234    .text:0000000000000184 .LVL15
     /tmp/ccG5ndPl.s:3458   .debug_str:0000000000000601 .LASF157
     /tmp/ccG5ndPl.s:10     .text:0000000000000000 .LFB23
     /tmp/ccG5ndPl.s:70     .text:0000000000000060 .LFE23
     /tmp/ccG5ndPl.s:312    .text:00000000000001e0 .LVL23
     /tmp/ccG5ndPl.s:280    .text:00000000000001b8 .LVL21
     /tmp/ccG5ndPl.s:135    .text:00000000000000b8 .LVL7
     /tmp/ccG5ndPl.s:147    .text:00000000000000cc .LVL8
     /tmp/ccG5ndPl.s:151    .text:00000000000000d0 .LVL9
     /tmp/ccG5ndPl.s:401    .text:000000000000026c .LVL25
     /tmp/ccG5ndPl.s:433    .text:00000000000002a8 .LVL29
GAS LISTING /tmp/ccG5ndPl.s 			page 22


     /tmp/ccG5ndPl.s:437    .text:00000000000002b0 .LVL30
     /tmp/ccG5ndPl.s:81     .text:0000000000000060 .LVL1
     /tmp/ccG5ndPl.s:118    .text:00000000000000ac .LVL5
     /tmp/ccG5ndPl.s:121    .text:00000000000000b0 .LVL6
     /tmp/ccG5ndPl.s:482    .text:00000000000002f8 .LVL34
     /tmp/ccG5ndPl.s:490    .text:0000000000000300 .LVL35
     /tmp/ccG5ndPl.s:173    .text:00000000000000e8 .LVL11
     /tmp/ccG5ndPl.s:215    .text:0000000000000148 .LVL12
     /tmp/ccG5ndPl.s:252    .text:000000000000019c .LVL17
     /tmp/ccG5ndPl.s:264    .text:00000000000001b0 .LVL20
     /tmp/ccG5ndPl.s:249    .text:0000000000000198 .LVL16
     /tmp/ccG5ndPl.s:260    .text:00000000000001a8 .LVL19
     /tmp/ccG5ndPl.s:255    .text:00000000000001a0 .LVL18
     /tmp/ccG5ndPl.s:537    .debug_info:0000000000000000 .Ldebug_info0

UNDEFINED SYMBOLS
_ZN5RISCV9push_regsEv
_ZN3TCB13contextSwitchEPNS_7ContextES1_
_ZN5RISCV8pop_regsEv
_ZN15MemoryAllocator9mem_allocEm
_ZN9Scheduler3putEP3TCB
_ZN15MemoryAllocator8mem_freeEPKv
_ZN9Scheduler3getEv
_ZN5RISCV10popSppSpieEv
