GAS LISTING /tmp/cc1DeWGe.s 			page 1


   1              		.file	"thread.cpp"
   2              		.option pic
   3              		.option norelax
   4              		.text
   5              	.Ltext0:
   6              		.align	2
   7              		.globl	_ZN3TCB7wrapperEv
   9              	_ZN3TCB7wrapperEv:
  10              	.LFB27:
  11              		.file 1 "src/thread.cpp"
   1:src/thread.cpp **** #include "../h/thread.hpp"
   2:src/thread.cpp **** #include "../h/Scheduler.hpp"
   3:src/thread.cpp **** 
   4:src/thread.cpp **** int TCB::id_count = 0;
   5:src/thread.cpp **** TCB* TCB::running = nullptr;
   6:src/thread.cpp **** time_t TCB::time_slice_count = 0;
   7:src/thread.cpp **** 
   8:src/thread.cpp **** TCB::TCB(routine_ptr fun, void *args, void *stack, Context c) : context(c) {
   9:src/thread.cpp ****     // poziva se iz _threadCreate gde je inicijalni kontekst formiran
  10:src/thread.cpp ****     id = id_count++;
  11:src/thread.cpp **** 
  12:src/thread.cpp ****     // !!! body = nullptr => stack = nullptr + skip Scheduler::put()
  13:src/thread.cpp **** 
  14:src/thread.cpp ****     routine = fun;
  15:src/thread.cpp ****     this->args = args;
  16:src/thread.cpp ****     this->stack = (uint64*)stack; // stack start address (allocated)
  17:src/thread.cpp ****     this->current_state = RUNNABLE;
  18:src/thread.cpp ****     this->next_ready = nullptr;
  19:src/thread.cpp ****     this->next_sleepy= nullptr;
  20:src/thread.cpp ****     this->time_on_sem = 0;
  21:src/thread.cpp ****     this->sleeping_time = 0;
  22:src/thread.cpp ****     this->time_slice = DEFAULT_TIME_SLICE; // add in constructor
  23:src/thread.cpp **** }
  24:src/thread.cpp **** 
  25:src/thread.cpp **** int TCB::_threadCreate(TCB** handle, routine_ptr routine, void *args, void *stack_space) {
  26:src/thread.cpp ****     Context context = {
  27:src/thread.cpp **** 
  28:src/thread.cpp ****             // initial context, starts from wrapper
  29:src/thread.cpp ****             // ra <= &wrapper, sp <= stack space + size (last used)
  30:src/thread.cpp **** 
  31:src/thread.cpp ****             (uint64)wrapper,
  32:src/thread.cpp ****             routine == nullptr ? 0 : (uint64)((char *)stack_space + DEFAULT_STACK_SIZE - 1)
  33:src/thread.cpp **** 
  34:src/thread.cpp ****             // handle == null -> main function thread, no need for new stack
  35:src/thread.cpp ****     };
  36:src/thread.cpp **** 
  37:src/thread.cpp ****     *handle = new TCB (routine, args, stack_space, context);
  38:src/thread.cpp ****     if (routine) Scheduler::put(*handle);
  39:src/thread.cpp ****     return 0;
  40:src/thread.cpp **** }
  41:src/thread.cpp **** 
  42:src/thread.cpp **** void TCB::wrapper() {
  12              		.loc 1 42 21
  13              		.cfi_startproc
  14 0000 130101FF 		addi	sp,sp,-16
  15              		.cfi_def_cfa_offset 16
  16 0004 23341100 		sd	ra,8(sp)
GAS LISTING /tmp/cc1DeWGe.s 			page 2


  17 0008 23308100 		sd	s0,0(sp)
  18              		.cfi_offset 1, -8
  19              		.cfi_offset 8, -16
  20 000c 13040101 		addi	s0,sp,16
  21              		.cfi_def_cfa 8, 0
  43:src/thread.cpp **** 
  44:src/thread.cpp ****     // spp  -> status previous privilege,
  45:src/thread.cpp ****     // spie -> status previous int enable
  46:src/thread.cpp **** 
  47:src/thread.cpp ****     // came from supervisor trap (s mode)
  48:src/thread.cpp ****     if ( running->routine ) {
  22              		.loc 1 48 5
  23              		.loc 1 48 19 is_stmt 0
  24 0010 97070000 		ld	a5,.LANCHOR0
  24      83B70700 
  25 0018 83B70703 		ld	a5,48(a5)
  26              		.loc 1 48 5
  27 001c 63800702 		beqz	a5,.L2
  49:src/thread.cpp ****         RISCV::popSppSpie();
  28              		.loc 1 49 9 is_stmt 1
  29              		.loc 1 49 26 is_stmt 0
  30 0020 97000000 		call	_ZN5RISCV10popSppSpieEv@plt
  30      E7800000 
  31              	.LVL0:
  50:src/thread.cpp ****         running->routine(running->args);
  32              		.loc 1 50 9 is_stmt 1
  33              		.loc 1 50 18 is_stmt 0
  34 0028 97070000 		ld	a5,.LANCHOR0
  34      83B70700 
  35 0030 03B70703 		ld	a4,48(a5)
  36              		.loc 1 50 25
  37 0034 03B58703 		ld	a0,56(a5)
  38 0038 E7000700 		jalr	a4
  39              	.LVL1:
  40              	.L2:
  51:src/thread.cpp ****         // in user mode IF not char-handler
  52:src/thread.cpp ****     }
  53:src/thread.cpp **** 
  54:src/thread.cpp ****     ::thread_exit();
  41              		.loc 1 54 5 is_stmt 1
  42              		.loc 1 54 18 is_stmt 0
  43 003c 97000000 		call	_Z11thread_exitv@plt
  43      E7800000 
  44              	.LVL2:
  55:src/thread.cpp ****     // no return address from wrapper
  56:src/thread.cpp **** }
  45              		.loc 1 56 1
  46 0044 83308100 		ld	ra,8(sp)
  47              		.cfi_restore 1
  48 0048 03340100 		ld	s0,0(sp)
  49              		.cfi_restore 8
  50              		.cfi_def_cfa 2, 16
  51 004c 13010101 		addi	sp,sp,16
  52              		.cfi_def_cfa_offset 0
  53 0050 67800000 		jr	ra
  54              		.cfi_endproc
  55              	.LFE27:
GAS LISTING /tmp/cc1DeWGe.s 			page 3


  57              		.align	2
  58              		.globl	_ZN3TCBC2EPFvPvES0_S0_NS_7ContextE
  60              	_ZN3TCBC2EPFvPvES0_S0_NS_7ContextE:
  61              	.LFB24:
   8:src/thread.cpp ****     // poziva se iz _threadCreate gde je inicijalni kontekst formiran
  62              		.loc 1 8 1 is_stmt 1
  63              		.cfi_startproc
  64              	.LVL3:
  65 0054 130101FF 		addi	sp,sp,-16
  66              		.cfi_def_cfa_offset 16
  67 0058 23348100 		sd	s0,8(sp)
  68              		.cfi_offset 8, -8
  69 005c 13040101 		addi	s0,sp,16
  70              		.cfi_def_cfa 8, 0
  71              	.LBB6:
   8:src/thread.cpp ****     // poziva se iz _threadCreate gde je inicijalni kontekst formiran
  72              		.loc 1 8 74 is_stmt 0
  73 0060 03330700 		ld	t1,0(a4)
  74 0064 83388700 		ld	a7,8(a4)
  75 0068 03380701 		ld	a6,16(a4)
  76 006c 83378701 		ld	a5,24(a4)
  77 0070 23346504 		sd	t1,72(a0)
  78 0074 23381505 		sd	a7,80(a0)
  79 0078 233C0505 		sd	a6,88(a0)
  80 007c 2330F506 		sd	a5,96(a0)
  10:src/thread.cpp **** 
  81              		.loc 1 10 5 is_stmt 1
  10:src/thread.cpp **** 
  82              		.loc 1 10 18 is_stmt 0
  83 0080 17070000 		lla	a4,.LANCHOR0
  83      13070700 
  84 0088 83278700 		lw	a5,8(a4)
  85 008c 1B881700 		addiw	a6,a5,1
  86 0090 23240701 		sw	a6,8(a4)
  10:src/thread.cpp **** 
  87              		.loc 1 10 8
  88 0094 2320F500 		sw	a5,0(a0)
  14:src/thread.cpp ****     this->args = args;
  89              		.loc 1 14 5 is_stmt 1
  14:src/thread.cpp ****     this->args = args;
  90              		.loc 1 14 13 is_stmt 0
  91 0098 2338B502 		sd	a1,48(a0)
  15:src/thread.cpp ****     this->stack = (uint64*)stack; // stack start address (allocated)
  92              		.loc 1 15 5 is_stmt 1
  15:src/thread.cpp ****     this->stack = (uint64*)stack; // stack start address (allocated)
  93              		.loc 1 15 16 is_stmt 0
  94 009c 233CC502 		sd	a2,56(a0)
  16:src/thread.cpp ****     this->current_state = RUNNABLE;
  95              		.loc 1 16 5 is_stmt 1
  16:src/thread.cpp ****     this->current_state = RUNNABLE;
  96              		.loc 1 16 17 is_stmt 0
  97 00a0 2330D504 		sd	a3,64(a0)
  17:src/thread.cpp ****     this->next_ready = nullptr;
  98              		.loc 1 17 5 is_stmt 1
  17:src/thread.cpp ****     this->next_ready = nullptr;
  99              		.loc 1 17 25 is_stmt 0
 100 00a4 23240506 		sw	zero,104(a0)
GAS LISTING /tmp/cc1DeWGe.s 			page 4


  18:src/thread.cpp ****     this->next_sleepy= nullptr;
 101              		.loc 1 18 5 is_stmt 1
  18:src/thread.cpp ****     this->next_sleepy= nullptr;
 102              		.loc 1 18 22 is_stmt 0
 103 00a8 23340500 		sd	zero,8(a0)
  19:src/thread.cpp ****     this->time_on_sem = 0;
 104              		.loc 1 19 5 is_stmt 1
  19:src/thread.cpp ****     this->time_on_sem = 0;
 105              		.loc 1 19 22 is_stmt 0
 106 00ac 23380500 		sd	zero,16(a0)
  20:src/thread.cpp ****     this->sleeping_time = 0;
 107              		.loc 1 20 5 is_stmt 1
  20:src/thread.cpp ****     this->sleeping_time = 0;
 108              		.loc 1 20 23 is_stmt 0
 109 00b0 233C0500 		sd	zero,24(a0)
  21:src/thread.cpp ****     this->time_slice = DEFAULT_TIME_SLICE; // add in constructor
 110              		.loc 1 21 5 is_stmt 1
  21:src/thread.cpp ****     this->time_slice = DEFAULT_TIME_SLICE; // add in constructor
 111              		.loc 1 21 25 is_stmt 0
 112 00b4 23300502 		sd	zero,32(a0)
  22:src/thread.cpp **** }
 113              		.loc 1 22 5 is_stmt 1
  22:src/thread.cpp **** }
 114              		.loc 1 22 22 is_stmt 0
 115 00b8 93072000 		li	a5,2
 116 00bc 2334F502 		sd	a5,40(a0)
 117              	.LBE6:
  23:src/thread.cpp **** 
 118              		.loc 1 23 1
 119 00c0 03348100 		ld	s0,8(sp)
 120              		.cfi_restore 8
 121              		.cfi_def_cfa 2, 16
 122 00c4 13010101 		addi	sp,sp,16
 123              		.cfi_def_cfa_offset 0
 124 00c8 67800000 		jr	ra
 125              		.cfi_endproc
 126              	.LFE24:
 128              		.globl	_ZN3TCBC1EPFvPvES0_S0_NS_7ContextE
 129              		.set	_ZN3TCBC1EPFvPvES0_S0_NS_7ContextE,_ZN3TCBC2EPFvPvES0_S0_NS_7ContextE
 130              		.align	2
 131              		.globl	_ZN3TCB5yieldEPS_S0_
 133              	_ZN3TCB5yieldEPS_S0_:
 134              	.LFB28:
  57:src/thread.cpp **** 
  58:src/thread.cpp **** void TCB::yield(TCB* oldRunning, TCB* newRunning) {
 135              		.loc 1 58 51 is_stmt 1
 136              		.cfi_startproc
 137              	.LVL4:
 138 00cc 130101FE 		addi	sp,sp,-32
 139              		.cfi_def_cfa_offset 32
 140 00d0 233C1100 		sd	ra,24(sp)
 141 00d4 23388100 		sd	s0,16(sp)
 142 00d8 23349100 		sd	s1,8(sp)
 143 00dc 23302101 		sd	s2,0(sp)
 144              		.cfi_offset 1, -8
 145              		.cfi_offset 8, -16
 146              		.cfi_offset 9, -24
GAS LISTING /tmp/cc1DeWGe.s 			page 5


 147              		.cfi_offset 18, -32
 148 00e0 13040102 		addi	s0,sp,32
 149              		.cfi_def_cfa 8, 0
 150 00e4 93040500 		mv	s1,a0
 151 00e8 13890500 		mv	s2,a1
  59:src/thread.cpp **** 
  60:src/thread.cpp ****     // async interrupts =>
  61:src/thread.cpp ****     // (1) save old context, registers
  62:src/thread.cpp ****     // (2) handle cause ( RISCV::supervisor_trap )
  63:src/thread.cpp **** 
  64:src/thread.cpp ****     // (3) possible context switch -> pop regs >>> YIELD
  65:src/thread.cpp **** 
  66:src/thread.cpp ****     RISCV::push_regs();
 152              		.loc 1 66 5
 153              		.loc 1 66 21 is_stmt 0
 154 00ec 97000000 		call	_ZN5RISCV9push_regsEv@plt
 154      E7800000 
 155              	.LVL5:
  67:src/thread.cpp ****     contextSwitch(&oldRunning->context, &newRunning->context);
 156              		.loc 1 67 5 is_stmt 1
 157              		.loc 1 67 18 is_stmt 0
 158 00f4 93058904 		addi	a1,s2,72
 159 00f8 13858404 		addi	a0,s1,72
 160 00fc 97000000 		call	_ZN3TCB13contextSwitchEPNS_7ContextES1_@plt
 160      E7800000 
 161              	.LVL6:
  68:src/thread.cpp ****     RISCV::pop_regs();
 162              		.loc 1 68 5 is_stmt 1
 163              		.loc 1 68 20 is_stmt 0
 164 0104 97000000 		call	_ZN5RISCV8pop_regsEv@plt
 164      E7800000 
 165              	.LVL7:
  69:src/thread.cpp **** }
 166              		.loc 1 69 1
 167 010c 83308101 		ld	ra,24(sp)
 168              		.cfi_restore 1
 169 0110 03340101 		ld	s0,16(sp)
 170              		.cfi_restore 8
 171              		.cfi_def_cfa 2, 32
 172 0114 83348100 		ld	s1,8(sp)
 173              		.cfi_restore 9
 174              	.LVL8:
 175 0118 03390100 		ld	s2,0(sp)
 176              		.cfi_restore 18
 177              	.LVL9:
 178 011c 13010102 		addi	sp,sp,32
 179              		.cfi_def_cfa_offset 0
 180 0120 67800000 		jr	ra
 181              		.cfi_endproc
 182              	.LFE28:
 184              		.align	2
 185              		.globl	_ZN3TCBnwEm
 187              	_ZN3TCBnwEm:
 188              	.LFB30:
  70:src/thread.cpp **** 
  71:src/thread.cpp **** void TCB::dispatch() {
  72:src/thread.cpp **** 
GAS LISTING /tmp/cc1DeWGe.s 			page 6


  73:src/thread.cpp ****     TCB *oldRunning = TCB::running;
  74:src/thread.cpp ****     if ( isRunnable() ) Scheduler::put(oldRunning);
  75:src/thread.cpp **** 
  76:src/thread.cpp ****     if ( running->isFinished() ) {
  77:src/thread.cpp ****         MemoryAllocator::mem_free(TCB::running->stack);
  78:src/thread.cpp ****     }
  79:src/thread.cpp **** 
  80:src/thread.cpp ****     time_slice_count = 0;
  81:src/thread.cpp ****     running = Scheduler::get();
  82:src/thread.cpp **** 
  83:src/thread.cpp ****     if (oldRunning != running) yield(oldRunning, running);
  84:src/thread.cpp **** }
  85:src/thread.cpp **** 
  86:src/thread.cpp **** void *TCB::operator new(size_t size) {
 189              		.loc 1 86 38 is_stmt 1
 190              		.cfi_startproc
 191              	.LVL10:
 192 0124 130101FF 		addi	sp,sp,-16
 193              		.cfi_def_cfa_offset 16
 194 0128 23341100 		sd	ra,8(sp)
 195 012c 23308100 		sd	s0,0(sp)
 196              		.cfi_offset 1, -8
 197              		.cfi_offset 8, -16
 198 0130 13040101 		addi	s0,sp,16
 199              		.cfi_def_cfa 8, 0
  87:src/thread.cpp ****     // mem alloc (Memory Allocator klasa) prima broj blokova
  88:src/thread.cpp ****     size_t blocks = (size + mem_h_size + MEM_BLOCK_SIZE - 1) / MEM_BLOCK_SIZE;
 200              		.loc 1 88 5
 201              		.loc 1 88 57 is_stmt 0
 202 0134 13057505 		addi	a0,a0,87
 203              	.LVL11:
  89:src/thread.cpp ****     return MemoryAllocator::mem_alloc(blocks);
 204              		.loc 1 89 5 is_stmt 1
 205              		.loc 1 89 38 is_stmt 0
 206 0138 13556500 		srli	a0,a0,6
 207              	.LVL12:
 208 013c 97000000 		call	_ZN15MemoryAllocator9mem_allocEm@plt
 208      E7800000 
 209              	.LVL13:
  90:src/thread.cpp **** }
 210              		.loc 1 90 1
 211 0144 83308100 		ld	ra,8(sp)
 212              		.cfi_restore 1
 213 0148 03340100 		ld	s0,0(sp)
 214              		.cfi_restore 8
 215              		.cfi_def_cfa 2, 16
 216 014c 13010101 		addi	sp,sp,16
 217              		.cfi_def_cfa_offset 0
 218 0150 67800000 		jr	ra
 219              		.cfi_endproc
 220              	.LFE30:
 222              		.align	2
 223              		.globl	_ZN3TCB13_threadCreateEPPS_PFvPvES2_S2_
 225              	_ZN3TCB13_threadCreateEPPS_PFvPvES2_S2_:
 226              	.LFB26:
  25:src/thread.cpp ****     Context context = {
 227              		.loc 1 25 90 is_stmt 1
GAS LISTING /tmp/cc1DeWGe.s 			page 7


 228              		.cfi_startproc
 229              	.LVL14:
 230 0154 130101F6 		addi	sp,sp,-160
 231              		.cfi_def_cfa_offset 160
 232 0158 233C1108 		sd	ra,152(sp)
 233 015c 23388108 		sd	s0,144(sp)
 234 0160 23349108 		sd	s1,136(sp)
 235 0164 23302109 		sd	s2,128(sp)
 236 0168 233C3107 		sd	s3,120(sp)
 237 016c 23384107 		sd	s4,112(sp)
 238 0170 23345107 		sd	s5,104(sp)
 239              		.cfi_offset 1, -8
 240              		.cfi_offset 8, -16
 241              		.cfi_offset 9, -24
 242              		.cfi_offset 18, -32
 243              		.cfi_offset 19, -40
 244              		.cfi_offset 20, -48
 245              		.cfi_offset 21, -56
 246 0174 1304010A 		addi	s0,sp,160
 247              		.cfi_def_cfa 8, 0
 248 0178 130A0500 		mv	s4,a0
 249 017c 93840500 		mv	s1,a1
 250 0180 930A0600 		mv	s5,a2
 251 0184 13890600 		mv	s2,a3
  26:src/thread.cpp **** 
 252              		.loc 1 26 5
  26:src/thread.cpp **** 
 253              		.loc 1 26 13 is_stmt 0
 254 0188 233804FA 		sd	zero,-80(s0)
 255 018c 233C04FA 		sd	zero,-72(s0)
 256 0190 97070000 		lla	a5,_ZN3TCB7wrapperEv
 256      93870700 
 257 0198 2330F4FA 		sd	a5,-96(s0)
  32:src/thread.cpp **** 
 258              		.loc 1 32 32
 259 019c 6388050A 		beqz	a1,.L13
  32:src/thread.cpp **** 
 260              		.loc 1 32 88 discriminator 1
 261 01a0 B7170000 		li	a5,4096
 262 01a4 9387F7FF 		addi	a5,a5,-1
 263 01a8 B387F600 		add	a5,a3,a5
 264              	.L11:
  37:src/thread.cpp ****     if (routine) Scheduler::put(*handle);
 265              		.loc 1 37 5 is_stmt 1
  37:src/thread.cpp ****     if (routine) Scheduler::put(*handle);
 266              		.loc 1 37 13 is_stmt 0
 267 01ac 033704FA 		ld	a4,-96(s0)
 268 01b0 2330E4F8 		sd	a4,-128(s0)
 269 01b4 2334F4F8 		sd	a5,-120(s0)
 270 01b8 833704FB 		ld	a5,-80(s0)
 271 01bc 2338F4F8 		sd	a5,-112(s0)
 272 01c0 833784FB 		ld	a5,-72(s0)
 273 01c4 233CF4F8 		sd	a5,-104(s0)
  37:src/thread.cpp ****     if (routine) Scheduler::put(*handle);
 274              		.loc 1 37 59
 275 01c8 13050007 		li	a0,112
 276              	.LVL15:
GAS LISTING /tmp/cc1DeWGe.s 			page 8


 277 01cc 97000000 		call	_ZN3TCBnwEm
 277      E7800000 
 278              	.LVL16:
 279 01d4 93090500 		mv	s3,a0
 280 01d8 833704F8 		ld	a5,-128(s0)
 281 01dc 2330F4F6 		sd	a5,-160(s0)
 282 01e0 833784F8 		ld	a5,-120(s0)
 283 01e4 2334F4F6 		sd	a5,-152(s0)
 284 01e8 833704F9 		ld	a5,-112(s0)
 285 01ec 2338F4F6 		sd	a5,-144(s0)
 286 01f0 833784F9 		ld	a5,-104(s0)
 287 01f4 233CF4F6 		sd	a5,-136(s0)
 288 01f8 130704F6 		addi	a4,s0,-160
 289 01fc 93060900 		mv	a3,s2
 290 0200 13860A00 		mv	a2,s5
 291 0204 93850400 		mv	a1,s1
 292 0208 97000000 		call	_ZN3TCBC1EPFvPvES0_S0_NS_7ContextE
 292      E7800000 
 293              	.LVL17:
  37:src/thread.cpp ****     if (routine) Scheduler::put(*handle);
 294              		.loc 1 37 13
 295 0210 23303A01 		sd	s3,0(s4)
  38:src/thread.cpp ****     return 0;
 296              		.loc 1 38 5 is_stmt 1
 297 0214 63880400 		beqz	s1,.L12
  38:src/thread.cpp ****     return 0;
 298              		.loc 1 38 18 discriminator 1
  38:src/thread.cpp ****     return 0;
 299              		.loc 1 38 32 is_stmt 0 discriminator 1
 300 0218 13850900 		mv	a0,s3
 301 021c 97000000 		call	_ZN9Scheduler3putEP3TCB@plt
 301      E7800000 
 302              	.LVL18:
 303              	.L12:
  39:src/thread.cpp **** }
 304              		.loc 1 39 5 is_stmt 1
  40:src/thread.cpp **** 
 305              		.loc 1 40 1 is_stmt 0
 306 0224 13050000 		li	a0,0
 307 0228 83308109 		ld	ra,152(sp)
 308              		.cfi_remember_state
 309              		.cfi_restore 1
 310 022c 03340109 		ld	s0,144(sp)
 311              		.cfi_restore 8
 312              		.cfi_def_cfa 2, 160
 313 0230 83348108 		ld	s1,136(sp)
 314              		.cfi_restore 9
 315              	.LVL19:
 316 0234 03390108 		ld	s2,128(sp)
 317              		.cfi_restore 18
 318              	.LVL20:
 319 0238 83398107 		ld	s3,120(sp)
 320              		.cfi_restore 19
 321 023c 033A0107 		ld	s4,112(sp)
 322              		.cfi_restore 20
 323              	.LVL21:
 324 0240 833A8106 		ld	s5,104(sp)
GAS LISTING /tmp/cc1DeWGe.s 			page 9


 325              		.cfi_restore 21
 326              	.LVL22:
 327 0244 1301010A 		addi	sp,sp,160
 328              		.cfi_def_cfa_offset 0
 329 0248 67800000 		jr	ra
 330              	.LVL23:
 331              	.L13:
 332              		.cfi_restore_state
  32:src/thread.cpp **** 
 333              		.loc 1 32 32
 334 024c 93070000 		li	a5,0
 335 0250 6FF0DFF5 		j	.L11
 336              		.cfi_endproc
 337              	.LFE26:
 339              		.align	2
 340              		.globl	_ZN3TCBdlEPv
 342              	_ZN3TCBdlEPv:
 343              	.LFB31:
  91:src/thread.cpp **** 
  92:src/thread.cpp **** void TCB::operator delete(void *ptr) {
 344              		.loc 1 92 38 is_stmt 1
 345              		.cfi_startproc
 346              	.LVL24:
 347 0254 130101FF 		addi	sp,sp,-16
 348              		.cfi_def_cfa_offset 16
 349 0258 23341100 		sd	ra,8(sp)
 350 025c 23308100 		sd	s0,0(sp)
 351              		.cfi_offset 1, -8
 352              		.cfi_offset 8, -16
 353 0260 13040101 		addi	s0,sp,16
 354              		.cfi_def_cfa 8, 0
  93:src/thread.cpp ****     MemoryAllocator::mem_free(ptr);
 355              		.loc 1 93 5
 356              		.loc 1 93 30 is_stmt 0
 357 0264 97000000 		call	_ZN15MemoryAllocator8mem_freeEPv@plt
 357      E7800000 
 358              	.LVL25:
  94:src/thread.cpp **** }
 359              		.loc 1 94 1
 360 026c 83308100 		ld	ra,8(sp)
 361              		.cfi_restore 1
 362 0270 03340100 		ld	s0,0(sp)
 363              		.cfi_restore 8
 364              		.cfi_def_cfa 2, 16
 365 0274 13010101 		addi	sp,sp,16
 366              		.cfi_def_cfa_offset 0
 367 0278 67800000 		jr	ra
 368              		.cfi_endproc
 369              	.LFE31:
 371              		.align	2
 372              		.globl	_ZN3TCB10isRunnableEv
 374              	_ZN3TCB10isRunnableEv:
 375              	.LFB32:
  95:src/thread.cpp **** 
  96:src/thread.cpp **** bool TCB::isRunnable() {
 376              		.loc 1 96 24 is_stmt 1
 377              		.cfi_startproc
GAS LISTING /tmp/cc1DeWGe.s 			page 10


 378 027c 130101FF 		addi	sp,sp,-16
 379              		.cfi_def_cfa_offset 16
 380 0280 23348100 		sd	s0,8(sp)
 381              		.cfi_offset 8, -8
 382 0284 13040101 		addi	s0,sp,16
 383              		.cfi_def_cfa 8, 0
  97:src/thread.cpp ****     return running->current_state == RUNNABLE; }
 384              		.loc 1 97 5
 385              		.loc 1 97 21 is_stmt 0
 386 0288 97070000 		ld	a5,.LANCHOR0
 386      83B70700 
 387 0290 03A58706 		lw	a0,104(a5)
 388              		.loc 1 97 48
 389 0294 13351500 		seqz	a0,a0
 390 0298 03348100 		ld	s0,8(sp)
 391              		.cfi_restore 8
 392              		.cfi_def_cfa 2, 16
 393 029c 13010101 		addi	sp,sp,16
 394              		.cfi_def_cfa_offset 0
 395 02a0 67800000 		jr	ra
 396              		.cfi_endproc
 397              	.LFE32:
 399              		.align	2
 400              		.globl	_ZN3TCB8dispatchEv
 402              	_ZN3TCB8dispatchEv:
 403              	.LFB29:
  71:src/thread.cpp **** 
 404              		.loc 1 71 22 is_stmt 1
 405              		.cfi_startproc
 406 02a4 130101FE 		addi	sp,sp,-32
 407              		.cfi_def_cfa_offset 32
 408 02a8 233C1100 		sd	ra,24(sp)
 409 02ac 23388100 		sd	s0,16(sp)
 410 02b0 23349100 		sd	s1,8(sp)
 411 02b4 23302101 		sd	s2,0(sp)
 412              		.cfi_offset 1, -8
 413              		.cfi_offset 8, -16
 414              		.cfi_offset 9, -24
 415              		.cfi_offset 18, -32
 416 02b8 13040102 		addi	s0,sp,32
 417              		.cfi_def_cfa 8, 0
  73:src/thread.cpp ****     if ( isRunnable() ) Scheduler::put(oldRunning);
 418              		.loc 1 73 5
  73:src/thread.cpp ****     if ( isRunnable() ) Scheduler::put(oldRunning);
 419              		.loc 1 73 10 is_stmt 0
 420 02bc 17090000 		ld	s2,.LANCHOR0
 420      03390900 
 421              	.LVL26:
  74:src/thread.cpp **** 
 422              		.loc 1 74 5 is_stmt 1
  74:src/thread.cpp **** 
 423              		.loc 1 74 20 is_stmt 0
 424 02c4 97000000 		call	_ZN3TCB10isRunnableEv
 424      E7800000 
 425              	.LVL27:
  74:src/thread.cpp **** 
 426              		.loc 1 74 5
GAS LISTING /tmp/cc1DeWGe.s 			page 11


 427 02cc 631E0504 		bnez	a0,.L24
 428              	.L20:
  76:src/thread.cpp ****         MemoryAllocator::mem_free(TCB::running->stack);
 429              		.loc 1 76 5 is_stmt 1
  76:src/thread.cpp ****         MemoryAllocator::mem_free(TCB::running->stack);
 430              		.loc 1 76 29 is_stmt 0
 431 02d0 97070000 		ld	a5,.LANCHOR0
 431      83B70700 
 432              	.LVL28:
 433              	.LBB7:
 434              	.LBB8:
 435              		.file 2 "src/../h/thread.hpp"
   1:src/../h/thread.hpp **** //
   2:src/../h/thread.hpp **** // Created by os on 4/9/24.
   3:src/../h/thread.hpp **** //
   4:src/../h/thread.hpp **** 
   5:src/../h/thread.hpp **** #ifndef PROJECT_BASE_THREAD_HPP
   6:src/../h/thread.hpp **** #define PROJECT_BASE_THREAD_HPP
   7:src/../h/thread.hpp **** 
   8:src/../h/thread.hpp **** #include "../lib/hw.h"
   9:src/../h/thread.hpp **** #include "../h/Memoryallocator.hpp"
  10:src/../h/thread.hpp **** #include "../h/riscv.hpp"
  11:src/../h/thread.hpp **** #include "../h/syscall_c.hpp"
  12:src/../h/thread.hpp **** 
  13:src/../h/thread.hpp **** //extern void thread_dispatch();
  14:src/../h/thread.hpp **** 
  15:src/../h/thread.hpp **** using routine_ptr = void(*)(void *);
  16:src/../h/thread.hpp **** 
  17:src/../h/thread.hpp **** // _thread je wrapper ove klase
  18:src/../h/thread.hpp **** class TCB final {
  19:src/../h/thread.hpp **** 
  20:src/../h/thread.hpp ****     friend class RISCV;
  21:src/../h/thread.hpp ****     friend class Sem;
  22:src/../h/thread.hpp ****     friend class Scheduler;
  23:src/../h/thread.hpp **** 
  24:src/../h/thread.hpp **** public:
  25:src/../h/thread.hpp **** 
  26:src/../h/thread.hpp ****     static TCB* running; // current thread
  27:src/../h/thread.hpp **** 
  28:src/../h/thread.hpp ****     enum state {
  29:src/../h/thread.hpp ****         RUNNABLE,
  30:src/../h/thread.hpp ****         SLEEPING,
  31:src/../h/thread.hpp ****         CREATED,
  32:src/../h/thread.hpp ****         FINISHED,
  33:src/../h/thread.hpp ****         BLOCKED
  34:src/../h/thread.hpp ****     };
  35:src/../h/thread.hpp ****     struct Context {
  36:src/../h/thread.hpp ****         // nadogradi kasnije
  37:src/../h/thread.hpp ****         uint64 pc;
  38:src/../h/thread.hpp ****         uint64 sp;
  39:src/../h/thread.hpp ****         uint64 sstatus;
  40:src/../h/thread.hpp ****         uint64 sepc;
  41:src/../h/thread.hpp ****     };
  42:src/../h/thread.hpp **** 
  43:src/../h/thread.hpp ****     static int _threadCreate(TCB** handle, routine_ptr routine, void* args, void* stack_space); // 
  44:src/../h/thread.hpp **** 
  45:src/../h/thread.hpp ****     static void yield(TCB*, TCB*);
GAS LISTING /tmp/cc1DeWGe.s 			page 12


  46:src/../h/thread.hpp **** 
  47:src/../h/thread.hpp ****     static void dispatch();
  48:src/../h/thread.hpp **** 
  49:src/../h/thread.hpp ****     time_t getTimeSlice() const {return time_slice;}
  50:src/../h/thread.hpp **** 
  51:src/../h/thread.hpp ****     static bool isRunnable();
  52:src/../h/thread.hpp **** 
  53:src/../h/thread.hpp ****     bool isFinished() {return current_state == state::FINISHED;}
 436              		.loc 2 53 24 is_stmt 1
 437              		.loc 2 53 31 is_stmt 0
 438 02d8 83A68706 		lw	a3,104(a5)
 439              	.LVL29:
 440              	.LBE8:
 441              	.LBE7:
  76:src/thread.cpp ****         MemoryAllocator::mem_free(TCB::running->stack);
 442              		.loc 1 76 5
 443 02dc 13073000 		li	a4,3
 444 02e0 638CE604 		beq	a3,a4,.L25
 445              	.L21:
  80:src/thread.cpp ****     running = Scheduler::get();
 446              		.loc 1 80 5 is_stmt 1
  80:src/thread.cpp ****     running = Scheduler::get();
 447              		.loc 1 80 22 is_stmt 0
 448 02e4 97040000 		lla	s1,.LANCHOR0
 448      93840400 
 449 02ec 23B80400 		sd	zero,16(s1)
  81:src/thread.cpp **** 
 450              		.loc 1 81 5 is_stmt 1
  81:src/thread.cpp **** 
 451              		.loc 1 81 29 is_stmt 0
 452 02f0 97000000 		call	_ZN9Scheduler3getEv@plt
 452      E7800000 
 453              	.LVL30:
 454 02f8 93050500 		mv	a1,a0
  81:src/thread.cpp **** 
 455              		.loc 1 81 13
 456 02fc 23B0A400 		sd	a0,0(s1)
  83:src/thread.cpp **** }
 457              		.loc 1 83 5 is_stmt 1
 458 0300 6308A900 		beq	s2,a0,.L19
  83:src/thread.cpp **** }
 459              		.loc 1 83 32 discriminator 1
  83:src/thread.cpp **** }
 460              		.loc 1 83 37 is_stmt 0 discriminator 1
 461 0304 13050900 		mv	a0,s2
 462 0308 97000000 		call	_ZN3TCB5yieldEPS_S0_
 462      E7800000 
 463              	.LVL31:
 464              	.L19:
  84:src/thread.cpp **** 
 465              		.loc 1 84 1
 466 0310 83308101 		ld	ra,24(sp)
 467              		.cfi_remember_state
 468              		.cfi_restore 1
 469 0314 03340101 		ld	s0,16(sp)
 470              		.cfi_restore 8
 471              		.cfi_def_cfa 2, 32
GAS LISTING /tmp/cc1DeWGe.s 			page 13


 472 0318 83348100 		ld	s1,8(sp)
 473              		.cfi_restore 9
 474 031c 03390100 		ld	s2,0(sp)
 475              		.cfi_restore 18
 476              	.LVL32:
 477 0320 13010102 		addi	sp,sp,32
 478              		.cfi_def_cfa_offset 0
 479 0324 67800000 		jr	ra
 480              	.LVL33:
 481              	.L24:
 482              		.cfi_restore_state
  74:src/thread.cpp **** 
 483              		.loc 1 74 25 is_stmt 1 discriminator 1
  74:src/thread.cpp **** 
 484              		.loc 1 74 39 is_stmt 0 discriminator 1
 485 0328 13050900 		mv	a0,s2
 486 032c 97000000 		call	_ZN9Scheduler3putEP3TCB@plt
 486      E7800000 
 487              	.LVL34:
 488 0334 6FF0DFF9 		j	.L20
 489              	.L25:
  77:src/thread.cpp ****     }
 490              		.loc 1 77 9 is_stmt 1
  77:src/thread.cpp ****     }
 491              		.loc 1 77 34 is_stmt 0
 492 0338 03B50704 		ld	a0,64(a5)
 493 033c 97000000 		call	_ZN15MemoryAllocator8mem_freeEPv@plt
 493      E7800000 
 494              	.LVL35:
 495 0344 6FF01FFA 		j	.L21
 496              		.cfi_endproc
 497              	.LFE29:
 499              		.align	2
 500              		.globl	_ZN3TCB11_threadExitEv
 502              	_ZN3TCB11_threadExitEv:
 503              	.LFB33:
  98:src/thread.cpp **** 
  99:src/thread.cpp **** int TCB::_threadExit() {
 504              		.loc 1 99 24 is_stmt 1
 505              		.cfi_startproc
 100:src/thread.cpp **** 
 101:src/thread.cpp ****     if (TCB::running == nullptr) return -1; // error
 506              		.loc 1 101 5
 507              		.loc 1 101 22 is_stmt 0
 508 0348 97070000 		ld	a5,.LANCHOR0
 508      83B70700 
 509              		.loc 1 101 5
 510 0350 638C0702 		beqz	a5,.L28
  99:src/thread.cpp **** 
 511              		.loc 1 99 24
 512 0354 130101FF 		addi	sp,sp,-16
 513              		.cfi_def_cfa_offset 16
 514 0358 23341100 		sd	ra,8(sp)
 515 035c 23308100 		sd	s0,0(sp)
 516              		.cfi_offset 1, -8
 517              		.cfi_offset 8, -16
 518 0360 13040101 		addi	s0,sp,16
GAS LISTING /tmp/cc1DeWGe.s 			page 14


 519              		.cfi_def_cfa 8, 0
 102:src/thread.cpp **** 
 103:src/thread.cpp ****     TCB::running -> finish();
 520              		.loc 1 103 5 is_stmt 1
 521              	.LVL36:
 522              	.LBB9:
 523              	.LBB10:
  54:src/../h/thread.hpp **** 
  55:src/../h/thread.hpp ****     void finish() { current_state = state::FINISHED; }
 524              		.loc 2 55 21
 525              		.loc 2 55 35 is_stmt 0
 526 0364 13073000 		li	a4,3
 527 0368 23A4E706 		sw	a4,104(a5)
 528              	.LVL37:
 529              	.LBE10:
 530              	.LBE9:
 104:src/thread.cpp ****     thread_dispatch();
 531              		.loc 1 104 5 is_stmt 1
 532              		.loc 1 104 20 is_stmt 0
 533 036c 97000000 		call	_Z15thread_dispatchv@plt
 533      E7800000 
 534              	.LVL38:
 105:src/thread.cpp ****     return 0;
 535              		.loc 1 105 5 is_stmt 1
 536              		.loc 1 105 12 is_stmt 0
 537 0374 13050000 		li	a0,0
 106:src/thread.cpp **** }
 538              		.loc 1 106 1
 539 0378 83308100 		ld	ra,8(sp)
 540              		.cfi_restore 1
 541 037c 03340100 		ld	s0,0(sp)
 542              		.cfi_restore 8
 543              		.cfi_def_cfa 2, 16
 544 0380 13010101 		addi	sp,sp,16
 545              		.cfi_def_cfa_offset 0
 546 0384 67800000 		jr	ra
 547              	.L28:
 101:src/thread.cpp **** 
 548              		.loc 1 101 42
 549 0388 1305F0FF 		li	a0,-1
 550              		.loc 1 106 1
 551 038c 67800000 		ret
 552              		.cfi_endproc
 553              	.LFE33:
 555              		.globl	_ZN3TCB16time_slice_countE
 556              		.globl	_ZN3TCB7runningE
 557              		.globl	_ZN3TCB8id_countE
 558              		.bss
 559              		.align	3
 560              		.set	.LANCHOR0,. + 0
 563              	_ZN3TCB7runningE:
 564 0000 00000000 		.zero	8
 564      00000000 
 567              	_ZN3TCB8id_countE:
 568 0008 00000000 		.zero	4
 569 000c 00000000 		.zero	4
 572              	_ZN3TCB16time_slice_countE:
GAS LISTING /tmp/cc1DeWGe.s 			page 15


 573 0010 00000000 		.zero	8
 573      00000000 
 574              		.text
 575              	.Letext0:
 576              		.file 3 "src/../h/../lib/hw.h"
 577              		.file 4 "src/../h/../h/Memoryallocator.hpp"
 578              		.file 5 "src/../h/../h/riscv.hpp"
 579              		.file 6 "src/../h/Scheduler.hpp"
 580              		.file 7 "src/../h/../h/syscall_c.hpp"
GAS LISTING /tmp/cc1DeWGe.s 			page 16


DEFINED SYMBOLS
                            *ABS*:0000000000000000 thread.cpp
     /tmp/cc1DeWGe.s:9      .text:0000000000000000 _ZN3TCB7wrapperEv
     /tmp/cc1DeWGe.s:13     .text:0000000000000000 .L0 
     /tmp/cc1DeWGe.s:14     .text:0000000000000000 .L0 
     /tmp/cc1DeWGe.s:15     .text:0000000000000004 .L0 
     /tmp/cc1DeWGe.s:18     .text:000000000000000c .L0 
     /tmp/cc1DeWGe.s:19     .text:000000000000000c .L0 
     /tmp/cc1DeWGe.s:21     .text:0000000000000010 .L0 
     /tmp/cc1DeWGe.s:23     .text:0000000000000010 .L0 
     /tmp/cc1DeWGe.s:24     .text:0000000000000010 .L0 
     /tmp/cc1DeWGe.s:27     .text:000000000000001c .L0 
     /tmp/cc1DeWGe.s:29     .text:0000000000000020 .L0 
     /tmp/cc1DeWGe.s:30     .text:0000000000000020 .L0 
     /tmp/cc1DeWGe.s:33     .text:0000000000000028 .L0 
     /tmp/cc1DeWGe.s:34     .text:0000000000000028 .L0 
     /tmp/cc1DeWGe.s:37     .text:0000000000000034 .L0 
     /tmp/cc1DeWGe.s:42     .text:000000000000003c .L0 
     /tmp/cc1DeWGe.s:43     .text:000000000000003c .L0 
     /tmp/cc1DeWGe.s:46     .text:0000000000000044 .L0 
     /tmp/cc1DeWGe.s:47     .text:0000000000000048 .L0 
     /tmp/cc1DeWGe.s:49     .text:000000000000004c .L0 
     /tmp/cc1DeWGe.s:50     .text:000000000000004c .L0 
     /tmp/cc1DeWGe.s:52     .text:0000000000000050 .L0 
     /tmp/cc1DeWGe.s:54     .text:0000000000000054 .L0 
     /tmp/cc1DeWGe.s:60     .text:0000000000000054 _ZN3TCBC2EPFvPvES0_S0_NS_7ContextE
     /tmp/cc1DeWGe.s:63     .text:0000000000000054 .L0 
     /tmp/cc1DeWGe.s:65     .text:0000000000000054 .L0 
     /tmp/cc1DeWGe.s:66     .text:0000000000000058 .L0 
     /tmp/cc1DeWGe.s:68     .text:000000000000005c .L0 
     /tmp/cc1DeWGe.s:70     .text:0000000000000060 .L0 
     /tmp/cc1DeWGe.s:73     .text:0000000000000060 .L0 
     /tmp/cc1DeWGe.s:82     .text:0000000000000080 .L0 
     /tmp/cc1DeWGe.s:83     .text:0000000000000080 .L0 
     /tmp/cc1DeWGe.s:88     .text:0000000000000094 .L0 
     /tmp/cc1DeWGe.s:90     .text:0000000000000098 .L0 
     /tmp/cc1DeWGe.s:91     .text:0000000000000098 .L0 
     /tmp/cc1DeWGe.s:93     .text:000000000000009c .L0 
     /tmp/cc1DeWGe.s:94     .text:000000000000009c .L0 
     /tmp/cc1DeWGe.s:96     .text:00000000000000a0 .L0 
     /tmp/cc1DeWGe.s:97     .text:00000000000000a0 .L0 
     /tmp/cc1DeWGe.s:99     .text:00000000000000a4 .L0 
     /tmp/cc1DeWGe.s:100    .text:00000000000000a4 .L0 
     /tmp/cc1DeWGe.s:102    .text:00000000000000a8 .L0 
     /tmp/cc1DeWGe.s:103    .text:00000000000000a8 .L0 
     /tmp/cc1DeWGe.s:105    .text:00000000000000ac .L0 
     /tmp/cc1DeWGe.s:106    .text:00000000000000ac .L0 
     /tmp/cc1DeWGe.s:108    .text:00000000000000b0 .L0 
     /tmp/cc1DeWGe.s:109    .text:00000000000000b0 .L0 
     /tmp/cc1DeWGe.s:111    .text:00000000000000b4 .L0 
     /tmp/cc1DeWGe.s:112    .text:00000000000000b4 .L0 
     /tmp/cc1DeWGe.s:114    .text:00000000000000b8 .L0 
     /tmp/cc1DeWGe.s:115    .text:00000000000000b8 .L0 
     /tmp/cc1DeWGe.s:119    .text:00000000000000c0 .L0 
     /tmp/cc1DeWGe.s:120    .text:00000000000000c4 .L0 
     /tmp/cc1DeWGe.s:121    .text:00000000000000c4 .L0 
     /tmp/cc1DeWGe.s:123    .text:00000000000000c8 .L0 
GAS LISTING /tmp/cc1DeWGe.s 			page 17


     /tmp/cc1DeWGe.s:125    .text:00000000000000cc .L0 
     /tmp/cc1DeWGe.s:60     .text:0000000000000054 _ZN3TCBC1EPFvPvES0_S0_NS_7ContextE
     /tmp/cc1DeWGe.s:133    .text:00000000000000cc _ZN3TCB5yieldEPS_S0_
     /tmp/cc1DeWGe.s:136    .text:00000000000000cc .L0 
     /tmp/cc1DeWGe.s:138    .text:00000000000000cc .L0 
     /tmp/cc1DeWGe.s:139    .text:00000000000000d0 .L0 
     /tmp/cc1DeWGe.s:144    .text:00000000000000e0 .L0 
     /tmp/cc1DeWGe.s:145    .text:00000000000000e0 .L0 
     /tmp/cc1DeWGe.s:146    .text:00000000000000e0 .L0 
     /tmp/cc1DeWGe.s:147    .text:00000000000000e0 .L0 
     /tmp/cc1DeWGe.s:149    .text:00000000000000e4 .L0 
     /tmp/cc1DeWGe.s:153    .text:00000000000000ec .L0 
     /tmp/cc1DeWGe.s:154    .text:00000000000000ec .L0 
     /tmp/cc1DeWGe.s:157    .text:00000000000000f4 .L0 
     /tmp/cc1DeWGe.s:158    .text:00000000000000f4 .L0 
     /tmp/cc1DeWGe.s:163    .text:0000000000000104 .L0 
     /tmp/cc1DeWGe.s:164    .text:0000000000000104 .L0 
     /tmp/cc1DeWGe.s:167    .text:000000000000010c .L0 
     /tmp/cc1DeWGe.s:168    .text:0000000000000110 .L0 
     /tmp/cc1DeWGe.s:170    .text:0000000000000114 .L0 
     /tmp/cc1DeWGe.s:171    .text:0000000000000114 .L0 
     /tmp/cc1DeWGe.s:173    .text:0000000000000118 .L0 
     /tmp/cc1DeWGe.s:176    .text:000000000000011c .L0 
     /tmp/cc1DeWGe.s:179    .text:0000000000000120 .L0 
     /tmp/cc1DeWGe.s:181    .text:0000000000000124 .L0 
     /tmp/cc1DeWGe.s:187    .text:0000000000000124 _ZN3TCBnwEm
     /tmp/cc1DeWGe.s:190    .text:0000000000000124 .L0 
     /tmp/cc1DeWGe.s:192    .text:0000000000000124 .L0 
     /tmp/cc1DeWGe.s:193    .text:0000000000000128 .L0 
     /tmp/cc1DeWGe.s:196    .text:0000000000000130 .L0 
     /tmp/cc1DeWGe.s:197    .text:0000000000000130 .L0 
     /tmp/cc1DeWGe.s:199    .text:0000000000000134 .L0 
     /tmp/cc1DeWGe.s:201    .text:0000000000000134 .L0 
     /tmp/cc1DeWGe.s:202    .text:0000000000000134 .L0 
     /tmp/cc1DeWGe.s:205    .text:0000000000000138 .L0 
     /tmp/cc1DeWGe.s:206    .text:0000000000000138 .L0 
     /tmp/cc1DeWGe.s:211    .text:0000000000000144 .L0 
     /tmp/cc1DeWGe.s:212    .text:0000000000000148 .L0 
     /tmp/cc1DeWGe.s:214    .text:000000000000014c .L0 
     /tmp/cc1DeWGe.s:215    .text:000000000000014c .L0 
     /tmp/cc1DeWGe.s:217    .text:0000000000000150 .L0 
     /tmp/cc1DeWGe.s:219    .text:0000000000000154 .L0 
     /tmp/cc1DeWGe.s:225    .text:0000000000000154 _ZN3TCB13_threadCreateEPPS_PFvPvES2_S2_
     /tmp/cc1DeWGe.s:228    .text:0000000000000154 .L0 
     /tmp/cc1DeWGe.s:230    .text:0000000000000154 .L0 
     /tmp/cc1DeWGe.s:231    .text:0000000000000158 .L0 
     /tmp/cc1DeWGe.s:239    .text:0000000000000174 .L0 
     /tmp/cc1DeWGe.s:240    .text:0000000000000174 .L0 
     /tmp/cc1DeWGe.s:241    .text:0000000000000174 .L0 
     /tmp/cc1DeWGe.s:242    .text:0000000000000174 .L0 
     /tmp/cc1DeWGe.s:243    .text:0000000000000174 .L0 
     /tmp/cc1DeWGe.s:244    .text:0000000000000174 .L0 
     /tmp/cc1DeWGe.s:245    .text:0000000000000174 .L0 
     /tmp/cc1DeWGe.s:247    .text:0000000000000178 .L0 
     /tmp/cc1DeWGe.s:253    .text:0000000000000188 .L0 
     /tmp/cc1DeWGe.s:254    .text:0000000000000188 .L0 
     /tmp/cc1DeWGe.s:259    .text:000000000000019c .L0 
GAS LISTING /tmp/cc1DeWGe.s 			page 18


     /tmp/cc1DeWGe.s:261    .text:00000000000001a0 .L0 
     /tmp/cc1DeWGe.s:266    .text:00000000000001ac .L0 
     /tmp/cc1DeWGe.s:267    .text:00000000000001ac .L0 
     /tmp/cc1DeWGe.s:275    .text:00000000000001c8 .L0 
     /tmp/cc1DeWGe.s:295    .text:0000000000000210 .L0 
     /tmp/cc1DeWGe.s:297    .text:0000000000000214 .L0 
     /tmp/cc1DeWGe.s:299    .text:0000000000000218 .L0 
     /tmp/cc1DeWGe.s:300    .text:0000000000000218 .L0 
     /tmp/cc1DeWGe.s:305    .text:0000000000000224 .L0 
     /tmp/cc1DeWGe.s:306    .text:0000000000000224 .L0 
     /tmp/cc1DeWGe.s:308    .text:000000000000022c .L0 
     /tmp/cc1DeWGe.s:309    .text:000000000000022c .L0 
     /tmp/cc1DeWGe.s:311    .text:0000000000000230 .L0 
     /tmp/cc1DeWGe.s:312    .text:0000000000000230 .L0 
     /tmp/cc1DeWGe.s:314    .text:0000000000000234 .L0 
     /tmp/cc1DeWGe.s:317    .text:0000000000000238 .L0 
     /tmp/cc1DeWGe.s:320    .text:000000000000023c .L0 
     /tmp/cc1DeWGe.s:322    .text:0000000000000240 .L0 
     /tmp/cc1DeWGe.s:325    .text:0000000000000244 .L0 
     /tmp/cc1DeWGe.s:328    .text:0000000000000248 .L0 
     /tmp/cc1DeWGe.s:332    .text:000000000000024c .L0 
     /tmp/cc1DeWGe.s:334    .text:000000000000024c .L0 
     /tmp/cc1DeWGe.s:336    .text:0000000000000254 .L0 
     /tmp/cc1DeWGe.s:342    .text:0000000000000254 _ZN3TCBdlEPv
     /tmp/cc1DeWGe.s:345    .text:0000000000000254 .L0 
     /tmp/cc1DeWGe.s:347    .text:0000000000000254 .L0 
     /tmp/cc1DeWGe.s:348    .text:0000000000000258 .L0 
     /tmp/cc1DeWGe.s:351    .text:0000000000000260 .L0 
     /tmp/cc1DeWGe.s:352    .text:0000000000000260 .L0 
     /tmp/cc1DeWGe.s:354    .text:0000000000000264 .L0 
     /tmp/cc1DeWGe.s:356    .text:0000000000000264 .L0 
     /tmp/cc1DeWGe.s:357    .text:0000000000000264 .L0 
     /tmp/cc1DeWGe.s:360    .text:000000000000026c .L0 
     /tmp/cc1DeWGe.s:361    .text:0000000000000270 .L0 
     /tmp/cc1DeWGe.s:363    .text:0000000000000274 .L0 
     /tmp/cc1DeWGe.s:364    .text:0000000000000274 .L0 
     /tmp/cc1DeWGe.s:366    .text:0000000000000278 .L0 
     /tmp/cc1DeWGe.s:368    .text:000000000000027c .L0 
     /tmp/cc1DeWGe.s:374    .text:000000000000027c _ZN3TCB10isRunnableEv
     /tmp/cc1DeWGe.s:377    .text:000000000000027c .L0 
     /tmp/cc1DeWGe.s:378    .text:000000000000027c .L0 
     /tmp/cc1DeWGe.s:379    .text:0000000000000280 .L0 
     /tmp/cc1DeWGe.s:381    .text:0000000000000284 .L0 
     /tmp/cc1DeWGe.s:383    .text:0000000000000288 .L0 
     /tmp/cc1DeWGe.s:385    .text:0000000000000288 .L0 
     /tmp/cc1DeWGe.s:386    .text:0000000000000288 .L0 
     /tmp/cc1DeWGe.s:389    .text:0000000000000294 .L0 
     /tmp/cc1DeWGe.s:391    .text:000000000000029c .L0 
     /tmp/cc1DeWGe.s:392    .text:000000000000029c .L0 
     /tmp/cc1DeWGe.s:394    .text:00000000000002a0 .L0 
     /tmp/cc1DeWGe.s:396    .text:00000000000002a4 .L0 
     /tmp/cc1DeWGe.s:402    .text:00000000000002a4 _ZN3TCB8dispatchEv
     /tmp/cc1DeWGe.s:405    .text:00000000000002a4 .L0 
     /tmp/cc1DeWGe.s:406    .text:00000000000002a4 .L0 
     /tmp/cc1DeWGe.s:407    .text:00000000000002a8 .L0 
     /tmp/cc1DeWGe.s:412    .text:00000000000002b8 .L0 
     /tmp/cc1DeWGe.s:413    .text:00000000000002b8 .L0 
GAS LISTING /tmp/cc1DeWGe.s 			page 19


     /tmp/cc1DeWGe.s:414    .text:00000000000002b8 .L0 
     /tmp/cc1DeWGe.s:415    .text:00000000000002b8 .L0 
     /tmp/cc1DeWGe.s:417    .text:00000000000002bc .L0 
     /tmp/cc1DeWGe.s:419    .text:00000000000002bc .L0 
     /tmp/cc1DeWGe.s:420    .text:00000000000002bc .L0 
     /tmp/cc1DeWGe.s:423    .text:00000000000002c4 .L0 
     /tmp/cc1DeWGe.s:424    .text:00000000000002c4 .L0 
     /tmp/cc1DeWGe.s:427    .text:00000000000002cc .L0 
     /tmp/cc1DeWGe.s:430    .text:00000000000002d0 .L0 
     /tmp/cc1DeWGe.s:431    .text:00000000000002d0 .L0 
     /tmp/cc1DeWGe.s:437    .text:00000000000002d8 .L0 
     /tmp/cc1DeWGe.s:438    .text:00000000000002d8 .L0 
     /tmp/cc1DeWGe.s:443    .text:00000000000002dc .L0 
     /tmp/cc1DeWGe.s:447    .text:00000000000002e4 .L0 
     /tmp/cc1DeWGe.s:448    .text:00000000000002e4 .L0 
     /tmp/cc1DeWGe.s:451    .text:00000000000002f0 .L0 
     /tmp/cc1DeWGe.s:452    .text:00000000000002f0 .L0 
     /tmp/cc1DeWGe.s:456    .text:00000000000002fc .L0 
     /tmp/cc1DeWGe.s:458    .text:0000000000000300 .L0 
     /tmp/cc1DeWGe.s:460    .text:0000000000000304 .L0 
     /tmp/cc1DeWGe.s:461    .text:0000000000000304 .L0 
     /tmp/cc1DeWGe.s:466    .text:0000000000000310 .L0 
     /tmp/cc1DeWGe.s:467    .text:0000000000000314 .L0 
     /tmp/cc1DeWGe.s:468    .text:0000000000000314 .L0 
     /tmp/cc1DeWGe.s:470    .text:0000000000000318 .L0 
     /tmp/cc1DeWGe.s:471    .text:0000000000000318 .L0 
     /tmp/cc1DeWGe.s:473    .text:000000000000031c .L0 
     /tmp/cc1DeWGe.s:475    .text:0000000000000320 .L0 
     /tmp/cc1DeWGe.s:478    .text:0000000000000324 .L0 
     /tmp/cc1DeWGe.s:482    .text:0000000000000328 .L0 
     /tmp/cc1DeWGe.s:484    .text:0000000000000328 .L0 
     /tmp/cc1DeWGe.s:485    .text:0000000000000328 .L0 
     /tmp/cc1DeWGe.s:491    .text:0000000000000338 .L0 
     /tmp/cc1DeWGe.s:492    .text:0000000000000338 .L0 
     /tmp/cc1DeWGe.s:496    .text:0000000000000348 .L0 
     /tmp/cc1DeWGe.s:502    .text:0000000000000348 _ZN3TCB11_threadExitEv
     /tmp/cc1DeWGe.s:505    .text:0000000000000348 .L0 
     /tmp/cc1DeWGe.s:506    .text:0000000000000348 .L0 
     /tmp/cc1DeWGe.s:507    .text:0000000000000348 .L0 
     /tmp/cc1DeWGe.s:508    .text:0000000000000348 .L0 
     /tmp/cc1DeWGe.s:510    .text:0000000000000350 .L0 
     /tmp/cc1DeWGe.s:512    .text:0000000000000354 .L0 
     /tmp/cc1DeWGe.s:513    .text:0000000000000358 .L0 
     /tmp/cc1DeWGe.s:516    .text:0000000000000360 .L0 
     /tmp/cc1DeWGe.s:517    .text:0000000000000360 .L0 
     /tmp/cc1DeWGe.s:519    .text:0000000000000364 .L0 
     /tmp/cc1DeWGe.s:524    .text:0000000000000364 .L0 
     /tmp/cc1DeWGe.s:525    .text:0000000000000364 .L0 
     /tmp/cc1DeWGe.s:526    .text:0000000000000364 .L0 
     /tmp/cc1DeWGe.s:532    .text:000000000000036c .L0 
     /tmp/cc1DeWGe.s:533    .text:000000000000036c .L0 
     /tmp/cc1DeWGe.s:536    .text:0000000000000374 .L0 
     /tmp/cc1DeWGe.s:537    .text:0000000000000374 .L0 
     /tmp/cc1DeWGe.s:539    .text:0000000000000378 .L0 
     /tmp/cc1DeWGe.s:540    .text:000000000000037c .L0 
     /tmp/cc1DeWGe.s:542    .text:0000000000000380 .L0 
     /tmp/cc1DeWGe.s:543    .text:0000000000000380 .L0 
GAS LISTING /tmp/cc1DeWGe.s 			page 20


     /tmp/cc1DeWGe.s:545    .text:0000000000000384 .L0 
     /tmp/cc1DeWGe.s:549    .text:0000000000000388 .L0 
     /tmp/cc1DeWGe.s:551    .text:000000000000038c .L0 
     /tmp/cc1DeWGe.s:552    .text:0000000000000390 .L0 
     /tmp/cc1DeWGe.s:572    .bss:0000000000000010 _ZN3TCB16time_slice_countE
     /tmp/cc1DeWGe.s:563    .bss:0000000000000000 _ZN3TCB7runningE
     /tmp/cc1DeWGe.s:567    .bss:0000000000000008 _ZN3TCB8id_countE
     /tmp/cc1DeWGe.s:560    .bss:0000000000000000 .LANCHOR0
     /tmp/cc1DeWGe.s:581    .text:0000000000000390 .L0 
     /tmp/cc1DeWGe.s:24     .text:0000000000000010 .L0 
     /tmp/cc1DeWGe.s:34     .text:0000000000000028 .L0 
     /tmp/cc1DeWGe.s:83     .text:0000000000000080 .L0 
     /tmp/cc1DeWGe.s:256    .text:0000000000000190 .L0 
     /tmp/cc1DeWGe.s:386    .text:0000000000000288 .L0 
     /tmp/cc1DeWGe.s:420    .text:00000000000002bc .L0 
     /tmp/cc1DeWGe.s:431    .text:00000000000002d0 .L0 
     /tmp/cc1DeWGe.s:448    .text:00000000000002e4 .L0 
     /tmp/cc1DeWGe.s:508    .text:0000000000000348 .L0 
     /tmp/cc1DeWGe.s:40     .text:000000000000003c .L2
     /tmp/cc1DeWGe.s:331    .text:000000000000024c .L13
     /tmp/cc1DeWGe.s:303    .text:0000000000000224 .L12
     /tmp/cc1DeWGe.s:264    .text:00000000000001ac .L11
     /tmp/cc1DeWGe.s:481    .text:0000000000000328 .L24
     /tmp/cc1DeWGe.s:489    .text:0000000000000338 .L25
     /tmp/cc1DeWGe.s:464    .text:0000000000000310 .L19
     /tmp/cc1DeWGe.s:428    .text:00000000000002d0 .L20
     /tmp/cc1DeWGe.s:445    .text:00000000000002e4 .L21
     /tmp/cc1DeWGe.s:547    .text:0000000000000388 .L28
     /tmp/cc1DeWGe.s:2075   .debug_abbrev:0000000000000000 .Ldebug_abbrev0
     /tmp/cc1DeWGe.s:3722   .debug_str:0000000000000826 .LASF164
     /tmp/cc1DeWGe.s:3742   .debug_str:000000000000095e .LASF165
     /tmp/cc1DeWGe.s:3546   .debug_str:00000000000002e6 .LASF166
     /tmp/cc1DeWGe.s:5      .text:0000000000000000 .Ltext0
     /tmp/cc1DeWGe.s:575    .text:0000000000000390 .Letext0
     /tmp/cc1DeWGe.s:3448   .debug_line:0000000000000000 .Ldebug_line0
     /tmp/cc1DeWGe.s:3564   .debug_str:0000000000000373 .LASF0
     /tmp/cc1DeWGe.s:3586   .debug_str:00000000000003f3 .LASF1
     /tmp/cc1DeWGe.s:3676   .debug_str:00000000000006a0 .LASF2
     /tmp/cc1DeWGe.s:3684   .debug_str:000000000000070a .LASF4
     /tmp/cc1DeWGe.s:3568   .debug_str:000000000000038a .LASF3
     /tmp/cc1DeWGe.s:3456   .debug_str:0000000000000044 .LASF5
     /tmp/cc1DeWGe.s:3650   .debug_str:0000000000000609 .LASF6
     /tmp/cc1DeWGe.s:3644   .debug_str:00000000000005cb .LASF7
     /tmp/cc1DeWGe.s:3574   .debug_str:00000000000003b2 .LASF8
     /tmp/cc1DeWGe.s:3544   .debug_str:00000000000002d6 .LASF9
     /tmp/cc1DeWGe.s:3554   .debug_str:0000000000000324 .LASF10
     /tmp/cc1DeWGe.s:3490   .debug_str:0000000000000154 .LASF11
     /tmp/cc1DeWGe.s:3536   .debug_str:00000000000002ac .LASF12
     /tmp/cc1DeWGe.s:3502   .debug_str:00000000000001a4 .LASF13
     /tmp/cc1DeWGe.s:3488   .debug_str:0000000000000144 .LASF14
     /tmp/cc1DeWGe.s:3706   .debug_str:00000000000007ac .LASF15
     /tmp/cc1DeWGe.s:3530   .debug_str:0000000000000267 .LASF16
     /tmp/cc1DeWGe.s:3700   .debug_str:0000000000000772 .LASF17
     /tmp/cc1DeWGe.s:3640   .debug_str:00000000000005a0 .LASF21
     /tmp/cc1DeWGe.s:3482   .debug_str:000000000000011a .LASF85
     /tmp/cc1DeWGe.s:3492   .debug_str:0000000000000163 .LASF18
     /tmp/cc1DeWGe.s:3466   .debug_str:00000000000000a5 .LASF19
GAS LISTING /tmp/cc1DeWGe.s 			page 21


     /tmp/cc1DeWGe.s:3584   .debug_str:00000000000003ee .LASF20
     /tmp/cc1DeWGe.s:3464   .debug_str:000000000000008c .LASF22
     /tmp/cc1DeWGe.s:3698   .debug_str:0000000000000757 .LASF23
     /tmp/cc1DeWGe.s:3762   .debug_str:0000000000000a01 .LASF167
     /tmp/cc1DeWGe.s:3778   .debug_str:0000000000000a60 .LASF168
     /tmp/cc1DeWGe.s:3718   .debug_str:0000000000000810 .LASF24
     /tmp/cc1DeWGe.s:3462   .debug_str:000000000000007e .LASF25
     /tmp/cc1DeWGe.s:3566   .debug_str:0000000000000380 .LASF26
     /tmp/cc1DeWGe.s:3682   .debug_str:00000000000006d8 .LASF28
     /tmp/cc1DeWGe.s:3750   .debug_str:00000000000009a8 .LASF89
     /tmp/cc1DeWGe.s:3528   .debug_str:0000000000000258 .LASF44
     /tmp/cc1DeWGe.s:3624   .debug_str:0000000000000527 .LASF46
     /tmp/cc1DeWGe.s:3618   .debug_str:00000000000004e7 .LASF40
     /tmp/cc1DeWGe.s:3458   .debug_str:000000000000004b .LASF42
     /tmp/cc1DeWGe.s:3712   .debug_str:00000000000007d8 .LASF27
     /tmp/cc1DeWGe.s:3620   .debug_str:00000000000004f1 .LASF29
     /tmp/cc1DeWGe.s:3654   .debug_str:0000000000000618 .LASF30
     /tmp/cc1DeWGe.s:3770   .debug_str:0000000000000a28 .LASF31
     /tmp/cc1DeWGe.s:3510   .debug_str:00000000000001df .LASF32
     /tmp/cc1DeWGe.s:3670   .debug_str:0000000000000667 .LASF34
     /tmp/cc1DeWGe.s:3518   .debug_str:0000000000000206 .LASF33
     /tmp/cc1DeWGe.s:3678   .debug_str:00000000000006ae .LASF35
     /tmp/cc1DeWGe.s:3478   .debug_str:0000000000000102 .LASF36
     /tmp/cc1DeWGe.s:3740   .debug_str:0000000000000948 .LASF37
     /tmp/cc1DeWGe.s:3552   .debug_str:000000000000031b .LASF38
     /tmp/cc1DeWGe.s:3774   .debug_str:0000000000000a44 .LASF39
     /tmp/cc1DeWGe.s:3744   .debug_str:000000000000096d .LASF41
     /tmp/cc1DeWGe.s:3714   .debug_str:00000000000007e1 .LASF43
     /tmp/cc1DeWGe.s:3668   .debug_str:000000000000065d .LASF45
     /tmp/cc1DeWGe.s:3796   .debug_str:0000000000000b33 .LASF47
     /tmp/cc1DeWGe.s:3710   .debug_str:00000000000007ce .LASF48
     /tmp/cc1DeWGe.s:3648   .debug_str:00000000000005f3 .LASF49
     /tmp/cc1DeWGe.s:3758   .debug_str:00000000000009e5 .LASF50
     /tmp/cc1DeWGe.s:3760   .debug_str:00000000000009ed .LASF51
     /tmp/cc1DeWGe.s:3690   .debug_str:0000000000000733 .LASF52
     /tmp/cc1DeWGe.s:3794   .debug_str:0000000000000b1f .LASF53
     /tmp/cc1DeWGe.s:3484   .debug_str:0000000000000126 .LASF54
     /tmp/cc1DeWGe.s:3788   .debug_str:0000000000000ada .LASF55
     /tmp/cc1DeWGe.s:3596   .debug_str:0000000000000433 .LASF56
     /tmp/cc1DeWGe.s:3716   .debug_str:00000000000007fb .LASF57
     /tmp/cc1DeWGe.s:3656   .debug_str:0000000000000623 .LASF58
     /tmp/cc1DeWGe.s:3602   .debug_str:000000000000046a .LASF59
     /tmp/cc1DeWGe.s:3764   .debug_str:0000000000000a0c .LASF60
     /tmp/cc1DeWGe.s:3646   .debug_str:00000000000005de .LASF61
     /tmp/cc1DeWGe.s:3630   .debug_str:0000000000000563 .LASF62
     /tmp/cc1DeWGe.s:3610   .debug_str:00000000000004b1 .LASF63
     /tmp/cc1DeWGe.s:3532   .debug_str:000000000000027d .LASF64
     /tmp/cc1DeWGe.s:3704   .debug_str:0000000000000799 .LASF65
     /tmp/cc1DeWGe.s:3732   .debug_str:0000000000000922 .LASF66
     /tmp/cc1DeWGe.s:3500   .debug_str:000000000000018c .LASF67
     /tmp/cc1DeWGe.s:3768   .debug_str:0000000000000a1d .LASF68
     /tmp/cc1DeWGe.s:3748   .debug_str:0000000000000990 .LASF69
     /tmp/cc1DeWGe.s:3572   .debug_str:00000000000003a8 .LASF70
     /tmp/cc1DeWGe.s:3746   .debug_str:000000000000097a .LASF71
     /tmp/cc1DeWGe.s:3728   .debug_str:0000000000000906 .LASF72
     /tmp/cc1DeWGe.s:3730   .debug_str:000000000000090e .LASF73
     /tmp/cc1DeWGe.s:3508   .debug_str:00000000000001d3 .LASF74
GAS LISTING /tmp/cc1DeWGe.s 			page 22


     /tmp/cc1DeWGe.s:3786   .debug_str:0000000000000ac1 .LASF75
     /tmp/cc1DeWGe.s:3660   .debug_str:000000000000063c .LASF76
     /tmp/cc1DeWGe.s:3600   .debug_str:0000000000000452 .LASF77
     /tmp/cc1DeWGe.s:3558   .debug_str:000000000000033d .LASF78
     /tmp/cc1DeWGe.s:3524   .debug_str:000000000000022b .LASF79
     /tmp/cc1DeWGe.s:3522   .debug_str:0000000000000225 .LASF169
     /tmp/cc1DeWGe.s:3576   .debug_str:00000000000003c5 .LASF80
     /tmp/cc1DeWGe.s:3494   .debug_str:0000000000000168 .LASF81
     /tmp/cc1DeWGe.s:3652   .debug_str:0000000000000610 .LASF82
     /tmp/cc1DeWGe.s:3476   .debug_str:00000000000000f9 .LASF83
     /tmp/cc1DeWGe.s:3606   .debug_str:00000000000004a2 .LASF84
     /tmp/cc1DeWGe.s:3496   .debug_str:0000000000000171 .LASF86
     /tmp/cc1DeWGe.s:3766   .debug_str:0000000000000a15 .LASF87
     /tmp/cc1DeWGe.s:3724   .debug_str:00000000000008ea .LASF88
     /tmp/cc1DeWGe.s:3720   .debug_str:000000000000081e .LASF90
     /tmp/cc1DeWGe.s:3480   .debug_str:000000000000010c .LASF91
     /tmp/cc1DeWGe.s:3534   .debug_str:0000000000000284 .LASF92
     /tmp/cc1DeWGe.s:3588   .debug_str:0000000000000406 .LASF93
     /tmp/cc1DeWGe.s:3592   .debug_str:0000000000000419 .LASF94
     /tmp/cc1DeWGe.s:3514   .debug_str:00000000000001f7 .LASF95
     /tmp/cc1DeWGe.s:3498   .debug_str:0000000000000179 .LASF96
     /tmp/cc1DeWGe.s:3590   .debug_str:000000000000040c .LASF97
     /tmp/cc1DeWGe.s:3752   .debug_str:00000000000009b2 .LASF98
     /tmp/cc1DeWGe.s:3734   .debug_str:000000000000092d .LASF99
     /tmp/cc1DeWGe.s:3598   .debug_str:000000000000043c .LASF100
     /tmp/cc1DeWGe.s:3556   .debug_str:0000000000000332 .LASF101
     /tmp/cc1DeWGe.s:3708   .debug_str:00000000000007b8 .LASF102
     /tmp/cc1DeWGe.s:3608   .debug_str:00000000000004aa .LASF103
     /tmp/cc1DeWGe.s:3504   .debug_str:00000000000001b4 .LASF104
     /tmp/cc1DeWGe.s:3686   .debug_str:0000000000000711 .LASF105
     /tmp/cc1DeWGe.s:3454   .debug_str:0000000000000038 .LASF106
     /tmp/cc1DeWGe.s:3790   .debug_str:0000000000000aef .LASF107
     /tmp/cc1DeWGe.s:3548   .debug_str:0000000000000304 .LASF108
     /tmp/cc1DeWGe.s:3450   .debug_str:0000000000000000 .LASF109
     /tmp/cc1DeWGe.s:3634   .debug_str:0000000000000582 .LASF110
     /tmp/cc1DeWGe.s:3692   .debug_str:000000000000073b .LASF111
     /tmp/cc1DeWGe.s:3674   .debug_str:000000000000068f .LASF112
     /tmp/cc1DeWGe.s:3470   .debug_str:00000000000000cb .LASF113
     /tmp/cc1DeWGe.s:3680   .debug_str:00000000000006cc .LASF114
     /tmp/cc1DeWGe.s:3578   .debug_str:00000000000003ce .LASF115
     /tmp/cc1DeWGe.s:3520   .debug_str:0000000000000217 .LASF116
     /tmp/cc1DeWGe.s:3664   .debug_str:000000000000064c .LASF117
     /tmp/cc1DeWGe.s:3512   .debug_str:00000000000001ef .LASF118
     /tmp/cc1DeWGe.s:3636   .debug_str:000000000000058f .LASF119
     /tmp/cc1DeWGe.s:3696   .debug_str:0000000000000751 .LASF120
     /tmp/cc1DeWGe.s:3736   .debug_str:0000000000000938 .LASF121
     /tmp/cc1DeWGe.s:3626   .debug_str:000000000000054e .LASF122
     /tmp/cc1DeWGe.s:3792   .debug_str:0000000000000afc .LASF130
     /tmp/cc1DeWGe.s:3506   .debug_str:00000000000001c5 .LASF170
     /tmp/cc1DeWGe.s:3452   .debug_str:0000000000000010 .LASF171
     /tmp/cc1DeWGe.s:3756   .debug_str:00000000000009dd .LASF144
     /tmp/cc1DeWGe.s:3460   .debug_str:000000000000006c .LASF146
     /tmp/cc1DeWGe.s:3638   .debug_str:0000000000000594 .LASF123
     /tmp/cc1DeWGe.s:3726   .debug_str:00000000000008ef .LASF124
     /tmp/cc1DeWGe.s:3570   .debug_str:000000000000039c .LASF125
     /tmp/cc1DeWGe.s:3662   .debug_str:0000000000000647 .LASF126
     /tmp/cc1DeWGe.s:3542   .debug_str:00000000000002cc .LASF127
GAS LISTING /tmp/cc1DeWGe.s 			page 23


     /tmp/cc1DeWGe.s:3580   .debug_str:00000000000003da .LASF128
     /tmp/cc1DeWGe.s:3780   .debug_str:0000000000000a7b .LASF129
     /tmp/cc1DeWGe.s:3784   .debug_str:0000000000000aad .LASF172
     /tmp/cc1DeWGe.s:3562   .debug_str:000000000000035b .LASF131
     /tmp/cc1DeWGe.s:3582   .debug_str:00000000000003e9 .LASF132
     /tmp/cc1DeWGe.s:3526   .debug_str:0000000000000243 .LASF133
     /tmp/cc1DeWGe.s:3516   .debug_str:0000000000000200 .LASF134
     /tmp/cc1DeWGe.s:3772   .debug_str:0000000000000a2e .LASF135
     /tmp/cc1DeWGe.s:3672   .debug_str:0000000000000684 .LASF136
     /tmp/cc1DeWGe.s:3468   .debug_str:00000000000000aa .LASF137
     /tmp/cc1DeWGe.s:3474   .debug_str:00000000000000e7 .LASF138
     /tmp/cc1DeWGe.s:3560   .debug_str:0000000000000348 .LASF139
     /tmp/cc1DeWGe.s:3486   .debug_str:000000000000012f .LASF140
     /tmp/cc1DeWGe.s:3538   .debug_str:00000000000002bb .LASF141
     /tmp/cc1DeWGe.s:3688   .debug_str:0000000000000716 .LASF142
     /tmp/cc1DeWGe.s:3782   .debug_str:0000000000000a9b .LASF143
     /tmp/cc1DeWGe.s:3738   .debug_str:0000000000000940 .LASF145
     /tmp/cc1DeWGe.s:3632   .debug_str:000000000000056a .LASF147
     /tmp/cc1DeWGe.s:3666   .debug_str:0000000000000657 .LASF148
     /tmp/cc1DeWGe.s:3594   .debug_str:000000000000042e .LASF149
     /tmp/cc1DeWGe.s:3694   .debug_str:0000000000000744 .LASF150
     /tmp/cc1DeWGe.s:3754   .debug_str:00000000000009cb .LASF151
     /tmp/cc1DeWGe.s:3472   .debug_str:00000000000000d6 .LASF152
     /tmp/cc1DeWGe.s:3642   .debug_str:00000000000005b0 .LASF153
     /tmp/cc1DeWGe.s:503    .text:0000000000000348 .LFB33
     /tmp/cc1DeWGe.s:553    .text:0000000000000390 .LFE33
     /tmp/cc1DeWGe.s:522    .text:0000000000000364 .LBB9
     /tmp/cc1DeWGe.s:530    .text:000000000000036c .LBE9
     /tmp/cc1DeWGe.s:3226   .debug_loc:0000000000000000 .LLST11
     /tmp/cc1DeWGe.s:534    .text:0000000000000374 .LVL38
     /tmp/cc1DeWGe.s:375    .text:000000000000027c .LFB32
     /tmp/cc1DeWGe.s:397    .text:00000000000002a4 .LFE32
     /tmp/cc1DeWGe.s:343    .text:0000000000000254 .LFB31
     /tmp/cc1DeWGe.s:369    .text:000000000000027c .LFE31
     /tmp/cc1DeWGe.s:3233   .debug_loc:0000000000000023 .LLST8
     /tmp/cc1DeWGe.s:358    .text:000000000000026c .LVL25
     /tmp/cc1DeWGe.s:188    .text:0000000000000124 .LFB30
     /tmp/cc1DeWGe.s:220    .text:0000000000000154 .LFE30
     /tmp/cc1DeWGe.s:3247   .debug_loc:000000000000005c .LLST2
     /tmp/cc1DeWGe.s:3628   .debug_str:000000000000055c .LASF154
     /tmp/cc1DeWGe.s:3267   .debug_loc:00000000000000ab .LLST3
     /tmp/cc1DeWGe.s:209    .text:0000000000000144 .LVL13
     /tmp/cc1DeWGe.s:403    .text:00000000000002a4 .LFB29
     /tmp/cc1DeWGe.s:497    .text:0000000000000348 .LFE29
     /tmp/cc1DeWGe.s:3550   .debug_str:0000000000000310 .LASF155
     /tmp/cc1DeWGe.s:3293   .debug_loc:00000000000000ff .LLST9
     /tmp/cc1DeWGe.s:433    .text:00000000000002d8 .LBB7
     /tmp/cc1DeWGe.s:441    .text:00000000000002dc .LBE7
     /tmp/cc1DeWGe.s:3304   .debug_loc:0000000000000135 .LLST10
     /tmp/cc1DeWGe.s:425    .text:00000000000002cc .LVL27
     /tmp/cc1DeWGe.s:453    .text:00000000000002f8 .LVL30
     /tmp/cc1DeWGe.s:463    .text:0000000000000310 .LVL31
     /tmp/cc1DeWGe.s:487    .text:0000000000000334 .LVL34
     /tmp/cc1DeWGe.s:494    .text:0000000000000344 .LVL35
     /tmp/cc1DeWGe.s:134    .text:00000000000000cc .LFB28
     /tmp/cc1DeWGe.s:182    .text:0000000000000124 .LFE28
     /tmp/cc1DeWGe.s:3311   .debug_loc:0000000000000158 .LLST0
GAS LISTING /tmp/cc1DeWGe.s 			page 24


     /tmp/cc1DeWGe.s:3616   .debug_str:00000000000004dc .LASF156
     /tmp/cc1DeWGe.s:3329   .debug_loc:00000000000001a4 .LLST1
     /tmp/cc1DeWGe.s:155    .text:00000000000000f4 .LVL5
     /tmp/cc1DeWGe.s:161    .text:0000000000000104 .LVL6
     /tmp/cc1DeWGe.s:165    .text:000000000000010c .LVL7
     /tmp/cc1DeWGe.s:10     .text:0000000000000000 .LFB27
     /tmp/cc1DeWGe.s:55     .text:0000000000000054 .LFE27
     /tmp/cc1DeWGe.s:31     .text:0000000000000028 .LVL0
     /tmp/cc1DeWGe.s:44     .text:0000000000000044 .LVL2
     /tmp/cc1DeWGe.s:226    .text:0000000000000154 .LFB26
     /tmp/cc1DeWGe.s:337    .text:0000000000000254 .LFE26
     /tmp/cc1DeWGe.s:3776   .debug_str:0000000000000a59 .LASF157
     /tmp/cc1DeWGe.s:3347   .debug_loc:00000000000001f0 .LLST4
     /tmp/cc1DeWGe.s:3369   .debug_loc:000000000000024f .LLST5
     /tmp/cc1DeWGe.s:3391   .debug_loc:00000000000002ae .LLST6
     /tmp/cc1DeWGe.s:3612   .debug_str:00000000000004c4 .LASF158
     /tmp/cc1DeWGe.s:3413   .debug_loc:000000000000030d .LLST7
     /tmp/cc1DeWGe.s:278    .text:00000000000001d4 .LVL16
     /tmp/cc1DeWGe.s:293    .text:0000000000000210 .LVL17
     /tmp/cc1DeWGe.s:302    .text:0000000000000224 .LVL18
     /tmp/cc1DeWGe.s:3540   .debug_str:00000000000002c7 .LASF159
     /tmp/cc1DeWGe.s:3604   .debug_str:000000000000047f .LASF173
     /tmp/cc1DeWGe.s:61     .text:0000000000000054 .LFB24
     /tmp/cc1DeWGe.s:126    .text:00000000000000cc .LFE24
     /tmp/cc1DeWGe.s:3622   .debug_str:0000000000000512 .LASF160
     /tmp/cc1DeWGe.s:3658   .debug_str:000000000000062c .LASF162
     /tmp/cc1DeWGe.s:3702   .debug_str:0000000000000788 .LASF161
     /tmp/cc1DeWGe.s:3614   .debug_str:00000000000004d0 .LASF163
     /tmp/cc1DeWGe.s:521    .text:0000000000000364 .LVL36
     /tmp/cc1DeWGe.s:528    .text:000000000000036c .LVL37
     /tmp/cc1DeWGe.s:346    .text:0000000000000254 .LVL24
     /tmp/cc1DeWGe.s:191    .text:0000000000000124 .LVL10
     /tmp/cc1DeWGe.s:203    .text:0000000000000138 .LVL11
     /tmp/cc1DeWGe.s:207    .text:000000000000013c .LVL12
     /tmp/cc1DeWGe.s:421    .text:00000000000002c4 .LVL26
     /tmp/cc1DeWGe.s:476    .text:0000000000000320 .LVL32
     /tmp/cc1DeWGe.s:480    .text:0000000000000328 .LVL33
     /tmp/cc1DeWGe.s:432    .text:00000000000002d8 .LVL28
     /tmp/cc1DeWGe.s:439    .text:00000000000002dc .LVL29
     /tmp/cc1DeWGe.s:137    .text:00000000000000cc .LVL4
     /tmp/cc1DeWGe.s:174    .text:0000000000000118 .LVL8
     /tmp/cc1DeWGe.s:177    .text:000000000000011c .LVL9
     /tmp/cc1DeWGe.s:229    .text:0000000000000154 .LVL14
     /tmp/cc1DeWGe.s:276    .text:00000000000001cc .LVL15
     /tmp/cc1DeWGe.s:323    .text:0000000000000240 .LVL21
     /tmp/cc1DeWGe.s:330    .text:000000000000024c .LVL23
     /tmp/cc1DeWGe.s:315    .text:0000000000000234 .LVL19
     /tmp/cc1DeWGe.s:326    .text:0000000000000244 .LVL22
     /tmp/cc1DeWGe.s:318    .text:0000000000000238 .LVL20
     /tmp/cc1DeWGe.s:582    .debug_info:0000000000000000 .Ldebug_info0

UNDEFINED SYMBOLS
_ZN5RISCV10popSppSpieEv
_Z11thread_exitv
_ZN5RISCV9push_regsEv
_ZN3TCB13contextSwitchEPNS_7ContextES1_
_ZN5RISCV8pop_regsEv
GAS LISTING /tmp/cc1DeWGe.s 			page 25


_ZN15MemoryAllocator9mem_allocEm
_ZN9Scheduler3putEP3TCB
_ZN15MemoryAllocator8mem_freeEPv
_ZN9Scheduler3getEv
_Z15thread_dispatchv
