GAS LISTING /tmp/cc6LjfFX.s 			page 1


   1              		.file	"ConsumerProducer_CPP_Sync_API_test.cpp"
   2              		.option pic
   3              		.option norelax
   4              		.text
   5              	.Ltext0:
   6              		.section	.text._ZN12ConsumerSyncD2Ev,"axG",@progbits,_ZN12ConsumerSyncD5Ev,comdat
   7              		.align	2
   8              		.weak	_ZN12ConsumerSyncD2Ev
  10              	_ZN12ConsumerSyncD2Ev:
  11              	.LFB19:
  12              		.file 1 "test/ConsumerProducer_CPP_Sync_API_test.cpp"
   1:test/ConsumerProducer_CPP_Sync_API_test.cpp **** #include "../h/syscall_cpp.hpp"
   2:test/ConsumerProducer_CPP_Sync_API_test.cpp **** 
   3:test/ConsumerProducer_CPP_Sync_API_test.cpp **** #include "buffer_CPP_API.hpp"
   4:test/ConsumerProducer_CPP_Sync_API_test.cpp **** 
   5:test/ConsumerProducer_CPP_Sync_API_test.cpp **** static Semaphore* waitForAll;
   6:test/ConsumerProducer_CPP_Sync_API_test.cpp **** 
   7:test/ConsumerProducer_CPP_Sync_API_test.cpp **** struct thread_data {
   8:test/ConsumerProducer_CPP_Sync_API_test.cpp ****     int id;
   9:test/ConsumerProducer_CPP_Sync_API_test.cpp ****     BufferCPP *buffer;
  10:test/ConsumerProducer_CPP_Sync_API_test.cpp ****     Semaphore* wait;
  11:test/ConsumerProducer_CPP_Sync_API_test.cpp **** };
  12:test/ConsumerProducer_CPP_Sync_API_test.cpp **** 
  13:test/ConsumerProducer_CPP_Sync_API_test.cpp **** static volatile int threadEnd = 0;
  14:test/ConsumerProducer_CPP_Sync_API_test.cpp **** 
  15:test/ConsumerProducer_CPP_Sync_API_test.cpp **** class ProducerKeyboard:public Thread {
  16:test/ConsumerProducer_CPP_Sync_API_test.cpp ****     thread_data* td;
  17:test/ConsumerProducer_CPP_Sync_API_test.cpp ****     void producerKeyboard(void *arg);
  18:test/ConsumerProducer_CPP_Sync_API_test.cpp **** public:
  19:test/ConsumerProducer_CPP_Sync_API_test.cpp ****     ProducerKeyboard(thread_data* _td):Thread(), td(_td) {}
  20:test/ConsumerProducer_CPP_Sync_API_test.cpp **** 
  21:test/ConsumerProducer_CPP_Sync_API_test.cpp ****     void run() override {
  22:test/ConsumerProducer_CPP_Sync_API_test.cpp ****         producerKeyboard(td);
  23:test/ConsumerProducer_CPP_Sync_API_test.cpp ****     }
  24:test/ConsumerProducer_CPP_Sync_API_test.cpp **** };
  25:test/ConsumerProducer_CPP_Sync_API_test.cpp **** 
  26:test/ConsumerProducer_CPP_Sync_API_test.cpp **** void ProducerKeyboard::producerKeyboard(void *arg) {
  27:test/ConsumerProducer_CPP_Sync_API_test.cpp ****     struct thread_data *data = (struct thread_data *) arg;
  28:test/ConsumerProducer_CPP_Sync_API_test.cpp **** 
  29:test/ConsumerProducer_CPP_Sync_API_test.cpp ****     int key;
  30:test/ConsumerProducer_CPP_Sync_API_test.cpp ****     int i = 0;
  31:test/ConsumerProducer_CPP_Sync_API_test.cpp ****     while ((key = getc()) != 0x31b) {
  32:test/ConsumerProducer_CPP_Sync_API_test.cpp ****         data->buffer->put(key);
  33:test/ConsumerProducer_CPP_Sync_API_test.cpp ****         i++;
  34:test/ConsumerProducer_CPP_Sync_API_test.cpp **** 
  35:test/ConsumerProducer_CPP_Sync_API_test.cpp ****         if (i % (10 * data->id) == 0) {
  36:test/ConsumerProducer_CPP_Sync_API_test.cpp ****             Thread::dispatch();
  37:test/ConsumerProducer_CPP_Sync_API_test.cpp ****         }
  38:test/ConsumerProducer_CPP_Sync_API_test.cpp ****     }
  39:test/ConsumerProducer_CPP_Sync_API_test.cpp **** 
  40:test/ConsumerProducer_CPP_Sync_API_test.cpp ****     threadEnd = 1;
  41:test/ConsumerProducer_CPP_Sync_API_test.cpp ****     td->buffer->put('!');
  42:test/ConsumerProducer_CPP_Sync_API_test.cpp **** 
  43:test/ConsumerProducer_CPP_Sync_API_test.cpp ****     data->wait->signal();
  44:test/ConsumerProducer_CPP_Sync_API_test.cpp **** }
  45:test/ConsumerProducer_CPP_Sync_API_test.cpp **** 
  46:test/ConsumerProducer_CPP_Sync_API_test.cpp **** class ProducerSync:public Thread {
GAS LISTING /tmp/cc6LjfFX.s 			page 2


  47:test/ConsumerProducer_CPP_Sync_API_test.cpp ****     thread_data* td;
  48:test/ConsumerProducer_CPP_Sync_API_test.cpp ****     void producer(void *arg);
  49:test/ConsumerProducer_CPP_Sync_API_test.cpp **** public:
  50:test/ConsumerProducer_CPP_Sync_API_test.cpp ****     ProducerSync(thread_data* _td):Thread(), td(_td) {}
  51:test/ConsumerProducer_CPP_Sync_API_test.cpp **** 
  52:test/ConsumerProducer_CPP_Sync_API_test.cpp ****     void run() override {
  53:test/ConsumerProducer_CPP_Sync_API_test.cpp ****         producer(td);
  54:test/ConsumerProducer_CPP_Sync_API_test.cpp ****     }
  55:test/ConsumerProducer_CPP_Sync_API_test.cpp **** };
  56:test/ConsumerProducer_CPP_Sync_API_test.cpp **** 
  57:test/ConsumerProducer_CPP_Sync_API_test.cpp **** void ProducerSync::producer(void *arg) {
  58:test/ConsumerProducer_CPP_Sync_API_test.cpp ****     struct thread_data *data = (struct thread_data *) arg;
  59:test/ConsumerProducer_CPP_Sync_API_test.cpp **** 
  60:test/ConsumerProducer_CPP_Sync_API_test.cpp ****     int i = 0;
  61:test/ConsumerProducer_CPP_Sync_API_test.cpp ****     while (!threadEnd) {
  62:test/ConsumerProducer_CPP_Sync_API_test.cpp ****         data->buffer->put(data->id + '0');
  63:test/ConsumerProducer_CPP_Sync_API_test.cpp ****         i++;
  64:test/ConsumerProducer_CPP_Sync_API_test.cpp **** 
  65:test/ConsumerProducer_CPP_Sync_API_test.cpp ****         if (i % (10 * data->id) == 0) {
  66:test/ConsumerProducer_CPP_Sync_API_test.cpp ****             Thread::dispatch();
  67:test/ConsumerProducer_CPP_Sync_API_test.cpp ****         }
  68:test/ConsumerProducer_CPP_Sync_API_test.cpp ****     }
  69:test/ConsumerProducer_CPP_Sync_API_test.cpp **** 
  70:test/ConsumerProducer_CPP_Sync_API_test.cpp ****     data->wait->signal();
  71:test/ConsumerProducer_CPP_Sync_API_test.cpp **** }
  72:test/ConsumerProducer_CPP_Sync_API_test.cpp **** 
  73:test/ConsumerProducer_CPP_Sync_API_test.cpp **** class ConsumerSync:public Thread {
  13              		.loc 1 73 7
  14              		.cfi_startproc
  15              	.LVL0:
  16 0000 130101FF 		addi	sp,sp,-16
  17              		.cfi_def_cfa_offset 16
  18 0004 23341100 		sd	ra,8(sp)
  19 0008 23308100 		sd	s0,0(sp)
  20              		.cfi_offset 1, -8
  21              		.cfi_offset 8, -16
  22 000c 13040101 		addi	s0,sp,16
  23              		.cfi_def_cfa 8, 0
  24              	.LBB23:
  25              		.loc 1 73 7 is_stmt 0
  26 0010 97070000 		lla	a5,_ZTV12ConsumerSync+16
  26      93870700 
  27 0018 2330F500 		sd	a5,0(a0)
  28 001c 97000000 		call	_ZN6ThreadD2Ev@plt
  28      E7800000 
  29              	.LVL1:
  30              	.LBE23:
  31 0024 83308100 		ld	ra,8(sp)
  32              		.cfi_restore 1
  33 0028 03340100 		ld	s0,0(sp)
  34              		.cfi_restore 8
  35              		.cfi_def_cfa 2, 16
  36 002c 13010101 		addi	sp,sp,16
  37              		.cfi_def_cfa_offset 0
  38 0030 67800000 		jr	ra
  39              		.cfi_endproc
  40              	.LFE19:
GAS LISTING /tmp/cc6LjfFX.s 			page 3


  42              		.weak	_ZN12ConsumerSyncD1Ev
  43              		.set	_ZN12ConsumerSyncD1Ev,_ZN12ConsumerSyncD2Ev
  44              		.section	.text._ZN12ConsumerSyncD0Ev,"axG",@progbits,_ZN12ConsumerSyncD5Ev,comdat
  45              		.align	2
  46              		.weak	_ZN12ConsumerSyncD0Ev
  48              	_ZN12ConsumerSyncD0Ev:
  49              	.LFB21:
  50              		.loc 1 73 7 is_stmt 1
  51              		.cfi_startproc
  52              	.LVL2:
  53 0000 130101FE 		addi	sp,sp,-32
  54              		.cfi_def_cfa_offset 32
  55 0004 233C1100 		sd	ra,24(sp)
  56 0008 23388100 		sd	s0,16(sp)
  57 000c 23349100 		sd	s1,8(sp)
  58              		.cfi_offset 1, -8
  59              		.cfi_offset 8, -16
  60              		.cfi_offset 9, -24
  61 0010 13040102 		addi	s0,sp,32
  62              		.cfi_def_cfa 8, 0
  63 0014 93040500 		mv	s1,a0
  64              	.LVL3:
  65              	.LBB24:
  66              	.LBB25:
  67              		.loc 1 73 7 is_stmt 0
  68 0018 97070000 		lla	a5,_ZTV12ConsumerSync+16
  68      93870700 
  69 0020 2330F500 		sd	a5,0(a0)
  70 0024 97000000 		call	_ZN6ThreadD2Ev@plt
  70      E7800000 
  71              	.LVL4:
  72              	.LBE25:
  73              	.LBE24:
  74 002c 13850400 		mv	a0,s1
  75 0030 97000000 		call	_ZdlPv@plt
  75      E7800000 
  76              	.LVL5:
  77 0038 83308101 		ld	ra,24(sp)
  78              		.cfi_restore 1
  79 003c 03340101 		ld	s0,16(sp)
  80              		.cfi_restore 8
  81              		.cfi_def_cfa 2, 32
  82 0040 83348100 		ld	s1,8(sp)
  83              		.cfi_restore 9
  84              	.LVL6:
  85 0044 13010102 		addi	sp,sp,32
  86              		.cfi_def_cfa_offset 0
  87 0048 67800000 		jr	ra
  88              		.cfi_endproc
  89              	.LFE21:
  91              		.section	.text._ZN12ProducerSyncD2Ev,"axG",@progbits,_ZN12ProducerSyncD5Ev,comdat
  92              		.align	2
  93              		.weak	_ZN12ProducerSyncD2Ev
  95              	_ZN12ProducerSyncD2Ev:
  96              	.LFB23:
  46:test/ConsumerProducer_CPP_Sync_API_test.cpp ****     thread_data* td;
  97              		.loc 1 46 7 is_stmt 1
GAS LISTING /tmp/cc6LjfFX.s 			page 4


  98              		.cfi_startproc
  99              	.LVL7:
 100 0000 130101FF 		addi	sp,sp,-16
 101              		.cfi_def_cfa_offset 16
 102 0004 23341100 		sd	ra,8(sp)
 103 0008 23308100 		sd	s0,0(sp)
 104              		.cfi_offset 1, -8
 105              		.cfi_offset 8, -16
 106 000c 13040101 		addi	s0,sp,16
 107              		.cfi_def_cfa 8, 0
 108              	.LBB26:
  46:test/ConsumerProducer_CPP_Sync_API_test.cpp ****     thread_data* td;
 109              		.loc 1 46 7 is_stmt 0
 110 0010 97070000 		lla	a5,_ZTV12ProducerSync+16
 110      93870700 
 111 0018 2330F500 		sd	a5,0(a0)
 112 001c 97000000 		call	_ZN6ThreadD2Ev@plt
 112      E7800000 
 113              	.LVL8:
 114              	.LBE26:
 115 0024 83308100 		ld	ra,8(sp)
 116              		.cfi_restore 1
 117 0028 03340100 		ld	s0,0(sp)
 118              		.cfi_restore 8
 119              		.cfi_def_cfa 2, 16
 120 002c 13010101 		addi	sp,sp,16
 121              		.cfi_def_cfa_offset 0
 122 0030 67800000 		jr	ra
 123              		.cfi_endproc
 124              	.LFE23:
 126              		.weak	_ZN12ProducerSyncD1Ev
 127              		.set	_ZN12ProducerSyncD1Ev,_ZN12ProducerSyncD2Ev
 128              		.section	.text._ZN12ProducerSyncD0Ev,"axG",@progbits,_ZN12ProducerSyncD5Ev,comdat
 129              		.align	2
 130              		.weak	_ZN12ProducerSyncD0Ev
 132              	_ZN12ProducerSyncD0Ev:
 133              	.LFB25:
  46:test/ConsumerProducer_CPP_Sync_API_test.cpp ****     thread_data* td;
 134              		.loc 1 46 7 is_stmt 1
 135              		.cfi_startproc
 136              	.LVL9:
 137 0000 130101FE 		addi	sp,sp,-32
 138              		.cfi_def_cfa_offset 32
 139 0004 233C1100 		sd	ra,24(sp)
 140 0008 23388100 		sd	s0,16(sp)
 141 000c 23349100 		sd	s1,8(sp)
 142              		.cfi_offset 1, -8
 143              		.cfi_offset 8, -16
 144              		.cfi_offset 9, -24
 145 0010 13040102 		addi	s0,sp,32
 146              		.cfi_def_cfa 8, 0
 147 0014 93040500 		mv	s1,a0
 148              	.LVL10:
 149              	.LBB27:
 150              	.LBB28:
  46:test/ConsumerProducer_CPP_Sync_API_test.cpp ****     thread_data* td;
 151              		.loc 1 46 7 is_stmt 0
GAS LISTING /tmp/cc6LjfFX.s 			page 5


 152 0018 97070000 		lla	a5,_ZTV12ProducerSync+16
 152      93870700 
 153 0020 2330F500 		sd	a5,0(a0)
 154 0024 97000000 		call	_ZN6ThreadD2Ev@plt
 154      E7800000 
 155              	.LVL11:
 156              	.LBE28:
 157              	.LBE27:
 158 002c 13850400 		mv	a0,s1
 159 0030 97000000 		call	_ZdlPv@plt
 159      E7800000 
 160              	.LVL12:
 161 0038 83308101 		ld	ra,24(sp)
 162              		.cfi_restore 1
 163 003c 03340101 		ld	s0,16(sp)
 164              		.cfi_restore 8
 165              		.cfi_def_cfa 2, 32
 166 0040 83348100 		ld	s1,8(sp)
 167              		.cfi_restore 9
 168              	.LVL13:
 169 0044 13010102 		addi	sp,sp,32
 170              		.cfi_def_cfa_offset 0
 171 0048 67800000 		jr	ra
 172              		.cfi_endproc
 173              	.LFE25:
 175              		.section	.text._ZN16ProducerKeyboardD2Ev,"axG",@progbits,_ZN16ProducerKeyboardD5Ev,comdat
 176              		.align	2
 177              		.weak	_ZN16ProducerKeyboardD2Ev
 179              	_ZN16ProducerKeyboardD2Ev:
 180              	.LFB27:
  15:test/ConsumerProducer_CPP_Sync_API_test.cpp ****     thread_data* td;
 181              		.loc 1 15 7 is_stmt 1
 182              		.cfi_startproc
 183              	.LVL14:
 184 0000 130101FF 		addi	sp,sp,-16
 185              		.cfi_def_cfa_offset 16
 186 0004 23341100 		sd	ra,8(sp)
 187 0008 23308100 		sd	s0,0(sp)
 188              		.cfi_offset 1, -8
 189              		.cfi_offset 8, -16
 190 000c 13040101 		addi	s0,sp,16
 191              		.cfi_def_cfa 8, 0
 192              	.LBB29:
  15:test/ConsumerProducer_CPP_Sync_API_test.cpp ****     thread_data* td;
 193              		.loc 1 15 7 is_stmt 0
 194 0010 97070000 		lla	a5,_ZTV16ProducerKeyboard+16
 194      93870700 
 195 0018 2330F500 		sd	a5,0(a0)
 196 001c 97000000 		call	_ZN6ThreadD2Ev@plt
 196      E7800000 
 197              	.LVL15:
 198              	.LBE29:
 199 0024 83308100 		ld	ra,8(sp)
 200              		.cfi_restore 1
 201 0028 03340100 		ld	s0,0(sp)
 202              		.cfi_restore 8
 203              		.cfi_def_cfa 2, 16
GAS LISTING /tmp/cc6LjfFX.s 			page 6


 204 002c 13010101 		addi	sp,sp,16
 205              		.cfi_def_cfa_offset 0
 206 0030 67800000 		jr	ra
 207              		.cfi_endproc
 208              	.LFE27:
 210              		.weak	_ZN16ProducerKeyboardD1Ev
 211              		.set	_ZN16ProducerKeyboardD1Ev,_ZN16ProducerKeyboardD2Ev
 212              		.section	.text._ZN16ProducerKeyboardD0Ev,"axG",@progbits,_ZN16ProducerKeyboardD5Ev,comdat
 213              		.align	2
 214              		.weak	_ZN16ProducerKeyboardD0Ev
 216              	_ZN16ProducerKeyboardD0Ev:
 217              	.LFB29:
  15:test/ConsumerProducer_CPP_Sync_API_test.cpp ****     thread_data* td;
 218              		.loc 1 15 7 is_stmt 1
 219              		.cfi_startproc
 220              	.LVL16:
 221 0000 130101FE 		addi	sp,sp,-32
 222              		.cfi_def_cfa_offset 32
 223 0004 233C1100 		sd	ra,24(sp)
 224 0008 23388100 		sd	s0,16(sp)
 225 000c 23349100 		sd	s1,8(sp)
 226              		.cfi_offset 1, -8
 227              		.cfi_offset 8, -16
 228              		.cfi_offset 9, -24
 229 0010 13040102 		addi	s0,sp,32
 230              		.cfi_def_cfa 8, 0
 231 0014 93040500 		mv	s1,a0
 232              	.LVL17:
 233              	.LBB30:
 234              	.LBB31:
  15:test/ConsumerProducer_CPP_Sync_API_test.cpp ****     thread_data* td;
 235              		.loc 1 15 7 is_stmt 0
 236 0018 97070000 		lla	a5,_ZTV16ProducerKeyboard+16
 236      93870700 
 237 0020 2330F500 		sd	a5,0(a0)
 238 0024 97000000 		call	_ZN6ThreadD2Ev@plt
 238      E7800000 
 239              	.LVL18:
 240              	.LBE31:
 241              	.LBE30:
 242 002c 13850400 		mv	a0,s1
 243 0030 97000000 		call	_ZdlPv@plt
 243      E7800000 
 244              	.LVL19:
 245 0038 83308101 		ld	ra,24(sp)
 246              		.cfi_restore 1
 247 003c 03340101 		ld	s0,16(sp)
 248              		.cfi_restore 8
 249              		.cfi_def_cfa 2, 32
 250 0040 83348100 		ld	s1,8(sp)
 251              		.cfi_restore 9
 252              	.LVL20:
 253 0044 13010102 		addi	sp,sp,32
 254              		.cfi_def_cfa_offset 0
 255 0048 67800000 		jr	ra
 256              		.cfi_endproc
 257              	.LFE29:
GAS LISTING /tmp/cc6LjfFX.s 			page 7


 259              		.text
 260              		.align	2
 261              		.globl	_ZN16ProducerKeyboard16producerKeyboardEPv
 263              	_ZN16ProducerKeyboard16producerKeyboardEPv:
 264              	.LFB6:
  26:test/ConsumerProducer_CPP_Sync_API_test.cpp ****     struct thread_data *data = (struct thread_data *) arg;
 265              		.loc 1 26 52 is_stmt 1
 266              		.cfi_startproc
 267              	.LVL21:
 268 0000 130101FE 		addi	sp,sp,-32
 269              		.cfi_def_cfa_offset 32
 270 0004 233C1100 		sd	ra,24(sp)
 271 0008 23388100 		sd	s0,16(sp)
 272 000c 23349100 		sd	s1,8(sp)
 273 0010 23302101 		sd	s2,0(sp)
 274              		.cfi_offset 1, -8
 275              		.cfi_offset 8, -16
 276              		.cfi_offset 9, -24
 277              		.cfi_offset 18, -32
 278 0014 13040102 		addi	s0,sp,32
 279              		.cfi_def_cfa 8, 0
 280 0018 93840500 		mv	s1,a1
  27:test/ConsumerProducer_CPP_Sync_API_test.cpp **** 
 281              		.loc 1 27 5
 282              	.LVL22:
  29:test/ConsumerProducer_CPP_Sync_API_test.cpp ****     int i = 0;
 283              		.loc 1 29 5
  30:test/ConsumerProducer_CPP_Sync_API_test.cpp ****     while ((key = getc()) != 0x31b) {
 284              		.loc 1 30 5
  30:test/ConsumerProducer_CPP_Sync_API_test.cpp ****     while ((key = getc()) != 0x31b) {
 285              		.loc 1 30 9 is_stmt 0
 286 001c 13090000 		li	s2,0
 287 0020 6F00C000 		j	.L14
 288              	.LVL23:
 289              	.L17:
  36:test/ConsumerProducer_CPP_Sync_API_test.cpp ****         }
 290              		.loc 1 36 13 is_stmt 1
  36:test/ConsumerProducer_CPP_Sync_API_test.cpp ****         }
 291              		.loc 1 36 29 is_stmt 0
 292 0024 97000000 		call	_ZN6Thread8dispatchEv@plt
 292      E7800000 
 293              	.LVL24:
 294              	.L14:
  31:test/ConsumerProducer_CPP_Sync_API_test.cpp ****         data->buffer->put(key);
 295              		.loc 1 31 5 is_stmt 1
  31:test/ConsumerProducer_CPP_Sync_API_test.cpp ****         data->buffer->put(key);
 296              		.loc 1 31 27
  31:test/ConsumerProducer_CPP_Sync_API_test.cpp ****         data->buffer->put(key);
 297              		.loc 1 31 23 is_stmt 0
 298 002c 97000000 		call	_Z4getcv@plt
 298      E7800000 
 299              	.LVL25:
  32:test/ConsumerProducer_CPP_Sync_API_test.cpp ****         i++;
 300              		.loc 1 32 9 is_stmt 1
  32:test/ConsumerProducer_CPP_Sync_API_test.cpp ****         i++;
 301              		.loc 1 32 26 is_stmt 0
 302 0034 9B050500 		sext.w	a1,a0
GAS LISTING /tmp/cc6LjfFX.s 			page 8


 303 0038 03B58400 		ld	a0,8(s1)
 304              	.LVL26:
 305 003c 97000000 		call	_ZN9BufferCPP3putEi@plt
 305      E7800000 
 306              	.LVL27:
  33:test/ConsumerProducer_CPP_Sync_API_test.cpp **** 
 307              		.loc 1 33 9 is_stmt 1
  33:test/ConsumerProducer_CPP_Sync_API_test.cpp **** 
 308              		.loc 1 33 10 is_stmt 0
 309 0044 1B071900 		addiw	a4,s2,1
 310 0048 1B090700 		sext.w	s2,a4
 311              	.LVL28:
  35:test/ConsumerProducer_CPP_Sync_API_test.cpp ****             Thread::dispatch();
 312              		.loc 1 35 9 is_stmt 1
  35:test/ConsumerProducer_CPP_Sync_API_test.cpp ****             Thread::dispatch();
 313              		.loc 1 35 29 is_stmt 0
 314 004c 83A60400 		lw	a3,0(s1)
  35:test/ConsumerProducer_CPP_Sync_API_test.cpp ****             Thread::dispatch();
 315              		.loc 1 35 21
 316 0050 9B972600 		slliw	a5,a3,2
 317 0054 BB87D700 		addw	a5,a5,a3
 318 0058 9B971700 		slliw	a5,a5,1
  35:test/ConsumerProducer_CPP_Sync_API_test.cpp ****             Thread::dispatch();
 319              		.loc 1 35 15
 320 005c BB67F702 		remw	a5,a4,a5
  35:test/ConsumerProducer_CPP_Sync_API_test.cpp ****             Thread::dispatch();
 321              		.loc 1 35 9
 322 0060 E39607FC 		bnez	a5,.L14
 323 0064 6FF01FFC 		j	.L17
 324              		.cfi_endproc
 325              	.LFE6:
 327              		.section	.text._ZN16ProducerKeyboard3runEv,"axG",@progbits,_ZN16ProducerKeyboard3runEv,comdat
 328              		.align	2
 329              		.weak	_ZN16ProducerKeyboard3runEv
 331              	_ZN16ProducerKeyboard3runEv:
 332              	.LFB5:
  21:test/ConsumerProducer_CPP_Sync_API_test.cpp ****         producerKeyboard(td);
 333              		.loc 1 21 10 is_stmt 1
 334              		.cfi_startproc
 335              	.LVL29:
 336 0000 130101FF 		addi	sp,sp,-16
 337              		.cfi_def_cfa_offset 16
 338 0004 23341100 		sd	ra,8(sp)
 339 0008 23308100 		sd	s0,0(sp)
 340              		.cfi_offset 1, -8
 341              		.cfi_offset 8, -16
 342 000c 13040101 		addi	s0,sp,16
 343              		.cfi_def_cfa 8, 0
  22:test/ConsumerProducer_CPP_Sync_API_test.cpp ****     }
 344              		.loc 1 22 9
  22:test/ConsumerProducer_CPP_Sync_API_test.cpp ****     }
 345              		.loc 1 22 25 is_stmt 0
 346 0010 83350502 		ld	a1,32(a0)
 347 0014 97000000 		call	_ZN16ProducerKeyboard16producerKeyboardEPv
 347      E7800000 
 348              	.LVL30:
 349              		.cfi_endproc
GAS LISTING /tmp/cc6LjfFX.s 			page 9


 350              	.LFE5:
 352              		.text
 353              		.align	2
 354              		.globl	_ZN12ProducerSync8producerEPv
 356              	_ZN12ProducerSync8producerEPv:
 357              	.LFB11:
  57:test/ConsumerProducer_CPP_Sync_API_test.cpp ****     struct thread_data *data = (struct thread_data *) arg;
 358              		.loc 1 57 40 is_stmt 1
 359              		.cfi_startproc
 360              	.LVL31:
 361 0068 130101FE 		addi	sp,sp,-32
 362              		.cfi_def_cfa_offset 32
 363 006c 233C1100 		sd	ra,24(sp)
 364 0070 23388100 		sd	s0,16(sp)
 365 0074 23349100 		sd	s1,8(sp)
 366 0078 23302101 		sd	s2,0(sp)
 367              		.cfi_offset 1, -8
 368              		.cfi_offset 8, -16
 369              		.cfi_offset 9, -24
 370              		.cfi_offset 18, -32
 371 007c 13040102 		addi	s0,sp,32
 372              		.cfi_def_cfa 8, 0
 373 0080 93840500 		mv	s1,a1
  58:test/ConsumerProducer_CPP_Sync_API_test.cpp **** 
 374              		.loc 1 58 5
 375              	.LVL32:
  60:test/ConsumerProducer_CPP_Sync_API_test.cpp ****     while (!threadEnd) {
 376              		.loc 1 60 5
  60:test/ConsumerProducer_CPP_Sync_API_test.cpp ****     while (!threadEnd) {
 377              		.loc 1 60 9 is_stmt 0
 378 0084 13090000 		li	s2,0
 379 0088 6F00C000 		j	.L21
 380              	.LVL33:
 381              	.L25:
  66:test/ConsumerProducer_CPP_Sync_API_test.cpp ****         }
 382              		.loc 1 66 13 is_stmt 1
  66:test/ConsumerProducer_CPP_Sync_API_test.cpp ****         }
 383              		.loc 1 66 29 is_stmt 0
 384 008c 97000000 		call	_ZN6Thread8dispatchEv@plt
 384      E7800000 
 385              	.LVL34:
 386              	.L21:
  61:test/ConsumerProducer_CPP_Sync_API_test.cpp ****         data->buffer->put(data->id + '0');
 387              		.loc 1 61 5 is_stmt 1
  61:test/ConsumerProducer_CPP_Sync_API_test.cpp ****         data->buffer->put(data->id + '0');
 388              		.loc 1 61 12
 389 0094 97070000 		lw	a5,.LANCHOR0
 389      83A70700 
 390 009c 639E0702 		bnez	a5,.L22
  62:test/ConsumerProducer_CPP_Sync_API_test.cpp ****         i++;
 391              		.loc 1 62 9
  62:test/ConsumerProducer_CPP_Sync_API_test.cpp ****         i++;
 392              		.loc 1 62 33 is_stmt 0
 393 00a0 83A50400 		lw	a1,0(s1)
  62:test/ConsumerProducer_CPP_Sync_API_test.cpp ****         i++;
 394              		.loc 1 62 26
 395 00a4 9B850503 		addiw	a1,a1,48
GAS LISTING /tmp/cc6LjfFX.s 			page 10


 396 00a8 03B58400 		ld	a0,8(s1)
 397 00ac 97000000 		call	_ZN9BufferCPP3putEi@plt
 397      E7800000 
 398              	.LVL35:
  63:test/ConsumerProducer_CPP_Sync_API_test.cpp **** 
 399              		.loc 1 63 9 is_stmt 1
  63:test/ConsumerProducer_CPP_Sync_API_test.cpp **** 
 400              		.loc 1 63 10 is_stmt 0
 401 00b4 1B071900 		addiw	a4,s2,1
 402 00b8 1B090700 		sext.w	s2,a4
 403              	.LVL36:
  65:test/ConsumerProducer_CPP_Sync_API_test.cpp ****             Thread::dispatch();
 404              		.loc 1 65 9 is_stmt 1
  65:test/ConsumerProducer_CPP_Sync_API_test.cpp ****             Thread::dispatch();
 405              		.loc 1 65 29 is_stmt 0
 406 00bc 83A60400 		lw	a3,0(s1)
  65:test/ConsumerProducer_CPP_Sync_API_test.cpp ****             Thread::dispatch();
 407              		.loc 1 65 21
 408 00c0 9B972600 		slliw	a5,a3,2
 409 00c4 BB87D700 		addw	a5,a5,a3
 410 00c8 9B971700 		slliw	a5,a5,1
  65:test/ConsumerProducer_CPP_Sync_API_test.cpp ****             Thread::dispatch();
 411              		.loc 1 65 15
 412 00cc BB67F702 		remw	a5,a4,a5
  65:test/ConsumerProducer_CPP_Sync_API_test.cpp ****             Thread::dispatch();
 413              		.loc 1 65 9
 414 00d0 E39207FC 		bnez	a5,.L21
 415 00d4 6FF09FFB 		j	.L25
 416              	.LVL37:
 417              	.L22:
  70:test/ConsumerProducer_CPP_Sync_API_test.cpp **** }
 418              		.loc 1 70 5 is_stmt 1
  70:test/ConsumerProducer_CPP_Sync_API_test.cpp **** }
 419              		.loc 1 70 23 is_stmt 0
 420 00d8 03B50401 		ld	a0,16(s1)
 421 00dc 97000000 		call	_ZN9Semaphore6signalEv@plt
 421      E7800000 
 422              	.LVL38:
  71:test/ConsumerProducer_CPP_Sync_API_test.cpp **** 
 423              		.loc 1 71 1
 424 00e4 83308101 		ld	ra,24(sp)
 425              		.cfi_restore 1
 426 00e8 03340101 		ld	s0,16(sp)
 427              		.cfi_restore 8
 428              		.cfi_def_cfa 2, 32
 429 00ec 83348100 		ld	s1,8(sp)
 430              		.cfi_restore 9
 431              	.LVL39:
 432 00f0 03390100 		ld	s2,0(sp)
 433              		.cfi_restore 18
 434              	.LVL40:
 435 00f4 13010102 		addi	sp,sp,32
 436              		.cfi_def_cfa_offset 0
 437 00f8 67800000 		jr	ra
 438              		.cfi_endproc
 439              	.LFE11:
 441              		.section	.text._ZN12ProducerSync3runEv,"axG",@progbits,_ZN12ProducerSync3runEv,comdat
GAS LISTING /tmp/cc6LjfFX.s 			page 11


 442              		.align	2
 443              		.weak	_ZN12ProducerSync3runEv
 445              	_ZN12ProducerSync3runEv:
 446              	.LFB10:
  52:test/ConsumerProducer_CPP_Sync_API_test.cpp ****         producer(td);
 447              		.loc 1 52 10 is_stmt 1
 448              		.cfi_startproc
 449              	.LVL41:
 450 0000 130101FF 		addi	sp,sp,-16
 451              		.cfi_def_cfa_offset 16
 452 0004 23341100 		sd	ra,8(sp)
 453 0008 23308100 		sd	s0,0(sp)
 454              		.cfi_offset 1, -8
 455              		.cfi_offset 8, -16
 456 000c 13040101 		addi	s0,sp,16
 457              		.cfi_def_cfa 8, 0
  53:test/ConsumerProducer_CPP_Sync_API_test.cpp ****     }
 458              		.loc 1 53 9
  53:test/ConsumerProducer_CPP_Sync_API_test.cpp ****     }
 459              		.loc 1 53 17 is_stmt 0
 460 0010 83350502 		ld	a1,32(a0)
 461 0014 97000000 		call	_ZN12ProducerSync8producerEPv
 461      E7800000 
 462              	.LVL42:
  54:test/ConsumerProducer_CPP_Sync_API_test.cpp **** };
 463              		.loc 1 54 5
 464 001c 83308100 		ld	ra,8(sp)
 465              		.cfi_restore 1
 466 0020 03340100 		ld	s0,0(sp)
 467              		.cfi_restore 8
 468              		.cfi_def_cfa 2, 16
 469 0024 13010101 		addi	sp,sp,16
 470              		.cfi_def_cfa_offset 0
 471 0028 67800000 		jr	ra
 472              		.cfi_endproc
 473              	.LFE10:
 475              		.text
 476              		.align	2
 477              		.globl	_ZN12ConsumerSync8consumerEPv
 479              	_ZN12ConsumerSync8consumerEPv:
 480              	.LFB16:
  74:test/ConsumerProducer_CPP_Sync_API_test.cpp ****     thread_data* td;
  75:test/ConsumerProducer_CPP_Sync_API_test.cpp ****     void consumer(void *arg);
  76:test/ConsumerProducer_CPP_Sync_API_test.cpp **** public:
  77:test/ConsumerProducer_CPP_Sync_API_test.cpp ****     ConsumerSync(thread_data* _td):Thread(), td(_td) {}
  78:test/ConsumerProducer_CPP_Sync_API_test.cpp **** 
  79:test/ConsumerProducer_CPP_Sync_API_test.cpp ****     void run() override {
  80:test/ConsumerProducer_CPP_Sync_API_test.cpp ****         consumer(td);
  81:test/ConsumerProducer_CPP_Sync_API_test.cpp ****     }
  82:test/ConsumerProducer_CPP_Sync_API_test.cpp **** };
  83:test/ConsumerProducer_CPP_Sync_API_test.cpp **** 
  84:test/ConsumerProducer_CPP_Sync_API_test.cpp **** void ConsumerSync::consumer(void *arg) {
 481              		.loc 1 84 40 is_stmt 1
 482              		.cfi_startproc
 483              	.LVL43:
 484 00fc 130101FD 		addi	sp,sp,-48
 485              		.cfi_def_cfa_offset 48
GAS LISTING /tmp/cc6LjfFX.s 			page 12


 486 0100 23341102 		sd	ra,40(sp)
 487 0104 23308102 		sd	s0,32(sp)
 488 0108 233C9100 		sd	s1,24(sp)
 489 010c 23382101 		sd	s2,16(sp)
 490 0110 23343101 		sd	s3,8(sp)
 491 0114 23304101 		sd	s4,0(sp)
 492              		.cfi_offset 1, -8
 493              		.cfi_offset 8, -16
 494              		.cfi_offset 9, -24
 495              		.cfi_offset 18, -32
 496              		.cfi_offset 19, -40
 497              		.cfi_offset 20, -48
 498 0118 13040103 		addi	s0,sp,48
 499              		.cfi_def_cfa 8, 0
 500 011c 93090500 		mv	s3,a0
 501 0120 13890500 		mv	s2,a1
  85:test/ConsumerProducer_CPP_Sync_API_test.cpp ****     struct thread_data *data = (struct thread_data *) arg;
 502              		.loc 1 85 5
 503              	.LVL44:
  86:test/ConsumerProducer_CPP_Sync_API_test.cpp **** 
  87:test/ConsumerProducer_CPP_Sync_API_test.cpp ****     int i = 0;
 504              		.loc 1 87 5
 505              		.loc 1 87 9 is_stmt 0
 506 0124 130A0000 		li	s4,0
 507 0128 6F00C001 		j	.L29
 508              	.LVL45:
 509              	.L35:
 510              	.LBB32:
  88:test/ConsumerProducer_CPP_Sync_API_test.cpp ****     while (!threadEnd) {
  89:test/ConsumerProducer_CPP_Sync_API_test.cpp ****         int key = data->buffer->get();
  90:test/ConsumerProducer_CPP_Sync_API_test.cpp ****         i++;
  91:test/ConsumerProducer_CPP_Sync_API_test.cpp **** 
  92:test/ConsumerProducer_CPP_Sync_API_test.cpp ****         putc(key);
  93:test/ConsumerProducer_CPP_Sync_API_test.cpp **** 
  94:test/ConsumerProducer_CPP_Sync_API_test.cpp ****         if (i % (5 * data->id) == 0) {
  95:test/ConsumerProducer_CPP_Sync_API_test.cpp ****             Thread::dispatch();
 511              		.loc 1 95 13 is_stmt 1
 512              		.loc 1 95 29 is_stmt 0
 513 012c 97000000 		call	_ZN6Thread8dispatchEv@plt
 513      E7800000 
 514              	.LVL46:
 515 0134 6F000005 		j	.L31
 516              	.LVL47:
 517              	.L36:
  96:test/ConsumerProducer_CPP_Sync_API_test.cpp ****         }
  97:test/ConsumerProducer_CPP_Sync_API_test.cpp **** 
  98:test/ConsumerProducer_CPP_Sync_API_test.cpp ****         if (i % 80 == 0) {
  99:test/ConsumerProducer_CPP_Sync_API_test.cpp ****             putc('\n');
 518              		.loc 1 99 13 is_stmt 1
 519              		.loc 1 99 17 is_stmt 0
 520 0138 1305A000 		li	a0,10
 521 013c 97000000 		call	_Z4putcc@plt
 521      E7800000 
 522              	.LVL48:
 523              	.L29:
 524              	.LBE32:
  88:test/ConsumerProducer_CPP_Sync_API_test.cpp ****     while (!threadEnd) {
GAS LISTING /tmp/cc6LjfFX.s 			page 13


 525              		.loc 1 88 5 is_stmt 1
  88:test/ConsumerProducer_CPP_Sync_API_test.cpp ****     while (!threadEnd) {
 526              		.loc 1 88 12
 527 0144 97070000 		lw	a5,.LANCHOR0
 527      83A70700 
 528 014c 63920706 		bnez	a5,.L30
 529              	.LBB33:
  89:test/ConsumerProducer_CPP_Sync_API_test.cpp ****         i++;
 530              		.loc 1 89 9
  89:test/ConsumerProducer_CPP_Sync_API_test.cpp ****         i++;
 531              		.loc 1 89 36 is_stmt 0
 532 0150 03358900 		ld	a0,8(s2)
 533 0154 97000000 		call	_ZN9BufferCPP3getEv@plt
 533      E7800000 
 534              	.LVL49:
  90:test/ConsumerProducer_CPP_Sync_API_test.cpp **** 
 535              		.loc 1 90 9 is_stmt 1
  90:test/ConsumerProducer_CPP_Sync_API_test.cpp **** 
 536              		.loc 1 90 10 is_stmt 0
 537 015c 9B041A00 		addiw	s1,s4,1
 538 0160 1B8A0400 		sext.w	s4,s1
 539              	.LVL50:
  92:test/ConsumerProducer_CPP_Sync_API_test.cpp **** 
 540              		.loc 1 92 9 is_stmt 1
  92:test/ConsumerProducer_CPP_Sync_API_test.cpp **** 
 541              		.loc 1 92 13 is_stmt 0
 542 0164 1375F50F 		andi	a0,a0,0xff
 543              	.LVL51:
 544 0168 97000000 		call	_Z4putcc@plt
 544      E7800000 
 545              	.LVL52:
  94:test/ConsumerProducer_CPP_Sync_API_test.cpp ****             Thread::dispatch();
 546              		.loc 1 94 9 is_stmt 1
  94:test/ConsumerProducer_CPP_Sync_API_test.cpp ****             Thread::dispatch();
 547              		.loc 1 94 28 is_stmt 0
 548 0170 03270900 		lw	a4,0(s2)
  94:test/ConsumerProducer_CPP_Sync_API_test.cpp ****             Thread::dispatch();
 549              		.loc 1 94 20
 550 0174 9B172700 		slliw	a5,a4,2
 551 0178 BB87E700 		addw	a5,a5,a4
  94:test/ConsumerProducer_CPP_Sync_API_test.cpp ****             Thread::dispatch();
 552              		.loc 1 94 15
 553 017c BBE7F402 		remw	a5,s1,a5
  94:test/ConsumerProducer_CPP_Sync_API_test.cpp ****             Thread::dispatch();
 554              		.loc 1 94 9
 555 0180 E38607FA 		beqz	a5,.L35
 556              	.L31:
  98:test/ConsumerProducer_CPP_Sync_API_test.cpp ****             putc('\n');
 557              		.loc 1 98 9 is_stmt 1
  98:test/ConsumerProducer_CPP_Sync_API_test.cpp ****             putc('\n');
 558              		.loc 1 98 15 is_stmt 0
 559 0184 93070005 		li	a5,80
 560 0188 BBE4F402 		remw	s1,s1,a5
 561              	.LVL53:
  98:test/ConsumerProducer_CPP_Sync_API_test.cpp ****             putc('\n');
 562              		.loc 1 98 9
 563 018c E39C04FA 		bnez	s1,.L29
GAS LISTING /tmp/cc6LjfFX.s 			page 14


 564 0190 6FF09FFA 		j	.L36
 565              	.L37:
 566              	.LBE33:
 567              	.LBB34:
 100:test/ConsumerProducer_CPP_Sync_API_test.cpp ****         }
 101:test/ConsumerProducer_CPP_Sync_API_test.cpp ****     }
 102:test/ConsumerProducer_CPP_Sync_API_test.cpp **** 
 103:test/ConsumerProducer_CPP_Sync_API_test.cpp **** 
 104:test/ConsumerProducer_CPP_Sync_API_test.cpp ****     while (td->buffer->getCnt() > 0) {
 105:test/ConsumerProducer_CPP_Sync_API_test.cpp ****         int key = td->buffer->get();
 568              		.loc 1 105 9 is_stmt 1
 569              		.loc 1 105 19 is_stmt 0
 570 0194 83B70902 		ld	a5,32(s3)
 571              		.loc 1 105 34
 572 0198 03B58700 		ld	a0,8(a5)
 573 019c 97000000 		call	_ZN9BufferCPP3getEv@plt
 573      E7800000 
 574              	.LVL54:
 106:test/ConsumerProducer_CPP_Sync_API_test.cpp ****         Console::putc(key);
 575              		.loc 1 106 9 is_stmt 1
 576              		.loc 1 106 22 is_stmt 0
 577 01a4 1375F50F 		andi	a0,a0,0xff
 578              	.LVL55:
 579 01a8 97000000 		call	_ZN7Console4putcEc@plt
 579      E7800000 
 580              	.LVL56:
 581              	.L30:
 582              	.LBE34:
 104:test/ConsumerProducer_CPP_Sync_API_test.cpp ****         int key = td->buffer->get();
 583              		.loc 1 104 5 is_stmt 1
 104:test/ConsumerProducer_CPP_Sync_API_test.cpp ****         int key = td->buffer->get();
 584              		.loc 1 104 33
 104:test/ConsumerProducer_CPP_Sync_API_test.cpp ****         int key = td->buffer->get();
 585              		.loc 1 104 12 is_stmt 0
 586 01b0 83B70902 		ld	a5,32(s3)
 104:test/ConsumerProducer_CPP_Sync_API_test.cpp ****         int key = td->buffer->get();
 587              		.loc 1 104 30
 588 01b4 03B58700 		ld	a0,8(a5)
 589 01b8 97000000 		call	_ZN9BufferCPP6getCntEv@plt
 589      E7800000 
 590              	.LVL57:
 104:test/ConsumerProducer_CPP_Sync_API_test.cpp ****         int key = td->buffer->get();
 591              		.loc 1 104 33
 592 01c0 E34AA0FC 		bgtz	a0,.L37
 107:test/ConsumerProducer_CPP_Sync_API_test.cpp ****     }
 108:test/ConsumerProducer_CPP_Sync_API_test.cpp **** 
 109:test/ConsumerProducer_CPP_Sync_API_test.cpp ****     data->wait->signal();
 593              		.loc 1 109 5 is_stmt 1
 594              		.loc 1 109 23 is_stmt 0
 595 01c4 03350901 		ld	a0,16(s2)
 596 01c8 97000000 		call	_ZN9Semaphore6signalEv@plt
 596      E7800000 
 597              	.LVL58:
 110:test/ConsumerProducer_CPP_Sync_API_test.cpp **** }
 598              		.loc 1 110 1
 599 01d0 83308102 		ld	ra,40(sp)
 600              		.cfi_restore 1
GAS LISTING /tmp/cc6LjfFX.s 			page 15


 601 01d4 03340102 		ld	s0,32(sp)
 602              		.cfi_restore 8
 603              		.cfi_def_cfa 2, 48
 604 01d8 83348101 		ld	s1,24(sp)
 605              		.cfi_restore 9
 606 01dc 03390101 		ld	s2,16(sp)
 607              		.cfi_restore 18
 608              	.LVL59:
 609 01e0 83398100 		ld	s3,8(sp)
 610              		.cfi_restore 19
 611              	.LVL60:
 612 01e4 033A0100 		ld	s4,0(sp)
 613              		.cfi_restore 20
 614              	.LVL61:
 615 01e8 13010103 		addi	sp,sp,48
 616              		.cfi_def_cfa_offset 0
 617 01ec 67800000 		jr	ra
 618              		.cfi_endproc
 619              	.LFE16:
 621              		.section	.text._ZN12ConsumerSync3runEv,"axG",@progbits,_ZN12ConsumerSync3runEv,comdat
 622              		.align	2
 623              		.weak	_ZN12ConsumerSync3runEv
 625              	_ZN12ConsumerSync3runEv:
 626              	.LFB15:
  79:test/ConsumerProducer_CPP_Sync_API_test.cpp ****         consumer(td);
 627              		.loc 1 79 10 is_stmt 1
 628              		.cfi_startproc
 629              	.LVL62:
 630 0000 130101FF 		addi	sp,sp,-16
 631              		.cfi_def_cfa_offset 16
 632 0004 23341100 		sd	ra,8(sp)
 633 0008 23308100 		sd	s0,0(sp)
 634              		.cfi_offset 1, -8
 635              		.cfi_offset 8, -16
 636 000c 13040101 		addi	s0,sp,16
 637              		.cfi_def_cfa 8, 0
  80:test/ConsumerProducer_CPP_Sync_API_test.cpp ****     }
 638              		.loc 1 80 9
  80:test/ConsumerProducer_CPP_Sync_API_test.cpp ****     }
 639              		.loc 1 80 17 is_stmt 0
 640 0010 83350502 		ld	a1,32(a0)
 641 0014 97000000 		call	_ZN12ConsumerSync8consumerEPv
 641      E7800000 
 642              	.LVL63:
  81:test/ConsumerProducer_CPP_Sync_API_test.cpp **** };
 643              		.loc 1 81 5
 644 001c 83308100 		ld	ra,8(sp)
 645              		.cfi_restore 1
 646 0020 03340100 		ld	s0,0(sp)
 647              		.cfi_restore 8
 648              		.cfi_def_cfa 2, 16
 649 0024 13010101 		addi	sp,sp,16
 650              		.cfi_def_cfa_offset 0
 651 0028 67800000 		jr	ra
 652              		.cfi_endproc
 653              	.LFE15:
 655              		.section	.rodata.str1.8,"aMS",@progbits,1
GAS LISTING /tmp/cc6LjfFX.s 			page 16


 656              		.align	3
 657              	.LC0:
 658 0000 556E6573 		.string	"Unesite broj proizvodjaca?\n"
 658      69746520 
 658      62726F6A 
 658      2070726F 
 658      697A766F 
 659 001c 00000000 		.align	3
 660              	.LC1:
 661 0020 556E6573 		.string	"Unesite velicinu bafera?\n"
 661      69746520 
 661      76656C69 
 661      63696E75 
 661      20626166 
 662 003a 00000000 		.align	3
 662      0000
 663              	.LC2:
 664 0040 42726F6A 		.string	"Broj proizvodjaca "
 664      2070726F 
 664      697A766F 
 664      646A6163 
 664      612000
 665 0053 00000000 		.align	3
 665      00
 666              	.LC3:
 667 0058 20692076 		.string	" i velicina bafera "
 667      656C6963 
 667      696E6120 
 667      62616665 
 667      72612000 
 668 006c 00000000 		.align	3
 669              	.LC4:
 670 0070 2E0A00   		.string	".\n"
 671 0073 00000000 		.align	3
 671      00
 672              	.LC5:
 673 0078 42726F6A 		.string	"Broj proizvodjaca ne sme biti manji od velicine bafera!\n"
 673      2070726F 
 673      697A766F 
 673      646A6163 
 673      61206E65 
 674 00b1 00000000 		.align	3
 674      000000
 675              	.LC6:
 676 00b8 42726F6A 		.string	"Broj proizvodjaca mora biti veci od nula!\n"
 676      2070726F 
 676      697A766F 
 676      646A6163 
 676      61206D6F 
 677              		.text
 678              		.align	2
 679              		.globl	_Z29producerConsumer_CPP_Sync_APIv
 681              	_Z29producerConsumer_CPP_Sync_APIv:
 682              	.LFB17:
 111:test/ConsumerProducer_CPP_Sync_API_test.cpp **** 
 112:test/ConsumerProducer_CPP_Sync_API_test.cpp **** void producerConsumer_CPP_Sync_API() {
 683              		.loc 1 112 38 is_stmt 1
GAS LISTING /tmp/cc6LjfFX.s 			page 17


 684              		.cfi_startproc
 685              		.cfi_personality 0x9b,DW.ref.__gxx_personality_v0
 686              		.cfi_lsda 0x1b,.LLSDA17
 687 01f0 130101F8 		addi	sp,sp,-128
 688              		.cfi_def_cfa_offset 128
 689 01f4 233C1106 		sd	ra,120(sp)
 690 01f8 23388106 		sd	s0,112(sp)
 691 01fc 23349106 		sd	s1,104(sp)
 692 0200 23302107 		sd	s2,96(sp)
 693 0204 233C3105 		sd	s3,88(sp)
 694 0208 23384105 		sd	s4,80(sp)
 695 020c 23345105 		sd	s5,72(sp)
 696 0210 23306105 		sd	s6,64(sp)
 697 0214 233C7103 		sd	s7,56(sp)
 698 0218 23388103 		sd	s8,48(sp)
 699 021c 23349103 		sd	s9,40(sp)
 700              		.cfi_offset 1, -8
 701              		.cfi_offset 8, -16
 702              		.cfi_offset 9, -24
 703              		.cfi_offset 18, -32
 704              		.cfi_offset 19, -40
 705              		.cfi_offset 20, -48
 706              		.cfi_offset 21, -56
 707              		.cfi_offset 22, -64
 708              		.cfi_offset 23, -72
 709              		.cfi_offset 24, -80
 710              		.cfi_offset 25, -88
 711 0220 13040108 		addi	s0,sp,128
 712              		.cfi_def_cfa 8, 0
 113:test/ConsumerProducer_CPP_Sync_API_test.cpp ****     char input[30];
 114:test/ConsumerProducer_CPP_Sync_API_test.cpp ****     int n, threadNum;
 115:test/ConsumerProducer_CPP_Sync_API_test.cpp **** 
 116:test/ConsumerProducer_CPP_Sync_API_test.cpp ****     printString("Unesite broj proizvodjaca?\n");
 117:test/ConsumerProducer_CPP_Sync_API_test.cpp ****     getString(input, 30);
 118:test/ConsumerProducer_CPP_Sync_API_test.cpp ****     threadNum = stringToInt(input);
 119:test/ConsumerProducer_CPP_Sync_API_test.cpp **** 
 120:test/ConsumerProducer_CPP_Sync_API_test.cpp ****     printString("Unesite velicinu bafera?\n");
 121:test/ConsumerProducer_CPP_Sync_API_test.cpp ****     getString(input, 30);
 122:test/ConsumerProducer_CPP_Sync_API_test.cpp ****     n = stringToInt(input);
 123:test/ConsumerProducer_CPP_Sync_API_test.cpp **** 
 124:test/ConsumerProducer_CPP_Sync_API_test.cpp ****     printString("Broj proizvodjaca "); printInt(threadNum);
 125:test/ConsumerProducer_CPP_Sync_API_test.cpp ****     printString(" i velicina bafera "); printInt(n);
 126:test/ConsumerProducer_CPP_Sync_API_test.cpp ****     printString(".\n");
 127:test/ConsumerProducer_CPP_Sync_API_test.cpp **** 
 128:test/ConsumerProducer_CPP_Sync_API_test.cpp ****     if(threadNum > n) {
 129:test/ConsumerProducer_CPP_Sync_API_test.cpp ****         printString("Broj proizvodjaca ne sme biti manji od velicine bafera!\n");
 130:test/ConsumerProducer_CPP_Sync_API_test.cpp ****         return;
 131:test/ConsumerProducer_CPP_Sync_API_test.cpp ****     } else if (threadNum < 1) {
 132:test/ConsumerProducer_CPP_Sync_API_test.cpp ****         printString("Broj proizvodjaca mora biti veci od nula!\n");
 133:test/ConsumerProducer_CPP_Sync_API_test.cpp ****         return;
 134:test/ConsumerProducer_CPP_Sync_API_test.cpp ****     }
 135:test/ConsumerProducer_CPP_Sync_API_test.cpp **** 
 136:test/ConsumerProducer_CPP_Sync_API_test.cpp ****     BufferCPP *buffer = new BufferCPP(n);
 137:test/ConsumerProducer_CPP_Sync_API_test.cpp **** 
 138:test/ConsumerProducer_CPP_Sync_API_test.cpp ****     waitForAll = new Semaphore(0);
 139:test/ConsumerProducer_CPP_Sync_API_test.cpp **** 
 140:test/ConsumerProducer_CPP_Sync_API_test.cpp ****     Thread* threads[threadNum];
GAS LISTING /tmp/cc6LjfFX.s 			page 18


 141:test/ConsumerProducer_CPP_Sync_API_test.cpp ****     Thread* consumerThread;
 142:test/ConsumerProducer_CPP_Sync_API_test.cpp **** 
 143:test/ConsumerProducer_CPP_Sync_API_test.cpp ****     struct thread_data data[threadNum + 1];
 144:test/ConsumerProducer_CPP_Sync_API_test.cpp **** 
 145:test/ConsumerProducer_CPP_Sync_API_test.cpp ****     data[threadNum].id = threadNum;
 146:test/ConsumerProducer_CPP_Sync_API_test.cpp ****     data[threadNum].buffer = buffer;
 147:test/ConsumerProducer_CPP_Sync_API_test.cpp ****     data[threadNum].wait = waitForAll;
 148:test/ConsumerProducer_CPP_Sync_API_test.cpp ****     consumerThread = new ConsumerSync(data+threadNum);
 149:test/ConsumerProducer_CPP_Sync_API_test.cpp ****     consumerThread->start();
 150:test/ConsumerProducer_CPP_Sync_API_test.cpp **** 
 151:test/ConsumerProducer_CPP_Sync_API_test.cpp ****     for (int i = 0; i < threadNum; i++) {
 152:test/ConsumerProducer_CPP_Sync_API_test.cpp ****         data[i].id = i;
 153:test/ConsumerProducer_CPP_Sync_API_test.cpp ****         data[i].buffer = buffer;
 154:test/ConsumerProducer_CPP_Sync_API_test.cpp ****         data[i].wait = waitForAll;
 155:test/ConsumerProducer_CPP_Sync_API_test.cpp **** 
 156:test/ConsumerProducer_CPP_Sync_API_test.cpp ****         if(i>0) {
 157:test/ConsumerProducer_CPP_Sync_API_test.cpp ****             threads[i] = new ProducerSync(data+i);
 158:test/ConsumerProducer_CPP_Sync_API_test.cpp ****         } else {
 159:test/ConsumerProducer_CPP_Sync_API_test.cpp ****             threads[i] = new ProducerKeyboard(data+i);
 160:test/ConsumerProducer_CPP_Sync_API_test.cpp ****         }
 161:test/ConsumerProducer_CPP_Sync_API_test.cpp **** 
 162:test/ConsumerProducer_CPP_Sync_API_test.cpp ****         threads[i]->start();
 163:test/ConsumerProducer_CPP_Sync_API_test.cpp ****     }
 164:test/ConsumerProducer_CPP_Sync_API_test.cpp **** 
 165:test/ConsumerProducer_CPP_Sync_API_test.cpp ****     Thread::dispatch();
 166:test/ConsumerProducer_CPP_Sync_API_test.cpp **** 
 167:test/ConsumerProducer_CPP_Sync_API_test.cpp ****     for (int i = 0; i <= threadNum; i++) {
 168:test/ConsumerProducer_CPP_Sync_API_test.cpp ****         waitForAll->wait();
 169:test/ConsumerProducer_CPP_Sync_API_test.cpp ****     }
 170:test/ConsumerProducer_CPP_Sync_API_test.cpp **** 
 171:test/ConsumerProducer_CPP_Sync_API_test.cpp ****     for (int i = 0; i < threadNum; i++) {
 172:test/ConsumerProducer_CPP_Sync_API_test.cpp ****         delete threads[i];
 173:test/ConsumerProducer_CPP_Sync_API_test.cpp ****     }
 174:test/ConsumerProducer_CPP_Sync_API_test.cpp ****     delete consumerThread;
 175:test/ConsumerProducer_CPP_Sync_API_test.cpp ****     delete waitForAll;
 176:test/ConsumerProducer_CPP_Sync_API_test.cpp ****     delete buffer;
 713              		.loc 1 176 18 is_stmt 0
 714 0224 930B0100 		mv	s7,sp
 113:test/ConsumerProducer_CPP_Sync_API_test.cpp ****     char input[30];
 715              		.loc 1 113 5 is_stmt 1
 114:test/ConsumerProducer_CPP_Sync_API_test.cpp **** 
 716              		.loc 1 114 5
 116:test/ConsumerProducer_CPP_Sync_API_test.cpp ****     getString(input, 30);
 717              		.loc 1 116 5
 116:test/ConsumerProducer_CPP_Sync_API_test.cpp ****     getString(input, 30);
 718              		.loc 1 116 16 is_stmt 0
 719 0228 17050000 		lla	a0,.LC0
 719      13050500 
 720              	.LEHB0:
 721 0230 97000000 		call	_Z11printStringPKc@plt
 721      E7800000 
 722              	.LVL64:
 117:test/ConsumerProducer_CPP_Sync_API_test.cpp ****     threadNum = stringToInt(input);
 723              		.loc 1 117 5 is_stmt 1
 117:test/ConsumerProducer_CPP_Sync_API_test.cpp ****     threadNum = stringToInt(input);
 724              		.loc 1 117 14 is_stmt 0
 725 0238 9305E001 		li	a1,30
GAS LISTING /tmp/cc6LjfFX.s 			page 19


 726 023c 930404F8 		addi	s1,s0,-128
 727 0240 13850400 		mv	a0,s1
 728 0244 97000000 		call	_Z9getStringPci@plt
 728      E7800000 
 729              	.LVL65:
 118:test/ConsumerProducer_CPP_Sync_API_test.cpp **** 
 730              		.loc 1 118 5 is_stmt 1
 118:test/ConsumerProducer_CPP_Sync_API_test.cpp **** 
 731              		.loc 1 118 28 is_stmt 0
 732 024c 13850400 		mv	a0,s1
 733 0250 97000000 		call	_Z11stringToIntPKc@plt
 733      E7800000 
 734              	.LVL66:
 735 0258 13090500 		mv	s2,a0
 736              	.LVL67:
 120:test/ConsumerProducer_CPP_Sync_API_test.cpp ****     getString(input, 30);
 737              		.loc 1 120 5 is_stmt 1
 120:test/ConsumerProducer_CPP_Sync_API_test.cpp ****     getString(input, 30);
 738              		.loc 1 120 16 is_stmt 0
 739 025c 17050000 		lla	a0,.LC1
 739      13050500 
 740 0264 97000000 		call	_Z11printStringPKc@plt
 740      E7800000 
 741              	.LVL68:
 121:test/ConsumerProducer_CPP_Sync_API_test.cpp ****     n = stringToInt(input);
 742              		.loc 1 121 5 is_stmt 1
 121:test/ConsumerProducer_CPP_Sync_API_test.cpp ****     n = stringToInt(input);
 743              		.loc 1 121 14 is_stmt 0
 744 026c 9305E001 		li	a1,30
 745 0270 13850400 		mv	a0,s1
 746 0274 97000000 		call	_Z9getStringPci@plt
 746      E7800000 
 747              	.LVL69:
 122:test/ConsumerProducer_CPP_Sync_API_test.cpp **** 
 748              		.loc 1 122 5 is_stmt 1
 122:test/ConsumerProducer_CPP_Sync_API_test.cpp **** 
 749              		.loc 1 122 20 is_stmt 0
 750 027c 13850400 		mv	a0,s1
 751 0280 97000000 		call	_Z11stringToIntPKc@plt
 751      E7800000 
 752              	.LVL70:
 753 0288 93040500 		mv	s1,a0
 754              	.LVL71:
 124:test/ConsumerProducer_CPP_Sync_API_test.cpp ****     printString(" i velicina bafera "); printInt(n);
 755              		.loc 1 124 5 is_stmt 1
 124:test/ConsumerProducer_CPP_Sync_API_test.cpp ****     printString(" i velicina bafera "); printInt(n);
 756              		.loc 1 124 16 is_stmt 0
 757 028c 17050000 		lla	a0,.LC2
 757      13050500 
 758 0294 97000000 		call	_Z11printStringPKc@plt
 758      E7800000 
 759              	.LVL72:
 124:test/ConsumerProducer_CPP_Sync_API_test.cpp ****     printString(" i velicina bafera "); printInt(n);
 760              		.loc 1 124 40 is_stmt 1
 124:test/ConsumerProducer_CPP_Sync_API_test.cpp ****     printString(" i velicina bafera "); printInt(n);
 761              		.loc 1 124 48 is_stmt 0
 762 029c 13060000 		li	a2,0
GAS LISTING /tmp/cc6LjfFX.s 			page 20


 763 02a0 9305A000 		li	a1,10
 764 02a4 13050900 		mv	a0,s2
 765 02a8 97000000 		call	_Z8printIntiii@plt
 765      E7800000 
 766              	.LVL73:
 125:test/ConsumerProducer_CPP_Sync_API_test.cpp ****     printString(".\n");
 767              		.loc 1 125 5 is_stmt 1
 125:test/ConsumerProducer_CPP_Sync_API_test.cpp ****     printString(".\n");
 768              		.loc 1 125 16 is_stmt 0
 769 02b0 17050000 		lla	a0,.LC3
 769      13050500 
 770 02b8 97000000 		call	_Z11printStringPKc@plt
 770      E7800000 
 771              	.LVL74:
 125:test/ConsumerProducer_CPP_Sync_API_test.cpp ****     printString(".\n");
 772              		.loc 1 125 41 is_stmt 1
 125:test/ConsumerProducer_CPP_Sync_API_test.cpp ****     printString(".\n");
 773              		.loc 1 125 49 is_stmt 0
 774 02c0 13060000 		li	a2,0
 775 02c4 9305A000 		li	a1,10
 776 02c8 13850400 		mv	a0,s1
 777 02cc 97000000 		call	_Z8printIntiii@plt
 777      E7800000 
 778              	.LVL75:
 126:test/ConsumerProducer_CPP_Sync_API_test.cpp **** 
 779              		.loc 1 126 5 is_stmt 1
 126:test/ConsumerProducer_CPP_Sync_API_test.cpp **** 
 780              		.loc 1 126 16 is_stmt 0
 781 02d4 17050000 		lla	a0,.LC4
 781      13050500 
 782 02dc 97000000 		call	_Z11printStringPKc@plt
 782      E7800000 
 783              	.LVL76:
 128:test/ConsumerProducer_CPP_Sync_API_test.cpp ****         printString("Broj proizvodjaca ne sme biti manji od velicine bafera!\n");
 784              		.loc 1 128 5 is_stmt 1
 785 02e4 63C42403 		bgt	s2,s1,.L68
 131:test/ConsumerProducer_CPP_Sync_API_test.cpp ****         printString("Broj proizvodjaca mora biti veci od nula!\n");
 786              		.loc 1 131 12
 787 02e8 635C2003 		blez	s2,.L69
 136:test/ConsumerProducer_CPP_Sync_API_test.cpp **** 
 788              		.loc 1 136 5
 136:test/ConsumerProducer_CPP_Sync_API_test.cpp **** 
 789              		.loc 1 136 40 is_stmt 0
 790 02ec 13058003 		li	a0,56
 791 02f0 97000000 		call	_Znwm@plt
 791      E7800000 
 792              	.LVL77:
 793              	.LEHE0:
 794 02f8 930A0500 		mv	s5,a0
 795 02fc 93850400 		mv	a1,s1
 796              	.LEHB1:
 797 0300 97000000 		call	_ZN9BufferCPPC1Ei@plt
 797      E7800000 
 798              	.LVL78:
 799              	.LEHE1:
 800 0308 6F000003 		j	.L70
 801              	.L68:
GAS LISTING /tmp/cc6LjfFX.s 			page 21


 129:test/ConsumerProducer_CPP_Sync_API_test.cpp ****         return;
 802              		.loc 1 129 9 is_stmt 1
 129:test/ConsumerProducer_CPP_Sync_API_test.cpp ****         return;
 803              		.loc 1 129 20 is_stmt 0
 804 030c 17050000 		lla	a0,.LC5
 804      13050500 
 805              	.LEHB2:
 806 0314 97000000 		call	_Z11printStringPKc@plt
 806      E7800000 
 807              	.LVL79:
 130:test/ConsumerProducer_CPP_Sync_API_test.cpp ****     } else if (threadNum < 1) {
 808              		.loc 1 130 9 is_stmt 1
 809 031c 6F004001 		j	.L42
 810              	.L69:
 132:test/ConsumerProducer_CPP_Sync_API_test.cpp ****         return;
 811              		.loc 1 132 9
 132:test/ConsumerProducer_CPP_Sync_API_test.cpp ****         return;
 812              		.loc 1 132 20 is_stmt 0
 813 0320 17050000 		lla	a0,.LC6
 813      13050500 
 814 0328 97000000 		call	_Z11printStringPKc@plt
 814      E7800000 
 815              	.LVL80:
 133:test/ConsumerProducer_CPP_Sync_API_test.cpp ****     }
 816              		.loc 1 133 9 is_stmt 1
 817              	.L42:
 818 0330 13810B00 		mv	sp,s7
 819 0334 6F008023 		j	.L40
 820              	.L70:
 821              	.LVL81:
 138:test/ConsumerProducer_CPP_Sync_API_test.cpp **** 
 822              		.loc 1 138 5 discriminator 3
 138:test/ConsumerProducer_CPP_Sync_API_test.cpp **** 
 823              		.loc 1 138 33 is_stmt 0 discriminator 3
 824 0338 13050001 		li	a0,16
 825 033c 97000000 		call	_Znwm@plt
 825      E7800000 
 826              	.LVL82:
 827              	.LEHE2:
 828 0344 93040500 		mv	s1,a0
 829              	.LVL83:
 830 0348 93050000 		li	a1,0
 831              	.LEHB3:
 832 034c 97000000 		call	_ZN9SemaphoreC1Ej@plt
 832      E7800000 
 833              	.LVL84:
 834              	.LEHE3:
 138:test/ConsumerProducer_CPP_Sync_API_test.cpp **** 
 835              		.loc 1 138 16 discriminator 3
 836 0354 97070000 		sd	s1,.LANCHOR0+8,a5
 836      23B09700 
 140:test/ConsumerProducer_CPP_Sync_API_test.cpp ****     Thread* consumerThread;
 837              		.loc 1 140 5 is_stmt 1 discriminator 3
 838              	.LVL85:
 140:test/ConsumerProducer_CPP_Sync_API_test.cpp ****     Thread* consumerThread;
 839              		.loc 1 140 13 is_stmt 0 discriminator 3
 840 035c 93173900 		slli	a5,s2,3
GAS LISTING /tmp/cc6LjfFX.s 			page 22


 841 0360 9387F700 		addi	a5,a5,15
 842 0364 93F707FF 		andi	a5,a5,-16
 843 0368 3301F140 		sub	sp,sp,a5
 844 036c 93090100 		mv	s3,sp
 845              	.LVL86:
 141:test/ConsumerProducer_CPP_Sync_API_test.cpp **** 
 846              		.loc 1 141 5 is_stmt 1 discriminator 3
 143:test/ConsumerProducer_CPP_Sync_API_test.cpp **** 
 847              		.loc 1 143 5 discriminator 3
 143:test/ConsumerProducer_CPP_Sync_API_test.cpp **** 
 848              		.loc 1 143 39 is_stmt 0 discriminator 3
 849 0370 1B071900 		addiw	a4,s2,1
 850              	.LVL87:
 143:test/ConsumerProducer_CPP_Sync_API_test.cpp **** 
 851              		.loc 1 143 24 discriminator 3
 852 0374 93171700 		slli	a5,a4,1
 853 0378 B387E700 		add	a5,a5,a4
 854 037c 93973700 		slli	a5,a5,3
 855 0380 9387F700 		addi	a5,a5,15
 856 0384 93F707FF 		andi	a5,a5,-16
 857 0388 3301F140 		sub	sp,sp,a5
 858              	.LVL88:
 859 038c 130A0100 		mv	s4,sp
 860              	.LVL89:
 145:test/ConsumerProducer_CPP_Sync_API_test.cpp ****     data[threadNum].buffer = buffer;
 861              		.loc 1 145 5 is_stmt 1 discriminator 3
 145:test/ConsumerProducer_CPP_Sync_API_test.cpp ****     data[threadNum].buffer = buffer;
 862              		.loc 1 145 24 is_stmt 0 discriminator 3
 863 0390 131C1900 		slli	s8,s2,1
 864 0394 B3072C01 		add	a5,s8,s2
 865 0398 93973700 		slli	a5,a5,3
 866 039c B307FA00 		add	a5,s4,a5
 867 03a0 23A02701 		sw	s2,0(a5)
 146:test/ConsumerProducer_CPP_Sync_API_test.cpp ****     data[threadNum].wait = waitForAll;
 868              		.loc 1 146 5 is_stmt 1 discriminator 3
 146:test/ConsumerProducer_CPP_Sync_API_test.cpp ****     data[threadNum].wait = waitForAll;
 869              		.loc 1 146 28 is_stmt 0 discriminator 3
 870 03a4 23B45701 		sd	s5,8(a5)
 147:test/ConsumerProducer_CPP_Sync_API_test.cpp ****     consumerThread = new ConsumerSync(data+threadNum);
 871              		.loc 1 147 5 is_stmt 1 discriminator 3
 147:test/ConsumerProducer_CPP_Sync_API_test.cpp ****     consumerThread = new ConsumerSync(data+threadNum);
 872              		.loc 1 147 26 is_stmt 0 discriminator 3
 873 03a8 23B89700 		sd	s1,16(a5)
 148:test/ConsumerProducer_CPP_Sync_API_test.cpp ****     consumerThread->start();
 874              		.loc 1 148 5 is_stmt 1 discriminator 3
 148:test/ConsumerProducer_CPP_Sync_API_test.cpp ****     consumerThread->start();
 875              		.loc 1 148 53 is_stmt 0 discriminator 3
 876 03ac 13058002 		li	a0,40
 877              	.LEHB4:
 878 03b0 97000000 		call	_Znwm@plt
 878      E7800000 
 879              	.LVL90:
 880              	.LEHE4:
 881 03b8 130B0500 		mv	s6,a0
 148:test/ConsumerProducer_CPP_Sync_API_test.cpp ****     consumerThread->start();
 882              		.loc 1 148 43 discriminator 3
 883 03bc 330C2C01 		add	s8,s8,s2
GAS LISTING /tmp/cc6LjfFX.s 			page 23


 884 03c0 131C3C00 		slli	s8,s8,3
 148:test/ConsumerProducer_CPP_Sync_API_test.cpp ****     consumerThread->start();
 885              		.loc 1 148 53 discriminator 3
 886 03c4 330C8A01 		add	s8,s4,s8
 887              	.LVL91:
 888              	.LEHB5:
 889              	.LBB35:
 890              	.LBB36:
  77:test/ConsumerProducer_CPP_Sync_API_test.cpp **** 
 891              		.loc 1 77 52 discriminator 3
 892 03c8 97000000 		call	_ZN6ThreadC2Ev@plt
 892      E7800000 
 893              	.LVL92:
 894              	.LEHE5:
  77:test/ConsumerProducer_CPP_Sync_API_test.cpp **** 
 895              		.loc 1 77 52
 896 03d0 97070000 		lla	a5,_ZTV12ConsumerSync+16
 896      93870700 
 897 03d8 2330FB00 		sd	a5,0(s6)
 898 03dc 23308B03 		sd	s8,32(s6)
 899              	.LVL93:
 900              	.LBE36:
 901              	.LBE35:
 149:test/ConsumerProducer_CPP_Sync_API_test.cpp **** 
 902              		.loc 1 149 5 is_stmt 1
 149:test/ConsumerProducer_CPP_Sync_API_test.cpp **** 
 903              		.loc 1 149 26 is_stmt 0
 904 03e0 13050B00 		mv	a0,s6
 905              	.LEHB6:
 906 03e4 97000000 		call	_ZN6Thread5startEv@plt
 906      E7800000 
 907              	.LVL94:
 908              	.LBB37:
 151:test/ConsumerProducer_CPP_Sync_API_test.cpp ****         data[i].id = i;
 909              		.loc 1 151 14
 910 03ec 93040000 		li	s1,0
 911 03f0 6F008003 		j	.L47
 912              	.LVL95:
 913              	.L71:
 914              	.LBB38:
 915              	.LBB39:
  50:test/ConsumerProducer_CPP_Sync_API_test.cpp **** 
 916              		.loc 1 50 52
 917 03f4 97070000 		lla	a5,_ZTV12ProducerSync+16
 917      93870700 
 918 03fc 23B0FC00 		sd	a5,0(s9)
 919 0400 23B08C03 		sd	s8,32(s9)
 920              	.LVL96:
 921              	.LBE39:
 922              	.LBE38:
 157:test/ConsumerProducer_CPP_Sync_API_test.cpp ****         } else {
 923              		.loc 1 157 24
 924 0404 93973400 		slli	a5,s1,3
 925 0408 B387F900 		add	a5,s3,a5
 926 040c 23B09701 		sd	s9,0(a5)
 927              	.L46:
 162:test/ConsumerProducer_CPP_Sync_API_test.cpp ****     }
GAS LISTING /tmp/cc6LjfFX.s 			page 24


 928              		.loc 1 162 9 is_stmt 1
 162:test/ConsumerProducer_CPP_Sync_API_test.cpp ****     }
 929              		.loc 1 162 18 is_stmt 0
 930 0410 93973400 		slli	a5,s1,3
 931 0414 B387F900 		add	a5,s3,a5
 162:test/ConsumerProducer_CPP_Sync_API_test.cpp ****     }
 932              		.loc 1 162 26
 933 0418 03B50700 		ld	a0,0(a5)
 934 041c 97000000 		call	_ZN6Thread5startEv@plt
 934      E7800000 
 935              	.LVL97:
 151:test/ConsumerProducer_CPP_Sync_API_test.cpp ****         data[i].id = i;
 936              		.loc 1 151 5 is_stmt 1
 937 0424 9B841400 		addiw	s1,s1,1
 938              	.LVL98:
 939              	.L47:
 151:test/ConsumerProducer_CPP_Sync_API_test.cpp ****         data[i].id = i;
 940              		.loc 1 151 23 discriminator 1
 941 0428 63D0240B 		bge	s1,s2,.L44
 152:test/ConsumerProducer_CPP_Sync_API_test.cpp ****         data[i].buffer = buffer;
 942              		.loc 1 152 9
 152:test/ConsumerProducer_CPP_Sync_API_test.cpp ****         data[i].buffer = buffer;
 943              		.loc 1 152 20 is_stmt 0
 944 042c 93971400 		slli	a5,s1,1
 945 0430 B3879700 		add	a5,a5,s1
 946 0434 93973700 		slli	a5,a5,3
 947 0438 B307FA00 		add	a5,s4,a5
 948 043c 23A09700 		sw	s1,0(a5)
 153:test/ConsumerProducer_CPP_Sync_API_test.cpp ****         data[i].wait = waitForAll;
 949              		.loc 1 153 9 is_stmt 1
 153:test/ConsumerProducer_CPP_Sync_API_test.cpp ****         data[i].wait = waitForAll;
 950              		.loc 1 153 24 is_stmt 0
 951 0440 23B45701 		sd	s5,8(a5)
 154:test/ConsumerProducer_CPP_Sync_API_test.cpp **** 
 952              		.loc 1 154 9 is_stmt 1
 154:test/ConsumerProducer_CPP_Sync_API_test.cpp **** 
 953              		.loc 1 154 22 is_stmt 0
 954 0444 17070000 		ld	a4,.LANCHOR0+8
 954      03370700 
 955 044c 23B8E700 		sd	a4,16(a5)
 156:test/ConsumerProducer_CPP_Sync_API_test.cpp ****             threads[i] = new ProducerSync(data+i);
 956              		.loc 1 156 9 is_stmt 1
 957 0450 63589002 		blez	s1,.L45
 157:test/ConsumerProducer_CPP_Sync_API_test.cpp ****         } else {
 958              		.loc 1 157 13
 157:test/ConsumerProducer_CPP_Sync_API_test.cpp ****         } else {
 959              		.loc 1 157 49 is_stmt 0
 960 0454 13058002 		li	a0,40
 961 0458 97000000 		call	_Znwm@plt
 961      E7800000 
 962              	.LVL99:
 963              	.LEHE6:
 964 0460 930C0500 		mv	s9,a0
 157:test/ConsumerProducer_CPP_Sync_API_test.cpp ****         } else {
 965              		.loc 1 157 47
 966 0464 139C1400 		slli	s8,s1,1
 967 0468 330C9C00 		add	s8,s8,s1
GAS LISTING /tmp/cc6LjfFX.s 			page 25


 968 046c 131C3C00 		slli	s8,s8,3
 157:test/ConsumerProducer_CPP_Sync_API_test.cpp ****         } else {
 969              		.loc 1 157 49
 970 0470 330C8A01 		add	s8,s4,s8
 971              	.LVL100:
 972              	.LEHB7:
 973              	.LBB41:
 974              	.LBB40:
  50:test/ConsumerProducer_CPP_Sync_API_test.cpp **** 
 975              		.loc 1 50 52
 976 0474 97000000 		call	_ZN6ThreadC2Ev@plt
 976      E7800000 
 977              	.LVL101:
 978              	.LEHE7:
 979 047c 6FF09FF7 		j	.L71
 980              	.LVL102:
 981              	.L45:
 982              	.LBE40:
 983              	.LBE41:
 159:test/ConsumerProducer_CPP_Sync_API_test.cpp ****         }
 984              		.loc 1 159 13 is_stmt 1
 159:test/ConsumerProducer_CPP_Sync_API_test.cpp ****         }
 985              		.loc 1 159 53 is_stmt 0
 986 0480 13058002 		li	a0,40
 987              	.LEHB8:
 988 0484 97000000 		call	_Znwm@plt
 988      E7800000 
 989              	.LVL103:
 990              	.LEHE8:
 991 048c 930C0500 		mv	s9,a0
 159:test/ConsumerProducer_CPP_Sync_API_test.cpp ****         }
 992              		.loc 1 159 51
 993 0490 139C1400 		slli	s8,s1,1
 994 0494 330C9C00 		add	s8,s8,s1
 995 0498 131C3C00 		slli	s8,s8,3
 159:test/ConsumerProducer_CPP_Sync_API_test.cpp ****         }
 996              		.loc 1 159 53
 997 049c 330C8A01 		add	s8,s4,s8
 998              	.LVL104:
 999              	.LEHB9:
 1000              	.LBB42:
 1001              	.LBB43:
  19:test/ConsumerProducer_CPP_Sync_API_test.cpp **** 
 1002              		.loc 1 19 56
 1003 04a0 97000000 		call	_ZN6ThreadC2Ev@plt
 1003      E7800000 
 1004              	.LVL105:
 1005              	.LEHE9:
 1006 04a8 97070000 		lla	a5,_ZTV16ProducerKeyboard+16
 1006      93870700 
 1007 04b0 23B0FC00 		sd	a5,0(s9)
 1008 04b4 23B08C03 		sd	s8,32(s9)
 1009              	.LVL106:
 1010              	.LBE43:
 1011              	.LBE42:
 159:test/ConsumerProducer_CPP_Sync_API_test.cpp ****         }
 1012              		.loc 1 159 24
GAS LISTING /tmp/cc6LjfFX.s 			page 26


 1013 04b8 93973400 		slli	a5,s1,3
 1014 04bc B387F900 		add	a5,s3,a5
 1015 04c0 23B09701 		sd	s9,0(a5)
 1016 04c4 6FF0DFF4 		j	.L46
 1017              	.L44:
 1018              	.LBE37:
 165:test/ConsumerProducer_CPP_Sync_API_test.cpp **** 
 1019              		.loc 1 165 5 is_stmt 1
 1020              	.LEHB10:
 165:test/ConsumerProducer_CPP_Sync_API_test.cpp **** 
 1021              		.loc 1 165 21 is_stmt 0
 1022 04c8 97000000 		call	_ZN6Thread8dispatchEv@plt
 1022      E7800000 
 1023              	.LVL107:
 1024              	.LBB44:
 167:test/ConsumerProducer_CPP_Sync_API_test.cpp ****         waitForAll->wait();
 1025              		.loc 1 167 14
 1026 04d0 93040000 		li	s1,0
 1027              	.LVL108:
 1028              	.L49:
 167:test/ConsumerProducer_CPP_Sync_API_test.cpp ****         waitForAll->wait();
 1029              		.loc 1 167 23 is_stmt 1 discriminator 1
 1030 04d4 634E9900 		bgt	s1,s2,.L61
 168:test/ConsumerProducer_CPP_Sync_API_test.cpp ****     }
 1031              		.loc 1 168 9
 168:test/ConsumerProducer_CPP_Sync_API_test.cpp ****     }
 1032              		.loc 1 168 25 is_stmt 0
 1033 04d8 17050000 		ld	a0,.LANCHOR0+8
 1033      03350500 
 1034 04e0 97000000 		call	_ZN9Semaphore4waitEv@plt
 1034      E7800000 
 1035              	.LVL109:
 167:test/ConsumerProducer_CPP_Sync_API_test.cpp ****         waitForAll->wait();
 1036              		.loc 1 167 5 is_stmt 1
 1037 04e8 9B841400 		addiw	s1,s1,1
 1038              	.LVL110:
 1039 04ec 6FF09FFE 		j	.L49
 1040              	.LVL111:
 1041              	.L61:
 1042              	.LBE44:
 1043              	.LBB45:
 171:test/ConsumerProducer_CPP_Sync_API_test.cpp ****         delete threads[i];
 1044              		.loc 1 171 14 is_stmt 0
 1045 04f0 93040000 		li	s1,0
 1046              	.LVL112:
 1047 04f4 6F008000 		j	.L48
 1048              	.LVL113:
 1049              	.L51:
 171:test/ConsumerProducer_CPP_Sync_API_test.cpp ****         delete threads[i];
 1050              		.loc 1 171 5 is_stmt 1 discriminator 2
 1051 04f8 9B841400 		addiw	s1,s1,1
 1052              	.LVL114:
 1053              	.L48:
 171:test/ConsumerProducer_CPP_Sync_API_test.cpp ****         delete threads[i];
 1054              		.loc 1 171 23 discriminator 1
 1055 04fc 63D22403 		bge	s1,s2,.L50
 172:test/ConsumerProducer_CPP_Sync_API_test.cpp ****     }
GAS LISTING /tmp/cc6LjfFX.s 			page 27


 1056              		.loc 1 172 9
 172:test/ConsumerProducer_CPP_Sync_API_test.cpp ****     }
 1057              		.loc 1 172 25 is_stmt 0
 1058 0500 93973400 		slli	a5,s1,3
 1059 0504 B387F900 		add	a5,s3,a5
 1060 0508 03B50700 		ld	a0,0(a5)
 172:test/ConsumerProducer_CPP_Sync_API_test.cpp ****     }
 1061              		.loc 1 172 26
 1062 050c E30605FE 		beqz	a0,.L51
 172:test/ConsumerProducer_CPP_Sync_API_test.cpp ****     }
 1063              		.loc 1 172 25 discriminator 1
 1064 0510 83370500 		ld	a5,0(a0)
 1065 0514 83B78700 		ld	a5,8(a5)
 1066 0518 E7800700 		jalr	a5
 1067              	.LVL115:
 1068 051c 6FF0DFFD 		j	.L51
 1069              	.L50:
 1070              	.LBE45:
 174:test/ConsumerProducer_CPP_Sync_API_test.cpp ****     delete waitForAll;
 1071              		.loc 1 174 5 is_stmt 1
 174:test/ConsumerProducer_CPP_Sync_API_test.cpp ****     delete waitForAll;
 1072              		.loc 1 174 26 is_stmt 0
 1073 0520 630A0B00 		beqz	s6,.L52
 174:test/ConsumerProducer_CPP_Sync_API_test.cpp ****     delete waitForAll;
 1074              		.loc 1 174 12 discriminator 1
 1075 0524 83370B00 		ld	a5,0(s6)
 1076 0528 83B78700 		ld	a5,8(a5)
 1077 052c 13050B00 		mv	a0,s6
 1078 0530 E7800700 		jalr	a5
 1079              	.LVL116:
 1080              	.L52:
 175:test/ConsumerProducer_CPP_Sync_API_test.cpp ****     delete buffer;
 1081              		.loc 1 175 5 is_stmt 1
 175:test/ConsumerProducer_CPP_Sync_API_test.cpp ****     delete buffer;
 1082              		.loc 1 175 12 is_stmt 0
 1083 0534 17050000 		ld	a0,.LANCHOR0+8
 1083      03350500 
 175:test/ConsumerProducer_CPP_Sync_API_test.cpp ****     delete buffer;
 1084              		.loc 1 175 22
 1085 053c 63080500 		beqz	a0,.L53
 175:test/ConsumerProducer_CPP_Sync_API_test.cpp ****     delete buffer;
 1086              		.loc 1 175 12 discriminator 1
 1087 0540 83370500 		ld	a5,0(a0)
 1088 0544 83B78700 		ld	a5,8(a5)
 1089 0548 E7800700 		jalr	a5
 1090              	.LVL117:
 1091              	.L53:
 1092              		.loc 1 176 5 is_stmt 1
 1093              		.loc 1 176 18 is_stmt 0
 1094 054c 638E0A00 		beqz	s5,.L54
 1095              		.loc 1 176 12 discriminator 1
 1096 0550 13850A00 		mv	a0,s5
 1097 0554 97000000 		call	_ZN9BufferCPPD1Ev@plt
 1097      E7800000 
 1098              	.LVL118:
 1099 055c 13850A00 		mv	a0,s5
 1100 0560 97000000 		call	_ZdlPv@plt
GAS LISTING /tmp/cc6LjfFX.s 			page 28


 1100      E7800000 
 1101              	.LVL119:
 1102              	.L54:
 1103 0568 13810B00 		mv	sp,s7
 1104              	.LVL120:
 1105              	.L40:
 177:test/ConsumerProducer_CPP_Sync_API_test.cpp **** 
 178:test/ConsumerProducer_CPP_Sync_API_test.cpp **** }
 1106              		.loc 1 178 1
 1107 056c 130104F8 		addi	sp,s0,-128
 1108              		.cfi_remember_state
 1109              		.cfi_def_cfa 2, 128
 1110 0570 83308107 		ld	ra,120(sp)
 1111              		.cfi_restore 1
 1112 0574 03340107 		ld	s0,112(sp)
 1113              		.cfi_restore 8
 1114 0578 83348106 		ld	s1,104(sp)
 1115              		.cfi_restore 9
 1116 057c 03390106 		ld	s2,96(sp)
 1117              		.cfi_restore 18
 1118              	.LVL121:
 1119 0580 83398105 		ld	s3,88(sp)
 1120              		.cfi_restore 19
 1121 0584 033A0105 		ld	s4,80(sp)
 1122              		.cfi_restore 20
 1123 0588 833A8104 		ld	s5,72(sp)
 1124              		.cfi_restore 21
 1125 058c 033B0104 		ld	s6,64(sp)
 1126              		.cfi_restore 22
 1127 0590 833B8103 		ld	s7,56(sp)
 1128              		.cfi_restore 23
 1129 0594 033C0103 		ld	s8,48(sp)
 1130              		.cfi_restore 24
 1131 0598 833C8102 		ld	s9,40(sp)
 1132              		.cfi_restore 25
 1133 059c 13010108 		addi	sp,sp,128
 1134              		.cfi_def_cfa_offset 0
 1135 05a0 67800000 		jr	ra
 1136              	.LVL122:
 1137              	.L62:
 1138              		.cfi_restore_state
 1139 05a4 93040500 		mv	s1,a0
 1140              	.LVL123:
 136:test/ConsumerProducer_CPP_Sync_API_test.cpp **** 
 1141              		.loc 1 136 40
 1142 05a8 13850A00 		mv	a0,s5
 1143 05ac 97000000 		call	_ZdlPv@plt
 1143      E7800000 
 1144              	.LVL124:
 1145 05b4 13850400 		mv	a0,s1
 1146 05b8 97000000 		call	_Unwind_Resume@plt
 1146      E7800000 
 1147              	.LVL125:
 1148              	.L63:
 1149 05c0 13090500 		mv	s2,a0
 1150              	.LVL126:
 138:test/ConsumerProducer_CPP_Sync_API_test.cpp **** 
GAS LISTING /tmp/cc6LjfFX.s 			page 29


 1151              		.loc 1 138 33
 1152 05c4 13850400 		mv	a0,s1
 1153 05c8 97000000 		call	_ZdlPv@plt
 1153      E7800000 
 1154              	.LVL127:
 1155 05d0 13050900 		mv	a0,s2
 1156 05d4 97000000 		call	_Unwind_Resume@plt
 1156      E7800000 
 1157              	.LVL128:
 1158              	.L64:
 1159 05dc 93040500 		mv	s1,a0
 148:test/ConsumerProducer_CPP_Sync_API_test.cpp ****     consumerThread->start();
 1160              		.loc 1 148 53
 1161 05e0 13050B00 		mv	a0,s6
 1162 05e4 97000000 		call	_ZdlPv@plt
 1162      E7800000 
 1163              	.LVL129:
 1164 05ec 13850400 		mv	a0,s1
 1165 05f0 97000000 		call	_Unwind_Resume@plt
 1165      E7800000 
 1166              	.LVL130:
 1167              	.L65:
 1168 05f8 93040500 		mv	s1,a0
 1169              	.LVL131:
 1170              	.LBB46:
 157:test/ConsumerProducer_CPP_Sync_API_test.cpp ****         } else {
 1171              		.loc 1 157 49
 1172 05fc 13850C00 		mv	a0,s9
 1173 0600 97000000 		call	_ZdlPv@plt
 1173      E7800000 
 1174              	.LVL132:
 1175 0608 13850400 		mv	a0,s1
 1176 060c 97000000 		call	_Unwind_Resume@plt
 1176      E7800000 
 1177              	.LVL133:
 1178              	.L66:
 1179 0614 93040500 		mv	s1,a0
 1180              	.LVL134:
 159:test/ConsumerProducer_CPP_Sync_API_test.cpp ****         }
 1181              		.loc 1 159 53
 1182 0618 13850C00 		mv	a0,s9
 1183 061c 97000000 		call	_ZdlPv@plt
 1183      E7800000 
 1184              	.LVL135:
 1185 0624 13850400 		mv	a0,s1
 1186 0628 97000000 		call	_Unwind_Resume@plt
 1186      E7800000 
 1187              	.LVL136:
 1188              	.LEHE10:
 1189              	.LBE46:
 1190              		.cfi_endproc
 1191              	.LFE17:
 1192              		.globl	__gxx_personality_v0
 1193              		.section	.gcc_except_table,"a",@progbits
 1194              	.LLSDA17:
 1195 0000 FF       		.byte	0xff
 1196 0001 FF       		.byte	0xff
GAS LISTING /tmp/cc6LjfFX.s 			page 30


 1197 0002 03       		.byte	0x3
 1198 0003 8F01     		.byte	0x8f,0x1
 1199 0005 00000000 		.4byte	.LEHB0-.LFB17
 1200 0009 00000000 		.4byte	.LEHE0-.LEHB0
 1201 000d 00000000 		.4byte	0
 1202 0011 00       		.byte	0
 1203 0012 00000000 		.4byte	.LEHB1-.LFB17
 1204 0016 00000000 		.4byte	.LEHE1-.LEHB1
 1205 001a 00000000 		.4byte	.L62-.LFB17
 1206 001e 00       		.byte	0
 1207 001f 00000000 		.4byte	.LEHB2-.LFB17
 1208 0023 00000000 		.4byte	.LEHE2-.LEHB2
 1209 0027 00000000 		.4byte	0
 1210 002b 00       		.byte	0
 1211 002c 00000000 		.4byte	.LEHB3-.LFB17
 1212 0030 00000000 		.4byte	.LEHE3-.LEHB3
 1213 0034 00000000 		.4byte	.L63-.LFB17
 1214 0038 00       		.byte	0
 1215 0039 00000000 		.4byte	.LEHB4-.LFB17
 1216 003d 00000000 		.4byte	.LEHE4-.LEHB4
 1217 0041 00000000 		.4byte	0
 1218 0045 00       		.byte	0
 1219 0046 00000000 		.4byte	.LEHB5-.LFB17
 1220 004a 00000000 		.4byte	.LEHE5-.LEHB5
 1221 004e 00000000 		.4byte	.L64-.LFB17
 1222 0052 00       		.byte	0
 1223 0053 00000000 		.4byte	.LEHB6-.LFB17
 1224 0057 00000000 		.4byte	.LEHE6-.LEHB6
 1225 005b 00000000 		.4byte	0
 1226 005f 00       		.byte	0
 1227 0060 00000000 		.4byte	.LEHB7-.LFB17
 1228 0064 00000000 		.4byte	.LEHE7-.LEHB7
 1229 0068 00000000 		.4byte	.L65-.LFB17
 1230 006c 00       		.byte	0
 1231 006d 00000000 		.4byte	.LEHB8-.LFB17
 1232 0071 00000000 		.4byte	.LEHE8-.LEHB8
 1233 0075 00000000 		.4byte	0
 1234 0079 00       		.byte	0
 1235 007a 00000000 		.4byte	.LEHB9-.LFB17
 1236 007e 00000000 		.4byte	.LEHE9-.LEHB9
 1237 0082 00000000 		.4byte	.L66-.LFB17
 1238 0086 00       		.byte	0
 1239 0087 00000000 		.4byte	.LEHB10-.LFB17
 1240 008b 00000000 		.4byte	.LEHE10-.LEHB10
 1241 008f 00000000 		.4byte	0
 1242 0093 00       		.byte	0
 1243              		.text
 1245              		.weak	_ZTV16ProducerKeyboard
 1246              		.section	.data.rel.ro.local._ZTV16ProducerKeyboard,"awG",@progbits,_ZTV16ProducerKeyboard,comdat
 1247              		.align	3
 1250              	_ZTV16ProducerKeyboard:
 1251 0000 00000000 		.dword	0
 1251      00000000 
 1252 0008 00000000 		.dword	0
 1252      00000000 
 1253 0010 00000000 		.dword	_ZN16ProducerKeyboardD1Ev
 1253      00000000 
GAS LISTING /tmp/cc6LjfFX.s 			page 31


 1254 0018 00000000 		.dword	_ZN16ProducerKeyboardD0Ev
 1254      00000000 
 1255 0020 00000000 		.dword	_ZN16ProducerKeyboard3runEv
 1255      00000000 
 1256              		.weak	_ZTV12ProducerSync
 1257              		.section	.data.rel.ro.local._ZTV12ProducerSync,"awG",@progbits,_ZTV12ProducerSync,comdat
 1258              		.align	3
 1261              	_ZTV12ProducerSync:
 1262 0000 00000000 		.dword	0
 1262      00000000 
 1263 0008 00000000 		.dword	0
 1263      00000000 
 1264 0010 00000000 		.dword	_ZN12ProducerSyncD1Ev
 1264      00000000 
 1265 0018 00000000 		.dword	_ZN12ProducerSyncD0Ev
 1265      00000000 
 1266 0020 00000000 		.dword	_ZN12ProducerSync3runEv
 1266      00000000 
 1267              		.weak	_ZTV12ConsumerSync
 1268              		.section	.data.rel.ro.local._ZTV12ConsumerSync,"awG",@progbits,_ZTV12ConsumerSync,comdat
 1269              		.align	3
 1272              	_ZTV12ConsumerSync:
 1273 0000 00000000 		.dword	0
 1273      00000000 
 1274 0008 00000000 		.dword	0
 1274      00000000 
 1275 0010 00000000 		.dword	_ZN12ConsumerSyncD1Ev
 1275      00000000 
 1276 0018 00000000 		.dword	_ZN12ConsumerSyncD0Ev
 1276      00000000 
 1277 0020 00000000 		.dword	_ZN12ConsumerSync3runEv
 1277      00000000 
 1278              		.bss
 1279              		.align	3
 1280              		.set	.LANCHOR0,. + 0
 1283              	_ZL9threadEnd:
 1284 0000 00000000 		.zero	4
 1285 0004 00000000 		.zero	4
 1288              	_ZL10waitForAll:
 1289 0008 00000000 		.zero	8
 1289      00000000 
 1290              		.text
 1291              	.Letext0:
 1292              		.file 2 "test/../h/../lib/hw.h"
 1293              		.file 3 "test/../h/syscall_cpp.hpp"
 1294              		.file 4 "test/buffer_CPP_API.hpp"
 1295              		.file 5 "test/../h/syscall_c.hpp"
 1296              		.file 6 "test/printing.hpp"
 5206              		.align	3
 5209              	DW.ref.__gxx_personality_v0:
 5210 0000 00000000 		.dword	__gxx_personality_v0
 5210      00000000 
 5211              		.ident	"GCC: (Ubuntu 9.4.0-1ubuntu1~20.04) 9.4.0"
 5212              		.section	.note.GNU-stack,"",@progbits
GAS LISTING /tmp/cc6LjfFX.s 			page 32

