GAS LISTING /tmp/ccVpAgfq.s 			page 1


   1              		.file	"userMain.cpp"
   2              		.option pic
   3              		.option norelax
   4              		.text
   5              	.Ltext0:
   6              		.section	.rodata.str1.8,"aMS",@progbits,1
   7              		.align	3
   8              	.LC0:
   9 0000 556E6573 		.string	"Unesite broj testa? [1-7]\n"
   9      69746520 
   9      62726F6A 
   9      20746573 
   9      74613F20 
  10 001b 00000000 		.align	3
  10      00
  11              	.LC1:
  12 0020 54455354 		.string	"TEST 1 (zadatak 2, niti C API i sinhrona promena konteksta)\n"
  12      20312028 
  12      7A616461 
  12      74616B20 
  12      322C206E 
  13 005d 000000   		.align	3
  14              	.LC2:
  15 0060 54455354 		.string	"TEST 2 (zadatak 2., niti CPP API i sinhrona promena konteksta)\n"
  15      20322028 
  15      7A616461 
  15      74616B20 
  15      322E2C20 
  16              		.align	3
  17              	.LC3:
  18 00a0 54455354 		.string	"TEST 3 (zadatak 3., kompletan C API sa semaforima, sinhrona promena konteksta)\n"
  18      20332028 
  18      7A616461 
  18      74616B20 
  18      332E2C20 
  19              		.align	3
  20              	.LC4:
  21 00f0 54455354 		.string	"TEST 4 (zadatak 3., kompletan CPP API sa semaforima, sinhrona promena konteksta)\n"
  21      20342028 
  21      7A616461 
  21      74616B20 
  21      332E2C20 
  22 0142 00000000 		.align	3
  22      0000
  23              	.LC5:
  24 0148 54455354 		.string	"TEST 5 (zadatak 4., thread_sleep test C API)\n"
  24      20352028 
  24      7A616461 
  24      74616B20 
  24      342E2C20 
  25 0176 0000     		.align	3
  26              	.LC6:
  27 0178 54455354 		.string	"TEST 6 (zadatak 4. CPP API i asinhrona promena konteksta)\n"
  27      20362028 
  27      7A616461 
  27      74616B20 
  27      342E2043 
GAS LISTING /tmp/ccVpAgfq.s 			page 2


  28 01b3 00000000 		.align	3
  28      00
  29              	.LC7:
  30 01b8 54657374 		.string	"Test se nije uspesno zavrsio\n"
  30      20736520 
  30      6E696A65 
  30      20757370 
  30      65736E6F 
  31 01d6 0000     		.align	3
  32              	.LC8:
  33 01d8 54455354 		.string	"TEST 7 (zadatak 2., testiranje da li se korisnicki kod izvrsava u korisnickom rezimu)\n"
  33      20372028 
  33      7A616461 
  33      74616B20 
  33      322E2C20 
  34 022f 00       		.align	3
  35              	.LC9:
  36 0230 4E697374 		.string	"Niste uneli odgovarajuci broj za test\n"
  36      6520756E 
  36      656C6920 
  36      6F64676F 
  36      76617261 
  37              		.text
  38              		.align	2
  39              		.globl	_Z8userMainv
  41              	_Z8userMainv:
  42              	.LFB34:
  43              		.file 1 "test/userMain.cpp"
   1:test/userMain.cpp **** #include "printing.hpp"
   2:test/userMain.cpp **** 
   3:test/userMain.cpp **** #define LEVEL_1_IMPLEMENTED 1
   4:test/userMain.cpp **** #define LEVEL_2_IMPLEMENTED 1
   5:test/userMain.cpp **** #define LEVEL_3_IMPLEMENTED 1
   6:test/userMain.cpp **** #define LEVEL_4_IMPLEMENTED 1
   7:test/userMain.cpp **** 
   8:test/userMain.cpp **** #if LEVEL_2_IMPLEMENTED == 1
   9:test/userMain.cpp **** // TEST 1 (zadatak 2, niti C API i sinhrona promena konteksta)
  10:test/userMain.cpp **** #include "../test/Threads_C_API_test.hpp"
  11:test/userMain.cpp **** // TEST 2 (zadatak 2., niti CPP API i sinhrona promena konteksta)
  12:test/userMain.cpp **** #include "../test/Threads_CPP_API_test.hpp"
  13:test/userMain.cpp **** // TEST 7 (zadatak 2., testiranje da li se korisnicki kod izvrsava u korisnickom rezimu)
  14:test/userMain.cpp **** #include "../test/System_Mode_test.hpp"
  15:test/userMain.cpp **** #endif
  16:test/userMain.cpp **** 
  17:test/userMain.cpp **** #if LEVEL_3_IMPLEMENTED == 1
  18:test/userMain.cpp **** // TEST 3 (zadatak 3., kompletan C API sa semaforima, sinhrona promena konteksta)
  19:test/userMain.cpp **** #include "../test/ConsumerProducer_C_API_test.hpp"
  20:test/userMain.cpp **** // TEST 4 (zadatak 3., kompletan CPP API sa semaforima, sinhrona promena konteksta)
  21:test/userMain.cpp **** #include "../test/ConsumerProducer_CPP_Sync_API_test.hpp"
  22:test/userMain.cpp **** #endif
  23:test/userMain.cpp **** 
  24:test/userMain.cpp **** #if LEVEL_4_IMPLEMENTED == 1
  25:test/userMain.cpp **** // TEST 5 (zadatak 4., thread_sleep test C API)
  26:test/userMain.cpp **** #include "../test/ThreadSleep_C_API_test.hpp"
  27:test/userMain.cpp **** // TEST 6 (zadatak 4. CPP API i asinhrona promena konteksta)
  28:test/userMain.cpp **** #include "../test/ConsumerProducer_CPP_API_test.hpp"
  29:test/userMain.cpp **** #include "System_Mode_test.hpp"
GAS LISTING /tmp/ccVpAgfq.s 			page 3


  30:test/userMain.cpp **** 
  31:test/userMain.cpp **** #endif
  32:test/userMain.cpp **** 
  33:test/userMain.cpp **** void userMain() {
  44              		.loc 1 33 17
  45              		.cfi_startproc
  46 0000 130101FE 		addi	sp,sp,-32
  47              		.cfi_def_cfa_offset 32
  48 0004 233C1100 		sd	ra,24(sp)
  49 0008 23388100 		sd	s0,16(sp)
  50 000c 23349100 		sd	s1,8(sp)
  51              		.cfi_offset 1, -8
  52              		.cfi_offset 8, -16
  53              		.cfi_offset 9, -24
  54 0010 13040102 		addi	s0,sp,32
  55              		.cfi_def_cfa 8, 0
  34:test/userMain.cpp ****     printString("Unesite broj testa? [1-7]\n");
  56              		.loc 1 34 5
  57              		.loc 1 34 16 is_stmt 0
  58 0014 17050000 		lla	a0,.LC0
  58      13050500 
  59 001c 97000000 		call	_Z11printStringPKc@plt
  59      E7800000 
  60              	.LVL0:
  35:test/userMain.cpp ****     int test = getc() - '0';
  61              		.loc 1 35 5 is_stmt 1
  62              		.loc 1 35 20 is_stmt 0
  63 0024 97000000 		call	_Z4getcv@plt
  63      E7800000 
  64              	.LVL1:
  65              		.loc 1 35 25
  66 002c 9B0405FD 		addiw	s1,a0,-48
  67              	.LVL2:
  36:test/userMain.cpp ****     getc(); // Enter posle broja
  68              		.loc 1 36 5 is_stmt 1
  69              		.loc 1 36 9 is_stmt 0
  70 0030 97000000 		call	_Z4getcv@plt
  70      E7800000 
  71              	.LVL3:
  37:test/userMain.cpp **** 
  38:test/userMain.cpp ****     if ((test >= 1 && test <= 2) || test == 7) {
  72              		.loc 1 38 5 is_stmt 1
  39:test/userMain.cpp ****         if (LEVEL_2_IMPLEMENTED == 0) {
  40:test/userMain.cpp ****             printString("Nije navedeno da je zadatak 2 implementiran\n");
  41:test/userMain.cpp ****             return;
  42:test/userMain.cpp ****         }
  43:test/userMain.cpp ****     }
  44:test/userMain.cpp **** 
  45:test/userMain.cpp ****     if (test >= 3 && test <= 4) {
  73              		.loc 1 45 5
  46:test/userMain.cpp ****         if (LEVEL_3_IMPLEMENTED == 0) {
  47:test/userMain.cpp ****             printString("Nije navedeno da je zadatak 3 implementiran\n");
  48:test/userMain.cpp ****             return;
  49:test/userMain.cpp ****         }
  50:test/userMain.cpp ****     }
  51:test/userMain.cpp **** 
  52:test/userMain.cpp ****     if (test >= 5 && test <= 6) {
GAS LISTING /tmp/ccVpAgfq.s 			page 4


  74              		.loc 1 52 5
  53:test/userMain.cpp ****         if (LEVEL_4_IMPLEMENTED == 0) {
  54:test/userMain.cpp ****             printString("Nije navedeno da je zadatak 4 implementiran\n");
  55:test/userMain.cpp ****             return;
  56:test/userMain.cpp ****         }
  57:test/userMain.cpp ****     }
  58:test/userMain.cpp **** 
  59:test/userMain.cpp ****     switch (test) {
  75              		.loc 1 59 5
  76 0038 93077000 		li	a5,7
  77 003c 63E6970E 		bgtu	s1,a5,.L2
  78 0040 93942400 		slli	s1,s1,2
  79 0044 17070000 		lla	a4,.L4
  79      13070700 
  80 004c B384E400 		add	s1,s1,a4
  81 0050 83A70400 		lw	a5,0(s1)
  82 0054 B387E700 		add	a5,a5,a4
  83 0058 67800700 		jr	a5
  84              		.section	.rodata
  85              		.align	2
  86              		.align	2
  87              	.L4:
  88 0000 00000000 		.word	.L2-.L4
  89 0004 00000000 		.word	.L10-.L4
  90 0008 00000000 		.word	.L9-.L4
  91 000c 00000000 		.word	.L8-.L4
  92 0010 00000000 		.word	.L7-.L4
  93 0014 00000000 		.word	.L6-.L4
  94 0018 00000000 		.word	.L5-.L4
  95 001c 00000000 		.word	.L3-.L4
  96              		.text
  97              	.L10:
  60:test/userMain.cpp ****         case 1:
  98              		.loc 1 60 9
  61:test/userMain.cpp **** #if LEVEL_2_IMPLEMENTED == 1
  62:test/userMain.cpp ****             Threads_C_API_test();
  99              		.loc 1 62 13
 100              		.loc 1 62 31 is_stmt 0
 101 005c 97000000 		call	_Z18Threads_C_API_testv@plt
 101      E7800000 
 102              	.LVL4:
  63:test/userMain.cpp ****             printString("TEST 1 (zadatak 2, niti C API i sinhrona promena konteksta)\n");
 103              		.loc 1 63 13 is_stmt 1
 104              		.loc 1 63 24 is_stmt 0
 105 0064 17050000 		lla	a0,.LC1
 105      13050500 
 106 006c 97000000 		call	_Z11printStringPKc@plt
 106      E7800000 
 107              	.LVL5:
  64:test/userMain.cpp **** #endif
  65:test/userMain.cpp ****             break;
 108              		.loc 1 65 13 is_stmt 1
 109              	.L1:
  66:test/userMain.cpp ****         case 2:
  67:test/userMain.cpp **** #if LEVEL_2_IMPLEMENTED == 1
  68:test/userMain.cpp ****             //Threads_CPP_API_test();
  69:test/userMain.cpp ****             printString("TEST 2 (zadatak 2., niti CPP API i sinhrona promena konteksta)\n");
GAS LISTING /tmp/ccVpAgfq.s 			page 5


  70:test/userMain.cpp **** #endif
  71:test/userMain.cpp ****             break;
  72:test/userMain.cpp ****         case 3:
  73:test/userMain.cpp **** #if LEVEL_3_IMPLEMENTED == 1
  74:test/userMain.cpp ****             producerConsumer_C_API();
  75:test/userMain.cpp ****             printString("TEST 3 (zadatak 3., kompletan C API sa semaforima, sinhrona promena kontek
  76:test/userMain.cpp **** #endif
  77:test/userMain.cpp ****             break;
  78:test/userMain.cpp ****         case 4:
  79:test/userMain.cpp **** #if LEVEL_3_IMPLEMENTED == 1
  80:test/userMain.cpp ****             //producerConsumer_CPP_Sync_API();
  81:test/userMain.cpp ****             printString("TEST 4 (zadatak 3., kompletan CPP API sa semaforima, sinhrona promena kont
  82:test/userMain.cpp **** #endif
  83:test/userMain.cpp ****             break;
  84:test/userMain.cpp ****         case 5:
  85:test/userMain.cpp **** #if LEVEL_4_IMPLEMENTED == 1
  86:test/userMain.cpp ****             testSleeping();
  87:test/userMain.cpp ****             printString("TEST 5 (zadatak 4., thread_sleep test C API)\n");
  88:test/userMain.cpp **** #endif
  89:test/userMain.cpp ****             break;
  90:test/userMain.cpp ****         case 6:
  91:test/userMain.cpp **** #if LEVEL_4_IMPLEMENTED == 1
  92:test/userMain.cpp ****             //testConsumerProducer();
  93:test/userMain.cpp ****             printString("TEST 6 (zadatak 4. CPP API i asinhrona promena konteksta)\n");
  94:test/userMain.cpp **** #endif
  95:test/userMain.cpp ****             break;
  96:test/userMain.cpp ****         case 7:
  97:test/userMain.cpp **** #if LEVEL_2_IMPLEMENTED == 1
  98:test/userMain.cpp ****             System_Mode_test();
  99:test/userMain.cpp ****             printString("Test se nije uspesno zavrsio\n");
 100:test/userMain.cpp ****             printString("TEST 7 (zadatak 2., testiranje da li se korisnicki kod izvrsava u korisnic
 101:test/userMain.cpp **** #endif
 102:test/userMain.cpp ****             break;
 103:test/userMain.cpp ****         default:
 104:test/userMain.cpp ****             printString("Niste uneli odgovarajuci broj za test\n");
 105:test/userMain.cpp ****     }
 106:test/userMain.cpp **** }...
 110              		.loc 1 106 1 is_stmt 0
 111 0074 83308101 		ld	ra,24(sp)
 112              		.cfi_remember_state
 113              		.cfi_restore 1
 114 0078 03340101 		ld	s0,16(sp)
 115              		.cfi_restore 8
 116              		.cfi_def_cfa 2, 32
 117 007c 83348100 		ld	s1,8(sp)
 118              		.cfi_restore 9
 119 0080 13010102 		addi	sp,sp,32
 120              		.cfi_def_cfa_offset 0
 121 0084 67800000 		jr	ra
 122              	.L9:
 123              		.cfi_restore_state
  66:test/userMain.cpp ****         case 2:
 124              		.loc 1 66 9 is_stmt 1
  69:test/userMain.cpp ****             printString("TEST 2 (zadatak 2., niti CPP API i sinhrona promena konteksta)\n");
 125              		.loc 1 69 13
  69:test/userMain.cpp ****             printString("TEST 2 (zadatak 2., niti CPP API i sinhrona promena konteksta)\n");
 126              		.loc 1 69 24 is_stmt 0
GAS LISTING /tmp/ccVpAgfq.s 			page 6


 127 0088 17050000 		lla	a0,.LC2
 127      13050500 
 128 0090 97000000 		call	_Z11printStringPKc@plt
 128      E7800000 
 129              	.LVL6:
  71:test/userMain.cpp ****             break;
 130              		.loc 1 71 13 is_stmt 1
 131 0098 6FF0DFFD 		j	.L1
 132              	.L8:
  72:test/userMain.cpp ****         case 3:
 133              		.loc 1 72 9
  74:test/userMain.cpp ****             producerConsumer_C_API();
 134              		.loc 1 74 13
  74:test/userMain.cpp ****             producerConsumer_C_API();
 135              		.loc 1 74 35 is_stmt 0
 136 009c 97000000 		call	_Z22producerConsumer_C_APIv@plt
 136      E7800000 
 137              	.LVL7:
  75:test/userMain.cpp ****             printString("TEST 3 (zadatak 3., kompletan C API sa semaforima, sinhrona promena kontek
 138              		.loc 1 75 13 is_stmt 1
  75:test/userMain.cpp ****             printString("TEST 3 (zadatak 3., kompletan C API sa semaforima, sinhrona promena kontek
 139              		.loc 1 75 24 is_stmt 0
 140 00a4 17050000 		lla	a0,.LC3
 140      13050500 
 141 00ac 97000000 		call	_Z11printStringPKc@plt
 141      E7800000 
 142              	.LVL8:
  77:test/userMain.cpp ****             break;
 143              		.loc 1 77 13 is_stmt 1
 144 00b4 6FF01FFC 		j	.L1
 145              	.L7:
  78:test/userMain.cpp ****         case 4:
 146              		.loc 1 78 9
  81:test/userMain.cpp ****             printString("TEST 4 (zadatak 3., kompletan CPP API sa semaforima, sinhrona promena kont
 147              		.loc 1 81 13
  81:test/userMain.cpp ****             printString("TEST 4 (zadatak 3., kompletan CPP API sa semaforima, sinhrona promena kont
 148              		.loc 1 81 24 is_stmt 0
 149 00b8 17050000 		lla	a0,.LC4
 149      13050500 
 150 00c0 97000000 		call	_Z11printStringPKc@plt
 150      E7800000 
 151              	.LVL9:
  83:test/userMain.cpp ****             break;
 152              		.loc 1 83 13 is_stmt 1
 153 00c8 6FF0DFFA 		j	.L1
 154              	.L6:
  84:test/userMain.cpp ****         case 5:
 155              		.loc 1 84 9
  86:test/userMain.cpp ****             testSleeping();
 156              		.loc 1 86 13
  86:test/userMain.cpp ****             testSleeping();
 157              		.loc 1 86 25 is_stmt 0
 158 00cc 97000000 		call	_Z12testSleepingv@plt
 158      E7800000 
 159              	.LVL10:
  87:test/userMain.cpp ****             printString("TEST 5 (zadatak 4., thread_sleep test C API)\n");
 160              		.loc 1 87 13 is_stmt 1
GAS LISTING /tmp/ccVpAgfq.s 			page 7


  87:test/userMain.cpp ****             printString("TEST 5 (zadatak 4., thread_sleep test C API)\n");
 161              		.loc 1 87 24 is_stmt 0
 162 00d4 17050000 		lla	a0,.LC5
 162      13050500 
 163 00dc 97000000 		call	_Z11printStringPKc@plt
 163      E7800000 
 164              	.LVL11:
  89:test/userMain.cpp ****             break;
 165              		.loc 1 89 13 is_stmt 1
 166 00e4 6FF01FF9 		j	.L1
 167              	.L5:
  90:test/userMain.cpp ****         case 6:
 168              		.loc 1 90 9
  93:test/userMain.cpp ****             printString("TEST 6 (zadatak 4. CPP API i asinhrona promena konteksta)\n");
 169              		.loc 1 93 13
  93:test/userMain.cpp ****             printString("TEST 6 (zadatak 4. CPP API i asinhrona promena konteksta)\n");
 170              		.loc 1 93 24 is_stmt 0
 171 00e8 17050000 		lla	a0,.LC6
 171      13050500 
 172 00f0 97000000 		call	_Z11printStringPKc@plt
 172      E7800000 
 173              	.LVL12:
  95:test/userMain.cpp ****             break;
 174              		.loc 1 95 13 is_stmt 1
 175 00f8 6FF0DFF7 		j	.L1
 176              	.L3:
  96:test/userMain.cpp ****         case 7:
 177              		.loc 1 96 9
  98:test/userMain.cpp ****             System_Mode_test();
 178              		.loc 1 98 13
  98:test/userMain.cpp ****             System_Mode_test();
 179              		.loc 1 98 29 is_stmt 0
 180 00fc 97000000 		call	_Z16System_Mode_testv@plt
 180      E7800000 
 181              	.LVL13:
  99:test/userMain.cpp ****             printString("Test se nije uspesno zavrsio\n");
 182              		.loc 1 99 13 is_stmt 1
  99:test/userMain.cpp ****             printString("Test se nije uspesno zavrsio\n");
 183              		.loc 1 99 24 is_stmt 0
 184 0104 17050000 		lla	a0,.LC7
 184      13050500 
 185 010c 97000000 		call	_Z11printStringPKc@plt
 185      E7800000 
 186              	.LVL14:
 100:test/userMain.cpp ****             printString("TEST 7 (zadatak 2., testiranje da li se korisnicki kod izvrsava u korisnic
 187              		.loc 1 100 13 is_stmt 1
 100:test/userMain.cpp ****             printString("TEST 7 (zadatak 2., testiranje da li se korisnicki kod izvrsava u korisnic
 188              		.loc 1 100 24 is_stmt 0
 189 0114 17050000 		lla	a0,.LC8
 189      13050500 
 190 011c 97000000 		call	_Z11printStringPKc@plt
 190      E7800000 
 191              	.LVL15:
 102:test/userMain.cpp ****             break;
 192              		.loc 1 102 13 is_stmt 1
 193 0124 6FF01FF5 		j	.L1
 194              	.L2:
GAS LISTING /tmp/ccVpAgfq.s 			page 8


 103:test/userMain.cpp ****         default:
 195              		.loc 1 103 9
 104:test/userMain.cpp ****             printString("Niste uneli odgovarajuci broj za test\n");
 196              		.loc 1 104 13
 104:test/userMain.cpp ****             printString("Niste uneli odgovarajuci broj za test\n");
 197              		.loc 1 104 24 is_stmt 0
 198 0128 17050000 		lla	a0,.LC9
 198      13050500 
 199 0130 97000000 		call	_Z11printStringPKc@plt
 199      E7800000 
 200              	.LVL16:
 201 0138 6FF0DFF3 		j	.L1
 202              		.cfi_endproc
 203              	.LFE34:
 205              	.Letext0:
 206              		.file 2 "test/../h/../lib/hw.h"
 207              		.file 3 "test/../h/../h/Memoryallocator.hpp"
 208              		.file 4 "test/printing.hpp"
 209              		.file 5 "test/../h/syscall_c.h"
 210              		.file 6 "test/../test/Threads_C_API_test.hpp"
 211              		.file 7 "test/../test/ConsumerProducer_C_API_test.hpp"
 212              		.file 8 "test/../test/ThreadSleep_C_API_test.hpp"
 213              		.file 9 "test/../test/System_Mode_test.hpp"
GAS LISTING /tmp/ccVpAgfq.s 			page 9


DEFINED SYMBOLS
                            *ABS*:0000000000000000 userMain.cpp
     /tmp/ccVpAgfq.s:41     .text:0000000000000000 _Z8userMainv
     /tmp/ccVpAgfq.s:45     .text:0000000000000000 .L0 
     /tmp/ccVpAgfq.s:46     .text:0000000000000000 .L0 
     /tmp/ccVpAgfq.s:47     .text:0000000000000004 .L0 
     /tmp/ccVpAgfq.s:51     .text:0000000000000010 .L0 
     /tmp/ccVpAgfq.s:52     .text:0000000000000010 .L0 
     /tmp/ccVpAgfq.s:53     .text:0000000000000010 .L0 
     /tmp/ccVpAgfq.s:55     .text:0000000000000014 .L0 
     /tmp/ccVpAgfq.s:57     .text:0000000000000014 .L0 
     /tmp/ccVpAgfq.s:58     .text:0000000000000014 .L0 
     /tmp/ccVpAgfq.s:62     .text:0000000000000024 .L0 
     /tmp/ccVpAgfq.s:63     .text:0000000000000024 .L0 
     /tmp/ccVpAgfq.s:66     .text:000000000000002c .L0 
     /tmp/ccVpAgfq.s:69     .text:0000000000000030 .L0 
     /tmp/ccVpAgfq.s:70     .text:0000000000000030 .L0 
     /tmp/ccVpAgfq.s:73     .text:0000000000000038 .L0 
     /tmp/ccVpAgfq.s:74     .text:0000000000000038 .L0 
     /tmp/ccVpAgfq.s:75     .text:0000000000000038 .L0 
     /tmp/ccVpAgfq.s:76     .text:0000000000000038 .L0 
     /tmp/ccVpAgfq.s:99     .text:000000000000005c .L0 
     /tmp/ccVpAgfq.s:100    .text:000000000000005c .L0 
     /tmp/ccVpAgfq.s:101    .text:000000000000005c .L0 
     /tmp/ccVpAgfq.s:104    .text:0000000000000064 .L0 
     /tmp/ccVpAgfq.s:105    .text:0000000000000064 .L0 
     /tmp/ccVpAgfq.s:110    .text:0000000000000074 .L0 
     /tmp/ccVpAgfq.s:111    .text:0000000000000074 .L0 
     /tmp/ccVpAgfq.s:112    .text:0000000000000078 .L0 
     /tmp/ccVpAgfq.s:113    .text:0000000000000078 .L0 
     /tmp/ccVpAgfq.s:115    .text:000000000000007c .L0 
     /tmp/ccVpAgfq.s:116    .text:000000000000007c .L0 
     /tmp/ccVpAgfq.s:118    .text:0000000000000080 .L0 
     /tmp/ccVpAgfq.s:120    .text:0000000000000084 .L0 
     /tmp/ccVpAgfq.s:123    .text:0000000000000088 .L0 
     /tmp/ccVpAgfq.s:125    .text:0000000000000088 .L0 
     /tmp/ccVpAgfq.s:126    .text:0000000000000088 .L0 
     /tmp/ccVpAgfq.s:127    .text:0000000000000088 .L0 
     /tmp/ccVpAgfq.s:131    .text:0000000000000098 .L0 
     /tmp/ccVpAgfq.s:134    .text:000000000000009c .L0 
     /tmp/ccVpAgfq.s:135    .text:000000000000009c .L0 
     /tmp/ccVpAgfq.s:136    .text:000000000000009c .L0 
     /tmp/ccVpAgfq.s:139    .text:00000000000000a4 .L0 
     /tmp/ccVpAgfq.s:140    .text:00000000000000a4 .L0 
     /tmp/ccVpAgfq.s:144    .text:00000000000000b4 .L0 
     /tmp/ccVpAgfq.s:147    .text:00000000000000b8 .L0 
     /tmp/ccVpAgfq.s:148    .text:00000000000000b8 .L0 
     /tmp/ccVpAgfq.s:149    .text:00000000000000b8 .L0 
     /tmp/ccVpAgfq.s:153    .text:00000000000000c8 .L0 
     /tmp/ccVpAgfq.s:156    .text:00000000000000cc .L0 
     /tmp/ccVpAgfq.s:157    .text:00000000000000cc .L0 
     /tmp/ccVpAgfq.s:158    .text:00000000000000cc .L0 
     /tmp/ccVpAgfq.s:161    .text:00000000000000d4 .L0 
     /tmp/ccVpAgfq.s:162    .text:00000000000000d4 .L0 
     /tmp/ccVpAgfq.s:166    .text:00000000000000e4 .L0 
     /tmp/ccVpAgfq.s:169    .text:00000000000000e8 .L0 
     /tmp/ccVpAgfq.s:170    .text:00000000000000e8 .L0 
GAS LISTING /tmp/ccVpAgfq.s 			page 10


     /tmp/ccVpAgfq.s:171    .text:00000000000000e8 .L0 
     /tmp/ccVpAgfq.s:175    .text:00000000000000f8 .L0 
     /tmp/ccVpAgfq.s:178    .text:00000000000000fc .L0 
     /tmp/ccVpAgfq.s:179    .text:00000000000000fc .L0 
     /tmp/ccVpAgfq.s:180    .text:00000000000000fc .L0 
     /tmp/ccVpAgfq.s:183    .text:0000000000000104 .L0 
     /tmp/ccVpAgfq.s:184    .text:0000000000000104 .L0 
     /tmp/ccVpAgfq.s:188    .text:0000000000000114 .L0 
     /tmp/ccVpAgfq.s:189    .text:0000000000000114 .L0 
     /tmp/ccVpAgfq.s:193    .text:0000000000000124 .L0 
     /tmp/ccVpAgfq.s:196    .text:0000000000000128 .L0 
     /tmp/ccVpAgfq.s:197    .text:0000000000000128 .L0 
     /tmp/ccVpAgfq.s:198    .text:0000000000000128 .L0 
     /tmp/ccVpAgfq.s:202    .text:000000000000013c .L0 
     /tmp/ccVpAgfq.s:214    .text:000000000000013c .L0 
     /tmp/ccVpAgfq.s:8      .rodata.str1.8:0000000000000000 .LC0
     /tmp/ccVpAgfq.s:58     .text:0000000000000014 .L0 
     /tmp/ccVpAgfq.s:87     .rodata:0000000000000000 .L4
     /tmp/ccVpAgfq.s:79     .text:0000000000000044 .L0 
     /tmp/ccVpAgfq.s:11     .rodata.str1.8:0000000000000020 .LC1
     /tmp/ccVpAgfq.s:105    .text:0000000000000064 .L0 
     /tmp/ccVpAgfq.s:14     .rodata.str1.8:0000000000000060 .LC2
     /tmp/ccVpAgfq.s:127    .text:0000000000000088 .L0 
     /tmp/ccVpAgfq.s:17     .rodata.str1.8:00000000000000a0 .LC3
     /tmp/ccVpAgfq.s:140    .text:00000000000000a4 .L0 
     /tmp/ccVpAgfq.s:20     .rodata.str1.8:00000000000000f0 .LC4
     /tmp/ccVpAgfq.s:149    .text:00000000000000b8 .L0 
     /tmp/ccVpAgfq.s:23     .rodata.str1.8:0000000000000148 .LC5
     /tmp/ccVpAgfq.s:162    .text:00000000000000d4 .L0 
     /tmp/ccVpAgfq.s:26     .rodata.str1.8:0000000000000178 .LC6
     /tmp/ccVpAgfq.s:171    .text:00000000000000e8 .L0 
     /tmp/ccVpAgfq.s:29     .rodata.str1.8:00000000000001b8 .LC7
     /tmp/ccVpAgfq.s:184    .text:0000000000000104 .L0 
     /tmp/ccVpAgfq.s:32     .rodata.str1.8:00000000000001d8 .LC8
     /tmp/ccVpAgfq.s:189    .text:0000000000000114 .L0 
     /tmp/ccVpAgfq.s:35     .rodata.str1.8:0000000000000230 .LC9
     /tmp/ccVpAgfq.s:198    .text:0000000000000128 .L0 
     /tmp/ccVpAgfq.s:194    .text:0000000000000128 .L2
     /tmp/ccVpAgfq.s:109    .text:0000000000000074 .L1
     /tmp/ccVpAgfq.s:97     .text:000000000000005c .L10
     /tmp/ccVpAgfq.s:122    .text:0000000000000088 .L9
     /tmp/ccVpAgfq.s:132    .text:000000000000009c .L8
     /tmp/ccVpAgfq.s:145    .text:00000000000000b8 .L7
     /tmp/ccVpAgfq.s:154    .text:00000000000000cc .L6
     /tmp/ccVpAgfq.s:167    .text:00000000000000e8 .L5
     /tmp/ccVpAgfq.s:176    .text:00000000000000fc .L3
     /tmp/ccVpAgfq.s:544    .debug_abbrev:0000000000000000 .Ldebug_abbrev0
     /tmp/ccVpAgfq.s:868    .debug_str:0000000000000155 .LASF32
     /tmp/ccVpAgfq.s:834    .debug_str:0000000000000055 .LASF33
     /tmp/ccVpAgfq.s:878    .debug_str:0000000000000269 .LASF34
     /tmp/ccVpAgfq.s:5      .text:0000000000000000 .Ltext0
     /tmp/ccVpAgfq.s:205    .text:000000000000013c .Letext0
     /tmp/ccVpAgfq.s:818    .debug_line:0000000000000000 .Ldebug_line0
     /tmp/ccVpAgfq.s:862    .debug_str:0000000000000122 .LASF0
     /tmp/ccVpAgfq.s:848    .debug_str:00000000000000c4 .LASF1
     /tmp/ccVpAgfq.s:854    .debug_str:00000000000000ef .LASF2
     /tmp/ccVpAgfq.s:830    .debug_str:0000000000000049 .LASF4
GAS LISTING /tmp/ccVpAgfq.s 			page 11


     /tmp/ccVpAgfq.s:846    .debug_str:00000000000000b2 .LASF3
     /tmp/ccVpAgfq.s:822    .debug_str:000000000000000e .LASF5
     /tmp/ccVpAgfq.s:886    .debug_str:00000000000002ad .LASF6
     /tmp/ccVpAgfq.s:836    .debug_str:0000000000000067 .LASF7
     /tmp/ccVpAgfq.s:864    .debug_str:000000000000012f .LASF8
     /tmp/ccVpAgfq.s:820    .debug_str:0000000000000000 .LASF9
     /tmp/ccVpAgfq.s:892    .debug_str:00000000000002e9 .LASF10
     /tmp/ccVpAgfq.s:838    .debug_str:000000000000007a .LASF11
     /tmp/ccVpAgfq.s:882    .debug_str:0000000000000294 .LASF12
     /tmp/ccVpAgfq.s:872    .debug_str:000000000000022f .LASF13
     /tmp/ccVpAgfq.s:850    .debug_str:00000000000000d7 .LASF14
     /tmp/ccVpAgfq.s:828    .debug_str:0000000000000033 .LASF15
     /tmp/ccVpAgfq.s:866    .debug_str:000000000000013f .LASF16
     /tmp/ccVpAgfq.s:824    .debug_str:0000000000000015 .LASF17
     /tmp/ccVpAgfq.s:832    .debug_str:0000000000000050 .LASF18
     /tmp/ccVpAgfq.s:858    .debug_str:0000000000000114 .LASF35
     /tmp/ccVpAgfq.s:888    .debug_str:00000000000002c0 .LASF36
     /tmp/ccVpAgfq.s:42     .text:0000000000000000 .LFB34
     /tmp/ccVpAgfq.s:203    .text:000000000000013c .LFE34
     /tmp/ccVpAgfq.s:860    .debug_str:000000000000011d .LASF19
     /tmp/ccVpAgfq.s:796    .debug_loc:0000000000000000 .LLST0
     /tmp/ccVpAgfq.s:60     .text:0000000000000024 .LVL0
     /tmp/ccVpAgfq.s:64     .text:000000000000002c .LVL1
     /tmp/ccVpAgfq.s:71     .text:0000000000000038 .LVL3
     /tmp/ccVpAgfq.s:102    .text:0000000000000064 .LVL4
     /tmp/ccVpAgfq.s:107    .text:0000000000000074 .LVL5
     /tmp/ccVpAgfq.s:129    .text:0000000000000098 .LVL6
     /tmp/ccVpAgfq.s:137    .text:00000000000000a4 .LVL7
     /tmp/ccVpAgfq.s:142    .text:00000000000000b4 .LVL8
     /tmp/ccVpAgfq.s:151    .text:00000000000000c8 .LVL9
     /tmp/ccVpAgfq.s:159    .text:00000000000000d4 .LVL10
     /tmp/ccVpAgfq.s:164    .text:00000000000000e4 .LVL11
     /tmp/ccVpAgfq.s:173    .text:00000000000000f8 .LVL12
     /tmp/ccVpAgfq.s:181    .text:0000000000000104 .LVL13
     /tmp/ccVpAgfq.s:186    .text:0000000000000114 .LVL14
     /tmp/ccVpAgfq.s:191    .text:0000000000000124 .LVL15
     /tmp/ccVpAgfq.s:200    .text:0000000000000138 .LVL16
     /tmp/ccVpAgfq.s:840    .debug_str:0000000000000089 .LASF20
     /tmp/ccVpAgfq.s:852    .debug_str:00000000000000e3 .LASF22
     /tmp/ccVpAgfq.s:884    .debug_str:00000000000002a4 .LASF21
     /tmp/ccVpAgfq.s:844    .debug_str:00000000000000ad .LASF23
     /tmp/ccVpAgfq.s:874    .debug_str:000000000000023f .LASF24
     /tmp/ccVpAgfq.s:826    .debug_str:0000000000000020 .LASF25
     /tmp/ccVpAgfq.s:890    .debug_str:00000000000002cd .LASF26
     /tmp/ccVpAgfq.s:856    .debug_str:00000000000000fd .LASF27
     /tmp/ccVpAgfq.s:876    .debug_str:0000000000000257 .LASF28
     /tmp/ccVpAgfq.s:880    .debug_str:0000000000000287 .LASF29
     /tmp/ccVpAgfq.s:870    .debug_str:0000000000000219 .LASF30
     /tmp/ccVpAgfq.s:842    .debug_str:000000000000009c .LASF31
     /tmp/ccVpAgfq.s:67     .text:0000000000000030 .LVL2
     /tmp/ccVpAgfq.s:215    .debug_info:0000000000000000 .Ldebug_info0

UNDEFINED SYMBOLS
_Z11printStringPKc
_Z4getcv
_Z18Threads_C_API_testv
_Z22producerConsumer_C_APIv
GAS LISTING /tmp/ccVpAgfq.s 			page 12


_Z12testSleepingv
_Z16System_Mode_testv
